ARM GAS  /var/folders/lt/l_qrc8c54t93n_phsj7cf5tc0000gn/T//ccg72gDc.s 			page 1


   1              		.cpu cortex-m4
   2              		.eabi_attribute 27, 1
   3              		.eabi_attribute 28, 1
   4              		.eabi_attribute 20, 1
   5              		.eabi_attribute 21, 1
   6              		.eabi_attribute 23, 3
   7              		.eabi_attribute 24, 1
   8              		.eabi_attribute 25, 1
   9              		.eabi_attribute 26, 1
  10              		.eabi_attribute 30, 1
  11              		.eabi_attribute 34, 1
  12              		.eabi_attribute 18, 4
  13              		.file	"app_ble.c"
  14              		.text
  15              	.Ltext0:
  16              		.cfi_sections	.debug_frame
  17              		.section	.text.Switch_OFF_GPIO,"ax",%progbits
  18              		.align	1
  19              		.arch armv7e-m
  20              		.syntax unified
  21              		.thumb
  22              		.thumb_func
  23              		.fpu fpv4-sp-d16
  25              	Switch_OFF_GPIO:
  26              	.LFB1274:
  27              		.file 1 "STM32_WPAN/App/app_ble.c"
   1:STM32_WPAN/App/app_ble.c **** /* USER CODE BEGIN Header */
   2:STM32_WPAN/App/app_ble.c **** /**
   3:STM32_WPAN/App/app_ble.c ****   ******************************************************************************
   4:STM32_WPAN/App/app_ble.c ****   * @file    app_ble.c
   5:STM32_WPAN/App/app_ble.c ****   * @author  MCD Application Team
   6:STM32_WPAN/App/app_ble.c ****   * @brief   BLE Application
   7:STM32_WPAN/App/app_ble.c ****   ******************************************************************************
   8:STM32_WPAN/App/app_ble.c ****   * @attention
   9:STM32_WPAN/App/app_ble.c ****   *
  10:STM32_WPAN/App/app_ble.c ****   * Copyright (c) 2019-2021 STMicroelectronics.
  11:STM32_WPAN/App/app_ble.c ****   * All rights reserved.
  12:STM32_WPAN/App/app_ble.c ****   *
  13:STM32_WPAN/App/app_ble.c ****   * This software is licensed under terms that can be found in the LICENSE file
  14:STM32_WPAN/App/app_ble.c ****   * in the root directory of this software component.
  15:STM32_WPAN/App/app_ble.c ****   * If no LICENSE file comes with this software, it is provided AS-IS.
  16:STM32_WPAN/App/app_ble.c ****   *
  17:STM32_WPAN/App/app_ble.c ****   ******************************************************************************
  18:STM32_WPAN/App/app_ble.c ****   */
  19:STM32_WPAN/App/app_ble.c **** /* USER CODE END Header */
  20:STM32_WPAN/App/app_ble.c **** 
  21:STM32_WPAN/App/app_ble.c **** /* Includes ------------------------------------------------------------------*/
  22:STM32_WPAN/App/app_ble.c **** #include "main.h"
  23:STM32_WPAN/App/app_ble.c **** 
  24:STM32_WPAN/App/app_ble.c **** #include "app_common.h"
  25:STM32_WPAN/App/app_ble.c **** 
  26:STM32_WPAN/App/app_ble.c **** #include "dbg_trace.h"
  27:STM32_WPAN/App/app_ble.c **** #include "ble.h"
  28:STM32_WPAN/App/app_ble.c **** #include "tl.h"
  29:STM32_WPAN/App/app_ble.c **** #include "app_ble.h"
  30:STM32_WPAN/App/app_ble.c **** 
  31:STM32_WPAN/App/app_ble.c **** #include "stm32_seq.h"
ARM GAS  /var/folders/lt/l_qrc8c54t93n_phsj7cf5tc0000gn/T//ccg72gDc.s 			page 2


  32:STM32_WPAN/App/app_ble.c **** #include "shci.h"
  33:STM32_WPAN/App/app_ble.c **** #include "stm32_lpm.h"
  34:STM32_WPAN/App/app_ble.c **** #include "otp.h"
  35:STM32_WPAN/App/app_ble.c **** #include "p2p_server_app.h"
  36:STM32_WPAN/App/app_ble.c **** 
  37:STM32_WPAN/App/app_ble.c **** /* Private includes ----------------------------------------------------------*/
  38:STM32_WPAN/App/app_ble.c **** /* USER CODE BEGIN Includes */
  39:STM32_WPAN/App/app_ble.c **** 
  40:STM32_WPAN/App/app_ble.c **** /* USER CODE END Includes */
  41:STM32_WPAN/App/app_ble.c **** 
  42:STM32_WPAN/App/app_ble.c **** /* Private typedef -----------------------------------------------------------*/
  43:STM32_WPAN/App/app_ble.c **** 
  44:STM32_WPAN/App/app_ble.c **** /**
  45:STM32_WPAN/App/app_ble.c ****  * security parameters structure
  46:STM32_WPAN/App/app_ble.c ****  */
  47:STM32_WPAN/App/app_ble.c **** typedef struct _tSecurityParams
  48:STM32_WPAN/App/app_ble.c **** {
  49:STM32_WPAN/App/app_ble.c ****   /**
  50:STM32_WPAN/App/app_ble.c ****    * IO capability of the device
  51:STM32_WPAN/App/app_ble.c ****    */
  52:STM32_WPAN/App/app_ble.c ****   uint8_t ioCapability;
  53:STM32_WPAN/App/app_ble.c **** 
  54:STM32_WPAN/App/app_ble.c ****   /**
  55:STM32_WPAN/App/app_ble.c ****    * Authentication requirement of the device
  56:STM32_WPAN/App/app_ble.c ****    * Man In the Middle protection required?
  57:STM32_WPAN/App/app_ble.c ****    */
  58:STM32_WPAN/App/app_ble.c ****   uint8_t mitm_mode;
  59:STM32_WPAN/App/app_ble.c **** 
  60:STM32_WPAN/App/app_ble.c ****   /**
  61:STM32_WPAN/App/app_ble.c ****    * bonding mode of the device
  62:STM32_WPAN/App/app_ble.c ****    */
  63:STM32_WPAN/App/app_ble.c ****   uint8_t bonding_mode;
  64:STM32_WPAN/App/app_ble.c **** 
  65:STM32_WPAN/App/app_ble.c ****   /**
  66:STM32_WPAN/App/app_ble.c ****    * this variable indicates whether to use a fixed pin
  67:STM32_WPAN/App/app_ble.c ****    * during the pairing process or a passkey has to be
  68:STM32_WPAN/App/app_ble.c ****    * requested to the application during the pairing process
  69:STM32_WPAN/App/app_ble.c ****    * 0 implies use fixed pin and 1 implies request for passkey
  70:STM32_WPAN/App/app_ble.c ****    */
  71:STM32_WPAN/App/app_ble.c ****   uint8_t Use_Fixed_Pin;
  72:STM32_WPAN/App/app_ble.c **** 
  73:STM32_WPAN/App/app_ble.c ****   /**
  74:STM32_WPAN/App/app_ble.c ****    * minimum encryption key size requirement
  75:STM32_WPAN/App/app_ble.c ****    */
  76:STM32_WPAN/App/app_ble.c ****   uint8_t encryptionKeySizeMin;
  77:STM32_WPAN/App/app_ble.c **** 
  78:STM32_WPAN/App/app_ble.c ****   /**
  79:STM32_WPAN/App/app_ble.c ****    * maximum encryption key size requirement
  80:STM32_WPAN/App/app_ble.c ****    */
  81:STM32_WPAN/App/app_ble.c ****   uint8_t encryptionKeySizeMax;
  82:STM32_WPAN/App/app_ble.c **** 
  83:STM32_WPAN/App/app_ble.c ****   /**
  84:STM32_WPAN/App/app_ble.c ****    * fixed pin to be used in the pairing process if
  85:STM32_WPAN/App/app_ble.c ****    * Use_Fixed_Pin is set to 1
  86:STM32_WPAN/App/app_ble.c ****    */
  87:STM32_WPAN/App/app_ble.c ****   uint32_t Fixed_Pin;
  88:STM32_WPAN/App/app_ble.c **** 
ARM GAS  /var/folders/lt/l_qrc8c54t93n_phsj7cf5tc0000gn/T//ccg72gDc.s 			page 3


  89:STM32_WPAN/App/app_ble.c ****   /**
  90:STM32_WPAN/App/app_ble.c ****    * this flag indicates whether the host has to initiate
  91:STM32_WPAN/App/app_ble.c ****    * the security, wait for pairing or does not have any security
  92:STM32_WPAN/App/app_ble.c ****    * requirements.\n
  93:STM32_WPAN/App/app_ble.c ****    * 0x00 : no security required
  94:STM32_WPAN/App/app_ble.c ****    * 0x01 : host should initiate security by sending the slave security
  95:STM32_WPAN/App/app_ble.c ****    *        request command
  96:STM32_WPAN/App/app_ble.c ****    * 0x02 : host need not send the clave security request but it
  97:STM32_WPAN/App/app_ble.c ****    * has to wait for paiirng to complete before doing any other
  98:STM32_WPAN/App/app_ble.c ****    * processing
  99:STM32_WPAN/App/app_ble.c ****    */
 100:STM32_WPAN/App/app_ble.c ****   uint8_t initiateSecurity;
 101:STM32_WPAN/App/app_ble.c **** }tSecurityParams;
 102:STM32_WPAN/App/app_ble.c **** 
 103:STM32_WPAN/App/app_ble.c **** /**
 104:STM32_WPAN/App/app_ble.c ****  * global context
 105:STM32_WPAN/App/app_ble.c ****  * contains the variables common to all
 106:STM32_WPAN/App/app_ble.c ****  * services
 107:STM32_WPAN/App/app_ble.c ****  */
 108:STM32_WPAN/App/app_ble.c **** typedef struct _tBLEProfileGlobalContext
 109:STM32_WPAN/App/app_ble.c **** {
 110:STM32_WPAN/App/app_ble.c **** 
 111:STM32_WPAN/App/app_ble.c ****   /**
 112:STM32_WPAN/App/app_ble.c ****    * security requirements of the host
 113:STM32_WPAN/App/app_ble.c ****    */
 114:STM32_WPAN/App/app_ble.c ****   tSecurityParams bleSecurityParam;
 115:STM32_WPAN/App/app_ble.c **** 
 116:STM32_WPAN/App/app_ble.c ****   /**
 117:STM32_WPAN/App/app_ble.c ****    * gap service handle
 118:STM32_WPAN/App/app_ble.c ****    */
 119:STM32_WPAN/App/app_ble.c ****   uint16_t gapServiceHandle;
 120:STM32_WPAN/App/app_ble.c **** 
 121:STM32_WPAN/App/app_ble.c ****   /**
 122:STM32_WPAN/App/app_ble.c ****    * device name characteristic handle
 123:STM32_WPAN/App/app_ble.c ****    */
 124:STM32_WPAN/App/app_ble.c ****   uint16_t devNameCharHandle;
 125:STM32_WPAN/App/app_ble.c **** 
 126:STM32_WPAN/App/app_ble.c ****   /**
 127:STM32_WPAN/App/app_ble.c ****    * appearance characteristic handle
 128:STM32_WPAN/App/app_ble.c ****    */
 129:STM32_WPAN/App/app_ble.c ****   uint16_t appearanceCharHandle;
 130:STM32_WPAN/App/app_ble.c **** 
 131:STM32_WPAN/App/app_ble.c ****   /**
 132:STM32_WPAN/App/app_ble.c ****    * connection handle of the current active connection
 133:STM32_WPAN/App/app_ble.c ****    * When not in connection, the handle is set to 0xFFFF
 134:STM32_WPAN/App/app_ble.c ****    */
 135:STM32_WPAN/App/app_ble.c ****   uint16_t connectionHandle;
 136:STM32_WPAN/App/app_ble.c **** 
 137:STM32_WPAN/App/app_ble.c ****   /**
 138:STM32_WPAN/App/app_ble.c ****    * length of the UUID list to be used while advertising
 139:STM32_WPAN/App/app_ble.c ****    */
 140:STM32_WPAN/App/app_ble.c ****   uint8_t advtServUUIDlen;
 141:STM32_WPAN/App/app_ble.c **** 
 142:STM32_WPAN/App/app_ble.c ****   /**
 143:STM32_WPAN/App/app_ble.c ****    * the UUID list to be used while advertising
 144:STM32_WPAN/App/app_ble.c ****    */
 145:STM32_WPAN/App/app_ble.c ****   uint8_t advtServUUID[100];
ARM GAS  /var/folders/lt/l_qrc8c54t93n_phsj7cf5tc0000gn/T//ccg72gDc.s 			page 4


 146:STM32_WPAN/App/app_ble.c **** 
 147:STM32_WPAN/App/app_ble.c **** }BleGlobalContext_t;
 148:STM32_WPAN/App/app_ble.c **** 
 149:STM32_WPAN/App/app_ble.c **** typedef struct
 150:STM32_WPAN/App/app_ble.c **** {
 151:STM32_WPAN/App/app_ble.c ****   BleGlobalContext_t BleApplicationContext_legacy;
 152:STM32_WPAN/App/app_ble.c ****   APP_BLE_ConnStatus_t Device_Connection_Status;
 153:STM32_WPAN/App/app_ble.c **** 
 154:STM32_WPAN/App/app_ble.c ****   /**
 155:STM32_WPAN/App/app_ble.c ****    * ID of the Advertising Timeout
 156:STM32_WPAN/App/app_ble.c ****    */
 157:STM32_WPAN/App/app_ble.c ****   uint8_t Advertising_mgr_timer_Id;
 158:STM32_WPAN/App/app_ble.c **** 
 159:STM32_WPAN/App/app_ble.c ****   uint8_t SwitchOffGPIO_timer_Id;
 160:STM32_WPAN/App/app_ble.c **** }BleApplicationContext_t;
 161:STM32_WPAN/App/app_ble.c **** /* USER CODE BEGIN PTD */
 162:STM32_WPAN/App/app_ble.c **** 
 163:STM32_WPAN/App/app_ble.c **** #if defined(__GNUC__)
 164:STM32_WPAN/App/app_ble.c **** uint8_t __attribute__((optimize("Os"))) APP_BLE_ComputeCRC8( uint8_t *DataPtr , uint8_t Datalen )
 165:STM32_WPAN/App/app_ble.c **** #else
 166:STM32_WPAN/App/app_ble.c **** uint8_t APP_BLE_ComputeCRC8( uint8_t *DataPtr , uint8_t Datalen )
 167:STM32_WPAN/App/app_ble.c **** #endif
 168:STM32_WPAN/App/app_ble.c **** {
 169:STM32_WPAN/App/app_ble.c ****   uint8_t i, j;
 170:STM32_WPAN/App/app_ble.c ****   const uint8_t PolynomeCRC = 0x97;
 171:STM32_WPAN/App/app_ble.c ****   uint8_t CRC8 = 0x00;
 172:STM32_WPAN/App/app_ble.c **** 
 173:STM32_WPAN/App/app_ble.c ****   for (i = 0; i < Datalen; i++)
 174:STM32_WPAN/App/app_ble.c ****   {
 175:STM32_WPAN/App/app_ble.c ****     CRC8 ^= DataPtr[i];
 176:STM32_WPAN/App/app_ble.c ****     for (j = 0; j < 8; j++)
 177:STM32_WPAN/App/app_ble.c ****     {
 178:STM32_WPAN/App/app_ble.c ****       if ((CRC8 & 0x80) != 0)
 179:STM32_WPAN/App/app_ble.c ****       {
 180:STM32_WPAN/App/app_ble.c ****         CRC8 = (uint8_t) ((CRC8 << 1) ^ PolynomeCRC);
 181:STM32_WPAN/App/app_ble.c ****       }
 182:STM32_WPAN/App/app_ble.c ****       else
 183:STM32_WPAN/App/app_ble.c ****       {
 184:STM32_WPAN/App/app_ble.c ****         CRC8 <<= 1;
 185:STM32_WPAN/App/app_ble.c ****       }
 186:STM32_WPAN/App/app_ble.c ****     }
 187:STM32_WPAN/App/app_ble.c ****   }
 188:STM32_WPAN/App/app_ble.c ****   return (CRC8);
 189:STM32_WPAN/App/app_ble.c **** }
 190:STM32_WPAN/App/app_ble.c **** /* USER CODE END PTD */
 191:STM32_WPAN/App/app_ble.c **** 
 192:STM32_WPAN/App/app_ble.c **** /***
 193:STM32_WPAN/App/app_ble.c ****  * Change service name
 194:STM32_WPAN/App/app_ble.c ****  */
 195:STM32_WPAN/App/app_ble.c **** /* Private defines -----------------------------------------------------------*/
 196:STM32_WPAN/App/app_ble.c **** #define APPBLE_GAP_DEVICE_NAME_LENGTH 4
 197:STM32_WPAN/App/app_ble.c **** #define FAST_ADV_TIMEOUT               (30*1000*1000/CFG_TS_TICK_VAL) /**< 30s */
 198:STM32_WPAN/App/app_ble.c **** #define INITIAL_ADV_TIMEOUT            (60*1000*1000/CFG_TS_TICK_VAL) /**< 60s */
 199:STM32_WPAN/App/app_ble.c **** 
 200:STM32_WPAN/App/app_ble.c **** #define BD_ADDR_SIZE_LOCAL    6
 201:STM32_WPAN/App/app_ble.c **** 
 202:STM32_WPAN/App/app_ble.c **** /* USER CODE BEGIN PD */
ARM GAS  /var/folders/lt/l_qrc8c54t93n_phsj7cf5tc0000gn/T//ccg72gDc.s 			page 5


 203:STM32_WPAN/App/app_ble.c **** #define LED_ON_TIMEOUT                 (0.005*1000*1000/CFG_TS_TICK_VAL) /**< 5ms */
 204:STM32_WPAN/App/app_ble.c **** /* USER CODE END PD */
 205:STM32_WPAN/App/app_ble.c **** 
 206:STM32_WPAN/App/app_ble.c **** /* Private macro -------------------------------------------------------------*/
 207:STM32_WPAN/App/app_ble.c **** /* USER CODE BEGIN PM */
 208:STM32_WPAN/App/app_ble.c **** 
 209:STM32_WPAN/App/app_ble.c **** /* USER CODE END PM */
 210:STM32_WPAN/App/app_ble.c **** 
 211:STM32_WPAN/App/app_ble.c **** /* Private variables ---------------------------------------------------------*/
 212:STM32_WPAN/App/app_ble.c **** PLACE_IN_SECTION("MB_MEM1") ALIGN(4) static TL_CmdPacket_t BleCmdBuffer;
 213:STM32_WPAN/App/app_ble.c **** 
 214:STM32_WPAN/App/app_ble.c **** static const uint8_t M_bd_addr[BD_ADDR_SIZE_LOCAL] =
 215:STM32_WPAN/App/app_ble.c ****     {
 216:STM32_WPAN/App/app_ble.c ****         (uint8_t)((CFG_ADV_BD_ADDRESS & 0x0000000000FF)),
 217:STM32_WPAN/App/app_ble.c ****         (uint8_t)((CFG_ADV_BD_ADDRESS & 0x00000000FF00) >> 8),
 218:STM32_WPAN/App/app_ble.c ****         (uint8_t)((CFG_ADV_BD_ADDRESS & 0x000000FF0000) >> 16),
 219:STM32_WPAN/App/app_ble.c ****         (uint8_t)((CFG_ADV_BD_ADDRESS & 0x0000FF000000) >> 24),
 220:STM32_WPAN/App/app_ble.c ****         (uint8_t)((CFG_ADV_BD_ADDRESS & 0x00FF00000000) >> 32),
 221:STM32_WPAN/App/app_ble.c ****         (uint8_t)((CFG_ADV_BD_ADDRESS & 0xFF0000000000) >> 40)
 222:STM32_WPAN/App/app_ble.c ****     };
 223:STM32_WPAN/App/app_ble.c **** 
 224:STM32_WPAN/App/app_ble.c **** static uint8_t bd_addr_udn[BD_ADDR_SIZE_LOCAL];
 225:STM32_WPAN/App/app_ble.c **** 
 226:STM32_WPAN/App/app_ble.c **** /**
 227:STM32_WPAN/App/app_ble.c **** *   Identity root key used to derive LTK and CSRK
 228:STM32_WPAN/App/app_ble.c **** */
 229:STM32_WPAN/App/app_ble.c **** static const uint8_t BLE_CFG_IR_VALUE[16] = CFG_BLE_IRK;
 230:STM32_WPAN/App/app_ble.c **** 
 231:STM32_WPAN/App/app_ble.c **** /**
 232:STM32_WPAN/App/app_ble.c **** * Encryption root key used to derive LTK and CSRK
 233:STM32_WPAN/App/app_ble.c **** */
 234:STM32_WPAN/App/app_ble.c **** static const uint8_t BLE_CFG_ER_VALUE[16] = CFG_BLE_ERK;
 235:STM32_WPAN/App/app_ble.c **** 
 236:STM32_WPAN/App/app_ble.c **** /**
 237:STM32_WPAN/App/app_ble.c ****  * These are the two tags used to manage a power failure during OTA
 238:STM32_WPAN/App/app_ble.c ****  * The MagicKeywordAdress shall be mapped @0x140 from start of the binary image
 239:STM32_WPAN/App/app_ble.c ****  * The MagicKeywordvalue is checked in the ble_ota application
 240:STM32_WPAN/App/app_ble.c ****  */
 241:STM32_WPAN/App/app_ble.c **** PLACE_IN_SECTION("TAG_OTA_END") const uint32_t MagicKeywordValue = 0x94448A29 ;
 242:STM32_WPAN/App/app_ble.c **** PLACE_IN_SECTION("TAG_OTA_START") const uint32_t MagicKeywordAddress = (uint32_t)&MagicKeywordValue
 243:STM32_WPAN/App/app_ble.c **** 
 244:STM32_WPAN/App/app_ble.c **** PLACE_IN_SECTION("BLE_APP_CONTEXT") static BleApplicationContext_t BleApplicationContext;
 245:STM32_WPAN/App/app_ble.c **** PLACE_IN_SECTION("BLE_APP_CONTEXT") static uint16_t AdvIntervalMin, AdvIntervalMax;
 246:STM32_WPAN/App/app_ble.c **** 
 247:STM32_WPAN/App/app_ble.c **** P2PS_APP_ConnHandle_Not_evt_t handleNotification;
 248:STM32_WPAN/App/app_ble.c **** 
 249:STM32_WPAN/App/app_ble.c **** #if L2CAP_REQUEST_NEW_CONN_PARAM != 0
 250:STM32_WPAN/App/app_ble.c **** #define SIZE_TAB_CONN_INT            2
 251:STM32_WPAN/App/app_ble.c **** float tab_conn_interval[SIZE_TAB_CONN_INT] = {50, 1000} ; /* ms */
 252:STM32_WPAN/App/app_ble.c **** uint8_t index_con_int, mutex;
 253:STM32_WPAN/App/app_ble.c **** #endif
 254:STM32_WPAN/App/app_ble.c **** 
 255:STM32_WPAN/App/app_ble.c **** /**
 256:STM32_WPAN/App/app_ble.c ****  * Advertising Data
 257:STM32_WPAN/App/app_ble.c ****  */
 258:STM32_WPAN/App/app_ble.c **** #if (P2P_SERVER1 != 0)
 259:STM32_WPAN/App/app_ble.c **** static const char local_name[] = { AD_TYPE_COMPLETE_LOCAL_NAME , 'I', 'U', 'L', 'S','_','D', 'E', '
ARM GAS  /var/folders/lt/l_qrc8c54t93n_phsj7cf5tc0000gn/T//ccg72gDc.s 			page 6


 260:STM32_WPAN/App/app_ble.c **** uint8_t manuf_data[14] = {
 261:STM32_WPAN/App/app_ble.c ****     sizeof(manuf_data)-1, AD_TYPE_MANUFACTURER_SPECIFIC_DATA,
 262:STM32_WPAN/App/app_ble.c ****     0x01/*SKD version */,
 263:STM32_WPAN/App/app_ble.c ****     CFG_DEV_ID_P2P_SERVER1 /* STM32WB - P2P Server 1*/,
 264:STM32_WPAN/App/app_ble.c ****     0x00 /* GROUP A Feature  */,
 265:STM32_WPAN/App/app_ble.c ****     0x00 /* GROUP A Feature */,
 266:STM32_WPAN/App/app_ble.c ****     0x00 /* GROUP B Feature */,
 267:STM32_WPAN/App/app_ble.c ****     0x00 /* GROUP B Feature */,
 268:STM32_WPAN/App/app_ble.c ****     0x00, /* BLE MAC start -MSB */
 269:STM32_WPAN/App/app_ble.c ****     0x00,
 270:STM32_WPAN/App/app_ble.c ****     0x00,
 271:STM32_WPAN/App/app_ble.c ****     0x00,
 272:STM32_WPAN/App/app_ble.c ****     0x00,
 273:STM32_WPAN/App/app_ble.c ****     0x00, /* BLE MAC stop */
 274:STM32_WPAN/App/app_ble.c **** };
 275:STM32_WPAN/App/app_ble.c **** #endif
 276:STM32_WPAN/App/app_ble.c **** /**
 277:STM32_WPAN/App/app_ble.c ****  * Advertising Data
 278:STM32_WPAN/App/app_ble.c ****  */
 279:STM32_WPAN/App/app_ble.c **** #if (P2P_SERVER2 != 0)
 280:STM32_WPAN/App/app_ble.c **** static const char local_name[] = { AD_TYPE_COMPLETE_LOCAL_NAME, 'P', '2', 'P', 'S', 'R', 'V', '2'};
 281:STM32_WPAN/App/app_ble.c **** uint8_t manuf_data[14] = {
 282:STM32_WPAN/App/app_ble.c ****     sizeof(manuf_data)-1, AD_TYPE_MANUFACTURER_SPECIFIC_DATA,
 283:STM32_WPAN/App/app_ble.c ****     0x01/*SKD version */,
 284:STM32_WPAN/App/app_ble.c ****     CFG_DEV_ID_P2P_SERVER2 /* STM32WB - P2P Server 2*/,
 285:STM32_WPAN/App/app_ble.c ****     0x00 /* GROUP A Feature  */,
 286:STM32_WPAN/App/app_ble.c ****     0x00 /* GROUP A Feature */,
 287:STM32_WPAN/App/app_ble.c ****     0x00 /* GROUP B Feature */,
 288:STM32_WPAN/App/app_ble.c ****     0x00 /* GROUP B Feature */,
 289:STM32_WPAN/App/app_ble.c ****     0x00, /* BLE MAC start -MSB */
 290:STM32_WPAN/App/app_ble.c ****     0x00,
 291:STM32_WPAN/App/app_ble.c ****     0x00,
 292:STM32_WPAN/App/app_ble.c ****     0x00,
 293:STM32_WPAN/App/app_ble.c ****     0x00,
 294:STM32_WPAN/App/app_ble.c ****     0x00, /* BLE MAC stop */
 295:STM32_WPAN/App/app_ble.c **** };
 296:STM32_WPAN/App/app_ble.c **** 
 297:STM32_WPAN/App/app_ble.c **** #endif
 298:STM32_WPAN/App/app_ble.c **** 
 299:STM32_WPAN/App/app_ble.c **** #if (P2P_SERVER3 != 0)
 300:STM32_WPAN/App/app_ble.c **** static const char local_name[] = { AD_TYPE_COMPLETE_LOCAL_NAME, 'P', '2', 'P', 'S', 'R', 'V', '3'};
 301:STM32_WPAN/App/app_ble.c **** uint8_t manuf_data[14] = {
 302:STM32_WPAN/App/app_ble.c ****     sizeof(manuf_data)-1, AD_TYPE_MANUFACTURER_SPECIFIC_DATA,
 303:STM32_WPAN/App/app_ble.c ****     0x01/*SKD version */,
 304:STM32_WPAN/App/app_ble.c ****     CFG_DEV_ID_P2P_SERVER3 /* STM32WB - P2P Server 3*/,
 305:STM32_WPAN/App/app_ble.c ****     0x00 /* GROUP A Feature  */,
 306:STM32_WPAN/App/app_ble.c ****     0x00 /* GROUP A Feature */,
 307:STM32_WPAN/App/app_ble.c ****     0x00 /* GROUP B Feature */,
 308:STM32_WPAN/App/app_ble.c ****     0x00 /* GROUP B Feature */,
 309:STM32_WPAN/App/app_ble.c ****     0x00, /* BLE MAC start -MSB */
 310:STM32_WPAN/App/app_ble.c ****     0x00,
 311:STM32_WPAN/App/app_ble.c ****     0x00,
 312:STM32_WPAN/App/app_ble.c ****     0x00,
 313:STM32_WPAN/App/app_ble.c ****     0x00,
 314:STM32_WPAN/App/app_ble.c ****     0x00, /* BLE MAC stop */
 315:STM32_WPAN/App/app_ble.c **** };
 316:STM32_WPAN/App/app_ble.c **** #endif
ARM GAS  /var/folders/lt/l_qrc8c54t93n_phsj7cf5tc0000gn/T//ccg72gDc.s 			page 7


 317:STM32_WPAN/App/app_ble.c **** 
 318:STM32_WPAN/App/app_ble.c **** #if (P2P_SERVER4 != 0)
 319:STM32_WPAN/App/app_ble.c **** static const char local_name[] = { AD_TYPE_COMPLETE_LOCAL_NAME, 'P', '2', 'P', 'S', 'R', 'V', '4'};
 320:STM32_WPAN/App/app_ble.c **** uint8_t manuf_data[14] = {
 321:STM32_WPAN/App/app_ble.c ****     sizeof(manuf_data)-1, AD_TYPE_MANUFACTURER_SPECIFIC_DATA,
 322:STM32_WPAN/App/app_ble.c ****     0x01/*SKD version */,
 323:STM32_WPAN/App/app_ble.c ****     CFG_DEV_ID_P2P_SERVER4 /* STM32WB - P2P Server 4*/,
 324:STM32_WPAN/App/app_ble.c ****     0x00 /* GROUP A Feature  */,
 325:STM32_WPAN/App/app_ble.c ****     0x00 /* GROUP A Feature */,
 326:STM32_WPAN/App/app_ble.c ****     0x00 /* GROUP B Feature */,
 327:STM32_WPAN/App/app_ble.c ****     0x00 /* GROUP B Feature */,
 328:STM32_WPAN/App/app_ble.c ****     0x00, /* BLE MAC start -MSB */
 329:STM32_WPAN/App/app_ble.c ****     0x00,
 330:STM32_WPAN/App/app_ble.c ****     0x00,
 331:STM32_WPAN/App/app_ble.c ****     0x00,
 332:STM32_WPAN/App/app_ble.c ****     0x00,
 333:STM32_WPAN/App/app_ble.c ****     0x00, /* BLE MAC stop */
 334:STM32_WPAN/App/app_ble.c **** };
 335:STM32_WPAN/App/app_ble.c **** #endif
 336:STM32_WPAN/App/app_ble.c **** 
 337:STM32_WPAN/App/app_ble.c **** #if (P2P_SERVER5 != 0)
 338:STM32_WPAN/App/app_ble.c **** static const char local_name[] = { AD_TYPE_COMPLETE_LOCAL_NAME, 'P', '2', 'P', 'S', 'R', 'V', '5'};
 339:STM32_WPAN/App/app_ble.c **** uint8_t manuf_data[14] = {
 340:STM32_WPAN/App/app_ble.c ****     sizeof(manuf_data)-1, AD_TYPE_MANUFACTURER_SPECIFIC_DATA,
 341:STM32_WPAN/App/app_ble.c ****     0x01/*SKD version */,
 342:STM32_WPAN/App/app_ble.c ****     CFG_DEV_ID_P2P_SERVER5 /* STM32WB - P2P Server 5*/,
 343:STM32_WPAN/App/app_ble.c ****     0x00 /* GROUP A Feature  */,
 344:STM32_WPAN/App/app_ble.c ****     0x00 /* GROUP A Feature */,
 345:STM32_WPAN/App/app_ble.c ****     0x00 /* GROUP B Feature */,
 346:STM32_WPAN/App/app_ble.c ****     0x00 /* GROUP B Feature */,
 347:STM32_WPAN/App/app_ble.c ****     0x00, /* BLE MAC start -MSB */
 348:STM32_WPAN/App/app_ble.c ****     0x00,
 349:STM32_WPAN/App/app_ble.c ****     0x00,
 350:STM32_WPAN/App/app_ble.c ****     0x00,
 351:STM32_WPAN/App/app_ble.c ****     0x00,
 352:STM32_WPAN/App/app_ble.c ****     0x00, /* BLE MAC stop */
 353:STM32_WPAN/App/app_ble.c **** };
 354:STM32_WPAN/App/app_ble.c **** #endif
 355:STM32_WPAN/App/app_ble.c **** 
 356:STM32_WPAN/App/app_ble.c **** #if (P2P_SERVER6 != 0)
 357:STM32_WPAN/App/app_ble.c **** static const char local_name[] = { AD_TYPE_COMPLETE_LOCAL_NAME, 'P', '2', 'P', 'S', 'R', 'V', '6'};
 358:STM32_WPAN/App/app_ble.c **** uint8_t manuf_data[14] = {
 359:STM32_WPAN/App/app_ble.c ****     sizeof(manuf_data)-1, AD_TYPE_MANUFACTURER_SPECIFIC_DATA,
 360:STM32_WPAN/App/app_ble.c ****     0x01/*SKD version */,
 361:STM32_WPAN/App/app_ble.c ****     CFG_DEV_ID_P2P_SERVER6 /* STM32WB - P2P Server 1*/,
 362:STM32_WPAN/App/app_ble.c ****     0x00 /* GROUP A Feature  */,
 363:STM32_WPAN/App/app_ble.c ****     0x00 /* GROUP A Feature */,
 364:STM32_WPAN/App/app_ble.c ****     0x00 /* GROUP B Feature */,
 365:STM32_WPAN/App/app_ble.c ****     0x00 /* GROUP B Feature */,
 366:STM32_WPAN/App/app_ble.c ****     0x00, /* BLE MAC start -MSB */
 367:STM32_WPAN/App/app_ble.c ****     0x00,
 368:STM32_WPAN/App/app_ble.c ****     0x00,
 369:STM32_WPAN/App/app_ble.c ****     0x00,
 370:STM32_WPAN/App/app_ble.c ****     0x00,
 371:STM32_WPAN/App/app_ble.c ****     0x00, /* BLE MAC stop */
 372:STM32_WPAN/App/app_ble.c **** };
 373:STM32_WPAN/App/app_ble.c **** #endif
ARM GAS  /var/folders/lt/l_qrc8c54t93n_phsj7cf5tc0000gn/T//ccg72gDc.s 			page 8


 374:STM32_WPAN/App/app_ble.c **** 
 375:STM32_WPAN/App/app_ble.c **** /* USER CODE BEGIN PV */
 376:STM32_WPAN/App/app_ble.c **** 
 377:STM32_WPAN/App/app_ble.c **** /* USER CODE END PV */
 378:STM32_WPAN/App/app_ble.c **** 
 379:STM32_WPAN/App/app_ble.c **** /* Private function prototypes -----------------------------------------------*/
 380:STM32_WPAN/App/app_ble.c **** static void BLE_UserEvtRx( void * pPayload );
 381:STM32_WPAN/App/app_ble.c **** static void BLE_StatusNot( HCI_TL_CmdStatus_t status );
 382:STM32_WPAN/App/app_ble.c **** static void Ble_Tl_Init( void );
 383:STM32_WPAN/App/app_ble.c **** static void Ble_Hci_Gap_Gatt_Init(void);
 384:STM32_WPAN/App/app_ble.c **** static const uint8_t* BleGetBdAddress( void );
 385:STM32_WPAN/App/app_ble.c **** static void Adv_Request( APP_BLE_ConnStatus_t New_Status );
 386:STM32_WPAN/App/app_ble.c **** static void Adv_Cancel( void );
 387:STM32_WPAN/App/app_ble.c **** static void Adv_Cancel_Req( void );
 388:STM32_WPAN/App/app_ble.c **** static void Switch_OFF_GPIO( void );
 389:STM32_WPAN/App/app_ble.c **** #if(L2CAP_REQUEST_NEW_CONN_PARAM != 0)
 390:STM32_WPAN/App/app_ble.c **** static void BLE_SVC_L2CAP_Conn_Update(uint16_t Connection_Handle);
 391:STM32_WPAN/App/app_ble.c **** static void Connection_Interval_Update_Req( void );
 392:STM32_WPAN/App/app_ble.c **** #endif
 393:STM32_WPAN/App/app_ble.c **** 
 394:STM32_WPAN/App/app_ble.c **** /* USER CODE BEGIN PFP */
 395:STM32_WPAN/App/app_ble.c **** 
 396:STM32_WPAN/App/app_ble.c **** /* USER CODE END PFP */
 397:STM32_WPAN/App/app_ble.c **** 
 398:STM32_WPAN/App/app_ble.c **** /* External variables --------------------------------------------------------*/
 399:STM32_WPAN/App/app_ble.c **** 
 400:STM32_WPAN/App/app_ble.c **** /* USER CODE BEGIN EV */
 401:STM32_WPAN/App/app_ble.c **** 
 402:STM32_WPAN/App/app_ble.c **** /* USER CODE END EV */
 403:STM32_WPAN/App/app_ble.c **** 
 404:STM32_WPAN/App/app_ble.c **** /* Functions Definition ------------------------------------------------------*/
 405:STM32_WPAN/App/app_ble.c **** void APP_BLE_Init( void )
 406:STM32_WPAN/App/app_ble.c **** {
 407:STM32_WPAN/App/app_ble.c **** /* USER CODE BEGIN APP_BLE_Init_1 */
 408:STM32_WPAN/App/app_ble.c **** 
 409:STM32_WPAN/App/app_ble.c **** /* USER CODE END APP_BLE_Init_1 */
 410:STM32_WPAN/App/app_ble.c ****   SHCI_C2_Ble_Init_Cmd_Packet_t ble_init_cmd_packet =
 411:STM32_WPAN/App/app_ble.c ****   {
 412:STM32_WPAN/App/app_ble.c ****     {{0,0,0}},                          /**< Header unused */
 413:STM32_WPAN/App/app_ble.c ****     {0,                                 /** pBleBufferAddress not used */
 414:STM32_WPAN/App/app_ble.c ****      0,                                 /** BleBufferSize not used */
 415:STM32_WPAN/App/app_ble.c ****      CFG_BLE_NUM_GATT_ATTRIBUTES,
 416:STM32_WPAN/App/app_ble.c ****      CFG_BLE_NUM_GATT_SERVICES,
 417:STM32_WPAN/App/app_ble.c ****      CFG_BLE_ATT_VALUE_ARRAY_SIZE,
 418:STM32_WPAN/App/app_ble.c ****      CFG_BLE_NUM_LINK,
 419:STM32_WPAN/App/app_ble.c ****      CFG_BLE_DATA_LENGTH_EXTENSION,
 420:STM32_WPAN/App/app_ble.c ****      CFG_BLE_PREPARE_WRITE_LIST_SIZE,
 421:STM32_WPAN/App/app_ble.c ****      CFG_BLE_MBLOCK_COUNT,
 422:STM32_WPAN/App/app_ble.c ****      CFG_BLE_MAX_ATT_MTU,
 423:STM32_WPAN/App/app_ble.c ****      CFG_BLE_SLAVE_SCA,
 424:STM32_WPAN/App/app_ble.c ****      CFG_BLE_MASTER_SCA,
 425:STM32_WPAN/App/app_ble.c ****      CFG_BLE_LSE_SOURCE,
 426:STM32_WPAN/App/app_ble.c ****      CFG_BLE_MAX_CONN_EVENT_LENGTH,
 427:STM32_WPAN/App/app_ble.c ****      CFG_BLE_HSE_STARTUP_TIME,
 428:STM32_WPAN/App/app_ble.c ****      CFG_BLE_VITERBI_MODE,
 429:STM32_WPAN/App/app_ble.c ****      CFG_BLE_OPTIONS,
 430:STM32_WPAN/App/app_ble.c ****      0,
ARM GAS  /var/folders/lt/l_qrc8c54t93n_phsj7cf5tc0000gn/T//ccg72gDc.s 			page 9


 431:STM32_WPAN/App/app_ble.c ****      CFG_BLE_MAX_COC_INITIATOR_NBR,
 432:STM32_WPAN/App/app_ble.c ****      CFG_BLE_MIN_TX_POWER,
 433:STM32_WPAN/App/app_ble.c ****      CFG_BLE_MAX_TX_POWER,
 434:STM32_WPAN/App/app_ble.c ****      CFG_BLE_RX_MODEL_CONFIG}
 435:STM32_WPAN/App/app_ble.c ****   };
 436:STM32_WPAN/App/app_ble.c **** 
 437:STM32_WPAN/App/app_ble.c ****   /**
 438:STM32_WPAN/App/app_ble.c ****    * Initialize Ble Transport Layer
 439:STM32_WPAN/App/app_ble.c ****    */
 440:STM32_WPAN/App/app_ble.c ****   Ble_Tl_Init( );
 441:STM32_WPAN/App/app_ble.c **** 
 442:STM32_WPAN/App/app_ble.c ****   /**
 443:STM32_WPAN/App/app_ble.c ****    * Do not allow standby in the application
 444:STM32_WPAN/App/app_ble.c ****    */
 445:STM32_WPAN/App/app_ble.c ****   UTIL_LPM_SetOffMode(1 << CFG_LPM_APP_BLE, UTIL_LPM_DISABLE);
 446:STM32_WPAN/App/app_ble.c **** 
 447:STM32_WPAN/App/app_ble.c ****   /**
 448:STM32_WPAN/App/app_ble.c ****    * Register the hci transport layer to handle BLE User Asynchronous Events
 449:STM32_WPAN/App/app_ble.c ****    */
 450:STM32_WPAN/App/app_ble.c ****   UTIL_SEQ_RegTask( 1<<CFG_TASK_HCI_ASYNCH_EVT_ID, UTIL_SEQ_RFU, hci_user_evt_proc);
 451:STM32_WPAN/App/app_ble.c **** 
 452:STM32_WPAN/App/app_ble.c ****   /**
 453:STM32_WPAN/App/app_ble.c ****    * Starts the BLE Stack on CPU2
 454:STM32_WPAN/App/app_ble.c ****    */
 455:STM32_WPAN/App/app_ble.c ****   if (SHCI_C2_BLE_Init( &ble_init_cmd_packet ) != SHCI_Success)
 456:STM32_WPAN/App/app_ble.c ****   {
 457:STM32_WPAN/App/app_ble.c ****     Error_Handler();
 458:STM32_WPAN/App/app_ble.c ****   }
 459:STM32_WPAN/App/app_ble.c **** 
 460:STM32_WPAN/App/app_ble.c ****   /**
 461:STM32_WPAN/App/app_ble.c ****    * Initialization of HCI & GATT & GAP layer
 462:STM32_WPAN/App/app_ble.c ****    */
 463:STM32_WPAN/App/app_ble.c ****   Ble_Hci_Gap_Gatt_Init();
 464:STM32_WPAN/App/app_ble.c **** 
 465:STM32_WPAN/App/app_ble.c ****   /**
 466:STM32_WPAN/App/app_ble.c ****    * Initialization of the BLE Services
 467:STM32_WPAN/App/app_ble.c ****    */
 468:STM32_WPAN/App/app_ble.c ****   SVCCTL_Init();
 469:STM32_WPAN/App/app_ble.c **** 
 470:STM32_WPAN/App/app_ble.c ****   /**
 471:STM32_WPAN/App/app_ble.c ****    * Initialization of the BLE App Context
 472:STM32_WPAN/App/app_ble.c ****    */
 473:STM32_WPAN/App/app_ble.c ****   BleApplicationContext.Device_Connection_Status = APP_BLE_IDLE;
 474:STM32_WPAN/App/app_ble.c ****   BleApplicationContext.BleApplicationContext_legacy.connectionHandle = 0xFFFF;
 475:STM32_WPAN/App/app_ble.c ****   /**
 476:STM32_WPAN/App/app_ble.c ****    * From here, all initialization are BLE application specific
 477:STM32_WPAN/App/app_ble.c ****    */
 478:STM32_WPAN/App/app_ble.c ****   UTIL_SEQ_RegTask( 1<<CFG_TASK_ADV_CANCEL_ID, UTIL_SEQ_RFU, Adv_Cancel);
 479:STM32_WPAN/App/app_ble.c **** #if (L2CAP_REQUEST_NEW_CONN_PARAM != 0 )
 480:STM32_WPAN/App/app_ble.c ****   UTIL_SEQ_RegTask( 1<<CFG_TASK_CONN_UPDATE_REG_ID, UTIL_SEQ_RFU, Connection_Interval_Update_Req);
 481:STM32_WPAN/App/app_ble.c **** #endif
 482:STM32_WPAN/App/app_ble.c **** 
 483:STM32_WPAN/App/app_ble.c ****   /**
 484:STM32_WPAN/App/app_ble.c ****    * Initialization of ADV - Ad Manufacturer Element - Support OTA Bit Mask
 485:STM32_WPAN/App/app_ble.c ****    */
 486:STM32_WPAN/App/app_ble.c **** #if(BLE_CFG_OTA_REBOOT_CHAR != 0)
 487:STM32_WPAN/App/app_ble.c ****   manuf_data[sizeof(manuf_data)-8] = CFG_FEATURE_OTA_REBOOT;
ARM GAS  /var/folders/lt/l_qrc8c54t93n_phsj7cf5tc0000gn/T//ccg72gDc.s 			page 10


 488:STM32_WPAN/App/app_ble.c **** #endif
 489:STM32_WPAN/App/app_ble.c **** #if(RADIO_ACTIVITY_EVENT != 0)
 490:STM32_WPAN/App/app_ble.c ****   aci_hal_set_radio_activity_mask(0x0006);
 491:STM32_WPAN/App/app_ble.c **** #endif
 492:STM32_WPAN/App/app_ble.c **** 
 493:STM32_WPAN/App/app_ble.c **** #if (L2CAP_REQUEST_NEW_CONN_PARAM != 0 )
 494:STM32_WPAN/App/app_ble.c ****   index_con_int = 0;
 495:STM32_WPAN/App/app_ble.c ****   mutex = 1;
 496:STM32_WPAN/App/app_ble.c **** #endif
 497:STM32_WPAN/App/app_ble.c ****   /**
 498:STM32_WPAN/App/app_ble.c ****    * Initialize P2P Server Application
 499:STM32_WPAN/App/app_ble.c ****    */
 500:STM32_WPAN/App/app_ble.c ****   P2PS_APP_Init();
 501:STM32_WPAN/App/app_ble.c **** 
 502:STM32_WPAN/App/app_ble.c **** /* USER CODE BEGIN APP_BLE_Init_3 */
 503:STM32_WPAN/App/app_ble.c **** 
 504:STM32_WPAN/App/app_ble.c **** /* USER CODE END APP_BLE_Init_3 */
 505:STM32_WPAN/App/app_ble.c **** 
 506:STM32_WPAN/App/app_ble.c ****   /**
 507:STM32_WPAN/App/app_ble.c ****    * Create timer to handle the Advertising Stop
 508:STM32_WPAN/App/app_ble.c ****    */
 509:STM32_WPAN/App/app_ble.c ****   HW_TS_Create(CFG_TIM_PROC_ID_ISR, &(BleApplicationContext.Advertising_mgr_timer_Id), hw_ts_Single
 510:STM32_WPAN/App/app_ble.c ****   /**
 511:STM32_WPAN/App/app_ble.c ****    * Create timer to handle the Led Switch OFF
 512:STM32_WPAN/App/app_ble.c ****    */
 513:STM32_WPAN/App/app_ble.c ****   HW_TS_Create(CFG_TIM_PROC_ID_ISR, &(BleApplicationContext.SwitchOffGPIO_timer_Id), hw_ts_SingleSh
 514:STM32_WPAN/App/app_ble.c **** 
 515:STM32_WPAN/App/app_ble.c ****   /**
 516:STM32_WPAN/App/app_ble.c ****    * Make device discoverable
 517:STM32_WPAN/App/app_ble.c ****    */
 518:STM32_WPAN/App/app_ble.c ****   BleApplicationContext.BleApplicationContext_legacy.advtServUUID[0] = NULL;
 519:STM32_WPAN/App/app_ble.c ****   BleApplicationContext.BleApplicationContext_legacy.advtServUUIDlen = 0;
 520:STM32_WPAN/App/app_ble.c **** 
 521:STM32_WPAN/App/app_ble.c ****   /* Initialize intervals for reconnexion without intervals update */
 522:STM32_WPAN/App/app_ble.c ****   AdvIntervalMin = CFG_FAST_CONN_ADV_INTERVAL_MIN;
 523:STM32_WPAN/App/app_ble.c ****   AdvIntervalMax = CFG_FAST_CONN_ADV_INTERVAL_MAX;
 524:STM32_WPAN/App/app_ble.c **** 
 525:STM32_WPAN/App/app_ble.c ****   /**
 526:STM32_WPAN/App/app_ble.c ****    * Start to Advertise to be connected by P2P Client
 527:STM32_WPAN/App/app_ble.c ****    */
 528:STM32_WPAN/App/app_ble.c ****    Adv_Request(APP_BLE_FAST_ADV);
 529:STM32_WPAN/App/app_ble.c **** 
 530:STM32_WPAN/App/app_ble.c **** /* USER CODE BEGIN APP_BLE_Init_2 */
 531:STM32_WPAN/App/app_ble.c **** 
 532:STM32_WPAN/App/app_ble.c **** /* USER CODE END APP_BLE_Init_2 */
 533:STM32_WPAN/App/app_ble.c ****   return;
 534:STM32_WPAN/App/app_ble.c **** }
 535:STM32_WPAN/App/app_ble.c **** 
 536:STM32_WPAN/App/app_ble.c **** SVCCTL_UserEvtFlowStatus_t SVCCTL_App_Notification( void *pckt )
 537:STM32_WPAN/App/app_ble.c **** {
 538:STM32_WPAN/App/app_ble.c ****   hci_event_pckt *event_pckt;
 539:STM32_WPAN/App/app_ble.c ****   evt_le_meta_event *meta_evt;
 540:STM32_WPAN/App/app_ble.c ****   evt_blecore_aci *blecore_evt;
 541:STM32_WPAN/App/app_ble.c ****   hci_le_phy_update_complete_event_rp0 *evt_le_phy_update_complete;
 542:STM32_WPAN/App/app_ble.c ****   uint8_t TX_PHY, RX_PHY;
 543:STM32_WPAN/App/app_ble.c ****   tBleStatus ret = BLE_STATUS_INVALID_PARAMS;
 544:STM32_WPAN/App/app_ble.c **** 
ARM GAS  /var/folders/lt/l_qrc8c54t93n_phsj7cf5tc0000gn/T//ccg72gDc.s 			page 11


 545:STM32_WPAN/App/app_ble.c ****   event_pckt = (hci_event_pckt*) ((hci_uart_pckt *) pckt)->data;
 546:STM32_WPAN/App/app_ble.c **** 
 547:STM32_WPAN/App/app_ble.c ****   /* USER CODE BEGIN SVCCTL_App_Notification */
 548:STM32_WPAN/App/app_ble.c **** 
 549:STM32_WPAN/App/app_ble.c ****   /* USER CODE END SVCCTL_App_Notification */
 550:STM32_WPAN/App/app_ble.c **** 
 551:STM32_WPAN/App/app_ble.c ****   switch (event_pckt->evt)
 552:STM32_WPAN/App/app_ble.c ****   {
 553:STM32_WPAN/App/app_ble.c ****     case HCI_DISCONNECTION_COMPLETE_EVT_CODE:
 554:STM32_WPAN/App/app_ble.c ****     {
 555:STM32_WPAN/App/app_ble.c ****       hci_disconnection_complete_event_rp0 *disconnection_complete_event;
 556:STM32_WPAN/App/app_ble.c ****       disconnection_complete_event = (hci_disconnection_complete_event_rp0 *) event_pckt->data;
 557:STM32_WPAN/App/app_ble.c **** 
 558:STM32_WPAN/App/app_ble.c ****       if (disconnection_complete_event->Connection_Handle == BleApplicationContext.BleApplicationCo
 559:STM32_WPAN/App/app_ble.c ****       {
 560:STM32_WPAN/App/app_ble.c ****         BleApplicationContext.BleApplicationContext_legacy.connectionHandle = 0;
 561:STM32_WPAN/App/app_ble.c ****         BleApplicationContext.Device_Connection_Status = APP_BLE_IDLE;
 562:STM32_WPAN/App/app_ble.c **** 
 563:STM32_WPAN/App/app_ble.c ****         APP_DBG_MSG("\r\n\r** DISCONNECTION EVENT WITH CLIENT \n");
 564:STM32_WPAN/App/app_ble.c ****       }
 565:STM32_WPAN/App/app_ble.c **** 
 566:STM32_WPAN/App/app_ble.c ****       /* restart advertising */
 567:STM32_WPAN/App/app_ble.c ****       Adv_Request(APP_BLE_FAST_ADV);
 568:STM32_WPAN/App/app_ble.c **** 
 569:STM32_WPAN/App/app_ble.c ****       /**
 570:STM32_WPAN/App/app_ble.c ****        * SPECIFIC to P2P Server APP
 571:STM32_WPAN/App/app_ble.c ****        */
 572:STM32_WPAN/App/app_ble.c ****       handleNotification.P2P_Evt_Opcode = PEER_DISCON_HANDLE_EVT;
 573:STM32_WPAN/App/app_ble.c ****       handleNotification.ConnectionHandle = BleApplicationContext.BleApplicationContext_legacy.conn
 574:STM32_WPAN/App/app_ble.c ****       P2PS_APP_Notification(&handleNotification);
 575:STM32_WPAN/App/app_ble.c ****       /* USER CODE BEGIN EVT_DISCONN_COMPLETE */
 576:STM32_WPAN/App/app_ble.c **** 
 577:STM32_WPAN/App/app_ble.c ****       /* USER CODE END EVT_DISCONN_COMPLETE */
 578:STM32_WPAN/App/app_ble.c ****     }
 579:STM32_WPAN/App/app_ble.c **** 
 580:STM32_WPAN/App/app_ble.c ****     break; /* HCI_DISCONNECTION_COMPLETE_EVT_CODE */
 581:STM32_WPAN/App/app_ble.c **** 
 582:STM32_WPAN/App/app_ble.c ****     case HCI_LE_META_EVT_CODE:
 583:STM32_WPAN/App/app_ble.c ****     {
 584:STM32_WPAN/App/app_ble.c ****       meta_evt = (evt_le_meta_event*) event_pckt->data;
 585:STM32_WPAN/App/app_ble.c ****       /* USER CODE BEGIN EVT_LE_META_EVENT */
 586:STM32_WPAN/App/app_ble.c **** 
 587:STM32_WPAN/App/app_ble.c ****       /* USER CODE END EVT_LE_META_EVENT */
 588:STM32_WPAN/App/app_ble.c ****       switch (meta_evt->subevent)
 589:STM32_WPAN/App/app_ble.c ****       {
 590:STM32_WPAN/App/app_ble.c ****         case HCI_LE_CONNECTION_UPDATE_COMPLETE_SUBEVT_CODE:
 591:STM32_WPAN/App/app_ble.c ****           APP_DBG_MSG("\r\n\r** CONNECTION UPDATE EVENT WITH CLIENT \n");
 592:STM32_WPAN/App/app_ble.c **** 
 593:STM32_WPAN/App/app_ble.c ****           /* USER CODE BEGIN EVT_LE_CONN_UPDATE_COMPLETE */
 594:STM32_WPAN/App/app_ble.c **** 
 595:STM32_WPAN/App/app_ble.c ****           /* USER CODE END EVT_LE_CONN_UPDATE_COMPLETE */
 596:STM32_WPAN/App/app_ble.c ****           break;
 597:STM32_WPAN/App/app_ble.c ****         case HCI_LE_PHY_UPDATE_COMPLETE_SUBEVT_CODE:
 598:STM32_WPAN/App/app_ble.c ****           APP_DBG_MSG("EVT_UPDATE_PHY_COMPLETE \n");
 599:STM32_WPAN/App/app_ble.c ****           evt_le_phy_update_complete = (hci_le_phy_update_complete_event_rp0*)meta_evt->data;
 600:STM32_WPAN/App/app_ble.c ****           if (evt_le_phy_update_complete->Status == 0)
 601:STM32_WPAN/App/app_ble.c ****           {
ARM GAS  /var/folders/lt/l_qrc8c54t93n_phsj7cf5tc0000gn/T//ccg72gDc.s 			page 12


 602:STM32_WPAN/App/app_ble.c ****             APP_DBG_MSG("EVT_UPDATE_PHY_COMPLETE, status ok \n");
 603:STM32_WPAN/App/app_ble.c ****           }
 604:STM32_WPAN/App/app_ble.c ****           else
 605:STM32_WPAN/App/app_ble.c ****           {
 606:STM32_WPAN/App/app_ble.c ****             APP_DBG_MSG("EVT_UPDATE_PHY_COMPLETE, status nok \n");
 607:STM32_WPAN/App/app_ble.c ****           }
 608:STM32_WPAN/App/app_ble.c **** 
 609:STM32_WPAN/App/app_ble.c ****           ret = hci_le_read_phy(BleApplicationContext.BleApplicationContext_legacy.connectionHandle
 610:STM32_WPAN/App/app_ble.c ****           if (ret == BLE_STATUS_SUCCESS)
 611:STM32_WPAN/App/app_ble.c ****           {
 612:STM32_WPAN/App/app_ble.c ****             APP_DBG_MSG("Read_PHY success \n");
 613:STM32_WPAN/App/app_ble.c **** 
 614:STM32_WPAN/App/app_ble.c ****             if ((TX_PHY == TX_2M) && (RX_PHY == RX_2M))
 615:STM32_WPAN/App/app_ble.c ****             {
 616:STM32_WPAN/App/app_ble.c ****               APP_DBG_MSG("PHY Param  TX= %d, RX= %d \n", TX_PHY, RX_PHY);
 617:STM32_WPAN/App/app_ble.c ****             }
 618:STM32_WPAN/App/app_ble.c ****             else
 619:STM32_WPAN/App/app_ble.c ****             {
 620:STM32_WPAN/App/app_ble.c ****               APP_DBG_MSG("PHY Param  TX= %d, RX= %d \n", TX_PHY, RX_PHY);
 621:STM32_WPAN/App/app_ble.c ****             }
 622:STM32_WPAN/App/app_ble.c ****           }
 623:STM32_WPAN/App/app_ble.c ****           else
 624:STM32_WPAN/App/app_ble.c ****           {
 625:STM32_WPAN/App/app_ble.c ****             APP_DBG_MSG("Read conf not succeess \n");
 626:STM32_WPAN/App/app_ble.c ****           }
 627:STM32_WPAN/App/app_ble.c ****           /* USER CODE BEGIN EVT_LE_PHY_UPDATE_COMPLETE */
 628:STM32_WPAN/App/app_ble.c **** 
 629:STM32_WPAN/App/app_ble.c ****           /* USER CODE END EVT_LE_PHY_UPDATE_COMPLETE */
 630:STM32_WPAN/App/app_ble.c ****           break;
 631:STM32_WPAN/App/app_ble.c ****         case HCI_LE_CONNECTION_COMPLETE_SUBEVT_CODE:
 632:STM32_WPAN/App/app_ble.c ****         {
 633:STM32_WPAN/App/app_ble.c ****           hci_le_connection_complete_event_rp0 *connection_complete_event;
 634:STM32_WPAN/App/app_ble.c **** 
 635:STM32_WPAN/App/app_ble.c ****           /**
 636:STM32_WPAN/App/app_ble.c ****            * The connection is done, there is no need anymore to schedule the LP ADV
 637:STM32_WPAN/App/app_ble.c ****            */
 638:STM32_WPAN/App/app_ble.c ****           connection_complete_event = (hci_le_connection_complete_event_rp0 *) meta_evt->data;
 639:STM32_WPAN/App/app_ble.c **** 
 640:STM32_WPAN/App/app_ble.c ****           HW_TS_Stop(BleApplicationContext.Advertising_mgr_timer_Id);
 641:STM32_WPAN/App/app_ble.c **** 
 642:STM32_WPAN/App/app_ble.c ****           APP_DBG_MSG("HCI_LE_CONNECTION_COMPLETE_SUBEVT_CODE for connection handle 0x%x\n", connec
 643:STM32_WPAN/App/app_ble.c ****           if (BleApplicationContext.Device_Connection_Status == APP_BLE_LP_CONNECTING)
 644:STM32_WPAN/App/app_ble.c ****           {
 645:STM32_WPAN/App/app_ble.c ****             /* Connection as client */
 646:STM32_WPAN/App/app_ble.c ****             BleApplicationContext.Device_Connection_Status = APP_BLE_CONNECTED_CLIENT;
 647:STM32_WPAN/App/app_ble.c ****           }
 648:STM32_WPAN/App/app_ble.c ****           else
 649:STM32_WPAN/App/app_ble.c ****           {
 650:STM32_WPAN/App/app_ble.c ****             /* Connection as server */
 651:STM32_WPAN/App/app_ble.c ****             BleApplicationContext.Device_Connection_Status = APP_BLE_CONNECTED_SERVER;
 652:STM32_WPAN/App/app_ble.c ****           }
 653:STM32_WPAN/App/app_ble.c ****           BleApplicationContext.BleApplicationContext_legacy.connectionHandle = connection_complete
 654:STM32_WPAN/App/app_ble.c ****           /**
 655:STM32_WPAN/App/app_ble.c ****            * SPECIFIC to P2P Server APP
 656:STM32_WPAN/App/app_ble.c ****            */
 657:STM32_WPAN/App/app_ble.c ****           handleNotification.P2P_Evt_Opcode = PEER_CONN_HANDLE_EVT;
 658:STM32_WPAN/App/app_ble.c ****           handleNotification.ConnectionHandle = BleApplicationContext.BleApplicationContext_legacy.
ARM GAS  /var/folders/lt/l_qrc8c54t93n_phsj7cf5tc0000gn/T//ccg72gDc.s 			page 13


 659:STM32_WPAN/App/app_ble.c ****           P2PS_APP_Notification(&handleNotification);
 660:STM32_WPAN/App/app_ble.c ****           /* USER CODE BEGIN HCI_EVT_LE_CONN_COMPLETE */
 661:STM32_WPAN/App/app_ble.c **** 
 662:STM32_WPAN/App/app_ble.c ****           /* USER CODE END HCI_EVT_LE_CONN_COMPLETE */
 663:STM32_WPAN/App/app_ble.c ****         }
 664:STM32_WPAN/App/app_ble.c ****         break; /* HCI_LE_CONNECTION_COMPLETE_SUBEVT_CODE */
 665:STM32_WPAN/App/app_ble.c **** 
 666:STM32_WPAN/App/app_ble.c ****         /* USER CODE BEGIN META_EVT */
 667:STM32_WPAN/App/app_ble.c **** 
 668:STM32_WPAN/App/app_ble.c ****         /* USER CODE END META_EVT */
 669:STM32_WPAN/App/app_ble.c **** 
 670:STM32_WPAN/App/app_ble.c ****         default:
 671:STM32_WPAN/App/app_ble.c ****           /* USER CODE BEGIN SUBEVENT_DEFAULT */
 672:STM32_WPAN/App/app_ble.c **** 
 673:STM32_WPAN/App/app_ble.c ****           /* USER CODE END SUBEVENT_DEFAULT */
 674:STM32_WPAN/App/app_ble.c ****           break;
 675:STM32_WPAN/App/app_ble.c ****       }
 676:STM32_WPAN/App/app_ble.c ****     }
 677:STM32_WPAN/App/app_ble.c ****     break; /* HCI_LE_META_EVT_CODE */
 678:STM32_WPAN/App/app_ble.c **** 
 679:STM32_WPAN/App/app_ble.c ****     case HCI_VENDOR_SPECIFIC_DEBUG_EVT_CODE:
 680:STM32_WPAN/App/app_ble.c ****       blecore_evt = (evt_blecore_aci*) event_pckt->data;
 681:STM32_WPAN/App/app_ble.c ****       /* USER CODE BEGIN EVT_VENDOR */
 682:STM32_WPAN/App/app_ble.c **** 
 683:STM32_WPAN/App/app_ble.c ****       /* USER CODE END EVT_VENDOR */
 684:STM32_WPAN/App/app_ble.c ****       switch (blecore_evt->ecode)
 685:STM32_WPAN/App/app_ble.c ****       {
 686:STM32_WPAN/App/app_ble.c ****       /* USER CODE BEGIN ecode */
 687:STM32_WPAN/App/app_ble.c ****         aci_gap_pairing_complete_event_rp0 *pairing_complete;
 688:STM32_WPAN/App/app_ble.c **** 
 689:STM32_WPAN/App/app_ble.c ****       case ACI_GAP_LIMITED_DISCOVERABLE_VSEVT_CODE: 
 690:STM32_WPAN/App/app_ble.c ****         APP_DBG_MSG("\r\n\r** ACI_GAP_LIMITED_DISCOVERABLE_VSEVT_CODE \n");
 691:STM32_WPAN/App/app_ble.c ****           break; /* ACI_GAP_LIMITED_DISCOVERABLE_VSEVT_CODE */
 692:STM32_WPAN/App/app_ble.c ****       case ACI_GAP_PASS_KEY_REQ_VSEVT_CODE:  
 693:STM32_WPAN/App/app_ble.c ****         APP_DBG_MSG("\r\n\r** ACI_GAP_PASS_KEY_REQ_VSEVT_CODE \n");
 694:STM32_WPAN/App/app_ble.c **** /*
 695:STM32_WPAN/App/app_ble.c ****         aci_gap_pass_key_resp(BleApplicationContext.BleApplicationContext_legacy.connectionHandle,1
 696:STM32_WPAN/App/app_ble.c **** */
 697:STM32_WPAN/App/app_ble.c ****         APP_DBG_MSG("\r\n\r** aci_gap_pass_key_resp \n");
 698:STM32_WPAN/App/app_ble.c ****           break; /* ACI_GAP_PASS_KEY_REQ_VSEVT_CODE */
 699:STM32_WPAN/App/app_ble.c ****       case ACI_GAP_AUTHORIZATION_REQ_VSEVT_CODE:    
 700:STM32_WPAN/App/app_ble.c ****         APP_DBG_MSG("\r\n\r** ACI_GAP_AUTHORIZATION_REQ_VSEVT_CODE \n");
 701:STM32_WPAN/App/app_ble.c ****           break; /* ACI_GAP_AUTHORIZATION_REQ_VSEVT_CODE */
 702:STM32_WPAN/App/app_ble.c ****       case ACI_GAP_SLAVE_SECURITY_INITIATED_VSEVT_CODE:   
 703:STM32_WPAN/App/app_ble.c ****         APP_DBG_MSG("\r\n\r** ACI_GAP_SLAVE_SECURITY_INITIATED_VSEVT_CODE \n");
 704:STM32_WPAN/App/app_ble.c ****           break; /* ACI_GAP_SLAVE_SECURITY_INITIATED_VSEVT_CODE */
 705:STM32_WPAN/App/app_ble.c ****       case ACI_GAP_BOND_LOST_VSEVT_CODE:    
 706:STM32_WPAN/App/app_ble.c ****         APP_DBG_MSG("\r\n\r** ACI_GAP_BOND_LOST_VSEVT_CODE \n");
 707:STM32_WPAN/App/app_ble.c ****           aci_gap_allow_rebond(BleApplicationContext.BleApplicationContext_legacy.connectionHandle)
 708:STM32_WPAN/App/app_ble.c ****         APP_DBG_MSG("\r\n\r** Send allow rebond \n");
 709:STM32_WPAN/App/app_ble.c ****           break; /* ACI_GAP_BOND_LOST_VSEVT_CODE */
 710:STM32_WPAN/App/app_ble.c **** 
 711:STM32_WPAN/App/app_ble.c ****       case ACI_GAP_ADDR_NOT_RESOLVED_VSEVT_CODE:
 712:STM32_WPAN/App/app_ble.c ****          APP_DBG_MSG("\r\n\r** ACI_GAP_ADDR_NOT_RESOLVED_VSEVT_CODE \n");
 713:STM32_WPAN/App/app_ble.c ****           break; /* ACI_GAP_ADDR_NOT_RESOLVED_VSEVT_CODE */
 714:STM32_WPAN/App/app_ble.c ****       case (ACI_GAP_KEYPRESS_NOTIFICATION_VSEVT_CODE):
 715:STM32_WPAN/App/app_ble.c ****          APP_DBG_MSG("\r\n\r** ACI_GAP_KEYPRESS_NOTIFICATION_VSEVT_CODE\n");
ARM GAS  /var/folders/lt/l_qrc8c54t93n_phsj7cf5tc0000gn/T//ccg72gDc.s 			page 14


 716:STM32_WPAN/App/app_ble.c ****           break; /* ACI_GAP_KEYPRESS_NOTIFICATION_VSEVT_CODE */    
 717:STM32_WPAN/App/app_ble.c ****        case (ACI_GAP_NUMERIC_COMPARISON_VALUE_VSEVT_CODE):
 718:STM32_WPAN/App/app_ble.c ****           APP_DBG_MSG("numeric_value = %ld\n",
 719:STM32_WPAN/App/app_ble.c ****                       ((aci_gap_numeric_comparison_value_event_rp0 *)(blecore_evt->data))->Numeric_
 720:STM32_WPAN/App/app_ble.c ****           APP_DBG_MSG("Hex_value = %lx\n",
 721:STM32_WPAN/App/app_ble.c ****                       ((aci_gap_numeric_comparison_value_event_rp0 *)(blecore_evt->data))->Numeric_
 722:STM32_WPAN/App/app_ble.c ****           aci_gap_numeric_comparison_value_confirm_yesno(BleApplicationContext.BleApplicationContex
 723:STM32_WPAN/App/app_ble.c ****           APP_DBG_MSG("\r\n\r** aci_gap_numeric_comparison_value_confirm_yesno-->YES \n");
 724:STM32_WPAN/App/app_ble.c ****       break;
 725:STM32_WPAN/App/app_ble.c ****           case (ACI_GAP_PAIRING_COMPLETE_VSEVT_CODE):
 726:STM32_WPAN/App/app_ble.c ****           {
 727:STM32_WPAN/App/app_ble.c ****             pairing_complete = (aci_gap_pairing_complete_event_rp0*)blecore_evt->data;
 728:STM32_WPAN/App/app_ble.c ****             APP_DBG_MSG("BLE_CTRL_App_Notification: ACI_GAP_PAIRING_COMPLETE_VSEVT_CODE, pairing_co
 729:STM32_WPAN/App/app_ble.c ****             if (pairing_complete->Status == 0)
 730:STM32_WPAN/App/app_ble.c ****             {
 731:STM32_WPAN/App/app_ble.c ****               APP_DBG_MSG("\r\n\r** Pairing OK \n");
 732:STM32_WPAN/App/app_ble.c ****             }
 733:STM32_WPAN/App/app_ble.c ****             else
 734:STM32_WPAN/App/app_ble.c ****             {
 735:STM32_WPAN/App/app_ble.c ****               APP_DBG_MSG("\r\n\r** Pairing KO \n");
 736:STM32_WPAN/App/app_ble.c ****             }
 737:STM32_WPAN/App/app_ble.c ****           }
 738:STM32_WPAN/App/app_ble.c ****            break;    
 739:STM32_WPAN/App/app_ble.c ****       /* USER CODE END ecode */
 740:STM32_WPAN/App/app_ble.c ****       /**
 741:STM32_WPAN/App/app_ble.c ****        * SPECIFIC to P2P Server APP
 742:STM32_WPAN/App/app_ble.c ****        */
 743:STM32_WPAN/App/app_ble.c ****         case ACI_L2CAP_CONNECTION_UPDATE_RESP_VSEVT_CODE:
 744:STM32_WPAN/App/app_ble.c **** #if (L2CAP_REQUEST_NEW_CONN_PARAM != 0 )
 745:STM32_WPAN/App/app_ble.c ****           mutex = 1;
 746:STM32_WPAN/App/app_ble.c **** #endif
 747:STM32_WPAN/App/app_ble.c ****       /* USER CODE BEGIN EVT_BLUE_L2CAP_CONNECTION_UPDATE_RESP */
 748:STM32_WPAN/App/app_ble.c **** 
 749:STM32_WPAN/App/app_ble.c ****       /* USER CODE END EVT_BLUE_L2CAP_CONNECTION_UPDATE_RESP */
 750:STM32_WPAN/App/app_ble.c ****       break;
 751:STM32_WPAN/App/app_ble.c ****         case ACI_GAP_PROC_COMPLETE_VSEVT_CODE:
 752:STM32_WPAN/App/app_ble.c ****         APP_DBG_MSG("\r\n\r** ACI_GAP_PROC_COMPLETE_VSEVT_CODE \n");
 753:STM32_WPAN/App/app_ble.c ****         /* USER CODE BEGIN EVT_BLUE_GAP_PROCEDURE_COMPLETE */
 754:STM32_WPAN/App/app_ble.c **** 
 755:STM32_WPAN/App/app_ble.c ****         /* USER CODE END EVT_BLUE_GAP_PROCEDURE_COMPLETE */
 756:STM32_WPAN/App/app_ble.c ****           break; /* ACI_GAP_PROC_COMPLETE_VSEVT_CODE */
 757:STM32_WPAN/App/app_ble.c **** #if(RADIO_ACTIVITY_EVENT != 0)
 758:STM32_WPAN/App/app_ble.c ****         case ACI_HAL_END_OF_RADIO_ACTIVITY_VSEVT_CODE:
 759:STM32_WPAN/App/app_ble.c ****         /* USER CODE BEGIN RADIO_ACTIVITY_EVENT*/
 760:STM32_WPAN/App/app_ble.c ****           BSP_LED_On(LED_GREEN);
 761:STM32_WPAN/App/app_ble.c ****           HW_TS_Start(BleApplicationContext.SwitchOffGPIO_timer_Id, (uint32_t)LED_ON_TIMEOUT);
 762:STM32_WPAN/App/app_ble.c ****         /* USER CODE END RADIO_ACTIVITY_EVENT*/
 763:STM32_WPAN/App/app_ble.c ****           break; /* ACI_HAL_END_OF_RADIO_ACTIVITY_VSEVT_CODE */
 764:STM32_WPAN/App/app_ble.c **** #endif
 765:STM32_WPAN/App/app_ble.c **** 
 766:STM32_WPAN/App/app_ble.c ****       /* USER CODE BEGIN BLUE_EVT */
 767:STM32_WPAN/App/app_ble.c **** 
 768:STM32_WPAN/App/app_ble.c ****       /* USER CODE END BLUE_EVT */
 769:STM32_WPAN/App/app_ble.c ****       }
 770:STM32_WPAN/App/app_ble.c ****       break; /* HCI_VENDOR_SPECIFIC_DEBUG_EVT_CODE */
 771:STM32_WPAN/App/app_ble.c **** 
 772:STM32_WPAN/App/app_ble.c ****       /* USER CODE BEGIN EVENT_PCKT */
ARM GAS  /var/folders/lt/l_qrc8c54t93n_phsj7cf5tc0000gn/T//ccg72gDc.s 			page 15


 773:STM32_WPAN/App/app_ble.c **** 
 774:STM32_WPAN/App/app_ble.c ****       /* USER CODE END EVENT_PCKT */
 775:STM32_WPAN/App/app_ble.c **** 
 776:STM32_WPAN/App/app_ble.c ****       default:
 777:STM32_WPAN/App/app_ble.c ****       /* USER CODE BEGIN ECODE_DEFAULT*/
 778:STM32_WPAN/App/app_ble.c **** 
 779:STM32_WPAN/App/app_ble.c ****       /* USER CODE END ECODE_DEFAULT*/
 780:STM32_WPAN/App/app_ble.c ****       break;
 781:STM32_WPAN/App/app_ble.c ****   }
 782:STM32_WPAN/App/app_ble.c **** 
 783:STM32_WPAN/App/app_ble.c ****   return (SVCCTL_UserEvtFlowEnable);
 784:STM32_WPAN/App/app_ble.c **** }
 785:STM32_WPAN/App/app_ble.c **** 
 786:STM32_WPAN/App/app_ble.c **** APP_BLE_ConnStatus_t APP_BLE_Get_Server_Connection_Status(void)
 787:STM32_WPAN/App/app_ble.c **** {
 788:STM32_WPAN/App/app_ble.c ****     return BleApplicationContext.Device_Connection_Status;
 789:STM32_WPAN/App/app_ble.c **** }
 790:STM32_WPAN/App/app_ble.c **** 
 791:STM32_WPAN/App/app_ble.c **** /* USER CODE BEGIN FD*/
 792:STM32_WPAN/App/app_ble.c **** void APP_BLE_Key_Button1_Action(void)
 793:STM32_WPAN/App/app_ble.c **** {
 794:STM32_WPAN/App/app_ble.c ****   P2PS_APP_SW1_Button_Action();
 795:STM32_WPAN/App/app_ble.c **** }
 796:STM32_WPAN/App/app_ble.c **** 
 797:STM32_WPAN/App/app_ble.c **** void APP_BLE_Key_Button2_Action(void)
 798:STM32_WPAN/App/app_ble.c **** {
 799:STM32_WPAN/App/app_ble.c **** #if (L2CAP_REQUEST_NEW_CONN_PARAM != 0 )    
 800:STM32_WPAN/App/app_ble.c ****   UTIL_SEQ_SetTask( 1<<CFG_TASK_CONN_UPDATE_REG_ID, CFG_SCH_PRIO_0);
 801:STM32_WPAN/App/app_ble.c **** #endif
 802:STM32_WPAN/App/app_ble.c ****   
 803:STM32_WPAN/App/app_ble.c ****   return;
 804:STM32_WPAN/App/app_ble.c **** }
 805:STM32_WPAN/App/app_ble.c **** 
 806:STM32_WPAN/App/app_ble.c **** void APP_BLE_Key_Button3_Action(void)
 807:STM32_WPAN/App/app_ble.c **** {
 808:STM32_WPAN/App/app_ble.c **** }
 809:STM32_WPAN/App/app_ble.c **** 
 810:STM32_WPAN/App/app_ble.c **** /* USER CODE END FD*/
 811:STM32_WPAN/App/app_ble.c **** /*************************************************************
 812:STM32_WPAN/App/app_ble.c ****  *
 813:STM32_WPAN/App/app_ble.c ****  * LOCAL FUNCTIONS
 814:STM32_WPAN/App/app_ble.c ****  *
 815:STM32_WPAN/App/app_ble.c ****  *************************************************************/
 816:STM32_WPAN/App/app_ble.c **** static void Ble_Tl_Init( void )
 817:STM32_WPAN/App/app_ble.c **** {
 818:STM32_WPAN/App/app_ble.c ****   HCI_TL_HciInitConf_t Hci_Tl_Init_Conf;
 819:STM32_WPAN/App/app_ble.c **** 
 820:STM32_WPAN/App/app_ble.c ****   Hci_Tl_Init_Conf.p_cmdbuffer = (uint8_t*)&BleCmdBuffer;
 821:STM32_WPAN/App/app_ble.c ****   Hci_Tl_Init_Conf.StatusNotCallBack = BLE_StatusNot;
 822:STM32_WPAN/App/app_ble.c ****   hci_init(BLE_UserEvtRx, (void*) &Hci_Tl_Init_Conf);
 823:STM32_WPAN/App/app_ble.c **** 
 824:STM32_WPAN/App/app_ble.c ****   return;
 825:STM32_WPAN/App/app_ble.c **** }
 826:STM32_WPAN/App/app_ble.c **** 
 827:STM32_WPAN/App/app_ble.c **** static void Ble_Hci_Gap_Gatt_Init(void){
 828:STM32_WPAN/App/app_ble.c **** 
 829:STM32_WPAN/App/app_ble.c ****   uint8_t role;
ARM GAS  /var/folders/lt/l_qrc8c54t93n_phsj7cf5tc0000gn/T//ccg72gDc.s 			page 16


 830:STM32_WPAN/App/app_ble.c ****   uint16_t gap_service_handle, gap_dev_name_char_handle, gap_appearance_char_handle;
 831:STM32_WPAN/App/app_ble.c ****   const uint8_t *bd_addr;
 832:STM32_WPAN/App/app_ble.c ****   uint16_t appearance[1] = { BLE_CFG_GAP_APPEARANCE };
 833:STM32_WPAN/App/app_ble.c **** 
 834:STM32_WPAN/App/app_ble.c ****   /**
 835:STM32_WPAN/App/app_ble.c ****    * Initialize HCI layer
 836:STM32_WPAN/App/app_ble.c ****    */
 837:STM32_WPAN/App/app_ble.c ****   /*HCI Reset to synchronise BLE Stack*/
 838:STM32_WPAN/App/app_ble.c ****   hci_reset();
 839:STM32_WPAN/App/app_ble.c **** 
 840:STM32_WPAN/App/app_ble.c ****   /**
 841:STM32_WPAN/App/app_ble.c ****    * Write the BD Address
 842:STM32_WPAN/App/app_ble.c ****    */
 843:STM32_WPAN/App/app_ble.c **** 
 844:STM32_WPAN/App/app_ble.c ****   bd_addr = BleGetBdAddress();
 845:STM32_WPAN/App/app_ble.c ****   aci_hal_write_config_data(CONFIG_DATA_PUBADDR_OFFSET,
 846:STM32_WPAN/App/app_ble.c ****                             CONFIG_DATA_PUBADDR_LEN,
 847:STM32_WPAN/App/app_ble.c ****                             (uint8_t*) bd_addr);
 848:STM32_WPAN/App/app_ble.c **** 
 849:STM32_WPAN/App/app_ble.c **** #if (CFG_BLE_ADDRESS_TYPE == PUBLIC_ADDR)
 850:STM32_WPAN/App/app_ble.c ****   /* BLE MAC in ADV Packet */
 851:STM32_WPAN/App/app_ble.c ****   manuf_data[ sizeof(manuf_data)-6] = bd_addr[5];
 852:STM32_WPAN/App/app_ble.c ****   manuf_data[ sizeof(manuf_data)-5] = bd_addr[4];
 853:STM32_WPAN/App/app_ble.c ****   manuf_data[ sizeof(manuf_data)-4] = bd_addr[3];
 854:STM32_WPAN/App/app_ble.c ****   manuf_data[ sizeof(manuf_data)-3] = bd_addr[2];
 855:STM32_WPAN/App/app_ble.c ****   manuf_data[ sizeof(manuf_data)-2] = bd_addr[1];
 856:STM32_WPAN/App/app_ble.c ****   manuf_data[ sizeof(manuf_data)-1] = bd_addr[0];
 857:STM32_WPAN/App/app_ble.c **** #endif
 858:STM32_WPAN/App/app_ble.c **** 
 859:STM32_WPAN/App/app_ble.c ****   /**
 860:STM32_WPAN/App/app_ble.c ****    * Static random Address
 861:STM32_WPAN/App/app_ble.c ****    * The two upper bits shall be set to 1
 862:STM32_WPAN/App/app_ble.c ****    * The lowest 32bits is read from the UDN to differentiate between devices
 863:STM32_WPAN/App/app_ble.c ****    * The RNG may be used to provide a random number on each power on
 864:STM32_WPAN/App/app_ble.c ****    */
 865:STM32_WPAN/App/app_ble.c **** #if defined(CFG_STATIC_RANDOM_ADDRESS)
 866:STM32_WPAN/App/app_ble.c ****   srd_bd_addr[0] = CFG_STATIC_RANDOM_ADDRESS & 0xFFFFFFFF;
 867:STM32_WPAN/App/app_ble.c ****   srd_bd_addr[1] = (uint32_t)((uint64_t)CFG_STATIC_RANDOM_ADDRESS >> 32);
 868:STM32_WPAN/App/app_ble.c ****   srd_bd_addr[1] |= 0xC000; /* The two upper bits shall be set to 1 */
 869:STM32_WPAN/App/app_ble.c **** #elif (CFG_BLE_ADDRESS_TYPE == RANDOM_ADDR)
 870:STM32_WPAN/App/app_ble.c ****   /* Get RNG semaphore */
 871:STM32_WPAN/App/app_ble.c ****   while( LL_HSEM_1StepLock( HSEM, CFG_HW_RNG_SEMID ) );
 872:STM32_WPAN/App/app_ble.c **** 
 873:STM32_WPAN/App/app_ble.c ****   /* Enable RNG */
 874:STM32_WPAN/App/app_ble.c ****   __HAL_RNG_ENABLE(&hrng);
 875:STM32_WPAN/App/app_ble.c **** 
 876:STM32_WPAN/App/app_ble.c ****   /* Enable HSI48 oscillator */
 877:STM32_WPAN/App/app_ble.c ****   LL_RCC_HSI48_Enable();
 878:STM32_WPAN/App/app_ble.c ****   /* Wait until HSI48 is ready */
 879:STM32_WPAN/App/app_ble.c ****   while( ! LL_RCC_HSI48_IsReady( ) );
 880:STM32_WPAN/App/app_ble.c **** 
 881:STM32_WPAN/App/app_ble.c ****   if (HAL_RNG_GenerateRandomNumber(&hrng, &srd_bd_addr[1]) != HAL_OK)
 882:STM32_WPAN/App/app_ble.c ****   {
 883:STM32_WPAN/App/app_ble.c ****     /* Random number generation error */
 884:STM32_WPAN/App/app_ble.c ****     Error_Handler();
 885:STM32_WPAN/App/app_ble.c ****   }
 886:STM32_WPAN/App/app_ble.c ****   if (HAL_RNG_GenerateRandomNumber(&hrng, &srd_bd_addr[0]) != HAL_OK)
ARM GAS  /var/folders/lt/l_qrc8c54t93n_phsj7cf5tc0000gn/T//ccg72gDc.s 			page 17


 887:STM32_WPAN/App/app_ble.c ****   {
 888:STM32_WPAN/App/app_ble.c ****     /* Random number generation error */
 889:STM32_WPAN/App/app_ble.c ****     Error_Handler();
 890:STM32_WPAN/App/app_ble.c ****   }
 891:STM32_WPAN/App/app_ble.c ****   srd_bd_addr[1] |= 0xC000; /* The two upper bits shall be set to 1 */
 892:STM32_WPAN/App/app_ble.c **** 
 893:STM32_WPAN/App/app_ble.c ****   /* Disable HSI48 oscillator */
 894:STM32_WPAN/App/app_ble.c ****   LL_RCC_HSI48_Disable();
 895:STM32_WPAN/App/app_ble.c **** 
 896:STM32_WPAN/App/app_ble.c ****   /* Disable RNG */
 897:STM32_WPAN/App/app_ble.c ****   __HAL_RNG_DISABLE(&hrng);
 898:STM32_WPAN/App/app_ble.c **** 
 899:STM32_WPAN/App/app_ble.c ****   /* Release RNG semaphore */
 900:STM32_WPAN/App/app_ble.c ****   LL_HSEM_ReleaseLock( HSEM, CFG_HW_RNG_SEMID, 0 );
 901:STM32_WPAN/App/app_ble.c **** #endif
 902:STM32_WPAN/App/app_ble.c **** 
 903:STM32_WPAN/App/app_ble.c **** #if (CFG_BLE_ADDRESS_TYPE == STATIC_RANDOM_ADDR)
 904:STM32_WPAN/App/app_ble.c ****   /* BLE MAC in ADV Packet */
 905:STM32_WPAN/App/app_ble.c ****   manuf_data[ sizeof(manuf_data)-6] = srd_bd_addr[1] >> 8 ;
 906:STM32_WPAN/App/app_ble.c ****   manuf_data[ sizeof(manuf_data)-5] = srd_bd_addr[1];
 907:STM32_WPAN/App/app_ble.c ****   manuf_data[ sizeof(manuf_data)-4] = srd_bd_addr[0] >> 24;
 908:STM32_WPAN/App/app_ble.c ****   manuf_data[ sizeof(manuf_data)-3] = srd_bd_addr[0] >> 16;
 909:STM32_WPAN/App/app_ble.c ****   manuf_data[ sizeof(manuf_data)-2] = srd_bd_addr[0] >> 8;
 910:STM32_WPAN/App/app_ble.c ****   manuf_data[ sizeof(manuf_data)-1] = srd_bd_addr[0];
 911:STM32_WPAN/App/app_ble.c **** 
 912:STM32_WPAN/App/app_ble.c ****   aci_hal_write_config_data( CONFIG_DATA_RANDOM_ADDRESS_OFFSET, CONFIG_DATA_RANDOM_ADDRESS_LEN, (ui
 913:STM32_WPAN/App/app_ble.c **** #endif
 914:STM32_WPAN/App/app_ble.c **** 
 915:STM32_WPAN/App/app_ble.c ****   /**
 916:STM32_WPAN/App/app_ble.c ****    * Write Identity root key used to derive LTK and CSRK
 917:STM32_WPAN/App/app_ble.c ****    */
 918:STM32_WPAN/App/app_ble.c ****   aci_hal_write_config_data( CONFIG_DATA_IR_OFFSET, CONFIG_DATA_IR_LEN, (uint8_t*)BLE_CFG_IR_VALUE 
 919:STM32_WPAN/App/app_ble.c **** 
 920:STM32_WPAN/App/app_ble.c ****   /**
 921:STM32_WPAN/App/app_ble.c ****    * Write Encryption root key used to derive LTK and CSRK
 922:STM32_WPAN/App/app_ble.c ****    */
 923:STM32_WPAN/App/app_ble.c ****   aci_hal_write_config_data( CONFIG_DATA_ER_OFFSET, CONFIG_DATA_ER_LEN, (uint8_t*)BLE_CFG_ER_VALUE 
 924:STM32_WPAN/App/app_ble.c **** 
 925:STM32_WPAN/App/app_ble.c ****   /**
 926:STM32_WPAN/App/app_ble.c ****    * Set TX Power to 0dBm.
 927:STM32_WPAN/App/app_ble.c ****    */
 928:STM32_WPAN/App/app_ble.c ****   aci_hal_set_tx_power_level(1, CFG_TX_POWER);
 929:STM32_WPAN/App/app_ble.c **** 
 930:STM32_WPAN/App/app_ble.c ****   /**
 931:STM32_WPAN/App/app_ble.c ****    * Initialize GATT interface
 932:STM32_WPAN/App/app_ble.c ****    */
 933:STM32_WPAN/App/app_ble.c ****   aci_gatt_init();
 934:STM32_WPAN/App/app_ble.c **** 
 935:STM32_WPAN/App/app_ble.c ****   /**
 936:STM32_WPAN/App/app_ble.c ****    * Initialize GAP interface
 937:STM32_WPAN/App/app_ble.c ****    */
 938:STM32_WPAN/App/app_ble.c ****   role = 0;
 939:STM32_WPAN/App/app_ble.c **** 
 940:STM32_WPAN/App/app_ble.c **** #if (BLE_CFG_PERIPHERAL == 1)
 941:STM32_WPAN/App/app_ble.c ****   role |= GAP_PERIPHERAL_ROLE;
 942:STM32_WPAN/App/app_ble.c **** #endif
 943:STM32_WPAN/App/app_ble.c **** 
ARM GAS  /var/folders/lt/l_qrc8c54t93n_phsj7cf5tc0000gn/T//ccg72gDc.s 			page 18


 944:STM32_WPAN/App/app_ble.c **** #if (BLE_CFG_CENTRAL == 1)
 945:STM32_WPAN/App/app_ble.c ****   role |= GAP_CENTRAL_ROLE;
 946:STM32_WPAN/App/app_ble.c **** #endif
 947:STM32_WPAN/App/app_ble.c **** 
 948:STM32_WPAN/App/app_ble.c ****   if (role > 0)
 949:STM32_WPAN/App/app_ble.c ****   {
 950:STM32_WPAN/App/app_ble.c ****     const char *name = "IULS";
 951:STM32_WPAN/App/app_ble.c ****     aci_gap_init(role,
 952:STM32_WPAN/App/app_ble.c **** #if ((CFG_BLE_ADDRESS_TYPE == RESOLVABLE_PRIVATE_ADDR) || (CFG_BLE_ADDRESS_TYPE == NON_RESOLVABLE_P
 953:STM32_WPAN/App/app_ble.c ****                  2,
 954:STM32_WPAN/App/app_ble.c **** #else
 955:STM32_WPAN/App/app_ble.c ****                  0,
 956:STM32_WPAN/App/app_ble.c **** #endif
 957:STM32_WPAN/App/app_ble.c ****                  APPBLE_GAP_DEVICE_NAME_LENGTH,
 958:STM32_WPAN/App/app_ble.c ****                  &gap_service_handle,
 959:STM32_WPAN/App/app_ble.c ****                  &gap_dev_name_char_handle,
 960:STM32_WPAN/App/app_ble.c ****                  &gap_appearance_char_handle);
 961:STM32_WPAN/App/app_ble.c **** 
 962:STM32_WPAN/App/app_ble.c ****     if (aci_gatt_update_char_value(gap_service_handle, gap_dev_name_char_handle, 0, strlen(name), (
 963:STM32_WPAN/App/app_ble.c ****     {
 964:STM32_WPAN/App/app_ble.c ****       BLE_DBG_SVCCTL_MSG("Device Name aci_gatt_update_char_value failed.\n");
 965:STM32_WPAN/App/app_ble.c ****     }
 966:STM32_WPAN/App/app_ble.c ****   }
 967:STM32_WPAN/App/app_ble.c **** 
 968:STM32_WPAN/App/app_ble.c ****   if(aci_gatt_update_char_value(gap_service_handle,
 969:STM32_WPAN/App/app_ble.c ****                                 gap_appearance_char_handle,
 970:STM32_WPAN/App/app_ble.c ****                                 0,
 971:STM32_WPAN/App/app_ble.c ****                                 2,
 972:STM32_WPAN/App/app_ble.c ****                                 (uint8_t *)&appearance))
 973:STM32_WPAN/App/app_ble.c ****   {
 974:STM32_WPAN/App/app_ble.c ****     BLE_DBG_SVCCTL_MSG("Appearance aci_gatt_update_char_value failed.\n");
 975:STM32_WPAN/App/app_ble.c ****   }
 976:STM32_WPAN/App/app_ble.c ****   /**
 977:STM32_WPAN/App/app_ble.c ****    * Initialize Default PHY
 978:STM32_WPAN/App/app_ble.c ****    */
 979:STM32_WPAN/App/app_ble.c ****   hci_le_set_default_phy(ALL_PHYS_PREFERENCE,TX_2M_PREFERRED,RX_2M_PREFERRED);
 980:STM32_WPAN/App/app_ble.c **** 
 981:STM32_WPAN/App/app_ble.c ****   /**
 982:STM32_WPAN/App/app_ble.c ****    * Initialize IO capability
 983:STM32_WPAN/App/app_ble.c ****    */
 984:STM32_WPAN/App/app_ble.c ****   BleApplicationContext.BleApplicationContext_legacy.bleSecurityParam.ioCapability = CFG_IO_CAPABIL
 985:STM32_WPAN/App/app_ble.c ****   aci_gap_set_io_capability(BleApplicationContext.BleApplicationContext_legacy.bleSecurityParam.ioC
 986:STM32_WPAN/App/app_ble.c **** 
 987:STM32_WPAN/App/app_ble.c ****   /**
 988:STM32_WPAN/App/app_ble.c ****    * Initialize authentication
 989:STM32_WPAN/App/app_ble.c ****    */
 990:STM32_WPAN/App/app_ble.c ****   BleApplicationContext.BleApplicationContext_legacy.bleSecurityParam.mitm_mode = CFG_MITM_PROTECTI
 991:STM32_WPAN/App/app_ble.c ****   BleApplicationContext.BleApplicationContext_legacy.bleSecurityParam.encryptionKeySizeMin = CFG_EN
 992:STM32_WPAN/App/app_ble.c ****   BleApplicationContext.BleApplicationContext_legacy.bleSecurityParam.encryptionKeySizeMax = CFG_EN
 993:STM32_WPAN/App/app_ble.c ****   BleApplicationContext.BleApplicationContext_legacy.bleSecurityParam.Use_Fixed_Pin = CFG_USED_FIXE
 994:STM32_WPAN/App/app_ble.c ****   BleApplicationContext.BleApplicationContext_legacy.bleSecurityParam.Fixed_Pin = CFG_FIXED_PIN;
 995:STM32_WPAN/App/app_ble.c ****   BleApplicationContext.BleApplicationContext_legacy.bleSecurityParam.bonding_mode = CFG_BONDING_MO
 996:STM32_WPAN/App/app_ble.c **** 
 997:STM32_WPAN/App/app_ble.c ****   aci_gap_set_authentication_requirement(BleApplicationContext.BleApplicationContext_legacy.bleSecu
 998:STM32_WPAN/App/app_ble.c ****                                          BleApplicationContext.BleApplicationContext_legacy.bleSecu
 999:STM32_WPAN/App/app_ble.c ****                                          CFG_SC_SUPPORT,
1000:STM32_WPAN/App/app_ble.c ****                                          CFG_KEYPRESS_NOTIFICATION_SUPPORT,
ARM GAS  /var/folders/lt/l_qrc8c54t93n_phsj7cf5tc0000gn/T//ccg72gDc.s 			page 19


1001:STM32_WPAN/App/app_ble.c ****                                          BleApplicationContext.BleApplicationContext_legacy.bleSecu
1002:STM32_WPAN/App/app_ble.c ****                                          BleApplicationContext.BleApplicationContext_legacy.bleSecu
1003:STM32_WPAN/App/app_ble.c ****                                          BleApplicationContext.BleApplicationContext_legacy.bleSecu
1004:STM32_WPAN/App/app_ble.c ****                                          BleApplicationContext.BleApplicationContext_legacy.bleSecu
1005:STM32_WPAN/App/app_ble.c ****                                          CFG_BLE_ADDRESS_TYPE
1006:STM32_WPAN/App/app_ble.c ****                                          );
1007:STM32_WPAN/App/app_ble.c **** 
1008:STM32_WPAN/App/app_ble.c ****   /**
1009:STM32_WPAN/App/app_ble.c ****    * Initialize whitelist
1010:STM32_WPAN/App/app_ble.c ****    */
1011:STM32_WPAN/App/app_ble.c ****    if (BleApplicationContext.BleApplicationContext_legacy.bleSecurityParam.bonding_mode)
1012:STM32_WPAN/App/app_ble.c ****    {
1013:STM32_WPAN/App/app_ble.c ****      aci_gap_configure_whitelist();
1014:STM32_WPAN/App/app_ble.c ****    }
1015:STM32_WPAN/App/app_ble.c **** }
1016:STM32_WPAN/App/app_ble.c **** 
1017:STM32_WPAN/App/app_ble.c **** static void Adv_Request(APP_BLE_ConnStatus_t New_Status)
1018:STM32_WPAN/App/app_ble.c **** {
1019:STM32_WPAN/App/app_ble.c ****   tBleStatus ret = BLE_STATUS_INVALID_PARAMS;
1020:STM32_WPAN/App/app_ble.c ****   uint16_t Min_Inter, Max_Inter;
1021:STM32_WPAN/App/app_ble.c **** 
1022:STM32_WPAN/App/app_ble.c ****   if (New_Status == APP_BLE_FAST_ADV)
1023:STM32_WPAN/App/app_ble.c ****   {
1024:STM32_WPAN/App/app_ble.c ****     Min_Inter = AdvIntervalMin;
1025:STM32_WPAN/App/app_ble.c ****     Max_Inter = AdvIntervalMax;
1026:STM32_WPAN/App/app_ble.c ****   }
1027:STM32_WPAN/App/app_ble.c ****   else
1028:STM32_WPAN/App/app_ble.c ****   {
1029:STM32_WPAN/App/app_ble.c ****     Min_Inter = CFG_LP_CONN_ADV_INTERVAL_MIN;
1030:STM32_WPAN/App/app_ble.c ****     Max_Inter = CFG_LP_CONN_ADV_INTERVAL_MAX;
1031:STM32_WPAN/App/app_ble.c ****   }
1032:STM32_WPAN/App/app_ble.c **** 
1033:STM32_WPAN/App/app_ble.c ****     /**
1034:STM32_WPAN/App/app_ble.c ****      * Stop the timer, it will be restarted for a new shot
1035:STM32_WPAN/App/app_ble.c ****      * It does not hurt if the timer was not running
1036:STM32_WPAN/App/app_ble.c ****      */
1037:STM32_WPAN/App/app_ble.c ****     HW_TS_Stop(BleApplicationContext.Advertising_mgr_timer_Id);
1038:STM32_WPAN/App/app_ble.c **** 
1039:STM32_WPAN/App/app_ble.c ****     APP_DBG_MSG("First index in %d state \n", BleApplicationContext.Device_Connection_Status);
1040:STM32_WPAN/App/app_ble.c **** 
1041:STM32_WPAN/App/app_ble.c ****     if ((New_Status == APP_BLE_LP_ADV)
1042:STM32_WPAN/App/app_ble.c ****         && ((BleApplicationContext.Device_Connection_Status == APP_BLE_FAST_ADV)
1043:STM32_WPAN/App/app_ble.c ****             || (BleApplicationContext.Device_Connection_Status == APP_BLE_LP_ADV)))
1044:STM32_WPAN/App/app_ble.c ****     {
1045:STM32_WPAN/App/app_ble.c ****       /* Connection in ADVERTISE mode have to stop the current advertising */
1046:STM32_WPAN/App/app_ble.c ****       ret = aci_gap_set_non_discoverable();
1047:STM32_WPAN/App/app_ble.c ****       if (ret == BLE_STATUS_SUCCESS)
1048:STM32_WPAN/App/app_ble.c ****       {
1049:STM32_WPAN/App/app_ble.c ****         APP_DBG_MSG("Successfully Stopped Advertising \n");
1050:STM32_WPAN/App/app_ble.c ****       }
1051:STM32_WPAN/App/app_ble.c ****       else
1052:STM32_WPAN/App/app_ble.c ****       {
1053:STM32_WPAN/App/app_ble.c ****         APP_DBG_MSG("Stop Advertising Failed , result: %d \n", ret);
1054:STM32_WPAN/App/app_ble.c ****       }
1055:STM32_WPAN/App/app_ble.c ****     }
1056:STM32_WPAN/App/app_ble.c **** 
1057:STM32_WPAN/App/app_ble.c ****     BleApplicationContext.Device_Connection_Status = New_Status;
ARM GAS  /var/folders/lt/l_qrc8c54t93n_phsj7cf5tc0000gn/T//ccg72gDc.s 			page 20


1058:STM32_WPAN/App/app_ble.c ****     /* Start Fast or Low Power Advertising */
1059:STM32_WPAN/App/app_ble.c ****     ret = aci_gap_set_discoverable(
1060:STM32_WPAN/App/app_ble.c ****         ADV_IND,
1061:STM32_WPAN/App/app_ble.c ****         Min_Inter,
1062:STM32_WPAN/App/app_ble.c ****         Max_Inter,
1063:STM32_WPAN/App/app_ble.c ****         CFG_BLE_ADDRESS_TYPE,
1064:STM32_WPAN/App/app_ble.c ****         NO_WHITE_LIST_USE, /* use white list */
1065:STM32_WPAN/App/app_ble.c ****         sizeof(local_name),
1066:STM32_WPAN/App/app_ble.c ****         (uint8_t*) &local_name,
1067:STM32_WPAN/App/app_ble.c ****         BleApplicationContext.BleApplicationContext_legacy.advtServUUIDlen,
1068:STM32_WPAN/App/app_ble.c ****         BleApplicationContext.BleApplicationContext_legacy.advtServUUID,
1069:STM32_WPAN/App/app_ble.c ****         0,
1070:STM32_WPAN/App/app_ble.c ****         0);
1071:STM32_WPAN/App/app_ble.c **** 
1072:STM32_WPAN/App/app_ble.c ****     /* Update Advertising data */
1073:STM32_WPAN/App/app_ble.c ****     ret = aci_gap_update_adv_data(sizeof(manuf_data), (uint8_t*) manuf_data);
1074:STM32_WPAN/App/app_ble.c ****     if (ret == BLE_STATUS_SUCCESS)
1075:STM32_WPAN/App/app_ble.c ****     {
1076:STM32_WPAN/App/app_ble.c ****       if (New_Status == APP_BLE_FAST_ADV)
1077:STM32_WPAN/App/app_ble.c ****       {
1078:STM32_WPAN/App/app_ble.c ****         APP_DBG_MSG("Successfully Start Fast Advertising \n" );
1079:STM32_WPAN/App/app_ble.c ****         /* Start Timer to STOP ADV - TIMEOUT */
1080:STM32_WPAN/App/app_ble.c ****         HW_TS_Start(BleApplicationContext.Advertising_mgr_timer_Id, INITIAL_ADV_TIMEOUT);
1081:STM32_WPAN/App/app_ble.c ****       }
1082:STM32_WPAN/App/app_ble.c ****       else
1083:STM32_WPAN/App/app_ble.c ****       {
1084:STM32_WPAN/App/app_ble.c ****         APP_DBG_MSG("Successfully Start Low Power Advertising \n");
1085:STM32_WPAN/App/app_ble.c ****       }
1086:STM32_WPAN/App/app_ble.c ****     }
1087:STM32_WPAN/App/app_ble.c ****     else
1088:STM32_WPAN/App/app_ble.c ****     {
1089:STM32_WPAN/App/app_ble.c ****       if (New_Status == APP_BLE_FAST_ADV)
1090:STM32_WPAN/App/app_ble.c ****       {
1091:STM32_WPAN/App/app_ble.c ****         APP_DBG_MSG("Start Fast Advertising Failed , result: %d \n", ret);
1092:STM32_WPAN/App/app_ble.c ****       }
1093:STM32_WPAN/App/app_ble.c ****       else
1094:STM32_WPAN/App/app_ble.c ****       {
1095:STM32_WPAN/App/app_ble.c ****         APP_DBG_MSG("Start Low Power Advertising Failed , result: %d \n", ret);
1096:STM32_WPAN/App/app_ble.c ****       }
1097:STM32_WPAN/App/app_ble.c ****     }
1098:STM32_WPAN/App/app_ble.c **** 
1099:STM32_WPAN/App/app_ble.c ****   return;
1100:STM32_WPAN/App/app_ble.c **** }
1101:STM32_WPAN/App/app_ble.c **** 
1102:STM32_WPAN/App/app_ble.c **** const uint8_t* BleGetBdAddress( void )
1103:STM32_WPAN/App/app_ble.c **** {
1104:STM32_WPAN/App/app_ble.c ****   uint8_t *otp_addr;
1105:STM32_WPAN/App/app_ble.c ****   const uint8_t *bd_addr;
1106:STM32_WPAN/App/app_ble.c ****   uint32_t udn;
1107:STM32_WPAN/App/app_ble.c ****   uint32_t company_id;
1108:STM32_WPAN/App/app_ble.c ****   uint32_t device_id;
1109:STM32_WPAN/App/app_ble.c **** 
1110:STM32_WPAN/App/app_ble.c ****   udn = LL_FLASH_GetUDN();
1111:STM32_WPAN/App/app_ble.c **** 
1112:STM32_WPAN/App/app_ble.c ****   if(udn != 0xFFFFFFFF)
1113:STM32_WPAN/App/app_ble.c ****   {
1114:STM32_WPAN/App/app_ble.c ****     company_id = LL_FLASH_GetSTCompanyID();
ARM GAS  /var/folders/lt/l_qrc8c54t93n_phsj7cf5tc0000gn/T//ccg72gDc.s 			page 21


1115:STM32_WPAN/App/app_ble.c ****     device_id = LL_FLASH_GetDeviceID();
1116:STM32_WPAN/App/app_ble.c **** 
1117:STM32_WPAN/App/app_ble.c **** /**
1118:STM32_WPAN/App/app_ble.c ****  * Public Address with the ST company ID
1119:STM32_WPAN/App/app_ble.c ****  * bit[47:24] : 24bits (OUI) equal to the company ID
1120:STM32_WPAN/App/app_ble.c ****  * bit[23:16] : Device ID.
1121:STM32_WPAN/App/app_ble.c ****  * bit[15:0] : The last 16bits from the UDN
1122:STM32_WPAN/App/app_ble.c ****  * Note: In order to use the Public Address in a final product, a dedicated
1123:STM32_WPAN/App/app_ble.c ****  * 24bits company ID (OUI) shall be bought.
1124:STM32_WPAN/App/app_ble.c ****  */
1125:STM32_WPAN/App/app_ble.c ****     bd_addr_udn[0] = (uint8_t)(udn & 0x000000FF);
1126:STM32_WPAN/App/app_ble.c ****     bd_addr_udn[1] = (uint8_t)( (udn & 0x0000FF00) >> 8 );
1127:STM32_WPAN/App/app_ble.c ****     bd_addr_udn[2] = (uint8_t)device_id;
1128:STM32_WPAN/App/app_ble.c ****     bd_addr_udn[3] = (uint8_t)(company_id & 0x000000FF);
1129:STM32_WPAN/App/app_ble.c ****     bd_addr_udn[4] = (uint8_t)( (company_id & 0x0000FF00) >> 8 );
1130:STM32_WPAN/App/app_ble.c ****     bd_addr_udn[5] = (uint8_t)( (company_id & 0x00FF0000) >> 16 );
1131:STM32_WPAN/App/app_ble.c **** 
1132:STM32_WPAN/App/app_ble.c ****     bd_addr = (const uint8_t *)bd_addr_udn;
1133:STM32_WPAN/App/app_ble.c ****   }
1134:STM32_WPAN/App/app_ble.c ****   else
1135:STM32_WPAN/App/app_ble.c ****   {
1136:STM32_WPAN/App/app_ble.c ****     otp_addr = OTP_Read(0);
1137:STM32_WPAN/App/app_ble.c ****     if(otp_addr)
1138:STM32_WPAN/App/app_ble.c ****     {
1139:STM32_WPAN/App/app_ble.c ****       bd_addr = ((OTP_ID0_t*)otp_addr)->bd_address;
1140:STM32_WPAN/App/app_ble.c ****     }
1141:STM32_WPAN/App/app_ble.c ****     else
1142:STM32_WPAN/App/app_ble.c ****     {
1143:STM32_WPAN/App/app_ble.c ****       bd_addr = M_bd_addr;
1144:STM32_WPAN/App/app_ble.c ****     }
1145:STM32_WPAN/App/app_ble.c ****   }
1146:STM32_WPAN/App/app_ble.c **** 
1147:STM32_WPAN/App/app_ble.c ****   return bd_addr;
1148:STM32_WPAN/App/app_ble.c **** }
1149:STM32_WPAN/App/app_ble.c **** 
1150:STM32_WPAN/App/app_ble.c **** /* USER CODE BEGIN FD_LOCAL_FUNCTION */
1151:STM32_WPAN/App/app_ble.c **** 
1152:STM32_WPAN/App/app_ble.c **** /* USER CODE END FD_LOCAL_FUNCTION */
1153:STM32_WPAN/App/app_ble.c **** 
1154:STM32_WPAN/App/app_ble.c **** /*************************************************************
1155:STM32_WPAN/App/app_ble.c ****  *
1156:STM32_WPAN/App/app_ble.c ****  *SPECIFIC FUNCTIONS FOR P2P SERVER
1157:STM32_WPAN/App/app_ble.c ****  *
1158:STM32_WPAN/App/app_ble.c ****  *************************************************************/
1159:STM32_WPAN/App/app_ble.c **** static void Adv_Cancel( void )
1160:STM32_WPAN/App/app_ble.c **** {
1161:STM32_WPAN/App/app_ble.c **** /* USER CODE BEGIN Adv_Cancel_1 */
1162:STM32_WPAN/App/app_ble.c ****   BSP_LED_Off(LED_GREEN);
1163:STM32_WPAN/App/app_ble.c **** /* USER CODE END Adv_Cancel_1 */
1164:STM32_WPAN/App/app_ble.c **** 
1165:STM32_WPAN/App/app_ble.c ****   if (BleApplicationContext.Device_Connection_Status != APP_BLE_CONNECTED_SERVER)
1166:STM32_WPAN/App/app_ble.c **** 
1167:STM32_WPAN/App/app_ble.c ****   {
1168:STM32_WPAN/App/app_ble.c **** 
1169:STM32_WPAN/App/app_ble.c ****     tBleStatus result = 0x00;
1170:STM32_WPAN/App/app_ble.c **** 
1171:STM32_WPAN/App/app_ble.c ****     result = aci_gap_set_non_discoverable();
ARM GAS  /var/folders/lt/l_qrc8c54t93n_phsj7cf5tc0000gn/T//ccg72gDc.s 			page 22


1172:STM32_WPAN/App/app_ble.c **** 
1173:STM32_WPAN/App/app_ble.c ****     BleApplicationContext.Device_Connection_Status = APP_BLE_IDLE;
1174:STM32_WPAN/App/app_ble.c ****     if (result == BLE_STATUS_SUCCESS)
1175:STM32_WPAN/App/app_ble.c ****     {
1176:STM32_WPAN/App/app_ble.c ****       APP_DBG_MSG("  \r\n\r");APP_DBG_MSG("** STOP ADVERTISING **  \r\n\r");
1177:STM32_WPAN/App/app_ble.c ****     }
1178:STM32_WPAN/App/app_ble.c ****     else
1179:STM32_WPAN/App/app_ble.c ****     {
1180:STM32_WPAN/App/app_ble.c ****       APP_DBG_MSG("** STOP ADVERTISING **  Failed \r\n\r");
1181:STM32_WPAN/App/app_ble.c ****     }
1182:STM32_WPAN/App/app_ble.c **** 
1183:STM32_WPAN/App/app_ble.c ****   }
1184:STM32_WPAN/App/app_ble.c **** 
1185:STM32_WPAN/App/app_ble.c **** /* USER CODE BEGIN Adv_Cancel_2 */
1186:STM32_WPAN/App/app_ble.c **** 
1187:STM32_WPAN/App/app_ble.c **** /* USER CODE END Adv_Cancel_2 */
1188:STM32_WPAN/App/app_ble.c ****   return;
1189:STM32_WPAN/App/app_ble.c **** }
1190:STM32_WPAN/App/app_ble.c **** 
1191:STM32_WPAN/App/app_ble.c **** static void Adv_Cancel_Req( void )
1192:STM32_WPAN/App/app_ble.c **** {
1193:STM32_WPAN/App/app_ble.c **** /* USER CODE BEGIN Adv_Cancel_Req_1 */
1194:STM32_WPAN/App/app_ble.c **** 
1195:STM32_WPAN/App/app_ble.c **** /* USER CODE END Adv_Cancel_Req_1 */
1196:STM32_WPAN/App/app_ble.c ****   UTIL_SEQ_SetTask(1 << CFG_TASK_ADV_CANCEL_ID, CFG_SCH_PRIO_0);
1197:STM32_WPAN/App/app_ble.c **** /* USER CODE BEGIN Adv_Cancel_Req_2 */
1198:STM32_WPAN/App/app_ble.c **** 
1199:STM32_WPAN/App/app_ble.c **** /* USER CODE END Adv_Cancel_Req_2 */
1200:STM32_WPAN/App/app_ble.c ****   return;
1201:STM32_WPAN/App/app_ble.c **** }
1202:STM32_WPAN/App/app_ble.c **** 
1203:STM32_WPAN/App/app_ble.c **** static void Switch_OFF_GPIO(){
  28              		.loc 1 1203 30 view -0
  29              		.cfi_startproc
  30              		@ args = 0, pretend = 0, frame = 0
  31              		@ frame_needed = 0, uses_anonymous_args = 0
  32 0000 08B5     		push	{r3, lr}
  33              	.LCFI0:
  34              		.cfi_def_cfa_offset 8
  35              		.cfi_offset 3, -8
  36              		.cfi_offset 14, -4
1204:STM32_WPAN/App/app_ble.c **** /* USER CODE BEGIN Switch_OFF_GPIO */
1205:STM32_WPAN/App/app_ble.c ****   BSP_LED_Off(LED_GREEN);
  37              		.loc 1 1205 3 view .LVU1
  38 0002 0120     		movs	r0, #1
  39 0004 FFF7FEFF 		bl	BSP_LED_Off
  40              	.LVL0:
1206:STM32_WPAN/App/app_ble.c **** /* USER CODE END Switch_OFF_GPIO */
1207:STM32_WPAN/App/app_ble.c **** }
  41              		.loc 1 1207 1 is_stmt 0 view .LVU2
  42 0008 08BD     		pop	{r3, pc}
  43              		.cfi_endproc
  44              	.LFE1274:
  46              		.section	.text.Adv_Cancel_Req,"ax",%progbits
  47              		.align	1
  48              		.syntax unified
  49              		.thumb
ARM GAS  /var/folders/lt/l_qrc8c54t93n_phsj7cf5tc0000gn/T//ccg72gDc.s 			page 23


  50              		.thumb_func
  51              		.fpu fpv4-sp-d16
  53              	Adv_Cancel_Req:
  54              	.LFB1273:
1192:STM32_WPAN/App/app_ble.c **** /* USER CODE BEGIN Adv_Cancel_Req_1 */
  55              		.loc 1 1192 1 is_stmt 1 view -0
  56              		.cfi_startproc
  57              		@ args = 0, pretend = 0, frame = 0
  58              		@ frame_needed = 0, uses_anonymous_args = 0
  59 0000 08B5     		push	{r3, lr}
  60              	.LCFI1:
  61              		.cfi_def_cfa_offset 8
  62              		.cfi_offset 3, -8
  63              		.cfi_offset 14, -4
1196:STM32_WPAN/App/app_ble.c **** /* USER CODE BEGIN Adv_Cancel_Req_2 */
  64              		.loc 1 1196 3 view .LVU4
  65 0002 0021     		movs	r1, #0
  66 0004 0120     		movs	r0, #1
  67 0006 FFF7FEFF 		bl	UTIL_SEQ_SetTask
  68              	.LVL1:
1200:STM32_WPAN/App/app_ble.c **** }
  69              		.loc 1 1200 3 view .LVU5
1201:STM32_WPAN/App/app_ble.c **** 
  70              		.loc 1 1201 1 is_stmt 0 view .LVU6
  71 000a 08BD     		pop	{r3, pc}
  72              		.cfi_endproc
  73              	.LFE1273:
  75              		.section	.rodata.BLE_SVC_L2CAP_Conn_Update.str1.4,"aMS",%progbits,1
  76              		.align	2
  77              	.LC1:
  78 0000 53544D33 		.ascii	"STM32_WPAN/App/app_ble.c\000"
  78      325F5750 
  78      414E2F41 
  78      70702F61 
  78      70705F62 
  79 0019 000000   		.align	2
  80              	.LC2:
  81 001c 0D0A205B 		.ascii	"\015\012 [%s][%s][%d] \000"
  81      25735D5B 
  81      25735D5B 
  81      25645D20 
  81      00
  82 002d 000000   		.align	2
  83              	.LC3:
  84 0030 424C455F 		.ascii	"BLE_SVC_L2CAP_Conn_Update(), Successfully \015\012\015"
  84      5356435F 
  84      4C324341 
  84      505F436F 
  84      6E6E5F55 
  85 005d 00       		.ascii	"\000"
  86 005e 0000     		.align	2
  87              	.LC4:
  88 0060 424C455F 		.ascii	"BLE_SVC_L2CAP_Conn_Update(), Failed \015\012\015\000"
  88      5356435F 
  88      4C324341 
  88      505F436F 
  88      6E6E5F55 
ARM GAS  /var/folders/lt/l_qrc8c54t93n_phsj7cf5tc0000gn/T//ccg72gDc.s 			page 24


  89              		.section	.text.BLE_SVC_L2CAP_Conn_Update,"ax",%progbits
  90              		.align	1
  91              		.syntax unified
  92              		.thumb
  93              		.thumb_func
  94              		.fpu fpv4-sp-d16
  96              	BLE_SVC_L2CAP_Conn_Update:
  97              	.LVL2:
  98              	.LFB1275:
1208:STM32_WPAN/App/app_ble.c **** 
1209:STM32_WPAN/App/app_ble.c **** #if(L2CAP_REQUEST_NEW_CONN_PARAM != 0)
1210:STM32_WPAN/App/app_ble.c **** void BLE_SVC_L2CAP_Conn_Update(uint16_t Connection_Handle)
1211:STM32_WPAN/App/app_ble.c **** {
  99              		.loc 1 1211 1 is_stmt 1 view -0
 100              		.cfi_startproc
 101              		@ args = 0, pretend = 0, frame = 0
 102              		@ frame_needed = 0, uses_anonymous_args = 0
1212:STM32_WPAN/App/app_ble.c **** /* USER CODE BEGIN BLE_SVC_L2CAP_Conn_Update_1 */
1213:STM32_WPAN/App/app_ble.c **** 
1214:STM32_WPAN/App/app_ble.c **** /* USER CODE END BLE_SVC_L2CAP_Conn_Update_1 */
1215:STM32_WPAN/App/app_ble.c ****   if(mutex == 1) {
 103              		.loc 1 1215 3 view .LVU8
 104              		.loc 1 1215 12 is_stmt 0 view .LVU9
 105 0000 234B     		ldr	r3, .L13
 106 0002 1B78     		ldrb	r3, [r3]	@ zero_extendqisi2
 107              		.loc 1 1215 5 view .LVU10
 108 0004 012B     		cmp	r3, #1
 109 0006 00D0     		beq	.L12
 110 0008 7047     		bx	lr
 111              	.L12:
1211:STM32_WPAN/App/app_ble.c **** /* USER CODE BEGIN BLE_SVC_L2CAP_Conn_Update_1 */
 112              		.loc 1 1211 1 view .LVU11
 113 000a 00B5     		push	{lr}
 114              	.LCFI2:
 115              		.cfi_def_cfa_offset 4
 116              		.cfi_offset 14, -4
 117 000c 83B0     		sub	sp, sp, #12
 118              	.LCFI3:
 119              		.cfi_def_cfa_offset 16
 120              	.LBB8:
1216:STM32_WPAN/App/app_ble.c ****     mutex = 0;
 121              		.loc 1 1216 5 is_stmt 1 view .LVU12
 122              		.loc 1 1216 11 is_stmt 0 view .LVU13
 123 000e 0023     		movs	r3, #0
 124 0010 1F4A     		ldr	r2, .L13
 125 0012 1370     		strb	r3, [r2]
1217:STM32_WPAN/App/app_ble.c ****     index_con_int = (index_con_int + 1)%SIZE_TAB_CONN_INT;
 126              		.loc 1 1217 5 is_stmt 1 view .LVU14
 127              		.loc 1 1217 36 is_stmt 0 view .LVU15
 128 0014 1F49     		ldr	r1, .L13+4
 129 0016 0A78     		ldrb	r2, [r1]	@ zero_extendqisi2
 130              		.loc 1 1217 40 view .LVU16
 131 0018 0132     		adds	r2, r2, #1
 132 001a 02F00102 		and	r2, r2, #1
 133 001e 48BF     		it	mi
 134 0020 5242     		rsbmi	r2, r2, #0
 135              		.loc 1 1217 19 view .LVU17
ARM GAS  /var/folders/lt/l_qrc8c54t93n_phsj7cf5tc0000gn/T//ccg72gDc.s 			page 25


 136 0022 D2B2     		uxtb	r2, r2
 137 0024 0A70     		strb	r2, [r1]
1218:STM32_WPAN/App/app_ble.c ****     uint16_t interval_min = CONN_P(tab_conn_interval[index_con_int]);
 138              		.loc 1 1218 5 is_stmt 1 view .LVU18
 139              		.loc 1 1218 29 is_stmt 0 view .LVU19
 140 0026 1C49     		ldr	r1, .L13+8
 141 0028 01EB8202 		add	r2, r1, r2, lsl #2
 142 002c D2ED006A 		vldr.32	s13, [r2]
 143 0030 B7EE047A 		vmov.f32	s14, #1.25e+0
 144 0034 C6EE877A 		vdiv.f32	s15, s13, s14
 145 0038 FDEEE77A 		vcvt.s32.f32	s15, s15
 146              		.loc 1 1218 14 view .LVU20
 147 003c 17EE902A 		vmov	r2, s15	@ int
 148 0040 91B2     		uxth	r1, r2
 149              	.LVL3:
1219:STM32_WPAN/App/app_ble.c ****     uint16_t interval_max = CONN_P(tab_conn_interval[index_con_int]);
 150              		.loc 1 1219 5 is_stmt 1 view .LVU21
1220:STM32_WPAN/App/app_ble.c ****     uint16_t slave_latency = L2CAP_SLAVE_LATENCY;
 151              		.loc 1 1220 5 view .LVU22
1221:STM32_WPAN/App/app_ble.c ****     uint16_t timeout_multiplier = L2CAP_TIMEOUT_MULTIPLIER;
 152              		.loc 1 1221 5 view .LVU23
1222:STM32_WPAN/App/app_ble.c ****     tBleStatus result;
 153              		.loc 1 1222 5 view .LVU24
1223:STM32_WPAN/App/app_ble.c **** 
1224:STM32_WPAN/App/app_ble.c ****     result = aci_l2cap_connection_parameter_update_req(BleApplicationContext.BleApplicationContext_
 154              		.loc 1 1224 5 view .LVU25
 155              		.loc 1 1224 14 is_stmt 0 view .LVU26
 156 0042 4FF4FA72 		mov	r2, #500
 157 0046 0092     		str	r2, [sp]
 158 0048 0A46     		mov	r2, r1
 159 004a 1448     		ldr	r0, .L13+12
 160              	.LVL4:
 161              		.loc 1 1224 14 view .LVU27
 162 004c C08A     		ldrh	r0, [r0, #22]
 163 004e FFF7FEFF 		bl	aci_l2cap_connection_parameter_update_req
 164              	.LVL5:
1225:STM32_WPAN/App/app_ble.c ****                                                        interval_min, interval_max,
1226:STM32_WPAN/App/app_ble.c ****                                                        slave_latency, timeout_multiplier);
1227:STM32_WPAN/App/app_ble.c ****     if( result == BLE_STATUS_SUCCESS )
 165              		.loc 1 1227 5 is_stmt 1 view .LVU28
 166              		.loc 1 1227 7 is_stmt 0 view .LVU29
 167 0052 78B9     		cbnz	r0, .L7
1228:STM32_WPAN/App/app_ble.c ****     {
1229:STM32_WPAN/App/app_ble.c ****       APP_DBG_MSG("BLE_SVC_L2CAP_Conn_Update(), Successfully \r\n\r");
 168              		.loc 1 1229 7 is_stmt 1 view .LVU30
 169              		.loc 1 1229 7 view .LVU31
 170 0054 1248     		ldr	r0, .L13+16
 171              	.LVL6:
 172              		.loc 1 1229 7 is_stmt 0 view .LVU32
 173 0056 FFF7FEFF 		bl	DbgTraceGetFileName
 174              	.LVL7:
 175 005a 0146     		mov	r1, r0
 176 005c 40F2CD43 		movw	r3, #1229
 177 0060 104A     		ldr	r2, .L13+20
 178 0062 1148     		ldr	r0, .L13+24
 179 0064 FFF7FEFF 		bl	printf
 180              	.LVL8:
ARM GAS  /var/folders/lt/l_qrc8c54t93n_phsj7cf5tc0000gn/T//ccg72gDc.s 			page 26


 181              		.loc 1 1229 7 is_stmt 1 view .LVU33
 182 0068 1048     		ldr	r0, .L13+28
 183 006a FFF7FEFF 		bl	printf
 184              	.LVL9:
 185              		.loc 1 1229 7 view .LVU34
 186              		.loc 1 1229 70 view .LVU35
 187              	.L5:
 188              	.LBE8:
1230:STM32_WPAN/App/app_ble.c ****     }
1231:STM32_WPAN/App/app_ble.c ****     else
1232:STM32_WPAN/App/app_ble.c ****     {
1233:STM32_WPAN/App/app_ble.c ****       APP_DBG_MSG("BLE_SVC_L2CAP_Conn_Update(), Failed \r\n\r");
1234:STM32_WPAN/App/app_ble.c ****     }
1235:STM32_WPAN/App/app_ble.c ****   }
1236:STM32_WPAN/App/app_ble.c **** /* USER CODE BEGIN BLE_SVC_L2CAP_Conn_Update_2 */
1237:STM32_WPAN/App/app_ble.c **** 
1238:STM32_WPAN/App/app_ble.c **** /* USER CODE END BLE_SVC_L2CAP_Conn_Update_2 */
1239:STM32_WPAN/App/app_ble.c ****   return;
1240:STM32_WPAN/App/app_ble.c **** }
 189              		.loc 1 1240 1 is_stmt 0 view .LVU36
 190 006e 03B0     		add	sp, sp, #12
 191              	.LCFI4:
 192              		.cfi_remember_state
 193              		.cfi_def_cfa_offset 4
 194              		@ sp needed
 195 0070 5DF804FB 		ldr	pc, [sp], #4
 196              	.LVL10:
 197              	.L7:
 198              	.LCFI5:
 199              		.cfi_restore_state
 200              	.LBB9:
1233:STM32_WPAN/App/app_ble.c ****     }
 201              		.loc 1 1233 7 is_stmt 1 view .LVU37
1233:STM32_WPAN/App/app_ble.c ****     }
 202              		.loc 1 1233 7 view .LVU38
 203 0074 0A48     		ldr	r0, .L13+16
 204              	.LVL11:
1233:STM32_WPAN/App/app_ble.c ****     }
 205              		.loc 1 1233 7 is_stmt 0 view .LVU39
 206 0076 FFF7FEFF 		bl	DbgTraceGetFileName
 207              	.LVL12:
 208 007a 0146     		mov	r1, r0
 209 007c 40F2D143 		movw	r3, #1233
 210 0080 084A     		ldr	r2, .L13+20
 211 0082 0948     		ldr	r0, .L13+24
 212 0084 FFF7FEFF 		bl	printf
 213              	.LVL13:
1233:STM32_WPAN/App/app_ble.c ****     }
 214              		.loc 1 1233 7 is_stmt 1 view .LVU40
 215 0088 0948     		ldr	r0, .L13+32
 216 008a FFF7FEFF 		bl	printf
 217              	.LVL14:
1233:STM32_WPAN/App/app_ble.c ****     }
 218              		.loc 1 1233 7 view .LVU41
1233:STM32_WPAN/App/app_ble.c ****     }
 219              		.loc 1 1233 64 view .LVU42
 220              	.LBE9:
ARM GAS  /var/folders/lt/l_qrc8c54t93n_phsj7cf5tc0000gn/T//ccg72gDc.s 			page 27


1239:STM32_WPAN/App/app_ble.c **** }
 221              		.loc 1 1239 3 view .LVU43
 222 008e EEE7     		b	.L5
 223              	.L14:
 224              		.align	2
 225              	.L13:
 226 0090 00000000 		.word	mutex
 227 0094 00000000 		.word	index_con_int
 228 0098 00000000 		.word	.LANCHOR0
 229 009c 00000000 		.word	.LANCHOR1
 230 00a0 00000000 		.word	.LC1
 231 00a4 00000000 		.word	.LANCHOR2
 232 00a8 1C000000 		.word	.LC2
 233 00ac 30000000 		.word	.LC3
 234 00b0 60000000 		.word	.LC4
 235              		.cfi_endproc
 236              	.LFE1275:
 238              		.section	.text.Connection_Interval_Update_Req,"ax",%progbits
 239              		.align	1
 240              		.syntax unified
 241              		.thumb
 242              		.thumb_func
 243              		.fpu fpv4-sp-d16
 245              	Connection_Interval_Update_Req:
 246              	.LFB1276:
1241:STM32_WPAN/App/app_ble.c **** #endif
1242:STM32_WPAN/App/app_ble.c **** 
1243:STM32_WPAN/App/app_ble.c **** #if (L2CAP_REQUEST_NEW_CONN_PARAM != 0 )
1244:STM32_WPAN/App/app_ble.c **** static void Connection_Interval_Update_Req( void )
1245:STM32_WPAN/App/app_ble.c **** {
 247              		.loc 1 1245 1 view -0
 248              		.cfi_startproc
 249              		@ args = 0, pretend = 0, frame = 0
 250              		@ frame_needed = 0, uses_anonymous_args = 0
 251 0000 08B5     		push	{r3, lr}
 252              	.LCFI6:
 253              		.cfi_def_cfa_offset 8
 254              		.cfi_offset 3, -8
 255              		.cfi_offset 14, -4
1246:STM32_WPAN/App/app_ble.c ****   if (BleApplicationContext.Device_Connection_Status != APP_BLE_FAST_ADV && BleApplicationContext.D
 256              		.loc 1 1246 3 view .LVU45
 257              		.loc 1 1246 28 is_stmt 0 view .LVU46
 258 0002 054B     		ldr	r3, .L19
 259 0004 93F88030 		ldrb	r3, [r3, #128]	@ zero_extendqisi2
 260              		.loc 1 1246 6 view .LVU47
 261 0008 012B     		cmp	r3, #1
 262 000a 00D8     		bhi	.L18
 263              	.L15:
1247:STM32_WPAN/App/app_ble.c ****   {
1248:STM32_WPAN/App/app_ble.c ****     BLE_SVC_L2CAP_Conn_Update(BleApplicationContext.BleApplicationContext_legacy.connectionHandle);
1249:STM32_WPAN/App/app_ble.c ****   }
1250:STM32_WPAN/App/app_ble.c ****   return;
1251:STM32_WPAN/App/app_ble.c **** }
 264              		.loc 1 1251 1 view .LVU48
 265 000c 08BD     		pop	{r3, pc}
 266              	.L18:
1248:STM32_WPAN/App/app_ble.c ****   }
ARM GAS  /var/folders/lt/l_qrc8c54t93n_phsj7cf5tc0000gn/T//ccg72gDc.s 			page 28


 267              		.loc 1 1248 5 is_stmt 1 view .LVU49
 268 000e 024B     		ldr	r3, .L19
 269 0010 D88A     		ldrh	r0, [r3, #22]
 270 0012 FFF7FEFF 		bl	BLE_SVC_L2CAP_Conn_Update
 271              	.LVL15:
1250:STM32_WPAN/App/app_ble.c **** }
 272              		.loc 1 1250 3 view .LVU50
 273 0016 F9E7     		b	.L15
 274              	.L20:
 275              		.align	2
 276              	.L19:
 277 0018 00000000 		.word	.LANCHOR1
 278              		.cfi_endproc
 279              	.LFE1276:
 281              		.section	.rodata.Adv_Cancel.str1.4,"aMS",%progbits,1
 282              		.align	2
 283              	.LC5:
 284 0000 20200D0A 		.ascii	"  \015\012\015\000"
 284      0D00
 285 0006 0000     		.align	2
 286              	.LC6:
 287 0008 2A2A2053 		.ascii	"** STOP ADVERTISING **  \015\012\015\000"
 287      544F5020 
 287      41445645 
 287      52544953 
 287      494E4720 
 288              		.align	2
 289              	.LC7:
 290 0024 2A2A2053 		.ascii	"** STOP ADVERTISING **  Failed \015\012\015\000"
 290      544F5020 
 290      41445645 
 290      52544953 
 290      494E4720 
 291              		.section	.text.Adv_Cancel,"ax",%progbits
 292              		.align	1
 293              		.syntax unified
 294              		.thumb
 295              		.thumb_func
 296              		.fpu fpv4-sp-d16
 298              	Adv_Cancel:
 299              	.LFB1272:
1160:STM32_WPAN/App/app_ble.c **** /* USER CODE BEGIN Adv_Cancel_1 */
 300              		.loc 1 1160 1 view -0
 301              		.cfi_startproc
 302              		@ args = 0, pretend = 0, frame = 0
 303              		@ frame_needed = 0, uses_anonymous_args = 0
 304 0000 70B5     		push	{r4, r5, r6, lr}
 305              	.LCFI7:
 306              		.cfi_def_cfa_offset 16
 307              		.cfi_offset 4, -16
 308              		.cfi_offset 5, -12
 309              		.cfi_offset 6, -8
 310              		.cfi_offset 14, -4
1162:STM32_WPAN/App/app_ble.c **** /* USER CODE END Adv_Cancel_1 */
 311              		.loc 1 1162 3 view .LVU52
 312 0002 0120     		movs	r0, #1
 313 0004 FFF7FEFF 		bl	BSP_LED_Off
ARM GAS  /var/folders/lt/l_qrc8c54t93n_phsj7cf5tc0000gn/T//ccg72gDc.s 			page 29


 314              	.LVL16:
1165:STM32_WPAN/App/app_ble.c **** 
 315              		.loc 1 1165 3 view .LVU53
1165:STM32_WPAN/App/app_ble.c **** 
 316              		.loc 1 1165 28 is_stmt 0 view .LVU54
 317 0008 1C4B     		ldr	r3, .L26
 318 000a 93F88030 		ldrb	r3, [r3, #128]	@ zero_extendqisi2
1165:STM32_WPAN/App/app_ble.c **** 
 319              		.loc 1 1165 6 view .LVU55
 320 000e 052B     		cmp	r3, #5
 321 0010 00D1     		bne	.L25
 322              	.L21:
1189:STM32_WPAN/App/app_ble.c **** 
 323              		.loc 1 1189 1 view .LVU56
 324 0012 70BD     		pop	{r4, r5, r6, pc}
 325              	.L25:
 326              	.LBB10:
1169:STM32_WPAN/App/app_ble.c **** 
 327              		.loc 1 1169 5 is_stmt 1 view .LVU57
 328              	.LVL17:
1171:STM32_WPAN/App/app_ble.c **** 
 329              		.loc 1 1171 5 view .LVU58
1171:STM32_WPAN/App/app_ble.c **** 
 330              		.loc 1 1171 14 is_stmt 0 view .LVU59
 331 0014 FFF7FEFF 		bl	aci_gap_set_non_discoverable
 332              	.LVL18:
1173:STM32_WPAN/App/app_ble.c ****     if (result == BLE_STATUS_SUCCESS)
 333              		.loc 1 1173 5 is_stmt 1 view .LVU60
1173:STM32_WPAN/App/app_ble.c ****     if (result == BLE_STATUS_SUCCESS)
 334              		.loc 1 1173 52 is_stmt 0 view .LVU61
 335 0018 184B     		ldr	r3, .L26
 336 001a 0022     		movs	r2, #0
 337 001c 83F88020 		strb	r2, [r3, #128]
1174:STM32_WPAN/App/app_ble.c ****     {
 338              		.loc 1 1174 5 is_stmt 1 view .LVU62
1174:STM32_WPAN/App/app_ble.c ****     {
 339              		.loc 1 1174 8 is_stmt 0 view .LVU63
 340 0020 E8B9     		cbnz	r0, .L23
1176:STM32_WPAN/App/app_ble.c ****     }
 341              		.loc 1 1176 7 is_stmt 1 view .LVU64
1176:STM32_WPAN/App/app_ble.c ****     }
 342              		.loc 1 1176 7 view .LVU65
 343 0022 174E     		ldr	r6, .L26+4
 344 0024 3046     		mov	r0, r6
 345              	.LVL19:
1176:STM32_WPAN/App/app_ble.c ****     }
 346              		.loc 1 1176 7 is_stmt 0 view .LVU66
 347 0026 FFF7FEFF 		bl	DbgTraceGetFileName
 348              	.LVL20:
 349 002a 0146     		mov	r1, r0
 350 002c 154D     		ldr	r5, .L26+8
 351 002e 164C     		ldr	r4, .L26+12
 352 0030 4FF49363 		mov	r3, #1176
 353 0034 2A46     		mov	r2, r5
 354 0036 2046     		mov	r0, r4
 355 0038 FFF7FEFF 		bl	printf
 356              	.LVL21:
ARM GAS  /var/folders/lt/l_qrc8c54t93n_phsj7cf5tc0000gn/T//ccg72gDc.s 			page 30


1176:STM32_WPAN/App/app_ble.c ****     }
 357              		.loc 1 1176 7 is_stmt 1 view .LVU67
 358 003c 1348     		ldr	r0, .L26+16
 359 003e FFF7FEFF 		bl	printf
 360              	.LVL22:
1176:STM32_WPAN/App/app_ble.c ****     }
 361              		.loc 1 1176 7 view .LVU68
1176:STM32_WPAN/App/app_ble.c ****     }
 362              		.loc 1 1176 30 view .LVU69
1176:STM32_WPAN/App/app_ble.c ****     }
 363              		.loc 1 1176 31 view .LVU70
1176:STM32_WPAN/App/app_ble.c ****     }
 364              		.loc 1 1176 31 view .LVU71
 365 0042 3046     		mov	r0, r6
 366 0044 FFF7FEFF 		bl	DbgTraceGetFileName
 367              	.LVL23:
 368 0048 0146     		mov	r1, r0
 369 004a 4FF49363 		mov	r3, #1176
 370 004e 2A46     		mov	r2, r5
 371 0050 2046     		mov	r0, r4
 372 0052 FFF7FEFF 		bl	printf
 373              	.LVL24:
1176:STM32_WPAN/App/app_ble.c ****     }
 374              		.loc 1 1176 31 view .LVU72
 375 0056 0E48     		ldr	r0, .L26+20
 376 0058 FFF7FEFF 		bl	printf
 377              	.LVL25:
1176:STM32_WPAN/App/app_ble.c ****     }
 378              		.loc 1 1176 31 view .LVU73
1176:STM32_WPAN/App/app_ble.c ****     }
 379              		.loc 1 1176 76 view .LVU74
 380 005c D9E7     		b	.L21
 381              	.LVL26:
 382              	.L23:
1180:STM32_WPAN/App/app_ble.c ****     }
 383              		.loc 1 1180 7 view .LVU75
1180:STM32_WPAN/App/app_ble.c ****     }
 384              		.loc 1 1180 7 view .LVU76
 385 005e 0848     		ldr	r0, .L26+4
 386              	.LVL27:
1180:STM32_WPAN/App/app_ble.c ****     }
 387              		.loc 1 1180 7 is_stmt 0 view .LVU77
 388 0060 FFF7FEFF 		bl	DbgTraceGetFileName
 389              	.LVL28:
 390 0064 0146     		mov	r1, r0
 391 0066 40F29C43 		movw	r3, #1180
 392 006a 064A     		ldr	r2, .L26+8
 393 006c 0648     		ldr	r0, .L26+12
 394 006e FFF7FEFF 		bl	printf
 395              	.LVL29:
1180:STM32_WPAN/App/app_ble.c ****     }
 396              		.loc 1 1180 7 is_stmt 1 view .LVU78
 397 0072 0848     		ldr	r0, .L26+24
 398 0074 FFF7FEFF 		bl	printf
 399              	.LVL30:
1180:STM32_WPAN/App/app_ble.c ****     }
 400              		.loc 1 1180 7 view .LVU79
ARM GAS  /var/folders/lt/l_qrc8c54t93n_phsj7cf5tc0000gn/T//ccg72gDc.s 			page 31


1180:STM32_WPAN/App/app_ble.c ****     }
 401              		.loc 1 1180 59 view .LVU80
 402              	.LBE10:
1188:STM32_WPAN/App/app_ble.c **** }
 403              		.loc 1 1188 3 view .LVU81
 404 0078 CBE7     		b	.L21
 405              	.L27:
 406 007a 00BF     		.align	2
 407              	.L26:
 408 007c 00000000 		.word	.LANCHOR1
 409 0080 00000000 		.word	.LC1
 410 0084 00000000 		.word	.LANCHOR3
 411 0088 1C000000 		.word	.LC2
 412 008c 00000000 		.word	.LC5
 413 0090 08000000 		.word	.LC6
 414 0094 24000000 		.word	.LC7
 415              		.cfi_endproc
 416              	.LFE1272:
 418              		.section	.text.Ble_Tl_Init,"ax",%progbits
 419              		.align	1
 420              		.syntax unified
 421              		.thumb
 422              		.thumb_func
 423              		.fpu fpv4-sp-d16
 425              	Ble_Tl_Init:
 426              	.LFB1268:
 817:STM32_WPAN/App/app_ble.c ****   HCI_TL_HciInitConf_t Hci_Tl_Init_Conf;
 427              		.loc 1 817 1 view -0
 428              		.cfi_startproc
 429              		@ args = 0, pretend = 0, frame = 8
 430              		@ frame_needed = 0, uses_anonymous_args = 0
 431 0000 00B5     		push	{lr}
 432              	.LCFI8:
 433              		.cfi_def_cfa_offset 4
 434              		.cfi_offset 14, -4
 435 0002 83B0     		sub	sp, sp, #12
 436              	.LCFI9:
 437              		.cfi_def_cfa_offset 16
 818:STM32_WPAN/App/app_ble.c **** 
 438              		.loc 1 818 3 view .LVU83
 820:STM32_WPAN/App/app_ble.c ****   Hci_Tl_Init_Conf.StatusNotCallBack = BLE_StatusNot;
 439              		.loc 1 820 3 view .LVU84
 820:STM32_WPAN/App/app_ble.c ****   Hci_Tl_Init_Conf.StatusNotCallBack = BLE_StatusNot;
 440              		.loc 1 820 32 is_stmt 0 view .LVU85
 441 0004 054B     		ldr	r3, .L30
 442 0006 0093     		str	r3, [sp]
 821:STM32_WPAN/App/app_ble.c ****   hci_init(BLE_UserEvtRx, (void*) &Hci_Tl_Init_Conf);
 443              		.loc 1 821 3 is_stmt 1 view .LVU86
 821:STM32_WPAN/App/app_ble.c ****   hci_init(BLE_UserEvtRx, (void*) &Hci_Tl_Init_Conf);
 444              		.loc 1 821 38 is_stmt 0 view .LVU87
 445 0008 054B     		ldr	r3, .L30+4
 446 000a 0193     		str	r3, [sp, #4]
 822:STM32_WPAN/App/app_ble.c **** 
 447              		.loc 1 822 3 is_stmt 1 view .LVU88
 448 000c 6946     		mov	r1, sp
 449 000e 0548     		ldr	r0, .L30+8
 450 0010 FFF7FEFF 		bl	hci_init
ARM GAS  /var/folders/lt/l_qrc8c54t93n_phsj7cf5tc0000gn/T//ccg72gDc.s 			page 32


 451              	.LVL31:
 824:STM32_WPAN/App/app_ble.c **** }
 452              		.loc 1 824 3 view .LVU89
 825:STM32_WPAN/App/app_ble.c **** 
 453              		.loc 1 825 1 is_stmt 0 view .LVU90
 454 0014 03B0     		add	sp, sp, #12
 455              	.LCFI10:
 456              		.cfi_def_cfa_offset 4
 457              		@ sp needed
 458 0016 5DF804FB 		ldr	pc, [sp], #4
 459              	.L31:
 460 001a 00BF     		.align	2
 461              	.L30:
 462 001c 00000000 		.word	.LANCHOR4
 463 0020 00000000 		.word	BLE_StatusNot
 464 0024 00000000 		.word	BLE_UserEvtRx
 465              		.cfi_endproc
 466              	.LFE1268:
 468              		.section	.text.BLE_UserEvtRx,"ax",%progbits
 469              		.align	1
 470              		.syntax unified
 471              		.thumb
 472              		.thumb_func
 473              		.fpu fpv4-sp-d16
 475              	BLE_UserEvtRx:
 476              	.LVL32:
 477              	.LFB1280:
1252:STM32_WPAN/App/app_ble.c **** #endif
1253:STM32_WPAN/App/app_ble.c **** 
1254:STM32_WPAN/App/app_ble.c **** /* USER CODE BEGIN FD_SPECIFIC_FUNCTIONS */
1255:STM32_WPAN/App/app_ble.c **** 
1256:STM32_WPAN/App/app_ble.c **** /* USER CODE END FD_SPECIFIC_FUNCTIONS */
1257:STM32_WPAN/App/app_ble.c **** /*************************************************************
1258:STM32_WPAN/App/app_ble.c ****  *
1259:STM32_WPAN/App/app_ble.c ****  * WRAP FUNCTIONS
1260:STM32_WPAN/App/app_ble.c ****  *
1261:STM32_WPAN/App/app_ble.c ****  *************************************************************/
1262:STM32_WPAN/App/app_ble.c **** void hci_notify_asynch_evt(void* pdata)
1263:STM32_WPAN/App/app_ble.c **** {
1264:STM32_WPAN/App/app_ble.c ****   UTIL_SEQ_SetTask(1 << CFG_TASK_HCI_ASYNCH_EVT_ID, CFG_SCH_PRIO_0);
1265:STM32_WPAN/App/app_ble.c ****   return;
1266:STM32_WPAN/App/app_ble.c **** }
1267:STM32_WPAN/App/app_ble.c **** 
1268:STM32_WPAN/App/app_ble.c **** void hci_cmd_resp_release(uint32_t flag)
1269:STM32_WPAN/App/app_ble.c **** {
1270:STM32_WPAN/App/app_ble.c ****   UTIL_SEQ_SetEvt(1 << CFG_IDLEEVT_HCI_CMD_EVT_RSP_ID);
1271:STM32_WPAN/App/app_ble.c ****   return;
1272:STM32_WPAN/App/app_ble.c **** }
1273:STM32_WPAN/App/app_ble.c **** 
1274:STM32_WPAN/App/app_ble.c **** void hci_cmd_resp_wait(uint32_t timeout)
1275:STM32_WPAN/App/app_ble.c **** {
1276:STM32_WPAN/App/app_ble.c ****   UTIL_SEQ_WaitEvt(1 << CFG_IDLEEVT_HCI_CMD_EVT_RSP_ID);
1277:STM32_WPAN/App/app_ble.c ****   return;
1278:STM32_WPAN/App/app_ble.c **** }
1279:STM32_WPAN/App/app_ble.c **** 
1280:STM32_WPAN/App/app_ble.c **** static void BLE_UserEvtRx( void * pPayload )
1281:STM32_WPAN/App/app_ble.c **** {
ARM GAS  /var/folders/lt/l_qrc8c54t93n_phsj7cf5tc0000gn/T//ccg72gDc.s 			page 33


 478              		.loc 1 1281 1 is_stmt 1 view -0
 479              		.cfi_startproc
 480              		@ args = 0, pretend = 0, frame = 0
 481              		@ frame_needed = 0, uses_anonymous_args = 0
 482              		.loc 1 1281 1 is_stmt 0 view .LVU92
 483 0000 10B5     		push	{r4, lr}
 484              	.LCFI11:
 485              		.cfi_def_cfa_offset 8
 486              		.cfi_offset 4, -8
 487              		.cfi_offset 14, -4
 488 0002 0446     		mov	r4, r0
1282:STM32_WPAN/App/app_ble.c ****   SVCCTL_UserEvtFlowStatus_t svctl_return_status;
 489              		.loc 1 1282 3 is_stmt 1 view .LVU93
1283:STM32_WPAN/App/app_ble.c ****   tHCI_UserEvtRxParam *pParam;
 490              		.loc 1 1283 3 view .LVU94
1284:STM32_WPAN/App/app_ble.c **** 
1285:STM32_WPAN/App/app_ble.c ****   pParam = (tHCI_UserEvtRxParam *)pPayload;
 491              		.loc 1 1285 3 view .LVU95
 492              	.LVL33:
1286:STM32_WPAN/App/app_ble.c **** 
1287:STM32_WPAN/App/app_ble.c ****   svctl_return_status = SVCCTL_UserEvtRx((void *)&(pParam->pckt->evtserial));
 493              		.loc 1 1287 3 view .LVU96
 494              		.loc 1 1287 58 is_stmt 0 view .LVU97
 495 0004 4068     		ldr	r0, [r0, #4]
 496              	.LVL34:
 497              		.loc 1 1287 25 view .LVU98
 498 0006 0830     		adds	r0, r0, #8
 499 0008 FFF7FEFF 		bl	SVCCTL_UserEvtRx
 500              	.LVL35:
1288:STM32_WPAN/App/app_ble.c ****   if (svctl_return_status != SVCCTL_UserEvtFlowDisable)
 501              		.loc 1 1288 3 is_stmt 1 view .LVU99
 502              		.loc 1 1288 6 is_stmt 0 view .LVU100
 503 000c 10B1     		cbz	r0, .L33
1289:STM32_WPAN/App/app_ble.c ****   {
1290:STM32_WPAN/App/app_ble.c ****     pParam->status = HCI_TL_UserEventFlow_Enable;
 504              		.loc 1 1290 5 is_stmt 1 view .LVU101
 505              		.loc 1 1290 20 is_stmt 0 view .LVU102
 506 000e 0123     		movs	r3, #1
 507 0010 2370     		strb	r3, [r4]
 508              	.L32:
1291:STM32_WPAN/App/app_ble.c ****   }
1292:STM32_WPAN/App/app_ble.c ****   else
1293:STM32_WPAN/App/app_ble.c ****   {
1294:STM32_WPAN/App/app_ble.c ****     pParam->status = HCI_TL_UserEventFlow_Disable;
1295:STM32_WPAN/App/app_ble.c ****   }
1296:STM32_WPAN/App/app_ble.c **** 
1297:STM32_WPAN/App/app_ble.c ****   return;
1298:STM32_WPAN/App/app_ble.c **** }
 509              		.loc 1 1298 1 view .LVU103
 510 0012 10BD     		pop	{r4, pc}
 511              	.LVL36:
 512              	.L33:
1294:STM32_WPAN/App/app_ble.c ****   }
 513              		.loc 1 1294 5 is_stmt 1 view .LVU104
1294:STM32_WPAN/App/app_ble.c ****   }
 514              		.loc 1 1294 20 is_stmt 0 view .LVU105
 515 0014 0023     		movs	r3, #0
ARM GAS  /var/folders/lt/l_qrc8c54t93n_phsj7cf5tc0000gn/T//ccg72gDc.s 			page 34


 516 0016 2370     		strb	r3, [r4]
1297:STM32_WPAN/App/app_ble.c **** }
 517              		.loc 1 1297 3 is_stmt 1 view .LVU106
 518 0018 FBE7     		b	.L32
 519              		.cfi_endproc
 520              	.LFE1280:
 522              		.section	.text.BLE_StatusNot,"ax",%progbits
 523              		.align	1
 524              		.syntax unified
 525              		.thumb
 526              		.thumb_func
 527              		.fpu fpv4-sp-d16
 529              	BLE_StatusNot:
 530              	.LVL37:
 531              	.LFB1281:
1299:STM32_WPAN/App/app_ble.c **** 
1300:STM32_WPAN/App/app_ble.c **** static void BLE_StatusNot( HCI_TL_CmdStatus_t status )
1301:STM32_WPAN/App/app_ble.c **** {
 532              		.loc 1 1301 1 view -0
 533              		.cfi_startproc
 534              		@ args = 0, pretend = 0, frame = 0
 535              		@ frame_needed = 0, uses_anonymous_args = 0
 536              		.loc 1 1301 1 is_stmt 0 view .LVU108
 537 0000 08B5     		push	{r3, lr}
 538              	.LCFI12:
 539              		.cfi_def_cfa_offset 8
 540              		.cfi_offset 3, -8
 541              		.cfi_offset 14, -4
1302:STM32_WPAN/App/app_ble.c ****   uint32_t task_id_list;
 542              		.loc 1 1302 3 is_stmt 1 view .LVU109
1303:STM32_WPAN/App/app_ble.c ****   switch (status)
 543              		.loc 1 1303 3 view .LVU110
 544 0002 10B1     		cbz	r0, .L37
 545 0004 0128     		cmp	r0, #1
 546 0006 04D0     		beq	.L38
 547              	.LVL38:
 548              	.L36:
1304:STM32_WPAN/App/app_ble.c ****   {
1305:STM32_WPAN/App/app_ble.c ****     case HCI_TL_CmdBusy:
1306:STM32_WPAN/App/app_ble.c ****       /**
1307:STM32_WPAN/App/app_ble.c ****        * All tasks that may send an aci/hci commands shall be listed here
1308:STM32_WPAN/App/app_ble.c ****        * This is to prevent a new command is sent while one is already pending
1309:STM32_WPAN/App/app_ble.c ****        */
1310:STM32_WPAN/App/app_ble.c ****       task_id_list = (1 << CFG_LAST_TASK_ID_WITH_HCICMD) - 1;
1311:STM32_WPAN/App/app_ble.c ****       UTIL_SEQ_PauseTask(task_id_list);
1312:STM32_WPAN/App/app_ble.c **** 
1313:STM32_WPAN/App/app_ble.c ****       break;
1314:STM32_WPAN/App/app_ble.c **** 
1315:STM32_WPAN/App/app_ble.c ****     case HCI_TL_CmdAvailable:
1316:STM32_WPAN/App/app_ble.c ****       /**
1317:STM32_WPAN/App/app_ble.c ****        * All tasks that may send an aci/hci commands shall be listed here
1318:STM32_WPAN/App/app_ble.c ****        * This is to prevent a new command is sent while one is already pending
1319:STM32_WPAN/App/app_ble.c ****        */
1320:STM32_WPAN/App/app_ble.c ****       task_id_list = (1 << CFG_LAST_TASK_ID_WITH_HCICMD) - 1;
1321:STM32_WPAN/App/app_ble.c ****       UTIL_SEQ_ResumeTask(task_id_list);
1322:STM32_WPAN/App/app_ble.c **** 
1323:STM32_WPAN/App/app_ble.c ****       break;
ARM GAS  /var/folders/lt/l_qrc8c54t93n_phsj7cf5tc0000gn/T//ccg72gDc.s 			page 35


1324:STM32_WPAN/App/app_ble.c **** 
1325:STM32_WPAN/App/app_ble.c ****     default:
1326:STM32_WPAN/App/app_ble.c ****       break;
1327:STM32_WPAN/App/app_ble.c ****   }
1328:STM32_WPAN/App/app_ble.c ****   return;
1329:STM32_WPAN/App/app_ble.c **** }
 549              		.loc 1 1329 1 is_stmt 0 view .LVU111
 550 0008 08BD     		pop	{r3, pc}
 551              	.LVL39:
 552              	.L37:
1310:STM32_WPAN/App/app_ble.c ****       UTIL_SEQ_PauseTask(task_id_list);
 553              		.loc 1 1310 7 is_stmt 1 view .LVU112
1311:STM32_WPAN/App/app_ble.c **** 
 554              		.loc 1 1311 7 view .LVU113
 555 000a 3F20     		movs	r0, #63
 556              	.LVL40:
1311:STM32_WPAN/App/app_ble.c **** 
 557              		.loc 1 1311 7 is_stmt 0 view .LVU114
 558 000c FFF7FEFF 		bl	UTIL_SEQ_PauseTask
 559              	.LVL41:
1313:STM32_WPAN/App/app_ble.c **** 
 560              		.loc 1 1313 7 is_stmt 1 view .LVU115
 561 0010 FAE7     		b	.L36
 562              	.LVL42:
 563              	.L38:
1320:STM32_WPAN/App/app_ble.c ****       UTIL_SEQ_ResumeTask(task_id_list);
 564              		.loc 1 1320 7 view .LVU116
1321:STM32_WPAN/App/app_ble.c **** 
 565              		.loc 1 1321 7 view .LVU117
 566 0012 3F20     		movs	r0, #63
 567              	.LVL43:
1321:STM32_WPAN/App/app_ble.c **** 
 568              		.loc 1 1321 7 is_stmt 0 view .LVU118
 569 0014 FFF7FEFF 		bl	UTIL_SEQ_ResumeTask
 570              	.LVL44:
1323:STM32_WPAN/App/app_ble.c **** 
 571              		.loc 1 1323 7 is_stmt 1 view .LVU119
1328:STM32_WPAN/App/app_ble.c **** }
 572              		.loc 1 1328 3 view .LVU120
 573 0018 F6E7     		b	.L36
 574              		.cfi_endproc
 575              	.LFE1281:
 577              		.section	.text.BleGetBdAddress,"ax",%progbits
 578              		.align	1
 579              		.syntax unified
 580              		.thumb
 581              		.thumb_func
 582              		.fpu fpv4-sp-d16
 584              	BleGetBdAddress:
 585              	.LFB1271:
1103:STM32_WPAN/App/app_ble.c ****   uint8_t *otp_addr;
 586              		.loc 1 1103 1 view -0
 587              		.cfi_startproc
 588              		@ args = 0, pretend = 0, frame = 0
 589              		@ frame_needed = 0, uses_anonymous_args = 0
 590 0000 08B5     		push	{r3, lr}
 591              	.LCFI13:
ARM GAS  /var/folders/lt/l_qrc8c54t93n_phsj7cf5tc0000gn/T//ccg72gDc.s 			page 36


 592              		.cfi_def_cfa_offset 8
 593              		.cfi_offset 3, -8
 594              		.cfi_offset 14, -4
1104:STM32_WPAN/App/app_ble.c ****   const uint8_t *bd_addr;
 595              		.loc 1 1104 3 view .LVU122
1105:STM32_WPAN/App/app_ble.c ****   uint32_t udn;
 596              		.loc 1 1105 3 view .LVU123
1106:STM32_WPAN/App/app_ble.c ****   uint32_t company_id;
 597              		.loc 1 1106 3 view .LVU124
1107:STM32_WPAN/App/app_ble.c ****   uint32_t device_id;
 598              		.loc 1 1107 3 view .LVU125
1108:STM32_WPAN/App/app_ble.c **** 
 599              		.loc 1 1108 3 view .LVU126
1110:STM32_WPAN/App/app_ble.c **** 
 600              		.loc 1 1110 3 view .LVU127
 601              	.LBB11:
 602              	.LBI11:
 603              		.file 2 "Drivers/STM32WBxx_HAL_Driver/Inc/stm32wbxx_ll_system.h"
   1:Drivers/STM32WBxx_HAL_Driver/Inc/stm32wbxx_ll_system.h **** /**
   2:Drivers/STM32WBxx_HAL_Driver/Inc/stm32wbxx_ll_system.h ****   ******************************************************************************
   3:Drivers/STM32WBxx_HAL_Driver/Inc/stm32wbxx_ll_system.h ****   * @file    stm32wbxx_ll_system.h
   4:Drivers/STM32WBxx_HAL_Driver/Inc/stm32wbxx_ll_system.h ****   * @author  MCD Application Team
   5:Drivers/STM32WBxx_HAL_Driver/Inc/stm32wbxx_ll_system.h ****   * @brief   Header file of SYSTEM LL module.
   6:Drivers/STM32WBxx_HAL_Driver/Inc/stm32wbxx_ll_system.h ****   ******************************************************************************
   7:Drivers/STM32WBxx_HAL_Driver/Inc/stm32wbxx_ll_system.h ****   * @attention
   8:Drivers/STM32WBxx_HAL_Driver/Inc/stm32wbxx_ll_system.h ****   *
   9:Drivers/STM32WBxx_HAL_Driver/Inc/stm32wbxx_ll_system.h ****   * Copyright (c) 2019 STMicroelectronics.
  10:Drivers/STM32WBxx_HAL_Driver/Inc/stm32wbxx_ll_system.h ****   * All rights reserved.
  11:Drivers/STM32WBxx_HAL_Driver/Inc/stm32wbxx_ll_system.h ****   *
  12:Drivers/STM32WBxx_HAL_Driver/Inc/stm32wbxx_ll_system.h ****   * This software is licensed under terms that can be found in the LICENSE file
  13:Drivers/STM32WBxx_HAL_Driver/Inc/stm32wbxx_ll_system.h ****   * in the root directory of this software component.
  14:Drivers/STM32WBxx_HAL_Driver/Inc/stm32wbxx_ll_system.h ****   * If no LICENSE file comes with this software, it is provided AS-IS.
  15:Drivers/STM32WBxx_HAL_Driver/Inc/stm32wbxx_ll_system.h ****   *
  16:Drivers/STM32WBxx_HAL_Driver/Inc/stm32wbxx_ll_system.h ****   ******************************************************************************
  17:Drivers/STM32WBxx_HAL_Driver/Inc/stm32wbxx_ll_system.h ****   @verbatim
  18:Drivers/STM32WBxx_HAL_Driver/Inc/stm32wbxx_ll_system.h ****   ==============================================================================
  19:Drivers/STM32WBxx_HAL_Driver/Inc/stm32wbxx_ll_system.h ****                      ##### How to use this driver #####
  20:Drivers/STM32WBxx_HAL_Driver/Inc/stm32wbxx_ll_system.h ****   ==============================================================================
  21:Drivers/STM32WBxx_HAL_Driver/Inc/stm32wbxx_ll_system.h ****     [..]
  22:Drivers/STM32WBxx_HAL_Driver/Inc/stm32wbxx_ll_system.h ****     The LL SYSTEM driver contains a set of generic APIs that can be
  23:Drivers/STM32WBxx_HAL_Driver/Inc/stm32wbxx_ll_system.h ****     used by user:
  24:Drivers/STM32WBxx_HAL_Driver/Inc/stm32wbxx_ll_system.h ****       (+) Some of the FLASH features need to be handled in the SYSTEM file.
  25:Drivers/STM32WBxx_HAL_Driver/Inc/stm32wbxx_ll_system.h ****       (+) Access to DBGCMU registers
  26:Drivers/STM32WBxx_HAL_Driver/Inc/stm32wbxx_ll_system.h ****       (+) Access to SYSCFG registers
  27:Drivers/STM32WBxx_HAL_Driver/Inc/stm32wbxx_ll_system.h ****       (+) Access to VREFBUF registers
  28:Drivers/STM32WBxx_HAL_Driver/Inc/stm32wbxx_ll_system.h **** 
  29:Drivers/STM32WBxx_HAL_Driver/Inc/stm32wbxx_ll_system.h ****   @endverbatim
  30:Drivers/STM32WBxx_HAL_Driver/Inc/stm32wbxx_ll_system.h ****   ******************************************************************************
  31:Drivers/STM32WBxx_HAL_Driver/Inc/stm32wbxx_ll_system.h ****   */
  32:Drivers/STM32WBxx_HAL_Driver/Inc/stm32wbxx_ll_system.h **** 
  33:Drivers/STM32WBxx_HAL_Driver/Inc/stm32wbxx_ll_system.h **** /* Define to prevent recursive inclusion -------------------------------------*/
  34:Drivers/STM32WBxx_HAL_Driver/Inc/stm32wbxx_ll_system.h **** #ifndef STM32WBxx_LL_SYSTEM_H
  35:Drivers/STM32WBxx_HAL_Driver/Inc/stm32wbxx_ll_system.h **** #define STM32WBxx_LL_SYSTEM_H
  36:Drivers/STM32WBxx_HAL_Driver/Inc/stm32wbxx_ll_system.h **** 
  37:Drivers/STM32WBxx_HAL_Driver/Inc/stm32wbxx_ll_system.h **** #ifdef __cplusplus
  38:Drivers/STM32WBxx_HAL_Driver/Inc/stm32wbxx_ll_system.h **** extern "C" {
  39:Drivers/STM32WBxx_HAL_Driver/Inc/stm32wbxx_ll_system.h **** #endif
ARM GAS  /var/folders/lt/l_qrc8c54t93n_phsj7cf5tc0000gn/T//ccg72gDc.s 			page 37


  40:Drivers/STM32WBxx_HAL_Driver/Inc/stm32wbxx_ll_system.h **** 
  41:Drivers/STM32WBxx_HAL_Driver/Inc/stm32wbxx_ll_system.h **** /* Includes ------------------------------------------------------------------*/
  42:Drivers/STM32WBxx_HAL_Driver/Inc/stm32wbxx_ll_system.h **** #include "stm32wbxx.h"
  43:Drivers/STM32WBxx_HAL_Driver/Inc/stm32wbxx_ll_system.h **** 
  44:Drivers/STM32WBxx_HAL_Driver/Inc/stm32wbxx_ll_system.h **** /** @addtogroup STM32WBxx_LL_Driver
  45:Drivers/STM32WBxx_HAL_Driver/Inc/stm32wbxx_ll_system.h ****   * @{
  46:Drivers/STM32WBxx_HAL_Driver/Inc/stm32wbxx_ll_system.h ****   */
  47:Drivers/STM32WBxx_HAL_Driver/Inc/stm32wbxx_ll_system.h **** 
  48:Drivers/STM32WBxx_HAL_Driver/Inc/stm32wbxx_ll_system.h **** #if defined (FLASH) || defined (SYSCFG) || defined (DBGMCU) || defined (VREFBUF)
  49:Drivers/STM32WBxx_HAL_Driver/Inc/stm32wbxx_ll_system.h **** 
  50:Drivers/STM32WBxx_HAL_Driver/Inc/stm32wbxx_ll_system.h **** /** @defgroup SYSTEM_LL SYSTEM
  51:Drivers/STM32WBxx_HAL_Driver/Inc/stm32wbxx_ll_system.h ****   * @{
  52:Drivers/STM32WBxx_HAL_Driver/Inc/stm32wbxx_ll_system.h ****   */
  53:Drivers/STM32WBxx_HAL_Driver/Inc/stm32wbxx_ll_system.h **** 
  54:Drivers/STM32WBxx_HAL_Driver/Inc/stm32wbxx_ll_system.h **** /* Private types -------------------------------------------------------------*/
  55:Drivers/STM32WBxx_HAL_Driver/Inc/stm32wbxx_ll_system.h **** /* Private variables ---------------------------------------------------------*/
  56:Drivers/STM32WBxx_HAL_Driver/Inc/stm32wbxx_ll_system.h **** 
  57:Drivers/STM32WBxx_HAL_Driver/Inc/stm32wbxx_ll_system.h **** /* Private constants ---------------------------------------------------------*/
  58:Drivers/STM32WBxx_HAL_Driver/Inc/stm32wbxx_ll_system.h **** /** @defgroup SYSTEM_LL_Private_Constants SYSTEM Private Constants
  59:Drivers/STM32WBxx_HAL_Driver/Inc/stm32wbxx_ll_system.h ****   * @{
  60:Drivers/STM32WBxx_HAL_Driver/Inc/stm32wbxx_ll_system.h ****   */
  61:Drivers/STM32WBxx_HAL_Driver/Inc/stm32wbxx_ll_system.h **** /**
  62:Drivers/STM32WBxx_HAL_Driver/Inc/stm32wbxx_ll_system.h ****  * @brief VREFBUF VREF_SC0 & VREF_SC1 calibration values 
  63:Drivers/STM32WBxx_HAL_Driver/Inc/stm32wbxx_ll_system.h ****  */
  64:Drivers/STM32WBxx_HAL_Driver/Inc/stm32wbxx_ll_system.h **** #define VREFBUF_SC0_CAL_ADDR   ((uint8_t*) (0x1FFF75F0UL)) /*!<  Address of VREFBUF trimming value 
  65:Drivers/STM32WBxx_HAL_Driver/Inc/stm32wbxx_ll_system.h ****                                                                  VREF_SC0 in STM32WB datasheet */
  66:Drivers/STM32WBxx_HAL_Driver/Inc/stm32wbxx_ll_system.h **** #define VREFBUF_SC1_CAL_ADDR   ((uint8_t*) (0x1FFF7530UL)) /*!<  Address of VREFBUF trimming value 
  67:Drivers/STM32WBxx_HAL_Driver/Inc/stm32wbxx_ll_system.h ****                                                                  VREF_SC1 in STM32WB datasheet */
  68:Drivers/STM32WBxx_HAL_Driver/Inc/stm32wbxx_ll_system.h **** /**
  69:Drivers/STM32WBxx_HAL_Driver/Inc/stm32wbxx_ll_system.h ****   * @}
  70:Drivers/STM32WBxx_HAL_Driver/Inc/stm32wbxx_ll_system.h ****   */
  71:Drivers/STM32WBxx_HAL_Driver/Inc/stm32wbxx_ll_system.h **** 
  72:Drivers/STM32WBxx_HAL_Driver/Inc/stm32wbxx_ll_system.h **** /* Private macros ------------------------------------------------------------*/
  73:Drivers/STM32WBxx_HAL_Driver/Inc/stm32wbxx_ll_system.h **** 
  74:Drivers/STM32WBxx_HAL_Driver/Inc/stm32wbxx_ll_system.h **** /* Exported types ------------------------------------------------------------*/
  75:Drivers/STM32WBxx_HAL_Driver/Inc/stm32wbxx_ll_system.h **** /* Exported constants --------------------------------------------------------*/
  76:Drivers/STM32WBxx_HAL_Driver/Inc/stm32wbxx_ll_system.h **** /** @defgroup SYSTEM_LL_Exported_Constants SYSTEM Exported Constants
  77:Drivers/STM32WBxx_HAL_Driver/Inc/stm32wbxx_ll_system.h ****   * @{
  78:Drivers/STM32WBxx_HAL_Driver/Inc/stm32wbxx_ll_system.h ****   */
  79:Drivers/STM32WBxx_HAL_Driver/Inc/stm32wbxx_ll_system.h **** 
  80:Drivers/STM32WBxx_HAL_Driver/Inc/stm32wbxx_ll_system.h **** /** @defgroup SYSTEM_LL_EC_REMAP SYSCFG REMAP
  81:Drivers/STM32WBxx_HAL_Driver/Inc/stm32wbxx_ll_system.h **** * @{
  82:Drivers/STM32WBxx_HAL_Driver/Inc/stm32wbxx_ll_system.h **** */
  83:Drivers/STM32WBxx_HAL_Driver/Inc/stm32wbxx_ll_system.h **** #define LL_SYSCFG_REMAP_FLASH                   0x00000000U                                        
  84:Drivers/STM32WBxx_HAL_Driver/Inc/stm32wbxx_ll_system.h **** #define LL_SYSCFG_REMAP_SYSTEMFLASH             SYSCFG_MEMRMP_MEM_MODE_0                           
  85:Drivers/STM32WBxx_HAL_Driver/Inc/stm32wbxx_ll_system.h **** #define LL_SYSCFG_REMAP_SRAM                    (SYSCFG_MEMRMP_MEM_MODE_1 | SYSCFG_MEMRMP_MEM_MODE_
  86:Drivers/STM32WBxx_HAL_Driver/Inc/stm32wbxx_ll_system.h **** #if defined(QUADSPI)
  87:Drivers/STM32WBxx_HAL_Driver/Inc/stm32wbxx_ll_system.h **** #define LL_SYSCFG_REMAP_QUADSPI                 (SYSCFG_MEMRMP_MEM_MODE_2 | SYSCFG_MEMRMP_MEM_MODE_
  88:Drivers/STM32WBxx_HAL_Driver/Inc/stm32wbxx_ll_system.h **** #endif
  89:Drivers/STM32WBxx_HAL_Driver/Inc/stm32wbxx_ll_system.h **** /**
  90:Drivers/STM32WBxx_HAL_Driver/Inc/stm32wbxx_ll_system.h ****   * @}
  91:Drivers/STM32WBxx_HAL_Driver/Inc/stm32wbxx_ll_system.h ****   */
  92:Drivers/STM32WBxx_HAL_Driver/Inc/stm32wbxx_ll_system.h **** 
  93:Drivers/STM32WBxx_HAL_Driver/Inc/stm32wbxx_ll_system.h **** /** @defgroup SYSTEM_LL_EC_I2C_FASTMODEPLUS SYSCFG I2C FASTMODEPLUS
  94:Drivers/STM32WBxx_HAL_Driver/Inc/stm32wbxx_ll_system.h ****   * @{
  95:Drivers/STM32WBxx_HAL_Driver/Inc/stm32wbxx_ll_system.h ****   */
  96:Drivers/STM32WBxx_HAL_Driver/Inc/stm32wbxx_ll_system.h **** #define LL_SYSCFG_I2C_FASTMODEPLUS_PB6          SYSCFG_CFGR1_I2C_PB6_FMP /*!< Enable Fast Mode Plus
ARM GAS  /var/folders/lt/l_qrc8c54t93n_phsj7cf5tc0000gn/T//ccg72gDc.s 			page 38


  97:Drivers/STM32WBxx_HAL_Driver/Inc/stm32wbxx_ll_system.h **** #define LL_SYSCFG_I2C_FASTMODEPLUS_PB7          SYSCFG_CFGR1_I2C_PB7_FMP /*!< Enable Fast Mode Plus
  98:Drivers/STM32WBxx_HAL_Driver/Inc/stm32wbxx_ll_system.h **** #define LL_SYSCFG_I2C_FASTMODEPLUS_PB8          SYSCFG_CFGR1_I2C_PB8_FMP /*!< Enable Fast Mode Plus
  99:Drivers/STM32WBxx_HAL_Driver/Inc/stm32wbxx_ll_system.h **** #define LL_SYSCFG_I2C_FASTMODEPLUS_PB9          SYSCFG_CFGR1_I2C_PB9_FMP /*!< Enable Fast Mode Plus
 100:Drivers/STM32WBxx_HAL_Driver/Inc/stm32wbxx_ll_system.h **** #define LL_SYSCFG_I2C_FASTMODEPLUS_I2C1         SYSCFG_CFGR1_I2C1_FMP    /*!< Enable Fast Mode Plus
 101:Drivers/STM32WBxx_HAL_Driver/Inc/stm32wbxx_ll_system.h **** #if defined(I2C3)
 102:Drivers/STM32WBxx_HAL_Driver/Inc/stm32wbxx_ll_system.h **** #define LL_SYSCFG_I2C_FASTMODEPLUS_I2C3         SYSCFG_CFGR1_I2C3_FMP    /*!< Enable Fast Mode Plus
 103:Drivers/STM32WBxx_HAL_Driver/Inc/stm32wbxx_ll_system.h **** #endif
 104:Drivers/STM32WBxx_HAL_Driver/Inc/stm32wbxx_ll_system.h **** /**
 105:Drivers/STM32WBxx_HAL_Driver/Inc/stm32wbxx_ll_system.h ****   * @}
 106:Drivers/STM32WBxx_HAL_Driver/Inc/stm32wbxx_ll_system.h ****   */
 107:Drivers/STM32WBxx_HAL_Driver/Inc/stm32wbxx_ll_system.h **** 
 108:Drivers/STM32WBxx_HAL_Driver/Inc/stm32wbxx_ll_system.h **** /** @defgroup SYSTEM_LL_EC_EXTI_PORT SYSCFG EXTI PORT
 109:Drivers/STM32WBxx_HAL_Driver/Inc/stm32wbxx_ll_system.h ****   * @{
 110:Drivers/STM32WBxx_HAL_Driver/Inc/stm32wbxx_ll_system.h ****   */
 111:Drivers/STM32WBxx_HAL_Driver/Inc/stm32wbxx_ll_system.h **** #define LL_SYSCFG_EXTI_PORTA                    0U /*!< EXTI PORT A */
 112:Drivers/STM32WBxx_HAL_Driver/Inc/stm32wbxx_ll_system.h **** #define LL_SYSCFG_EXTI_PORTB                    1U /*!< EXTI PORT B */
 113:Drivers/STM32WBxx_HAL_Driver/Inc/stm32wbxx_ll_system.h **** #define LL_SYSCFG_EXTI_PORTC                    2U /*!< EXTI PORT C */
 114:Drivers/STM32WBxx_HAL_Driver/Inc/stm32wbxx_ll_system.h **** #define LL_SYSCFG_EXTI_PORTD                    3U /*!< EXTI PORT D */
 115:Drivers/STM32WBxx_HAL_Driver/Inc/stm32wbxx_ll_system.h **** #define LL_SYSCFG_EXTI_PORTE                    4U /*!< EXTI PORT E */
 116:Drivers/STM32WBxx_HAL_Driver/Inc/stm32wbxx_ll_system.h **** #define LL_SYSCFG_EXTI_PORTH                    7U /*!< EXTI PORT H */
 117:Drivers/STM32WBxx_HAL_Driver/Inc/stm32wbxx_ll_system.h **** /**
 118:Drivers/STM32WBxx_HAL_Driver/Inc/stm32wbxx_ll_system.h ****   * @}
 119:Drivers/STM32WBxx_HAL_Driver/Inc/stm32wbxx_ll_system.h ****   */
 120:Drivers/STM32WBxx_HAL_Driver/Inc/stm32wbxx_ll_system.h **** 
 121:Drivers/STM32WBxx_HAL_Driver/Inc/stm32wbxx_ll_system.h **** /** @defgroup SYSTEM_LL_EC_EXTI_LINE SYSCFG EXTI LINE
 122:Drivers/STM32WBxx_HAL_Driver/Inc/stm32wbxx_ll_system.h ****   * @{
 123:Drivers/STM32WBxx_HAL_Driver/Inc/stm32wbxx_ll_system.h ****   */
 124:Drivers/STM32WBxx_HAL_Driver/Inc/stm32wbxx_ll_system.h **** #define LL_SYSCFG_EXTI_LINE0                    (uint32_t)((0x000FU << 16U) | 0U) /*!< EXTI_POSITIO
 125:Drivers/STM32WBxx_HAL_Driver/Inc/stm32wbxx_ll_system.h **** #define LL_SYSCFG_EXTI_LINE1                    (uint32_t)((0x00F0U << 16U) | 0U) /*!< EXTI_POSITIO
 126:Drivers/STM32WBxx_HAL_Driver/Inc/stm32wbxx_ll_system.h **** #define LL_SYSCFG_EXTI_LINE2                    (uint32_t)((0x0F00U << 16U) | 0U) /*!< EXTI_POSITIO
 127:Drivers/STM32WBxx_HAL_Driver/Inc/stm32wbxx_ll_system.h **** #define LL_SYSCFG_EXTI_LINE3                    (uint32_t)((0xF000U << 16U) | 0U) /*!< EXTI_POSITIO
 128:Drivers/STM32WBxx_HAL_Driver/Inc/stm32wbxx_ll_system.h **** #define LL_SYSCFG_EXTI_LINE4                    (uint32_t)((0x000FU << 16U) | 1U) /*!< EXTI_POSITIO
 129:Drivers/STM32WBxx_HAL_Driver/Inc/stm32wbxx_ll_system.h **** #define LL_SYSCFG_EXTI_LINE5                    (uint32_t)((0x00F0U << 16U) | 1U) /*!< EXTI_POSITIO
 130:Drivers/STM32WBxx_HAL_Driver/Inc/stm32wbxx_ll_system.h **** #define LL_SYSCFG_EXTI_LINE6                    (uint32_t)((0x0F00U << 16U) | 1U) /*!< EXTI_POSITIO
 131:Drivers/STM32WBxx_HAL_Driver/Inc/stm32wbxx_ll_system.h **** #define LL_SYSCFG_EXTI_LINE7                    (uint32_t)((0xF000U << 16U) | 1U) /*!< EXTI_POSITIO
 132:Drivers/STM32WBxx_HAL_Driver/Inc/stm32wbxx_ll_system.h **** #define LL_SYSCFG_EXTI_LINE8                    (uint32_t)((0x000FU << 16U) | 2U) /*!< EXTI_POSITIO
 133:Drivers/STM32WBxx_HAL_Driver/Inc/stm32wbxx_ll_system.h **** #define LL_SYSCFG_EXTI_LINE9                    (uint32_t)((0x00F0U << 16U) | 2U) /*!< EXTI_POSITIO
 134:Drivers/STM32WBxx_HAL_Driver/Inc/stm32wbxx_ll_system.h **** #define LL_SYSCFG_EXTI_LINE10                   (uint32_t)((0x0F00U << 16U) | 2U) /*!< EXTI_POSITIO
 135:Drivers/STM32WBxx_HAL_Driver/Inc/stm32wbxx_ll_system.h **** #define LL_SYSCFG_EXTI_LINE11                   (uint32_t)((0xF000U << 16U) | 2U) /*!< EXTI_POSITIO
 136:Drivers/STM32WBxx_HAL_Driver/Inc/stm32wbxx_ll_system.h **** #define LL_SYSCFG_EXTI_LINE12                   (uint32_t)((0x000FU << 16U) | 3U) /*!< EXTI_POSITIO
 137:Drivers/STM32WBxx_HAL_Driver/Inc/stm32wbxx_ll_system.h **** #define LL_SYSCFG_EXTI_LINE13                   (uint32_t)((0x00F0U << 16U) | 3U) /*!< EXTI_POSITIO
 138:Drivers/STM32WBxx_HAL_Driver/Inc/stm32wbxx_ll_system.h **** #define LL_SYSCFG_EXTI_LINE14                   (uint32_t)((0x0F00U << 16U) | 3U) /*!< EXTI_POSITIO
 139:Drivers/STM32WBxx_HAL_Driver/Inc/stm32wbxx_ll_system.h **** #define LL_SYSCFG_EXTI_LINE15                   (uint32_t)((0xF000U << 16U) | 3U) /*!< EXTI_POSITIO
 140:Drivers/STM32WBxx_HAL_Driver/Inc/stm32wbxx_ll_system.h **** /**
 141:Drivers/STM32WBxx_HAL_Driver/Inc/stm32wbxx_ll_system.h ****   * @}
 142:Drivers/STM32WBxx_HAL_Driver/Inc/stm32wbxx_ll_system.h ****   */
 143:Drivers/STM32WBxx_HAL_Driver/Inc/stm32wbxx_ll_system.h **** 
 144:Drivers/STM32WBxx_HAL_Driver/Inc/stm32wbxx_ll_system.h **** /** @defgroup SYSTEM_LL_EC_TIMBREAK SYSCFG TIMER BREAK
 145:Drivers/STM32WBxx_HAL_Driver/Inc/stm32wbxx_ll_system.h ****   * @{
 146:Drivers/STM32WBxx_HAL_Driver/Inc/stm32wbxx_ll_system.h ****   */
 147:Drivers/STM32WBxx_HAL_Driver/Inc/stm32wbxx_ll_system.h **** #define LL_SYSCFG_TIMBREAK_ECC                  SYSCFG_CFGR2_ECCL       /*!< Enables and locks the 
 148:Drivers/STM32WBxx_HAL_Driver/Inc/stm32wbxx_ll_system.h ****                                                                               with Break Input of T
 149:Drivers/STM32WBxx_HAL_Driver/Inc/stm32wbxx_ll_system.h **** #define LL_SYSCFG_TIMBREAK_PVD                  SYSCFG_CFGR2_PVDL       /*!< Enables and locks the 
 150:Drivers/STM32WBxx_HAL_Driver/Inc/stm32wbxx_ll_system.h ****                                                                               with TIM1/16/17 Break
 151:Drivers/STM32WBxx_HAL_Driver/Inc/stm32wbxx_ll_system.h ****                                                                               and also the PVDE and
 152:Drivers/STM32WBxx_HAL_Driver/Inc/stm32wbxx_ll_system.h **** #define LL_SYSCFG_TIMBREAK_SRAM2_PARITY         SYSCFG_CFGR2_SPL        /*!< Enables and locks the 
 153:Drivers/STM32WBxx_HAL_Driver/Inc/stm32wbxx_ll_system.h ****                                                                               with Break Input of T
ARM GAS  /var/folders/lt/l_qrc8c54t93n_phsj7cf5tc0000gn/T//ccg72gDc.s 			page 39


 154:Drivers/STM32WBxx_HAL_Driver/Inc/stm32wbxx_ll_system.h **** #define LL_SYSCFG_TIMBREAK_LOCKUP               SYSCFG_CFGR2_CLL        /*!< Enables and locks the 
 155:Drivers/STM32WBxx_HAL_Driver/Inc/stm32wbxx_ll_system.h ****                                                                               with Break Input of T
 156:Drivers/STM32WBxx_HAL_Driver/Inc/stm32wbxx_ll_system.h **** /**
 157:Drivers/STM32WBxx_HAL_Driver/Inc/stm32wbxx_ll_system.h ****   * @}
 158:Drivers/STM32WBxx_HAL_Driver/Inc/stm32wbxx_ll_system.h ****   */
 159:Drivers/STM32WBxx_HAL_Driver/Inc/stm32wbxx_ll_system.h **** 
 160:Drivers/STM32WBxx_HAL_Driver/Inc/stm32wbxx_ll_system.h **** /** @defgroup SYSTEM_LL_EC_SRAM2WRP SYSCFG SRAM2 WRITE PROTECTION
 161:Drivers/STM32WBxx_HAL_Driver/Inc/stm32wbxx_ll_system.h ****   * @{
 162:Drivers/STM32WBxx_HAL_Driver/Inc/stm32wbxx_ll_system.h ****   */
 163:Drivers/STM32WBxx_HAL_Driver/Inc/stm32wbxx_ll_system.h **** #define LL_SYSCFG_SRAM2WRP_PAGE0                SYSCFG_SWPR1_PAGE0       /*!< SRAM2A Write protecti
 164:Drivers/STM32WBxx_HAL_Driver/Inc/stm32wbxx_ll_system.h **** #define LL_SYSCFG_SRAM2WRP_PAGE1                SYSCFG_SWPR1_PAGE1       /*!< SRAM2A Write protecti
 165:Drivers/STM32WBxx_HAL_Driver/Inc/stm32wbxx_ll_system.h **** #define LL_SYSCFG_SRAM2WRP_PAGE2                SYSCFG_SWPR1_PAGE2       /*!< SRAM2A Write protecti
 166:Drivers/STM32WBxx_HAL_Driver/Inc/stm32wbxx_ll_system.h **** #define LL_SYSCFG_SRAM2WRP_PAGE3                SYSCFG_SWPR1_PAGE3       /*!< SRAM2A Write protecti
 167:Drivers/STM32WBxx_HAL_Driver/Inc/stm32wbxx_ll_system.h **** #define LL_SYSCFG_SRAM2WRP_PAGE4                SYSCFG_SWPR1_PAGE4       /*!< SRAM2A Write protecti
 168:Drivers/STM32WBxx_HAL_Driver/Inc/stm32wbxx_ll_system.h **** #define LL_SYSCFG_SRAM2WRP_PAGE5                SYSCFG_SWPR1_PAGE5       /*!< SRAM2A Write protecti
 169:Drivers/STM32WBxx_HAL_Driver/Inc/stm32wbxx_ll_system.h **** #define LL_SYSCFG_SRAM2WRP_PAGE6                SYSCFG_SWPR1_PAGE6       /*!< SRAM2A Write protecti
 170:Drivers/STM32WBxx_HAL_Driver/Inc/stm32wbxx_ll_system.h **** #define LL_SYSCFG_SRAM2WRP_PAGE7                SYSCFG_SWPR1_PAGE7       /*!< SRAM2A Write protecti
 171:Drivers/STM32WBxx_HAL_Driver/Inc/stm32wbxx_ll_system.h **** #define LL_SYSCFG_SRAM2WRP_PAGE8                SYSCFG_SWPR1_PAGE8       /*!< SRAM2A Write protecti
 172:Drivers/STM32WBxx_HAL_Driver/Inc/stm32wbxx_ll_system.h **** #define LL_SYSCFG_SRAM2WRP_PAGE9                SYSCFG_SWPR1_PAGE9       /*!< SRAM2A Write protecti
 173:Drivers/STM32WBxx_HAL_Driver/Inc/stm32wbxx_ll_system.h **** #define LL_SYSCFG_SRAM2WRP_PAGE10               SYSCFG_SWPR1_PAGE10      /*!< SRAM2A Write protecti
 174:Drivers/STM32WBxx_HAL_Driver/Inc/stm32wbxx_ll_system.h **** #define LL_SYSCFG_SRAM2WRP_PAGE11               SYSCFG_SWPR1_PAGE11      /*!< SRAM2A Write protecti
 175:Drivers/STM32WBxx_HAL_Driver/Inc/stm32wbxx_ll_system.h **** #define LL_SYSCFG_SRAM2WRP_PAGE12               SYSCFG_SWPR1_PAGE12      /*!< SRAM2A Write protecti
 176:Drivers/STM32WBxx_HAL_Driver/Inc/stm32wbxx_ll_system.h **** #define LL_SYSCFG_SRAM2WRP_PAGE13               SYSCFG_SWPR1_PAGE13      /*!< SRAM2A Write protecti
 177:Drivers/STM32WBxx_HAL_Driver/Inc/stm32wbxx_ll_system.h **** #define LL_SYSCFG_SRAM2WRP_PAGE14               SYSCFG_SWPR1_PAGE14      /*!< SRAM2A Write protecti
 178:Drivers/STM32WBxx_HAL_Driver/Inc/stm32wbxx_ll_system.h **** #define LL_SYSCFG_SRAM2WRP_PAGE15               SYSCFG_SWPR1_PAGE15      /*!< SRAM2A Write protecti
 179:Drivers/STM32WBxx_HAL_Driver/Inc/stm32wbxx_ll_system.h **** #define LL_SYSCFG_SRAM2WRP_PAGE16               SYSCFG_SWPR1_PAGE16      /*!< SRAM2A Write protecti
 180:Drivers/STM32WBxx_HAL_Driver/Inc/stm32wbxx_ll_system.h **** #define LL_SYSCFG_SRAM2WRP_PAGE17               SYSCFG_SWPR1_PAGE17      /*!< SRAM2A Write protecti
 181:Drivers/STM32WBxx_HAL_Driver/Inc/stm32wbxx_ll_system.h **** #define LL_SYSCFG_SRAM2WRP_PAGE18               SYSCFG_SWPR1_PAGE18      /*!< SRAM2A Write protecti
 182:Drivers/STM32WBxx_HAL_Driver/Inc/stm32wbxx_ll_system.h **** #define LL_SYSCFG_SRAM2WRP_PAGE19               SYSCFG_SWPR1_PAGE19      /*!< SRAM2A Write protecti
 183:Drivers/STM32WBxx_HAL_Driver/Inc/stm32wbxx_ll_system.h **** #define LL_SYSCFG_SRAM2WRP_PAGE20               SYSCFG_SWPR1_PAGE20      /*!< SRAM2A Write protecti
 184:Drivers/STM32WBxx_HAL_Driver/Inc/stm32wbxx_ll_system.h **** #define LL_SYSCFG_SRAM2WRP_PAGE21               SYSCFG_SWPR1_PAGE21      /*!< SRAM2A Write protecti
 185:Drivers/STM32WBxx_HAL_Driver/Inc/stm32wbxx_ll_system.h **** #define LL_SYSCFG_SRAM2WRP_PAGE22               SYSCFG_SWPR1_PAGE22      /*!< SRAM2A Write protecti
 186:Drivers/STM32WBxx_HAL_Driver/Inc/stm32wbxx_ll_system.h **** #define LL_SYSCFG_SRAM2WRP_PAGE23               SYSCFG_SWPR1_PAGE23      /*!< SRAM2A Write protecti
 187:Drivers/STM32WBxx_HAL_Driver/Inc/stm32wbxx_ll_system.h **** #define LL_SYSCFG_SRAM2WRP_PAGE24               SYSCFG_SWPR1_PAGE24      /*!< SRAM2A Write protecti
 188:Drivers/STM32WBxx_HAL_Driver/Inc/stm32wbxx_ll_system.h **** #define LL_SYSCFG_SRAM2WRP_PAGE25               SYSCFG_SWPR1_PAGE25      /*!< SRAM2A Write protecti
 189:Drivers/STM32WBxx_HAL_Driver/Inc/stm32wbxx_ll_system.h **** #define LL_SYSCFG_SRAM2WRP_PAGE26               SYSCFG_SWPR1_PAGE26      /*!< SRAM2A Write protecti
 190:Drivers/STM32WBxx_HAL_Driver/Inc/stm32wbxx_ll_system.h **** #define LL_SYSCFG_SRAM2WRP_PAGE27               SYSCFG_SWPR1_PAGE27      /*!< SRAM2A Write protecti
 191:Drivers/STM32WBxx_HAL_Driver/Inc/stm32wbxx_ll_system.h **** #define LL_SYSCFG_SRAM2WRP_PAGE28               SYSCFG_SWPR1_PAGE28      /*!< SRAM2A Write protecti
 192:Drivers/STM32WBxx_HAL_Driver/Inc/stm32wbxx_ll_system.h **** #define LL_SYSCFG_SRAM2WRP_PAGE29               SYSCFG_SWPR1_PAGE29      /*!< SRAM2A Write protecti
 193:Drivers/STM32WBxx_HAL_Driver/Inc/stm32wbxx_ll_system.h **** #define LL_SYSCFG_SRAM2WRP_PAGE30               SYSCFG_SWPR1_PAGE30      /*!< SRAM2A Write protecti
 194:Drivers/STM32WBxx_HAL_Driver/Inc/stm32wbxx_ll_system.h **** #define LL_SYSCFG_SRAM2WRP_PAGE31               SYSCFG_SWPR1_PAGE31      /*!< SRAM2A Write protecti
 195:Drivers/STM32WBxx_HAL_Driver/Inc/stm32wbxx_ll_system.h **** 
 196:Drivers/STM32WBxx_HAL_Driver/Inc/stm32wbxx_ll_system.h **** #define LL_SYSCFG_SRAM2WRP_PAGE32               SYSCFG_SWPR2_PAGE32      /*!< SRAM2B Write protecti
 197:Drivers/STM32WBxx_HAL_Driver/Inc/stm32wbxx_ll_system.h **** #define LL_SYSCFG_SRAM2WRP_PAGE33               SYSCFG_SWPR2_PAGE33      /*!< SRAM2B Write protecti
 198:Drivers/STM32WBxx_HAL_Driver/Inc/stm32wbxx_ll_system.h **** #define LL_SYSCFG_SRAM2WRP_PAGE34               SYSCFG_SWPR2_PAGE34      /*!< SRAM2B Write protecti
 199:Drivers/STM32WBxx_HAL_Driver/Inc/stm32wbxx_ll_system.h **** #define LL_SYSCFG_SRAM2WRP_PAGE35               SYSCFG_SWPR2_PAGE35      /*!< SRAM2B Write protecti
 200:Drivers/STM32WBxx_HAL_Driver/Inc/stm32wbxx_ll_system.h **** #if defined(SYSCFG_SWPR2_PAGE36)
 201:Drivers/STM32WBxx_HAL_Driver/Inc/stm32wbxx_ll_system.h **** #define LL_SYSCFG_SRAM2WRP_PAGE36               SYSCFG_SWPR2_PAGE36      /*!< SRAM2B Write protecti
 202:Drivers/STM32WBxx_HAL_Driver/Inc/stm32wbxx_ll_system.h **** #define LL_SYSCFG_SRAM2WRP_PAGE37               SYSCFG_SWPR2_PAGE37      /*!< SRAM2B Write protecti
 203:Drivers/STM32WBxx_HAL_Driver/Inc/stm32wbxx_ll_system.h **** #define LL_SYSCFG_SRAM2WRP_PAGE38               SYSCFG_SWPR2_PAGE38      /*!< SRAM2B Write protecti
 204:Drivers/STM32WBxx_HAL_Driver/Inc/stm32wbxx_ll_system.h **** #define LL_SYSCFG_SRAM2WRP_PAGE39               SYSCFG_SWPR2_PAGE39      /*!< SRAM2B Write protecti
 205:Drivers/STM32WBxx_HAL_Driver/Inc/stm32wbxx_ll_system.h **** #define LL_SYSCFG_SRAM2WRP_PAGE40               SYSCFG_SWPR2_PAGE40      /*!< SRAM2B Write protecti
 206:Drivers/STM32WBxx_HAL_Driver/Inc/stm32wbxx_ll_system.h **** #define LL_SYSCFG_SRAM2WRP_PAGE41               SYSCFG_SWPR2_PAGE41      /*!< SRAM2B Write protecti
 207:Drivers/STM32WBxx_HAL_Driver/Inc/stm32wbxx_ll_system.h **** #define LL_SYSCFG_SRAM2WRP_PAGE42               SYSCFG_SWPR2_PAGE42      /*!< SRAM2B Write protecti
 208:Drivers/STM32WBxx_HAL_Driver/Inc/stm32wbxx_ll_system.h **** #define LL_SYSCFG_SRAM2WRP_PAGE43               SYSCFG_SWPR2_PAGE43      /*!< SRAM2B Write protecti
 209:Drivers/STM32WBxx_HAL_Driver/Inc/stm32wbxx_ll_system.h **** #define LL_SYSCFG_SRAM2WRP_PAGE44               SYSCFG_SWPR2_PAGE44      /*!< SRAM2B Write protecti
 210:Drivers/STM32WBxx_HAL_Driver/Inc/stm32wbxx_ll_system.h **** #define LL_SYSCFG_SRAM2WRP_PAGE45               SYSCFG_SWPR2_PAGE45      /*!< SRAM2B Write protecti
ARM GAS  /var/folders/lt/l_qrc8c54t93n_phsj7cf5tc0000gn/T//ccg72gDc.s 			page 40


 211:Drivers/STM32WBxx_HAL_Driver/Inc/stm32wbxx_ll_system.h **** #define LL_SYSCFG_SRAM2WRP_PAGE46               SYSCFG_SWPR2_PAGE46      /*!< SRAM2B Write protecti
 212:Drivers/STM32WBxx_HAL_Driver/Inc/stm32wbxx_ll_system.h **** #define LL_SYSCFG_SRAM2WRP_PAGE47               SYSCFG_SWPR2_PAGE47      /*!< SRAM2B Write protecti
 213:Drivers/STM32WBxx_HAL_Driver/Inc/stm32wbxx_ll_system.h **** #define LL_SYSCFG_SRAM2WRP_PAGE48               SYSCFG_SWPR2_PAGE48      /*!< SRAM2B Write protecti
 214:Drivers/STM32WBxx_HAL_Driver/Inc/stm32wbxx_ll_system.h **** #define LL_SYSCFG_SRAM2WRP_PAGE49               SYSCFG_SWPR2_PAGE49      /*!< SRAM2B Write protecti
 215:Drivers/STM32WBxx_HAL_Driver/Inc/stm32wbxx_ll_system.h **** #define LL_SYSCFG_SRAM2WRP_PAGE50               SYSCFG_SWPR2_PAGE50      /*!< SRAM2B Write protecti
 216:Drivers/STM32WBxx_HAL_Driver/Inc/stm32wbxx_ll_system.h **** #define LL_SYSCFG_SRAM2WRP_PAGE51               SYSCFG_SWPR2_PAGE51      /*!< SRAM2B Write protecti
 217:Drivers/STM32WBxx_HAL_Driver/Inc/stm32wbxx_ll_system.h **** #define LL_SYSCFG_SRAM2WRP_PAGE52               SYSCFG_SWPR2_PAGE52      /*!< SRAM2B Write protecti
 218:Drivers/STM32WBxx_HAL_Driver/Inc/stm32wbxx_ll_system.h **** #define LL_SYSCFG_SRAM2WRP_PAGE53               SYSCFG_SWPR2_PAGE53      /*!< SRAM2B Write protecti
 219:Drivers/STM32WBxx_HAL_Driver/Inc/stm32wbxx_ll_system.h **** #define LL_SYSCFG_SRAM2WRP_PAGE54               SYSCFG_SWPR2_PAGE54      /*!< SRAM2B Write protecti
 220:Drivers/STM32WBxx_HAL_Driver/Inc/stm32wbxx_ll_system.h **** #define LL_SYSCFG_SRAM2WRP_PAGE55               SYSCFG_SWPR2_PAGE55      /*!< SRAM2B Write protecti
 221:Drivers/STM32WBxx_HAL_Driver/Inc/stm32wbxx_ll_system.h **** #define LL_SYSCFG_SRAM2WRP_PAGE56               SYSCFG_SWPR2_PAGE56      /*!< SRAM2B Write protecti
 222:Drivers/STM32WBxx_HAL_Driver/Inc/stm32wbxx_ll_system.h **** #define LL_SYSCFG_SRAM2WRP_PAGE57               SYSCFG_SWPR2_PAGE57      /*!< SRAM2B Write protecti
 223:Drivers/STM32WBxx_HAL_Driver/Inc/stm32wbxx_ll_system.h **** #define LL_SYSCFG_SRAM2WRP_PAGE58               SYSCFG_SWPR2_PAGE58      /*!< SRAM2B Write protecti
 224:Drivers/STM32WBxx_HAL_Driver/Inc/stm32wbxx_ll_system.h **** #define LL_SYSCFG_SRAM2WRP_PAGE59               SYSCFG_SWPR2_PAGE59      /*!< SRAM2B Write protecti
 225:Drivers/STM32WBxx_HAL_Driver/Inc/stm32wbxx_ll_system.h **** #define LL_SYSCFG_SRAM2WRP_PAGE60               SYSCFG_SWPR2_PAGE60      /*!< SRAM2B Write protecti
 226:Drivers/STM32WBxx_HAL_Driver/Inc/stm32wbxx_ll_system.h **** #define LL_SYSCFG_SRAM2WRP_PAGE61               SYSCFG_SWPR2_PAGE61      /*!< SRAM2B Write protecti
 227:Drivers/STM32WBxx_HAL_Driver/Inc/stm32wbxx_ll_system.h **** #define LL_SYSCFG_SRAM2WRP_PAGE62               SYSCFG_SWPR2_PAGE62      /*!< SRAM2B Write protecti
 228:Drivers/STM32WBxx_HAL_Driver/Inc/stm32wbxx_ll_system.h **** #define LL_SYSCFG_SRAM2WRP_PAGE63               SYSCFG_SWPR2_PAGE63      /*!< SRAM2B Write protecti
 229:Drivers/STM32WBxx_HAL_Driver/Inc/stm32wbxx_ll_system.h **** #endif
 230:Drivers/STM32WBxx_HAL_Driver/Inc/stm32wbxx_ll_system.h **** /**
 231:Drivers/STM32WBxx_HAL_Driver/Inc/stm32wbxx_ll_system.h ****   * @}
 232:Drivers/STM32WBxx_HAL_Driver/Inc/stm32wbxx_ll_system.h ****   */
 233:Drivers/STM32WBxx_HAL_Driver/Inc/stm32wbxx_ll_system.h **** 
 234:Drivers/STM32WBxx_HAL_Driver/Inc/stm32wbxx_ll_system.h **** /** @defgroup SYSTEM_LL_EC_IM SYSCFG CPU1 INTERRUPT MASK
 235:Drivers/STM32WBxx_HAL_Driver/Inc/stm32wbxx_ll_system.h ****   * @{
 236:Drivers/STM32WBxx_HAL_Driver/Inc/stm32wbxx_ll_system.h ****   */
 237:Drivers/STM32WBxx_HAL_Driver/Inc/stm32wbxx_ll_system.h **** #define LL_SYSCFG_GRP1_TIM1                     SYSCFG_IMR1_TIM1IM     /*!< Enabling of interrupt f
 238:Drivers/STM32WBxx_HAL_Driver/Inc/stm32wbxx_ll_system.h **** #if defined(TIM16)
 239:Drivers/STM32WBxx_HAL_Driver/Inc/stm32wbxx_ll_system.h **** #define LL_SYSCFG_GRP1_TIM16                    SYSCFG_IMR1_TIM16IM    /*!< Enabling of interrupt f
 240:Drivers/STM32WBxx_HAL_Driver/Inc/stm32wbxx_ll_system.h **** #endif
 241:Drivers/STM32WBxx_HAL_Driver/Inc/stm32wbxx_ll_system.h **** #if defined(TIM17)
 242:Drivers/STM32WBxx_HAL_Driver/Inc/stm32wbxx_ll_system.h **** #define LL_SYSCFG_GRP1_TIM17                    SYSCFG_IMR1_TIM17IM    /*!< Enabling of interrupt f
 243:Drivers/STM32WBxx_HAL_Driver/Inc/stm32wbxx_ll_system.h **** #endif
 244:Drivers/STM32WBxx_HAL_Driver/Inc/stm32wbxx_ll_system.h **** 
 245:Drivers/STM32WBxx_HAL_Driver/Inc/stm32wbxx_ll_system.h **** #define LL_SYSCFG_GRP1_EXTI5                    SYSCFG_IMR1_EXTI5IM    /*!< Enabling of interrupt f
 246:Drivers/STM32WBxx_HAL_Driver/Inc/stm32wbxx_ll_system.h **** #define LL_SYSCFG_GRP1_EXTI6                    SYSCFG_IMR1_EXTI6IM    /*!< Enabling of interrupt f
 247:Drivers/STM32WBxx_HAL_Driver/Inc/stm32wbxx_ll_system.h **** #define LL_SYSCFG_GRP1_EXTI7                    SYSCFG_IMR1_EXTI7IM    /*!< Enabling of interrupt f
 248:Drivers/STM32WBxx_HAL_Driver/Inc/stm32wbxx_ll_system.h **** #define LL_SYSCFG_GRP1_EXTI8                    SYSCFG_IMR1_EXTI8IM    /*!< Enabling of interrupt f
 249:Drivers/STM32WBxx_HAL_Driver/Inc/stm32wbxx_ll_system.h **** #define LL_SYSCFG_GRP1_EXTI9                    SYSCFG_IMR1_EXTI9IM    /*!< Enabling of interrupt f
 250:Drivers/STM32WBxx_HAL_Driver/Inc/stm32wbxx_ll_system.h **** #define LL_SYSCFG_GRP1_EXTI10                   SYSCFG_IMR1_EXTI10IM   /*!< Enabling of interrupt f
 251:Drivers/STM32WBxx_HAL_Driver/Inc/stm32wbxx_ll_system.h **** #define LL_SYSCFG_GRP1_EXTI11                   SYSCFG_IMR1_EXTI11IM   /*!< Enabling of interrupt f
 252:Drivers/STM32WBxx_HAL_Driver/Inc/stm32wbxx_ll_system.h **** #define LL_SYSCFG_GRP1_EXTI12                   SYSCFG_IMR1_EXTI12IM   /*!< Enabling of interrupt f
 253:Drivers/STM32WBxx_HAL_Driver/Inc/stm32wbxx_ll_system.h **** #define LL_SYSCFG_GRP1_EXTI13                   SYSCFG_IMR1_EXTI13IM   /*!< Enabling of interrupt f
 254:Drivers/STM32WBxx_HAL_Driver/Inc/stm32wbxx_ll_system.h **** #define LL_SYSCFG_GRP1_EXTI14                   SYSCFG_IMR1_EXTI14IM   /*!< Enabling of interrupt f
 255:Drivers/STM32WBxx_HAL_Driver/Inc/stm32wbxx_ll_system.h **** #define LL_SYSCFG_GRP1_EXTI15                   SYSCFG_IMR1_EXTI15IM   /*!< Enabling of interrupt f
 256:Drivers/STM32WBxx_HAL_Driver/Inc/stm32wbxx_ll_system.h **** 
 257:Drivers/STM32WBxx_HAL_Driver/Inc/stm32wbxx_ll_system.h **** #if defined(SYSCFG_IMR2_PVM1IM)
 258:Drivers/STM32WBxx_HAL_Driver/Inc/stm32wbxx_ll_system.h **** #define LL_SYSCFG_GRP2_PVM1                     SYSCFG_IMR2_PVM1IM     /*!< Enabling of interrupt f
 259:Drivers/STM32WBxx_HAL_Driver/Inc/stm32wbxx_ll_system.h **** #endif
 260:Drivers/STM32WBxx_HAL_Driver/Inc/stm32wbxx_ll_system.h **** #define LL_SYSCFG_GRP2_PVM3                     SYSCFG_IMR2_PVM3IM     /*!< Enabling of interrupt f
 261:Drivers/STM32WBxx_HAL_Driver/Inc/stm32wbxx_ll_system.h **** #define LL_SYSCFG_GRP2_PVD                      SYSCFG_IMR2_PVDIM      /*!< Enabling of interrupt f
 262:Drivers/STM32WBxx_HAL_Driver/Inc/stm32wbxx_ll_system.h **** /**
 263:Drivers/STM32WBxx_HAL_Driver/Inc/stm32wbxx_ll_system.h ****   * @}
 264:Drivers/STM32WBxx_HAL_Driver/Inc/stm32wbxx_ll_system.h ****   */
 265:Drivers/STM32WBxx_HAL_Driver/Inc/stm32wbxx_ll_system.h **** 
 266:Drivers/STM32WBxx_HAL_Driver/Inc/stm32wbxx_ll_system.h **** /** @defgroup SYSTEM_LL_EC_C2_IM SYSCFG CPU2 INTERRUPT MASK
 267:Drivers/STM32WBxx_HAL_Driver/Inc/stm32wbxx_ll_system.h ****   * @{
ARM GAS  /var/folders/lt/l_qrc8c54t93n_phsj7cf5tc0000gn/T//ccg72gDc.s 			page 41


 268:Drivers/STM32WBxx_HAL_Driver/Inc/stm32wbxx_ll_system.h ****   */
 269:Drivers/STM32WBxx_HAL_Driver/Inc/stm32wbxx_ll_system.h **** #define LL_C2_SYSCFG_GRP1_RTCSTAMP_RTCTAMP_LSECSS  SYSCFG_C2IMR1_RTCSTAMPTAMPLSECSSIM /*!< Enabling
 270:Drivers/STM32WBxx_HAL_Driver/Inc/stm32wbxx_ll_system.h ****                                                                                       and LSE Clock
 271:Drivers/STM32WBxx_HAL_Driver/Inc/stm32wbxx_ll_system.h **** #define LL_C2_SYSCFG_GRP1_RTCWKUP               SYSCFG_C2IMR1_RTCWKUPIM  /*!< Enabling of interrupt
 272:Drivers/STM32WBxx_HAL_Driver/Inc/stm32wbxx_ll_system.h **** #define LL_C2_SYSCFG_GRP1_RTCALARM              SYSCFG_C2IMR1_RTCALARMIM /*!< Enabling of interrupt
 273:Drivers/STM32WBxx_HAL_Driver/Inc/stm32wbxx_ll_system.h **** #define LL_C2_SYSCFG_GRP1_RCC                   SYSCFG_C2IMR1_RCCIM      /*!< Enabling of interrupt
 274:Drivers/STM32WBxx_HAL_Driver/Inc/stm32wbxx_ll_system.h **** #define LL_C2_SYSCFG_GRP1_FLASH                 SYSCFG_C2IMR1_FLASHIM    /*!< Enabling of interrupt
 275:Drivers/STM32WBxx_HAL_Driver/Inc/stm32wbxx_ll_system.h **** #define LL_C2_SYSCFG_GRP1_PKA                   SYSCFG_C2IMR1_PKAIM      /*!< Enabling of interrupt
 276:Drivers/STM32WBxx_HAL_Driver/Inc/stm32wbxx_ll_system.h **** #define LL_C2_SYSCFG_GRP1_RNG                   SYSCFG_C2IMR1_RNGIM      /*!< Enabling of interrupt
 277:Drivers/STM32WBxx_HAL_Driver/Inc/stm32wbxx_ll_system.h **** #if defined(AES1)
 278:Drivers/STM32WBxx_HAL_Driver/Inc/stm32wbxx_ll_system.h **** #define LL_C2_SYSCFG_GRP1_AES1                  SYSCFG_C2IMR1_AES1IM     /*!< Enabling of interrupt
 279:Drivers/STM32WBxx_HAL_Driver/Inc/stm32wbxx_ll_system.h **** #endif
 280:Drivers/STM32WBxx_HAL_Driver/Inc/stm32wbxx_ll_system.h **** #if defined(COMP1)
 281:Drivers/STM32WBxx_HAL_Driver/Inc/stm32wbxx_ll_system.h **** #define LL_C2_SYSCFG_GRP1_COMP                  SYSCFG_C2IMR1_COMPIM     /*!< Enabling of interrupt
 282:Drivers/STM32WBxx_HAL_Driver/Inc/stm32wbxx_ll_system.h **** #endif
 283:Drivers/STM32WBxx_HAL_Driver/Inc/stm32wbxx_ll_system.h **** #define LL_C2_SYSCFG_GRP1_ADC                   SYSCFG_C2IMR1_ADCIM      /*!< Enabling of interrupt
 284:Drivers/STM32WBxx_HAL_Driver/Inc/stm32wbxx_ll_system.h **** 
 285:Drivers/STM32WBxx_HAL_Driver/Inc/stm32wbxx_ll_system.h **** #define LL_C2_SYSCFG_GRP1_EXTI0                 SYSCFG_C2IMR1_EXTI0IM    /*!< Enabling of interrupt
 286:Drivers/STM32WBxx_HAL_Driver/Inc/stm32wbxx_ll_system.h **** #define LL_C2_SYSCFG_GRP1_EXTI1                 SYSCFG_C2IMR1_EXTI1IM    /*!< Enabling of interrupt
 287:Drivers/STM32WBxx_HAL_Driver/Inc/stm32wbxx_ll_system.h **** #define LL_C2_SYSCFG_GRP1_EXTI2                 SYSCFG_C2IMR1_EXTI2IM    /*!< Enabling of interrupt
 288:Drivers/STM32WBxx_HAL_Driver/Inc/stm32wbxx_ll_system.h **** #define LL_C2_SYSCFG_GRP1_EXTI3                 SYSCFG_C2IMR1_EXTI3IM    /*!< Enabling of interrupt
 289:Drivers/STM32WBxx_HAL_Driver/Inc/stm32wbxx_ll_system.h **** #define LL_C2_SYSCFG_GRP1_EXTI4                 SYSCFG_C2IMR1_EXTI4IM    /*!< Enabling of interrupt
 290:Drivers/STM32WBxx_HAL_Driver/Inc/stm32wbxx_ll_system.h **** #define LL_C2_SYSCFG_GRP1_EXTI5                 SYSCFG_C2IMR1_EXTI5IM    /*!< Enabling of interrupt
 291:Drivers/STM32WBxx_HAL_Driver/Inc/stm32wbxx_ll_system.h **** #define LL_C2_SYSCFG_GRP1_EXTI6                 SYSCFG_C2IMR1_EXTI6IM    /*!< Enabling of interrupt
 292:Drivers/STM32WBxx_HAL_Driver/Inc/stm32wbxx_ll_system.h **** #define LL_C2_SYSCFG_GRP1_EXTI7                 SYSCFG_C2IMR1_EXTI7IM    /*!< Enabling of interrupt
 293:Drivers/STM32WBxx_HAL_Driver/Inc/stm32wbxx_ll_system.h **** #define LL_C2_SYSCFG_GRP1_EXTI8                 SYSCFG_C2IMR1_EXTI8IM    /*!< Enabling of interrupt
 294:Drivers/STM32WBxx_HAL_Driver/Inc/stm32wbxx_ll_system.h **** #define LL_C2_SYSCFG_GRP1_EXTI9                 SYSCFG_C2IMR1_EXTI9IM    /*!< Enabling of interrupt
 295:Drivers/STM32WBxx_HAL_Driver/Inc/stm32wbxx_ll_system.h **** #define LL_C2_SYSCFG_GRP1_EXTI10                SYSCFG_C2IMR1_EXTI10IM   /*!< Enabling of interrupt
 296:Drivers/STM32WBxx_HAL_Driver/Inc/stm32wbxx_ll_system.h **** #define LL_C2_SYSCFG_GRP1_EXTI11                SYSCFG_C2IMR1_EXTI11IM   /*!< Enabling of interrupt
 297:Drivers/STM32WBxx_HAL_Driver/Inc/stm32wbxx_ll_system.h **** #define LL_C2_SYSCFG_GRP1_EXTI12                SYSCFG_C2IMR1_EXTI12IM   /*!< Enabling of interrupt
 298:Drivers/STM32WBxx_HAL_Driver/Inc/stm32wbxx_ll_system.h **** #define LL_C2_SYSCFG_GRP1_EXTI13                SYSCFG_C2IMR1_EXTI13IM   /*!< Enabling of interrupt
 299:Drivers/STM32WBxx_HAL_Driver/Inc/stm32wbxx_ll_system.h **** #define LL_C2_SYSCFG_GRP1_EXTI14                SYSCFG_C2IMR1_EXTI14IM   /*!< Enabling of interrupt
 300:Drivers/STM32WBxx_HAL_Driver/Inc/stm32wbxx_ll_system.h **** #define LL_C2_SYSCFG_GRP1_EXTI15                SYSCFG_C2IMR1_EXTI15IM   /*!< Enabling of interrupt
 301:Drivers/STM32WBxx_HAL_Driver/Inc/stm32wbxx_ll_system.h **** 
 302:Drivers/STM32WBxx_HAL_Driver/Inc/stm32wbxx_ll_system.h **** #define LL_C2_SYSCFG_GRP2_DMA1CH1               SYSCFG_C2IMR2_DMA1CH1IM  /*!< Enabling of interrupt
 303:Drivers/STM32WBxx_HAL_Driver/Inc/stm32wbxx_ll_system.h **** #define LL_C2_SYSCFG_GRP2_DMA1CH2               SYSCFG_C2IMR2_DMA1CH2IM  /*!< Enabling of interrupt
 304:Drivers/STM32WBxx_HAL_Driver/Inc/stm32wbxx_ll_system.h **** #define LL_C2_SYSCFG_GRP2_DMA1CH3               SYSCFG_C2IMR2_DMA1CH3IM  /*!< Enabling of interrupt
 305:Drivers/STM32WBxx_HAL_Driver/Inc/stm32wbxx_ll_system.h **** #define LL_C2_SYSCFG_GRP2_DMA1CH4               SYSCFG_C2IMR2_DMA1CH4IM  /*!< Enabling of interrupt
 306:Drivers/STM32WBxx_HAL_Driver/Inc/stm32wbxx_ll_system.h **** #define LL_C2_SYSCFG_GRP2_DMA1CH5               SYSCFG_C2IMR2_DMA1CH5IM  /*!< Enabling of interrupt
 307:Drivers/STM32WBxx_HAL_Driver/Inc/stm32wbxx_ll_system.h **** #define LL_C2_SYSCFG_GRP2_DMA1CH6               SYSCFG_C2IMR2_DMA1CH6IM  /*!< Enabling of interrupt
 308:Drivers/STM32WBxx_HAL_Driver/Inc/stm32wbxx_ll_system.h **** #define LL_C2_SYSCFG_GRP2_DMA1CH7               SYSCFG_C2IMR2_DMA1CH7IM  /*!< Enabling of interrupt
 309:Drivers/STM32WBxx_HAL_Driver/Inc/stm32wbxx_ll_system.h **** 
 310:Drivers/STM32WBxx_HAL_Driver/Inc/stm32wbxx_ll_system.h **** #if defined(DMA2)
 311:Drivers/STM32WBxx_HAL_Driver/Inc/stm32wbxx_ll_system.h **** #define LL_C2_SYSCFG_GRP2_DMA2CH1               SYSCFG_C2IMR2_DMA2CH1IM  /*!< Enabling of interrupt
 312:Drivers/STM32WBxx_HAL_Driver/Inc/stm32wbxx_ll_system.h **** #define LL_C2_SYSCFG_GRP2_DMA2CH2               SYSCFG_C2IMR2_DMA2CH2IM  /*!< Enabling of interrupt
 313:Drivers/STM32WBxx_HAL_Driver/Inc/stm32wbxx_ll_system.h **** #define LL_C2_SYSCFG_GRP2_DMA2CH3               SYSCFG_C2IMR2_DMA2CH3IM  /*!< Enabling of interrupt
 314:Drivers/STM32WBxx_HAL_Driver/Inc/stm32wbxx_ll_system.h **** #define LL_C2_SYSCFG_GRP2_DMA2CH4               SYSCFG_C2IMR2_DMA2CH4IM  /*!< Enabling of interrupt
 315:Drivers/STM32WBxx_HAL_Driver/Inc/stm32wbxx_ll_system.h **** #define LL_C2_SYSCFG_GRP2_DMA2CH5               SYSCFG_C2IMR2_DMA2CH5IM  /*!< Enabling of interrupt
 316:Drivers/STM32WBxx_HAL_Driver/Inc/stm32wbxx_ll_system.h **** #define LL_C2_SYSCFG_GRP2_DMA2CH6               SYSCFG_C2IMR2_DMA2CH6IM  /*!< Enabling of interrupt
 317:Drivers/STM32WBxx_HAL_Driver/Inc/stm32wbxx_ll_system.h **** #define LL_C2_SYSCFG_GRP2_DMA2CH7               SYSCFG_C2IMR2_DMA2CH7IM  /*!< Enabling of interrupt
 318:Drivers/STM32WBxx_HAL_Driver/Inc/stm32wbxx_ll_system.h **** #endif
 319:Drivers/STM32WBxx_HAL_Driver/Inc/stm32wbxx_ll_system.h **** 
 320:Drivers/STM32WBxx_HAL_Driver/Inc/stm32wbxx_ll_system.h **** #define LL_C2_SYSCFG_GRP2_DMAMUX1               SYSCFG_C2IMR2_DMAMUX1IM  /*!< Enabling of interrupt
 321:Drivers/STM32WBxx_HAL_Driver/Inc/stm32wbxx_ll_system.h **** #if defined(SYSCFG_C2IMR2_PVM1IM)
 322:Drivers/STM32WBxx_HAL_Driver/Inc/stm32wbxx_ll_system.h **** #define LL_C2_SYSCFG_GRP2_PVM1                  SYSCFG_C2IMR2_PVM1IM     /*!< Enabling of interrupt
 323:Drivers/STM32WBxx_HAL_Driver/Inc/stm32wbxx_ll_system.h **** #endif
 324:Drivers/STM32WBxx_HAL_Driver/Inc/stm32wbxx_ll_system.h **** #define LL_C2_SYSCFG_GRP2_PVM3                  SYSCFG_C2IMR2_PVM3IM     /*!< Enabling of interrupt
ARM GAS  /var/folders/lt/l_qrc8c54t93n_phsj7cf5tc0000gn/T//ccg72gDc.s 			page 42


 325:Drivers/STM32WBxx_HAL_Driver/Inc/stm32wbxx_ll_system.h **** #define LL_C2_SYSCFG_GRP2_PVD                   SYSCFG_C2IMR2_PVDIM      /*!< Enabling of interrupt
 326:Drivers/STM32WBxx_HAL_Driver/Inc/stm32wbxx_ll_system.h **** #define LL_C2_SYSCFG_GRP2_TSC                   SYSCFG_C2IMR2_TSCIM      /*!< Enabling of interrupt
 327:Drivers/STM32WBxx_HAL_Driver/Inc/stm32wbxx_ll_system.h **** #if defined(LCD)
 328:Drivers/STM32WBxx_HAL_Driver/Inc/stm32wbxx_ll_system.h **** #define LL_C2_SYSCFG_GRP2_LCD                   SYSCFG_C2IMR2_LCDIM      /*!< Enabling of interrupt
 329:Drivers/STM32WBxx_HAL_Driver/Inc/stm32wbxx_ll_system.h **** #endif
 330:Drivers/STM32WBxx_HAL_Driver/Inc/stm32wbxx_ll_system.h **** /**
 331:Drivers/STM32WBxx_HAL_Driver/Inc/stm32wbxx_ll_system.h ****   * @}
 332:Drivers/STM32WBxx_HAL_Driver/Inc/stm32wbxx_ll_system.h ****   */
 333:Drivers/STM32WBxx_HAL_Driver/Inc/stm32wbxx_ll_system.h **** 
 334:Drivers/STM32WBxx_HAL_Driver/Inc/stm32wbxx_ll_system.h **** /** @defgroup SYSTEM_LL_EC_SECURE_IP_ACCESS SYSCFG SECURE IP ACCESS
 335:Drivers/STM32WBxx_HAL_Driver/Inc/stm32wbxx_ll_system.h ****   * @{
 336:Drivers/STM32WBxx_HAL_Driver/Inc/stm32wbxx_ll_system.h ****   */
 337:Drivers/STM32WBxx_HAL_Driver/Inc/stm32wbxx_ll_system.h **** #if defined(AES1)
 338:Drivers/STM32WBxx_HAL_Driver/Inc/stm32wbxx_ll_system.h **** #define LL_SYSCFG_SECURE_ACCESS_AES1            SYSCFG_SIPCR_SAES1       /*!< Enabling the security
 339:Drivers/STM32WBxx_HAL_Driver/Inc/stm32wbxx_ll_system.h **** #endif
 340:Drivers/STM32WBxx_HAL_Driver/Inc/stm32wbxx_ll_system.h **** #define LL_SYSCFG_SECURE_ACCESS_AES2            SYSCFG_SIPCR_SAES2       /*!< Enabling the security
 341:Drivers/STM32WBxx_HAL_Driver/Inc/stm32wbxx_ll_system.h **** #define LL_SYSCFG_SECURE_ACCESS_PKA             SYSCFG_SIPCR_SPKA        /*!< Enabling the security
 342:Drivers/STM32WBxx_HAL_Driver/Inc/stm32wbxx_ll_system.h **** #define LL_SYSCFG_SECURE_ACCESS_RNG             SYSCFG_SIPCR_SRNG        /*!< Enabling the security
 343:Drivers/STM32WBxx_HAL_Driver/Inc/stm32wbxx_ll_system.h **** /**
 344:Drivers/STM32WBxx_HAL_Driver/Inc/stm32wbxx_ll_system.h ****   * @}
 345:Drivers/STM32WBxx_HAL_Driver/Inc/stm32wbxx_ll_system.h ****   */
 346:Drivers/STM32WBxx_HAL_Driver/Inc/stm32wbxx_ll_system.h **** 
 347:Drivers/STM32WBxx_HAL_Driver/Inc/stm32wbxx_ll_system.h **** /** @defgroup SYSTEM_LL_EC_APB1_GRP1_STOP_IP DBGMCU CPU1 APB1 GRP1 STOP IP
 348:Drivers/STM32WBxx_HAL_Driver/Inc/stm32wbxx_ll_system.h ****   * @{
 349:Drivers/STM32WBxx_HAL_Driver/Inc/stm32wbxx_ll_system.h ****   */
 350:Drivers/STM32WBxx_HAL_Driver/Inc/stm32wbxx_ll_system.h **** #define LL_DBGMCU_APB1_GRP1_TIM2_STOP      DBGMCU_APB1FZR1_DBG_TIM2_STOP   /*!< The counter clock o
 351:Drivers/STM32WBxx_HAL_Driver/Inc/stm32wbxx_ll_system.h **** #define LL_DBGMCU_APB1_GRP1_RTC_STOP       DBGMCU_APB1FZR1_DBG_RTC_STOP    /*!< The clock of the RT
 352:Drivers/STM32WBxx_HAL_Driver/Inc/stm32wbxx_ll_system.h **** #define LL_DBGMCU_APB1_GRP1_WWDG_STOP      DBGMCU_APB1FZR1_DBG_WWDG_STOP   /*!< The window watchdog
 353:Drivers/STM32WBxx_HAL_Driver/Inc/stm32wbxx_ll_system.h **** #define LL_DBGMCU_APB1_GRP1_IWDG_STOP      DBGMCU_APB1FZR1_DBG_IWDG_STOP   /*!< The independent wat
 354:Drivers/STM32WBxx_HAL_Driver/Inc/stm32wbxx_ll_system.h **** #define LL_DBGMCU_APB1_GRP1_I2C1_STOP      DBGMCU_APB1FZR1_DBG_I2C1_STOP   /*!< The I2C1 SMBus time
 355:Drivers/STM32WBxx_HAL_Driver/Inc/stm32wbxx_ll_system.h **** #if defined(I2C3)
 356:Drivers/STM32WBxx_HAL_Driver/Inc/stm32wbxx_ll_system.h **** #define LL_DBGMCU_APB1_GRP1_I2C3_STOP      DBGMCU_APB1FZR1_DBG_I2C3_STOP   /*!< The I2C3 SMBus time
 357:Drivers/STM32WBxx_HAL_Driver/Inc/stm32wbxx_ll_system.h **** #endif
 358:Drivers/STM32WBxx_HAL_Driver/Inc/stm32wbxx_ll_system.h **** #define LL_DBGMCU_APB1_GRP1_LPTIM1_STOP    DBGMCU_APB1FZR1_DBG_LPTIM1_STOP /*!< The counter clock o
 359:Drivers/STM32WBxx_HAL_Driver/Inc/stm32wbxx_ll_system.h **** /**
 360:Drivers/STM32WBxx_HAL_Driver/Inc/stm32wbxx_ll_system.h ****   * @}
 361:Drivers/STM32WBxx_HAL_Driver/Inc/stm32wbxx_ll_system.h ****   */
 362:Drivers/STM32WBxx_HAL_Driver/Inc/stm32wbxx_ll_system.h **** 
 363:Drivers/STM32WBxx_HAL_Driver/Inc/stm32wbxx_ll_system.h **** /** @defgroup SYSTEM_LL_EC_C2_APB1_GRP1_STOP_IP DBGMCU CPU2 APB1 GRP1 STOP IP
 364:Drivers/STM32WBxx_HAL_Driver/Inc/stm32wbxx_ll_system.h ****   * @{
 365:Drivers/STM32WBxx_HAL_Driver/Inc/stm32wbxx_ll_system.h ****   */
 366:Drivers/STM32WBxx_HAL_Driver/Inc/stm32wbxx_ll_system.h **** #define LL_C2_DBGMCU_APB1_GRP1_TIM2_STOP   DBGMCU_C2APB1FZR1_DBG_TIM2_STOP   /*!< The counter clock
 367:Drivers/STM32WBxx_HAL_Driver/Inc/stm32wbxx_ll_system.h **** #define LL_C2_DBGMCU_APB1_GRP1_RTC_STOP    DBGMCU_C2APB1FZR1_DBG_RTC_STOP    /*!< The clock of the 
 368:Drivers/STM32WBxx_HAL_Driver/Inc/stm32wbxx_ll_system.h **** #define LL_C2_DBGMCU_APB1_GRP1_IWDG_STOP   DBGMCU_C2APB1FZR1_DBG_IWDG_STOP   /*!< The independent w
 369:Drivers/STM32WBxx_HAL_Driver/Inc/stm32wbxx_ll_system.h **** #define LL_C2_DBGMCU_APB1_GRP1_I2C1_STOP   DBGMCU_C2APB1FZR1_DBG_I2C1_STOP   /*!< The I2C1 SMBus ti
 370:Drivers/STM32WBxx_HAL_Driver/Inc/stm32wbxx_ll_system.h **** #if defined(I2C3)
 371:Drivers/STM32WBxx_HAL_Driver/Inc/stm32wbxx_ll_system.h **** #define LL_C2_DBGMCU_APB1_GRP1_I2C3_STOP   DBGMCU_C2APB1FZR1_DBG_I2C3_STOP   /*!< The I2C3 SMBus ti
 372:Drivers/STM32WBxx_HAL_Driver/Inc/stm32wbxx_ll_system.h **** #endif
 373:Drivers/STM32WBxx_HAL_Driver/Inc/stm32wbxx_ll_system.h **** #define LL_C2_DBGMCU_APB1_GRP1_LPTIM1_STOP DBGMCU_C2APB1FZR1_DBG_LPTIM1_STOP /*!< The counter clock
 374:Drivers/STM32WBxx_HAL_Driver/Inc/stm32wbxx_ll_system.h **** /**
 375:Drivers/STM32WBxx_HAL_Driver/Inc/stm32wbxx_ll_system.h ****   * @}
 376:Drivers/STM32WBxx_HAL_Driver/Inc/stm32wbxx_ll_system.h ****   */
 377:Drivers/STM32WBxx_HAL_Driver/Inc/stm32wbxx_ll_system.h **** 
 378:Drivers/STM32WBxx_HAL_Driver/Inc/stm32wbxx_ll_system.h **** /** @defgroup SYSTEM_LL_EC_APB1_GRP2_STOP_IP DBGMCU CPU1 APB1 GRP2 STOP IP
 379:Drivers/STM32WBxx_HAL_Driver/Inc/stm32wbxx_ll_system.h ****   * @{
 380:Drivers/STM32WBxx_HAL_Driver/Inc/stm32wbxx_ll_system.h ****   */
 381:Drivers/STM32WBxx_HAL_Driver/Inc/stm32wbxx_ll_system.h **** #define LL_DBGMCU_APB1_GRP2_LPTIM2_STOP    DBGMCU_APB1FZR2_DBG_LPTIM2_STOP /*!< The counter clock o
ARM GAS  /var/folders/lt/l_qrc8c54t93n_phsj7cf5tc0000gn/T//ccg72gDc.s 			page 43


 382:Drivers/STM32WBxx_HAL_Driver/Inc/stm32wbxx_ll_system.h **** /**
 383:Drivers/STM32WBxx_HAL_Driver/Inc/stm32wbxx_ll_system.h ****   * @}
 384:Drivers/STM32WBxx_HAL_Driver/Inc/stm32wbxx_ll_system.h ****   */
 385:Drivers/STM32WBxx_HAL_Driver/Inc/stm32wbxx_ll_system.h **** 
 386:Drivers/STM32WBxx_HAL_Driver/Inc/stm32wbxx_ll_system.h **** /** @defgroup SYSTEM_LL_EC_C2_APB1_GRP2_STOP_IP DBGMCU CPU2 APB1 GRP2 STOP IP
 387:Drivers/STM32WBxx_HAL_Driver/Inc/stm32wbxx_ll_system.h ****   * @{
 388:Drivers/STM32WBxx_HAL_Driver/Inc/stm32wbxx_ll_system.h ****   */
 389:Drivers/STM32WBxx_HAL_Driver/Inc/stm32wbxx_ll_system.h **** #define LL_C2_DBGMCU_APB1_GRP2_LPTIM2_STOP DBGMCU_C2APB1FZR2_DBG_LPTIM2_STOP /*!< The counter clock
 390:Drivers/STM32WBxx_HAL_Driver/Inc/stm32wbxx_ll_system.h **** /**
 391:Drivers/STM32WBxx_HAL_Driver/Inc/stm32wbxx_ll_system.h ****   * @}
 392:Drivers/STM32WBxx_HAL_Driver/Inc/stm32wbxx_ll_system.h ****   */
 393:Drivers/STM32WBxx_HAL_Driver/Inc/stm32wbxx_ll_system.h **** 
 394:Drivers/STM32WBxx_HAL_Driver/Inc/stm32wbxx_ll_system.h **** /** @defgroup SYSTEM_LL_EC_APB2_GRP1_STOP_IP DBGMCU CPU1 APB2 GRP1 STOP IP
 395:Drivers/STM32WBxx_HAL_Driver/Inc/stm32wbxx_ll_system.h ****   * @{
 396:Drivers/STM32WBxx_HAL_Driver/Inc/stm32wbxx_ll_system.h ****   */
 397:Drivers/STM32WBxx_HAL_Driver/Inc/stm32wbxx_ll_system.h **** #define LL_DBGMCU_APB2_GRP1_TIM1_STOP      DBGMCU_APB2FZR_DBG_TIM1_STOP   /*!< The counter clock of
 398:Drivers/STM32WBxx_HAL_Driver/Inc/stm32wbxx_ll_system.h **** #if defined(TIM16)
 399:Drivers/STM32WBxx_HAL_Driver/Inc/stm32wbxx_ll_system.h **** #define LL_DBGMCU_APB2_GRP1_TIM16_STOP     DBGMCU_APB2FZR_DBG_TIM16_STOP  /*!< The counter clock of
 400:Drivers/STM32WBxx_HAL_Driver/Inc/stm32wbxx_ll_system.h **** #endif
 401:Drivers/STM32WBxx_HAL_Driver/Inc/stm32wbxx_ll_system.h **** #if defined(TIM17)
 402:Drivers/STM32WBxx_HAL_Driver/Inc/stm32wbxx_ll_system.h **** #define LL_DBGMCU_APB2_GRP1_TIM17_STOP     DBGMCU_APB2FZR_DBG_TIM17_STOP  /*!< The counter clock of
 403:Drivers/STM32WBxx_HAL_Driver/Inc/stm32wbxx_ll_system.h **** #endif
 404:Drivers/STM32WBxx_HAL_Driver/Inc/stm32wbxx_ll_system.h **** /**
 405:Drivers/STM32WBxx_HAL_Driver/Inc/stm32wbxx_ll_system.h ****   * @}
 406:Drivers/STM32WBxx_HAL_Driver/Inc/stm32wbxx_ll_system.h ****   */
 407:Drivers/STM32WBxx_HAL_Driver/Inc/stm32wbxx_ll_system.h **** 
 408:Drivers/STM32WBxx_HAL_Driver/Inc/stm32wbxx_ll_system.h **** /** @defgroup SYSTEM_LL_EC_C2_APB2_GRP1_STOP_IP DBGMCU CPU2 APB2 GRP1 STOP IP
 409:Drivers/STM32WBxx_HAL_Driver/Inc/stm32wbxx_ll_system.h ****   * @{
 410:Drivers/STM32WBxx_HAL_Driver/Inc/stm32wbxx_ll_system.h ****   */
 411:Drivers/STM32WBxx_HAL_Driver/Inc/stm32wbxx_ll_system.h **** #define LL_C2_DBGMCU_APB2_GRP1_TIM1_STOP   DBGMCU_C2APB2FZR_DBG_TIM1_STOP   /*!< The counter clock 
 412:Drivers/STM32WBxx_HAL_Driver/Inc/stm32wbxx_ll_system.h **** #if defined(TIM16)
 413:Drivers/STM32WBxx_HAL_Driver/Inc/stm32wbxx_ll_system.h **** #define LL_C2_DBGMCU_APB2_GRP1_TIM16_STOP  DBGMCU_C2APB2FZR_DBG_TIM16_STOP  /*!< The counter clock 
 414:Drivers/STM32WBxx_HAL_Driver/Inc/stm32wbxx_ll_system.h **** #endif
 415:Drivers/STM32WBxx_HAL_Driver/Inc/stm32wbxx_ll_system.h **** #if defined(TIM17)
 416:Drivers/STM32WBxx_HAL_Driver/Inc/stm32wbxx_ll_system.h **** #define LL_C2_DBGMCU_APB2_GRP1_TIM17_STOP  DBGMCU_C2APB2FZR_DBG_TIM17_STOP  /*!< The counter clock 
 417:Drivers/STM32WBxx_HAL_Driver/Inc/stm32wbxx_ll_system.h **** #endif
 418:Drivers/STM32WBxx_HAL_Driver/Inc/stm32wbxx_ll_system.h **** /**
 419:Drivers/STM32WBxx_HAL_Driver/Inc/stm32wbxx_ll_system.h ****   * @}
 420:Drivers/STM32WBxx_HAL_Driver/Inc/stm32wbxx_ll_system.h ****   */
 421:Drivers/STM32WBxx_HAL_Driver/Inc/stm32wbxx_ll_system.h **** 
 422:Drivers/STM32WBxx_HAL_Driver/Inc/stm32wbxx_ll_system.h **** #if defined(VREFBUF)
 423:Drivers/STM32WBxx_HAL_Driver/Inc/stm32wbxx_ll_system.h **** /** @defgroup SYSTEM_LL_EC_VOLTAGE VREFBUF VOLTAGE
 424:Drivers/STM32WBxx_HAL_Driver/Inc/stm32wbxx_ll_system.h ****   * @{
 425:Drivers/STM32WBxx_HAL_Driver/Inc/stm32wbxx_ll_system.h ****   */
 426:Drivers/STM32WBxx_HAL_Driver/Inc/stm32wbxx_ll_system.h **** #define LL_VREFBUF_VOLTAGE_SCALE0          0x00000000U     /*!< Voltage reference scale 0 (VREF_OUT
 427:Drivers/STM32WBxx_HAL_Driver/Inc/stm32wbxx_ll_system.h **** #define LL_VREFBUF_VOLTAGE_SCALE1          VREFBUF_CSR_VRS /*!< Voltage reference scale 1 (VREF_OUT
 428:Drivers/STM32WBxx_HAL_Driver/Inc/stm32wbxx_ll_system.h **** /**
 429:Drivers/STM32WBxx_HAL_Driver/Inc/stm32wbxx_ll_system.h ****   * @}
 430:Drivers/STM32WBxx_HAL_Driver/Inc/stm32wbxx_ll_system.h ****   */
 431:Drivers/STM32WBxx_HAL_Driver/Inc/stm32wbxx_ll_system.h **** #endif /* VREFBUF */
 432:Drivers/STM32WBxx_HAL_Driver/Inc/stm32wbxx_ll_system.h **** 
 433:Drivers/STM32WBxx_HAL_Driver/Inc/stm32wbxx_ll_system.h **** /** @defgroup SYSTEM_LL_EC_LATENCY FLASH LATENCY
 434:Drivers/STM32WBxx_HAL_Driver/Inc/stm32wbxx_ll_system.h ****   * @{
 435:Drivers/STM32WBxx_HAL_Driver/Inc/stm32wbxx_ll_system.h ****   */
 436:Drivers/STM32WBxx_HAL_Driver/Inc/stm32wbxx_ll_system.h **** #define LL_FLASH_LATENCY_0                 FLASH_ACR_LATENCY_0WS   /*!< FLASH Zero wait state   */
 437:Drivers/STM32WBxx_HAL_Driver/Inc/stm32wbxx_ll_system.h **** #define LL_FLASH_LATENCY_1                 FLASH_ACR_LATENCY_1WS   /*!< FLASH One wait state    */
 438:Drivers/STM32WBxx_HAL_Driver/Inc/stm32wbxx_ll_system.h **** #define LL_FLASH_LATENCY_2                 FLASH_ACR_LATENCY_2WS   /*!< FLASH Two wait states   */
ARM GAS  /var/folders/lt/l_qrc8c54t93n_phsj7cf5tc0000gn/T//ccg72gDc.s 			page 44


 439:Drivers/STM32WBxx_HAL_Driver/Inc/stm32wbxx_ll_system.h **** #define LL_FLASH_LATENCY_3                 FLASH_ACR_LATENCY_3WS   /*!< FLASH Three wait states */
 440:Drivers/STM32WBxx_HAL_Driver/Inc/stm32wbxx_ll_system.h **** 
 441:Drivers/STM32WBxx_HAL_Driver/Inc/stm32wbxx_ll_system.h **** /**
 442:Drivers/STM32WBxx_HAL_Driver/Inc/stm32wbxx_ll_system.h ****   * @}
 443:Drivers/STM32WBxx_HAL_Driver/Inc/stm32wbxx_ll_system.h ****   */
 444:Drivers/STM32WBxx_HAL_Driver/Inc/stm32wbxx_ll_system.h **** 
 445:Drivers/STM32WBxx_HAL_Driver/Inc/stm32wbxx_ll_system.h **** /**
 446:Drivers/STM32WBxx_HAL_Driver/Inc/stm32wbxx_ll_system.h ****   * @}
 447:Drivers/STM32WBxx_HAL_Driver/Inc/stm32wbxx_ll_system.h ****   */
 448:Drivers/STM32WBxx_HAL_Driver/Inc/stm32wbxx_ll_system.h **** 
 449:Drivers/STM32WBxx_HAL_Driver/Inc/stm32wbxx_ll_system.h **** /* Exported macro ------------------------------------------------------------*/
 450:Drivers/STM32WBxx_HAL_Driver/Inc/stm32wbxx_ll_system.h **** 
 451:Drivers/STM32WBxx_HAL_Driver/Inc/stm32wbxx_ll_system.h **** /* Exported functions --------------------------------------------------------*/
 452:Drivers/STM32WBxx_HAL_Driver/Inc/stm32wbxx_ll_system.h **** /** @defgroup SYSTEM_LL_Exported_Functions SYSTEM Exported Functions
 453:Drivers/STM32WBxx_HAL_Driver/Inc/stm32wbxx_ll_system.h ****   * @{
 454:Drivers/STM32WBxx_HAL_Driver/Inc/stm32wbxx_ll_system.h ****   */
 455:Drivers/STM32WBxx_HAL_Driver/Inc/stm32wbxx_ll_system.h **** 
 456:Drivers/STM32WBxx_HAL_Driver/Inc/stm32wbxx_ll_system.h **** /** @defgroup SYSTEM_LL_EF_SYSCFG SYSCFG
 457:Drivers/STM32WBxx_HAL_Driver/Inc/stm32wbxx_ll_system.h ****   * @{
 458:Drivers/STM32WBxx_HAL_Driver/Inc/stm32wbxx_ll_system.h ****   */
 459:Drivers/STM32WBxx_HAL_Driver/Inc/stm32wbxx_ll_system.h **** 
 460:Drivers/STM32WBxx_HAL_Driver/Inc/stm32wbxx_ll_system.h **** /**
 461:Drivers/STM32WBxx_HAL_Driver/Inc/stm32wbxx_ll_system.h ****   * @brief  Set memory mapping at address 0x00000000
 462:Drivers/STM32WBxx_HAL_Driver/Inc/stm32wbxx_ll_system.h ****   * @rmtoll SYSCFG_MEMRMP MEM_MODE      LL_SYSCFG_SetRemapMemory
 463:Drivers/STM32WBxx_HAL_Driver/Inc/stm32wbxx_ll_system.h ****   * @param  Memory This parameter can be one of the following values:
 464:Drivers/STM32WBxx_HAL_Driver/Inc/stm32wbxx_ll_system.h ****   *         @arg @ref LL_SYSCFG_REMAP_FLASH
 465:Drivers/STM32WBxx_HAL_Driver/Inc/stm32wbxx_ll_system.h ****   *         @arg @ref LL_SYSCFG_REMAP_SYSTEMFLASH
 466:Drivers/STM32WBxx_HAL_Driver/Inc/stm32wbxx_ll_system.h ****   *         @arg @ref LL_SYSCFG_REMAP_SRAM
 467:Drivers/STM32WBxx_HAL_Driver/Inc/stm32wbxx_ll_system.h ****   *         @arg @ref LL_SYSCFG_REMAP_QUADSPI
 468:Drivers/STM32WBxx_HAL_Driver/Inc/stm32wbxx_ll_system.h ****   * @retval None
 469:Drivers/STM32WBxx_HAL_Driver/Inc/stm32wbxx_ll_system.h ****   */
 470:Drivers/STM32WBxx_HAL_Driver/Inc/stm32wbxx_ll_system.h **** __STATIC_INLINE void LL_SYSCFG_SetRemapMemory(uint32_t Memory)
 471:Drivers/STM32WBxx_HAL_Driver/Inc/stm32wbxx_ll_system.h **** {
 472:Drivers/STM32WBxx_HAL_Driver/Inc/stm32wbxx_ll_system.h ****   MODIFY_REG(SYSCFG->MEMRMP, SYSCFG_MEMRMP_MEM_MODE, Memory);
 473:Drivers/STM32WBxx_HAL_Driver/Inc/stm32wbxx_ll_system.h **** }
 474:Drivers/STM32WBxx_HAL_Driver/Inc/stm32wbxx_ll_system.h **** 
 475:Drivers/STM32WBxx_HAL_Driver/Inc/stm32wbxx_ll_system.h **** /**
 476:Drivers/STM32WBxx_HAL_Driver/Inc/stm32wbxx_ll_system.h ****   * @brief  Get memory mapping at address 0x00000000
 477:Drivers/STM32WBxx_HAL_Driver/Inc/stm32wbxx_ll_system.h ****   * @rmtoll SYSCFG_MEMRMP MEM_MODE      LL_SYSCFG_GetRemapMemory
 478:Drivers/STM32WBxx_HAL_Driver/Inc/stm32wbxx_ll_system.h ****   * @retval Returned value can be one of the following values:
 479:Drivers/STM32WBxx_HAL_Driver/Inc/stm32wbxx_ll_system.h ****   *         @arg @ref LL_SYSCFG_REMAP_FLASH
 480:Drivers/STM32WBxx_HAL_Driver/Inc/stm32wbxx_ll_system.h ****   *         @arg @ref LL_SYSCFG_REMAP_SYSTEMFLASH
 481:Drivers/STM32WBxx_HAL_Driver/Inc/stm32wbxx_ll_system.h ****   *         @arg @ref LL_SYSCFG_REMAP_SRAM
 482:Drivers/STM32WBxx_HAL_Driver/Inc/stm32wbxx_ll_system.h ****   *         @arg @ref LL_SYSCFG_REMAP_QUADSPI
 483:Drivers/STM32WBxx_HAL_Driver/Inc/stm32wbxx_ll_system.h ****   */
 484:Drivers/STM32WBxx_HAL_Driver/Inc/stm32wbxx_ll_system.h **** __STATIC_INLINE uint32_t LL_SYSCFG_GetRemapMemory(void)
 485:Drivers/STM32WBxx_HAL_Driver/Inc/stm32wbxx_ll_system.h **** {
 486:Drivers/STM32WBxx_HAL_Driver/Inc/stm32wbxx_ll_system.h ****   return (uint32_t)(READ_BIT(SYSCFG->MEMRMP, SYSCFG_MEMRMP_MEM_MODE));
 487:Drivers/STM32WBxx_HAL_Driver/Inc/stm32wbxx_ll_system.h **** }
 488:Drivers/STM32WBxx_HAL_Driver/Inc/stm32wbxx_ll_system.h **** 
 489:Drivers/STM32WBxx_HAL_Driver/Inc/stm32wbxx_ll_system.h **** /**
 490:Drivers/STM32WBxx_HAL_Driver/Inc/stm32wbxx_ll_system.h ****   * @brief  Enable I/O analog switch voltage booster.
 491:Drivers/STM32WBxx_HAL_Driver/Inc/stm32wbxx_ll_system.h ****   * @note   When voltage booster is enabled, I/O analog switches are supplied
 492:Drivers/STM32WBxx_HAL_Driver/Inc/stm32wbxx_ll_system.h ****   *         by a dedicated voltage booster, from VDD power domain. This is
 493:Drivers/STM32WBxx_HAL_Driver/Inc/stm32wbxx_ll_system.h ****   *         the recommended configuration with low VDDA voltage operation.
 494:Drivers/STM32WBxx_HAL_Driver/Inc/stm32wbxx_ll_system.h ****   * @note   The I/O analog switch voltage booster is relevant for peripherals
 495:Drivers/STM32WBxx_HAL_Driver/Inc/stm32wbxx_ll_system.h ****   *         using I/O in analog input: ADC and COMP.
ARM GAS  /var/folders/lt/l_qrc8c54t93n_phsj7cf5tc0000gn/T//ccg72gDc.s 			page 45


 496:Drivers/STM32WBxx_HAL_Driver/Inc/stm32wbxx_ll_system.h ****   *         However, COMP inputs have a high impedance and
 497:Drivers/STM32WBxx_HAL_Driver/Inc/stm32wbxx_ll_system.h ****   *         voltage booster do not impact performance significantly.
 498:Drivers/STM32WBxx_HAL_Driver/Inc/stm32wbxx_ll_system.h ****   *         Therefore, the voltage booster is mainly intended for
 499:Drivers/STM32WBxx_HAL_Driver/Inc/stm32wbxx_ll_system.h ****   *         usage with ADC.
 500:Drivers/STM32WBxx_HAL_Driver/Inc/stm32wbxx_ll_system.h ****   * @rmtoll SYSCFG_CFGR1 BOOSTEN       LL_SYSCFG_EnableAnalogBooster
 501:Drivers/STM32WBxx_HAL_Driver/Inc/stm32wbxx_ll_system.h ****   * @retval None
 502:Drivers/STM32WBxx_HAL_Driver/Inc/stm32wbxx_ll_system.h ****   */
 503:Drivers/STM32WBxx_HAL_Driver/Inc/stm32wbxx_ll_system.h **** __STATIC_INLINE void LL_SYSCFG_EnableAnalogBooster(void)
 504:Drivers/STM32WBxx_HAL_Driver/Inc/stm32wbxx_ll_system.h **** {
 505:Drivers/STM32WBxx_HAL_Driver/Inc/stm32wbxx_ll_system.h ****   SET_BIT(SYSCFG->CFGR1, SYSCFG_CFGR1_BOOSTEN);
 506:Drivers/STM32WBxx_HAL_Driver/Inc/stm32wbxx_ll_system.h **** }
 507:Drivers/STM32WBxx_HAL_Driver/Inc/stm32wbxx_ll_system.h **** 
 508:Drivers/STM32WBxx_HAL_Driver/Inc/stm32wbxx_ll_system.h **** /**
 509:Drivers/STM32WBxx_HAL_Driver/Inc/stm32wbxx_ll_system.h ****   * @brief  Disable I/O analog switch voltage booster.
 510:Drivers/STM32WBxx_HAL_Driver/Inc/stm32wbxx_ll_system.h ****   * @note   When voltage booster is enabled, I/O analog switches are supplied
 511:Drivers/STM32WBxx_HAL_Driver/Inc/stm32wbxx_ll_system.h ****   *         by a dedicated voltage booster, from VDD power domain. This is
 512:Drivers/STM32WBxx_HAL_Driver/Inc/stm32wbxx_ll_system.h ****   *         the recommended configuration with low VDDA voltage operation.
 513:Drivers/STM32WBxx_HAL_Driver/Inc/stm32wbxx_ll_system.h ****   * @note   The I/O analog switch voltage booster is relevant for peripherals
 514:Drivers/STM32WBxx_HAL_Driver/Inc/stm32wbxx_ll_system.h ****   *         using I/O in analog input: ADC and COMP.
 515:Drivers/STM32WBxx_HAL_Driver/Inc/stm32wbxx_ll_system.h ****   *         However, COMP inputs have a high impedance and
 516:Drivers/STM32WBxx_HAL_Driver/Inc/stm32wbxx_ll_system.h ****   *         voltage booster do not impact performance significantly.
 517:Drivers/STM32WBxx_HAL_Driver/Inc/stm32wbxx_ll_system.h ****   *         Therefore, the voltage booster is mainly intended for
 518:Drivers/STM32WBxx_HAL_Driver/Inc/stm32wbxx_ll_system.h ****   *         usage with ADC.
 519:Drivers/STM32WBxx_HAL_Driver/Inc/stm32wbxx_ll_system.h ****   * @rmtoll SYSCFG_CFGR1 BOOSTEN       LL_SYSCFG_DisableAnalogBooster
 520:Drivers/STM32WBxx_HAL_Driver/Inc/stm32wbxx_ll_system.h ****   * @retval None
 521:Drivers/STM32WBxx_HAL_Driver/Inc/stm32wbxx_ll_system.h ****   */
 522:Drivers/STM32WBxx_HAL_Driver/Inc/stm32wbxx_ll_system.h **** __STATIC_INLINE void LL_SYSCFG_DisableAnalogBooster(void)
 523:Drivers/STM32WBxx_HAL_Driver/Inc/stm32wbxx_ll_system.h **** {
 524:Drivers/STM32WBxx_HAL_Driver/Inc/stm32wbxx_ll_system.h ****   CLEAR_BIT(SYSCFG->CFGR1, SYSCFG_CFGR1_BOOSTEN);
 525:Drivers/STM32WBxx_HAL_Driver/Inc/stm32wbxx_ll_system.h **** }
 526:Drivers/STM32WBxx_HAL_Driver/Inc/stm32wbxx_ll_system.h **** 
 527:Drivers/STM32WBxx_HAL_Driver/Inc/stm32wbxx_ll_system.h **** #if defined(SYSCFG_CFGR1_ANASWVDD)
 528:Drivers/STM32WBxx_HAL_Driver/Inc/stm32wbxx_ll_system.h **** /**
 529:Drivers/STM32WBxx_HAL_Driver/Inc/stm32wbxx_ll_system.h ****   * @brief  Enable the Analog GPIO switch to control voltage selection
 530:Drivers/STM32WBxx_HAL_Driver/Inc/stm32wbxx_ll_system.h ****   *         when the supply voltage is supplied by VDDA
 531:Drivers/STM32WBxx_HAL_Driver/Inc/stm32wbxx_ll_system.h ****   * @rmtoll SYSCFG_CFGR1   ANASWVDD   LL_SYSCFG_EnableAnalogGpioSwitch
 532:Drivers/STM32WBxx_HAL_Driver/Inc/stm32wbxx_ll_system.h ****   * @note   Activating the gpio switch enable IOs analog switches supplied by VDDA
 533:Drivers/STM32WBxx_HAL_Driver/Inc/stm32wbxx_ll_system.h ****   * @retval None
 534:Drivers/STM32WBxx_HAL_Driver/Inc/stm32wbxx_ll_system.h ****   */
 535:Drivers/STM32WBxx_HAL_Driver/Inc/stm32wbxx_ll_system.h **** __STATIC_INLINE void LL_SYSCFG_EnableAnalogGpioSwitch(void)
 536:Drivers/STM32WBxx_HAL_Driver/Inc/stm32wbxx_ll_system.h **** {
 537:Drivers/STM32WBxx_HAL_Driver/Inc/stm32wbxx_ll_system.h ****   SET_BIT(SYSCFG->CFGR1, SYSCFG_CFGR1_ANASWVDD);
 538:Drivers/STM32WBxx_HAL_Driver/Inc/stm32wbxx_ll_system.h **** }
 539:Drivers/STM32WBxx_HAL_Driver/Inc/stm32wbxx_ll_system.h **** 
 540:Drivers/STM32WBxx_HAL_Driver/Inc/stm32wbxx_ll_system.h **** /**
 541:Drivers/STM32WBxx_HAL_Driver/Inc/stm32wbxx_ll_system.h ****   * @brief  Disable the Analog GPIO switch to control voltage selection
 542:Drivers/STM32WBxx_HAL_Driver/Inc/stm32wbxx_ll_system.h ****   *         when the supply voltage is supplied by VDDA
 543:Drivers/STM32WBxx_HAL_Driver/Inc/stm32wbxx_ll_system.h ****   * @rmtoll SYSCFG_CFGR1   ANASWVDD   LL_SYSCFG_DisableAnalogGpioSwitch
 544:Drivers/STM32WBxx_HAL_Driver/Inc/stm32wbxx_ll_system.h ****   * @note   Activating the gpio switch enable IOs analog switches supplied by VDDA
 545:Drivers/STM32WBxx_HAL_Driver/Inc/stm32wbxx_ll_system.h ****   * @retval None
 546:Drivers/STM32WBxx_HAL_Driver/Inc/stm32wbxx_ll_system.h ****   */
 547:Drivers/STM32WBxx_HAL_Driver/Inc/stm32wbxx_ll_system.h **** __STATIC_INLINE void LL_SYSCFG_DisableAnalogGpioSwitch(void)
 548:Drivers/STM32WBxx_HAL_Driver/Inc/stm32wbxx_ll_system.h **** {
 549:Drivers/STM32WBxx_HAL_Driver/Inc/stm32wbxx_ll_system.h ****   CLEAR_BIT(SYSCFG->CFGR1, SYSCFG_CFGR1_ANASWVDD);
 550:Drivers/STM32WBxx_HAL_Driver/Inc/stm32wbxx_ll_system.h **** }
 551:Drivers/STM32WBxx_HAL_Driver/Inc/stm32wbxx_ll_system.h **** #endif
 552:Drivers/STM32WBxx_HAL_Driver/Inc/stm32wbxx_ll_system.h **** 
ARM GAS  /var/folders/lt/l_qrc8c54t93n_phsj7cf5tc0000gn/T//ccg72gDc.s 			page 46


 553:Drivers/STM32WBxx_HAL_Driver/Inc/stm32wbxx_ll_system.h **** /**
 554:Drivers/STM32WBxx_HAL_Driver/Inc/stm32wbxx_ll_system.h ****   * @brief  Enable the I2C fast mode plus driving capability.
 555:Drivers/STM32WBxx_HAL_Driver/Inc/stm32wbxx_ll_system.h ****   * @rmtoll SYSCFG_CFGR1 I2C_PBx_FMP   LL_SYSCFG_EnableFastModePlus\n
 556:Drivers/STM32WBxx_HAL_Driver/Inc/stm32wbxx_ll_system.h ****   *         SYSCFG_CFGR1 I2Cx_FMP      LL_SYSCFG_EnableFastModePlus
 557:Drivers/STM32WBxx_HAL_Driver/Inc/stm32wbxx_ll_system.h ****   * @param  ConfigFastModePlus This parameter can be a combination of the following values:
 558:Drivers/STM32WBxx_HAL_Driver/Inc/stm32wbxx_ll_system.h ****   *         @arg @ref LL_SYSCFG_I2C_FASTMODEPLUS_PB6
 559:Drivers/STM32WBxx_HAL_Driver/Inc/stm32wbxx_ll_system.h ****   *         @arg @ref LL_SYSCFG_I2C_FASTMODEPLUS_PB7
 560:Drivers/STM32WBxx_HAL_Driver/Inc/stm32wbxx_ll_system.h ****   *         @arg @ref LL_SYSCFG_I2C_FASTMODEPLUS_PB8
 561:Drivers/STM32WBxx_HAL_Driver/Inc/stm32wbxx_ll_system.h ****   *         @arg @ref LL_SYSCFG_I2C_FASTMODEPLUS_PB9
 562:Drivers/STM32WBxx_HAL_Driver/Inc/stm32wbxx_ll_system.h ****   *         @arg @ref LL_SYSCFG_I2C_FASTMODEPLUS_I2C1
 563:Drivers/STM32WBxx_HAL_Driver/Inc/stm32wbxx_ll_system.h ****   *         @arg @ref LL_SYSCFG_I2C_FASTMODEPLUS_I2C3
 564:Drivers/STM32WBxx_HAL_Driver/Inc/stm32wbxx_ll_system.h ****   * @retval None
 565:Drivers/STM32WBxx_HAL_Driver/Inc/stm32wbxx_ll_system.h ****   */
 566:Drivers/STM32WBxx_HAL_Driver/Inc/stm32wbxx_ll_system.h **** __STATIC_INLINE void LL_SYSCFG_EnableFastModePlus(uint32_t ConfigFastModePlus)
 567:Drivers/STM32WBxx_HAL_Driver/Inc/stm32wbxx_ll_system.h **** {
 568:Drivers/STM32WBxx_HAL_Driver/Inc/stm32wbxx_ll_system.h ****   SET_BIT(SYSCFG->CFGR1, ConfigFastModePlus);
 569:Drivers/STM32WBxx_HAL_Driver/Inc/stm32wbxx_ll_system.h **** }
 570:Drivers/STM32WBxx_HAL_Driver/Inc/stm32wbxx_ll_system.h **** 
 571:Drivers/STM32WBxx_HAL_Driver/Inc/stm32wbxx_ll_system.h **** /**
 572:Drivers/STM32WBxx_HAL_Driver/Inc/stm32wbxx_ll_system.h ****   * @brief  Disable the I2C fast mode plus driving capability.
 573:Drivers/STM32WBxx_HAL_Driver/Inc/stm32wbxx_ll_system.h ****   * @rmtoll SYSCFG_CFGR1 I2C_PBx_FMP   LL_SYSCFG_DisableFastModePlus\n
 574:Drivers/STM32WBxx_HAL_Driver/Inc/stm32wbxx_ll_system.h ****   *         SYSCFG_CFGR1 I2Cx_FMP      LL_SYSCFG_DisableFastModePlus
 575:Drivers/STM32WBxx_HAL_Driver/Inc/stm32wbxx_ll_system.h ****   * @param  ConfigFastModePlus This parameter can be a combination of the following values:
 576:Drivers/STM32WBxx_HAL_Driver/Inc/stm32wbxx_ll_system.h ****   *         @arg @ref LL_SYSCFG_I2C_FASTMODEPLUS_PB6
 577:Drivers/STM32WBxx_HAL_Driver/Inc/stm32wbxx_ll_system.h ****   *         @arg @ref LL_SYSCFG_I2C_FASTMODEPLUS_PB7
 578:Drivers/STM32WBxx_HAL_Driver/Inc/stm32wbxx_ll_system.h ****   *         @arg @ref LL_SYSCFG_I2C_FASTMODEPLUS_PB8
 579:Drivers/STM32WBxx_HAL_Driver/Inc/stm32wbxx_ll_system.h ****   *         @arg @ref LL_SYSCFG_I2C_FASTMODEPLUS_PB9
 580:Drivers/STM32WBxx_HAL_Driver/Inc/stm32wbxx_ll_system.h ****   *         @arg @ref LL_SYSCFG_I2C_FASTMODEPLUS_I2C1
 581:Drivers/STM32WBxx_HAL_Driver/Inc/stm32wbxx_ll_system.h ****   *         @arg @ref LL_SYSCFG_I2C_FASTMODEPLUS_I2C3
 582:Drivers/STM32WBxx_HAL_Driver/Inc/stm32wbxx_ll_system.h ****   * @retval None
 583:Drivers/STM32WBxx_HAL_Driver/Inc/stm32wbxx_ll_system.h ****   */
 584:Drivers/STM32WBxx_HAL_Driver/Inc/stm32wbxx_ll_system.h **** __STATIC_INLINE void LL_SYSCFG_DisableFastModePlus(uint32_t ConfigFastModePlus)
 585:Drivers/STM32WBxx_HAL_Driver/Inc/stm32wbxx_ll_system.h **** {
 586:Drivers/STM32WBxx_HAL_Driver/Inc/stm32wbxx_ll_system.h ****   CLEAR_BIT(SYSCFG->CFGR1, ConfigFastModePlus);
 587:Drivers/STM32WBxx_HAL_Driver/Inc/stm32wbxx_ll_system.h **** }
 588:Drivers/STM32WBxx_HAL_Driver/Inc/stm32wbxx_ll_system.h **** 
 589:Drivers/STM32WBxx_HAL_Driver/Inc/stm32wbxx_ll_system.h **** /**
 590:Drivers/STM32WBxx_HAL_Driver/Inc/stm32wbxx_ll_system.h ****   * @brief  Enable Floating Point Unit Invalid operation Interrupt
 591:Drivers/STM32WBxx_HAL_Driver/Inc/stm32wbxx_ll_system.h ****   * @rmtoll SYSCFG_CFGR1 FPU_IE_0      LL_SYSCFG_EnableIT_FPU_IOC
 592:Drivers/STM32WBxx_HAL_Driver/Inc/stm32wbxx_ll_system.h ****   * @retval None
 593:Drivers/STM32WBxx_HAL_Driver/Inc/stm32wbxx_ll_system.h ****   */
 594:Drivers/STM32WBxx_HAL_Driver/Inc/stm32wbxx_ll_system.h **** __STATIC_INLINE void LL_SYSCFG_EnableIT_FPU_IOC(void)
 595:Drivers/STM32WBxx_HAL_Driver/Inc/stm32wbxx_ll_system.h **** {
 596:Drivers/STM32WBxx_HAL_Driver/Inc/stm32wbxx_ll_system.h ****   SET_BIT(SYSCFG->CFGR1, SYSCFG_CFGR1_FPU_IE_0);
 597:Drivers/STM32WBxx_HAL_Driver/Inc/stm32wbxx_ll_system.h **** }
 598:Drivers/STM32WBxx_HAL_Driver/Inc/stm32wbxx_ll_system.h **** 
 599:Drivers/STM32WBxx_HAL_Driver/Inc/stm32wbxx_ll_system.h **** /**
 600:Drivers/STM32WBxx_HAL_Driver/Inc/stm32wbxx_ll_system.h ****   * @brief  Enable Floating Point Unit Divide-by-zero Interrupt
 601:Drivers/STM32WBxx_HAL_Driver/Inc/stm32wbxx_ll_system.h ****   * @rmtoll SYSCFG_CFGR1 FPU_IE_1      LL_SYSCFG_EnableIT_FPU_DZC
 602:Drivers/STM32WBxx_HAL_Driver/Inc/stm32wbxx_ll_system.h ****   * @retval None
 603:Drivers/STM32WBxx_HAL_Driver/Inc/stm32wbxx_ll_system.h ****   */
 604:Drivers/STM32WBxx_HAL_Driver/Inc/stm32wbxx_ll_system.h **** __STATIC_INLINE void LL_SYSCFG_EnableIT_FPU_DZC(void)
 605:Drivers/STM32WBxx_HAL_Driver/Inc/stm32wbxx_ll_system.h **** {
 606:Drivers/STM32WBxx_HAL_Driver/Inc/stm32wbxx_ll_system.h ****   SET_BIT(SYSCFG->CFGR1, SYSCFG_CFGR1_FPU_IE_1);
 607:Drivers/STM32WBxx_HAL_Driver/Inc/stm32wbxx_ll_system.h **** }
 608:Drivers/STM32WBxx_HAL_Driver/Inc/stm32wbxx_ll_system.h **** 
 609:Drivers/STM32WBxx_HAL_Driver/Inc/stm32wbxx_ll_system.h **** /**
ARM GAS  /var/folders/lt/l_qrc8c54t93n_phsj7cf5tc0000gn/T//ccg72gDc.s 			page 47


 610:Drivers/STM32WBxx_HAL_Driver/Inc/stm32wbxx_ll_system.h ****   * @brief  Enable Floating Point Unit Underflow Interrupt
 611:Drivers/STM32WBxx_HAL_Driver/Inc/stm32wbxx_ll_system.h ****   * @rmtoll SYSCFG_CFGR1 FPU_IE_2      LL_SYSCFG_EnableIT_FPU_UFC
 612:Drivers/STM32WBxx_HAL_Driver/Inc/stm32wbxx_ll_system.h ****   * @retval None
 613:Drivers/STM32WBxx_HAL_Driver/Inc/stm32wbxx_ll_system.h ****   */
 614:Drivers/STM32WBxx_HAL_Driver/Inc/stm32wbxx_ll_system.h **** __STATIC_INLINE void LL_SYSCFG_EnableIT_FPU_UFC(void)
 615:Drivers/STM32WBxx_HAL_Driver/Inc/stm32wbxx_ll_system.h **** {
 616:Drivers/STM32WBxx_HAL_Driver/Inc/stm32wbxx_ll_system.h ****   SET_BIT(SYSCFG->CFGR1, SYSCFG_CFGR1_FPU_IE_2);
 617:Drivers/STM32WBxx_HAL_Driver/Inc/stm32wbxx_ll_system.h **** }
 618:Drivers/STM32WBxx_HAL_Driver/Inc/stm32wbxx_ll_system.h **** 
 619:Drivers/STM32WBxx_HAL_Driver/Inc/stm32wbxx_ll_system.h **** /**
 620:Drivers/STM32WBxx_HAL_Driver/Inc/stm32wbxx_ll_system.h ****   * @brief  Enable Floating Point Unit Overflow Interrupt
 621:Drivers/STM32WBxx_HAL_Driver/Inc/stm32wbxx_ll_system.h ****   * @rmtoll SYSCFG_CFGR1 FPU_IE_3      LL_SYSCFG_EnableIT_FPU_OFC
 622:Drivers/STM32WBxx_HAL_Driver/Inc/stm32wbxx_ll_system.h ****   * @retval None
 623:Drivers/STM32WBxx_HAL_Driver/Inc/stm32wbxx_ll_system.h ****   */
 624:Drivers/STM32WBxx_HAL_Driver/Inc/stm32wbxx_ll_system.h **** __STATIC_INLINE void LL_SYSCFG_EnableIT_FPU_OFC(void)
 625:Drivers/STM32WBxx_HAL_Driver/Inc/stm32wbxx_ll_system.h **** {
 626:Drivers/STM32WBxx_HAL_Driver/Inc/stm32wbxx_ll_system.h ****   SET_BIT(SYSCFG->CFGR1, SYSCFG_CFGR1_FPU_IE_3);
 627:Drivers/STM32WBxx_HAL_Driver/Inc/stm32wbxx_ll_system.h **** }
 628:Drivers/STM32WBxx_HAL_Driver/Inc/stm32wbxx_ll_system.h **** 
 629:Drivers/STM32WBxx_HAL_Driver/Inc/stm32wbxx_ll_system.h **** /**
 630:Drivers/STM32WBxx_HAL_Driver/Inc/stm32wbxx_ll_system.h ****   * @brief  Enable Floating Point Unit Input denormal Interrupt
 631:Drivers/STM32WBxx_HAL_Driver/Inc/stm32wbxx_ll_system.h ****   * @rmtoll SYSCFG_CFGR1 FPU_IE_4      LL_SYSCFG_EnableIT_FPU_IDC
 632:Drivers/STM32WBxx_HAL_Driver/Inc/stm32wbxx_ll_system.h ****   * @retval None
 633:Drivers/STM32WBxx_HAL_Driver/Inc/stm32wbxx_ll_system.h ****   */
 634:Drivers/STM32WBxx_HAL_Driver/Inc/stm32wbxx_ll_system.h **** __STATIC_INLINE void LL_SYSCFG_EnableIT_FPU_IDC(void)
 635:Drivers/STM32WBxx_HAL_Driver/Inc/stm32wbxx_ll_system.h **** {
 636:Drivers/STM32WBxx_HAL_Driver/Inc/stm32wbxx_ll_system.h ****   SET_BIT(SYSCFG->CFGR1, SYSCFG_CFGR1_FPU_IE_4);
 637:Drivers/STM32WBxx_HAL_Driver/Inc/stm32wbxx_ll_system.h **** }
 638:Drivers/STM32WBxx_HAL_Driver/Inc/stm32wbxx_ll_system.h **** 
 639:Drivers/STM32WBxx_HAL_Driver/Inc/stm32wbxx_ll_system.h **** /**
 640:Drivers/STM32WBxx_HAL_Driver/Inc/stm32wbxx_ll_system.h ****   * @brief  Enable Floating Point Unit Inexact Interrupt
 641:Drivers/STM32WBxx_HAL_Driver/Inc/stm32wbxx_ll_system.h ****   * @rmtoll SYSCFG_CFGR1 FPU_IE_5      LL_SYSCFG_EnableIT_FPU_IXC
 642:Drivers/STM32WBxx_HAL_Driver/Inc/stm32wbxx_ll_system.h ****   * @retval None
 643:Drivers/STM32WBxx_HAL_Driver/Inc/stm32wbxx_ll_system.h ****   */
 644:Drivers/STM32WBxx_HAL_Driver/Inc/stm32wbxx_ll_system.h **** __STATIC_INLINE void LL_SYSCFG_EnableIT_FPU_IXC(void)
 645:Drivers/STM32WBxx_HAL_Driver/Inc/stm32wbxx_ll_system.h **** {
 646:Drivers/STM32WBxx_HAL_Driver/Inc/stm32wbxx_ll_system.h ****   SET_BIT(SYSCFG->CFGR1, SYSCFG_CFGR1_FPU_IE_5);
 647:Drivers/STM32WBxx_HAL_Driver/Inc/stm32wbxx_ll_system.h **** }
 648:Drivers/STM32WBxx_HAL_Driver/Inc/stm32wbxx_ll_system.h **** 
 649:Drivers/STM32WBxx_HAL_Driver/Inc/stm32wbxx_ll_system.h **** /**
 650:Drivers/STM32WBxx_HAL_Driver/Inc/stm32wbxx_ll_system.h ****   * @brief  Disable Floating Point Unit Invalid operation Interrupt
 651:Drivers/STM32WBxx_HAL_Driver/Inc/stm32wbxx_ll_system.h ****   * @rmtoll SYSCFG_CFGR1 FPU_IE_0      LL_SYSCFG_DisableIT_FPU_IOC
 652:Drivers/STM32WBxx_HAL_Driver/Inc/stm32wbxx_ll_system.h ****   * @retval None
 653:Drivers/STM32WBxx_HAL_Driver/Inc/stm32wbxx_ll_system.h ****   */
 654:Drivers/STM32WBxx_HAL_Driver/Inc/stm32wbxx_ll_system.h **** __STATIC_INLINE void LL_SYSCFG_DisableIT_FPU_IOC(void)
 655:Drivers/STM32WBxx_HAL_Driver/Inc/stm32wbxx_ll_system.h **** {
 656:Drivers/STM32WBxx_HAL_Driver/Inc/stm32wbxx_ll_system.h ****   CLEAR_BIT(SYSCFG->CFGR1, SYSCFG_CFGR1_FPU_IE_0);
 657:Drivers/STM32WBxx_HAL_Driver/Inc/stm32wbxx_ll_system.h **** }
 658:Drivers/STM32WBxx_HAL_Driver/Inc/stm32wbxx_ll_system.h **** 
 659:Drivers/STM32WBxx_HAL_Driver/Inc/stm32wbxx_ll_system.h **** /**
 660:Drivers/STM32WBxx_HAL_Driver/Inc/stm32wbxx_ll_system.h ****   * @brief  Disable Floating Point Unit Divide-by-zero Interrupt
 661:Drivers/STM32WBxx_HAL_Driver/Inc/stm32wbxx_ll_system.h ****   * @rmtoll SYSCFG_CFGR1 FPU_IE_1      LL_SYSCFG_DisableIT_FPU_DZC
 662:Drivers/STM32WBxx_HAL_Driver/Inc/stm32wbxx_ll_system.h ****   * @retval None
 663:Drivers/STM32WBxx_HAL_Driver/Inc/stm32wbxx_ll_system.h ****   */
 664:Drivers/STM32WBxx_HAL_Driver/Inc/stm32wbxx_ll_system.h **** __STATIC_INLINE void LL_SYSCFG_DisableIT_FPU_DZC(void)
 665:Drivers/STM32WBxx_HAL_Driver/Inc/stm32wbxx_ll_system.h **** {
 666:Drivers/STM32WBxx_HAL_Driver/Inc/stm32wbxx_ll_system.h ****   CLEAR_BIT(SYSCFG->CFGR1, SYSCFG_CFGR1_FPU_IE_1);
ARM GAS  /var/folders/lt/l_qrc8c54t93n_phsj7cf5tc0000gn/T//ccg72gDc.s 			page 48


 667:Drivers/STM32WBxx_HAL_Driver/Inc/stm32wbxx_ll_system.h **** }
 668:Drivers/STM32WBxx_HAL_Driver/Inc/stm32wbxx_ll_system.h **** 
 669:Drivers/STM32WBxx_HAL_Driver/Inc/stm32wbxx_ll_system.h **** /**
 670:Drivers/STM32WBxx_HAL_Driver/Inc/stm32wbxx_ll_system.h ****   * @brief  Disable Floating Point Unit Underflow Interrupt
 671:Drivers/STM32WBxx_HAL_Driver/Inc/stm32wbxx_ll_system.h ****   * @rmtoll SYSCFG_CFGR1 FPU_IE_2      LL_SYSCFG_DisableIT_FPU_UFC
 672:Drivers/STM32WBxx_HAL_Driver/Inc/stm32wbxx_ll_system.h ****   * @retval None
 673:Drivers/STM32WBxx_HAL_Driver/Inc/stm32wbxx_ll_system.h ****   */
 674:Drivers/STM32WBxx_HAL_Driver/Inc/stm32wbxx_ll_system.h **** __STATIC_INLINE void LL_SYSCFG_DisableIT_FPU_UFC(void)
 675:Drivers/STM32WBxx_HAL_Driver/Inc/stm32wbxx_ll_system.h **** {
 676:Drivers/STM32WBxx_HAL_Driver/Inc/stm32wbxx_ll_system.h ****   CLEAR_BIT(SYSCFG->CFGR1, SYSCFG_CFGR1_FPU_IE_2);
 677:Drivers/STM32WBxx_HAL_Driver/Inc/stm32wbxx_ll_system.h **** }
 678:Drivers/STM32WBxx_HAL_Driver/Inc/stm32wbxx_ll_system.h **** 
 679:Drivers/STM32WBxx_HAL_Driver/Inc/stm32wbxx_ll_system.h **** /**
 680:Drivers/STM32WBxx_HAL_Driver/Inc/stm32wbxx_ll_system.h ****   * @brief  Disable Floating Point Unit Overflow Interrupt
 681:Drivers/STM32WBxx_HAL_Driver/Inc/stm32wbxx_ll_system.h ****   * @rmtoll SYSCFG_CFGR1 FPU_IE_3      LL_SYSCFG_DisableIT_FPU_OFC
 682:Drivers/STM32WBxx_HAL_Driver/Inc/stm32wbxx_ll_system.h ****   * @retval None
 683:Drivers/STM32WBxx_HAL_Driver/Inc/stm32wbxx_ll_system.h ****   */
 684:Drivers/STM32WBxx_HAL_Driver/Inc/stm32wbxx_ll_system.h **** __STATIC_INLINE void LL_SYSCFG_DisableIT_FPU_OFC(void)
 685:Drivers/STM32WBxx_HAL_Driver/Inc/stm32wbxx_ll_system.h **** {
 686:Drivers/STM32WBxx_HAL_Driver/Inc/stm32wbxx_ll_system.h ****   CLEAR_BIT(SYSCFG->CFGR1, SYSCFG_CFGR1_FPU_IE_3);
 687:Drivers/STM32WBxx_HAL_Driver/Inc/stm32wbxx_ll_system.h **** }
 688:Drivers/STM32WBxx_HAL_Driver/Inc/stm32wbxx_ll_system.h **** 
 689:Drivers/STM32WBxx_HAL_Driver/Inc/stm32wbxx_ll_system.h **** /**
 690:Drivers/STM32WBxx_HAL_Driver/Inc/stm32wbxx_ll_system.h ****   * @brief  Disable Floating Point Unit Input denormal Interrupt
 691:Drivers/STM32WBxx_HAL_Driver/Inc/stm32wbxx_ll_system.h ****   * @rmtoll SYSCFG_CFGR1 FPU_IE_4      LL_SYSCFG_DisableIT_FPU_IDC
 692:Drivers/STM32WBxx_HAL_Driver/Inc/stm32wbxx_ll_system.h ****   * @retval None
 693:Drivers/STM32WBxx_HAL_Driver/Inc/stm32wbxx_ll_system.h ****   */
 694:Drivers/STM32WBxx_HAL_Driver/Inc/stm32wbxx_ll_system.h **** __STATIC_INLINE void LL_SYSCFG_DisableIT_FPU_IDC(void)
 695:Drivers/STM32WBxx_HAL_Driver/Inc/stm32wbxx_ll_system.h **** {
 696:Drivers/STM32WBxx_HAL_Driver/Inc/stm32wbxx_ll_system.h ****   CLEAR_BIT(SYSCFG->CFGR1, SYSCFG_CFGR1_FPU_IE_4);
 697:Drivers/STM32WBxx_HAL_Driver/Inc/stm32wbxx_ll_system.h **** }
 698:Drivers/STM32WBxx_HAL_Driver/Inc/stm32wbxx_ll_system.h **** 
 699:Drivers/STM32WBxx_HAL_Driver/Inc/stm32wbxx_ll_system.h **** /**
 700:Drivers/STM32WBxx_HAL_Driver/Inc/stm32wbxx_ll_system.h ****   * @brief  Disable Floating Point Unit Inexact Interrupt
 701:Drivers/STM32WBxx_HAL_Driver/Inc/stm32wbxx_ll_system.h ****   * @rmtoll SYSCFG_CFGR1 FPU_IE_5      LL_SYSCFG_DisableIT_FPU_IXC
 702:Drivers/STM32WBxx_HAL_Driver/Inc/stm32wbxx_ll_system.h ****   * @retval None
 703:Drivers/STM32WBxx_HAL_Driver/Inc/stm32wbxx_ll_system.h ****   */
 704:Drivers/STM32WBxx_HAL_Driver/Inc/stm32wbxx_ll_system.h **** __STATIC_INLINE void LL_SYSCFG_DisableIT_FPU_IXC(void)
 705:Drivers/STM32WBxx_HAL_Driver/Inc/stm32wbxx_ll_system.h **** {
 706:Drivers/STM32WBxx_HAL_Driver/Inc/stm32wbxx_ll_system.h ****   CLEAR_BIT(SYSCFG->CFGR1, SYSCFG_CFGR1_FPU_IE_5);
 707:Drivers/STM32WBxx_HAL_Driver/Inc/stm32wbxx_ll_system.h **** }
 708:Drivers/STM32WBxx_HAL_Driver/Inc/stm32wbxx_ll_system.h **** 
 709:Drivers/STM32WBxx_HAL_Driver/Inc/stm32wbxx_ll_system.h **** /**
 710:Drivers/STM32WBxx_HAL_Driver/Inc/stm32wbxx_ll_system.h ****   * @brief  Check if Floating Point Unit Invalid operation Interrupt source is enabled or disabled.
 711:Drivers/STM32WBxx_HAL_Driver/Inc/stm32wbxx_ll_system.h ****   * @rmtoll SYSCFG_CFGR1 FPU_IE_0      LL_SYSCFG_IsEnabledIT_FPU_IOC
 712:Drivers/STM32WBxx_HAL_Driver/Inc/stm32wbxx_ll_system.h ****   * @retval State of bit (1 or 0).
 713:Drivers/STM32WBxx_HAL_Driver/Inc/stm32wbxx_ll_system.h ****   */
 714:Drivers/STM32WBxx_HAL_Driver/Inc/stm32wbxx_ll_system.h **** __STATIC_INLINE uint32_t LL_SYSCFG_IsEnabledIT_FPU_IOC(void)
 715:Drivers/STM32WBxx_HAL_Driver/Inc/stm32wbxx_ll_system.h **** {
 716:Drivers/STM32WBxx_HAL_Driver/Inc/stm32wbxx_ll_system.h ****   return ((READ_BIT(SYSCFG->CFGR1, SYSCFG_CFGR1_FPU_IE_0) == (SYSCFG_CFGR1_FPU_IE_0)) ? 1UL : 0UL);
 717:Drivers/STM32WBxx_HAL_Driver/Inc/stm32wbxx_ll_system.h **** }
 718:Drivers/STM32WBxx_HAL_Driver/Inc/stm32wbxx_ll_system.h **** 
 719:Drivers/STM32WBxx_HAL_Driver/Inc/stm32wbxx_ll_system.h **** /**
 720:Drivers/STM32WBxx_HAL_Driver/Inc/stm32wbxx_ll_system.h ****   * @brief  Check if Floating Point Unit Divide-by-zero Interrupt source is enabled or disabled.
 721:Drivers/STM32WBxx_HAL_Driver/Inc/stm32wbxx_ll_system.h ****   * @rmtoll SYSCFG_CFGR1 FPU_IE_1      LL_SYSCFG_IsEnabledIT_FPU_DZC
 722:Drivers/STM32WBxx_HAL_Driver/Inc/stm32wbxx_ll_system.h ****   * @retval State of bit (1 or 0).
 723:Drivers/STM32WBxx_HAL_Driver/Inc/stm32wbxx_ll_system.h ****   */
ARM GAS  /var/folders/lt/l_qrc8c54t93n_phsj7cf5tc0000gn/T//ccg72gDc.s 			page 49


 724:Drivers/STM32WBxx_HAL_Driver/Inc/stm32wbxx_ll_system.h **** __STATIC_INLINE uint32_t LL_SYSCFG_IsEnabledIT_FPU_DZC(void)
 725:Drivers/STM32WBxx_HAL_Driver/Inc/stm32wbxx_ll_system.h **** {
 726:Drivers/STM32WBxx_HAL_Driver/Inc/stm32wbxx_ll_system.h ****   return ((READ_BIT(SYSCFG->CFGR1, SYSCFG_CFGR1_FPU_IE_1) == (SYSCFG_CFGR1_FPU_IE_1)) ? 1UL : 0UL);
 727:Drivers/STM32WBxx_HAL_Driver/Inc/stm32wbxx_ll_system.h **** }
 728:Drivers/STM32WBxx_HAL_Driver/Inc/stm32wbxx_ll_system.h **** 
 729:Drivers/STM32WBxx_HAL_Driver/Inc/stm32wbxx_ll_system.h **** /**
 730:Drivers/STM32WBxx_HAL_Driver/Inc/stm32wbxx_ll_system.h ****   * @brief  Check if Floating Point Unit Underflow Interrupt source is enabled or disabled.
 731:Drivers/STM32WBxx_HAL_Driver/Inc/stm32wbxx_ll_system.h ****   * @rmtoll SYSCFG_CFGR1 FPU_IE_2      LL_SYSCFG_IsEnabledIT_FPU_UFC
 732:Drivers/STM32WBxx_HAL_Driver/Inc/stm32wbxx_ll_system.h ****   * @retval State of bit (1 or 0).
 733:Drivers/STM32WBxx_HAL_Driver/Inc/stm32wbxx_ll_system.h ****   */
 734:Drivers/STM32WBxx_HAL_Driver/Inc/stm32wbxx_ll_system.h **** __STATIC_INLINE uint32_t LL_SYSCFG_IsEnabledIT_FPU_UFC(void)
 735:Drivers/STM32WBxx_HAL_Driver/Inc/stm32wbxx_ll_system.h **** {
 736:Drivers/STM32WBxx_HAL_Driver/Inc/stm32wbxx_ll_system.h ****   return ((READ_BIT(SYSCFG->CFGR1, SYSCFG_CFGR1_FPU_IE_2) == (SYSCFG_CFGR1_FPU_IE_2)) ? 1UL : 0UL);
 737:Drivers/STM32WBxx_HAL_Driver/Inc/stm32wbxx_ll_system.h **** }
 738:Drivers/STM32WBxx_HAL_Driver/Inc/stm32wbxx_ll_system.h **** 
 739:Drivers/STM32WBxx_HAL_Driver/Inc/stm32wbxx_ll_system.h **** /**
 740:Drivers/STM32WBxx_HAL_Driver/Inc/stm32wbxx_ll_system.h ****   * @brief  Check if Floating Point Unit Overflow Interrupt source is enabled or disabled.
 741:Drivers/STM32WBxx_HAL_Driver/Inc/stm32wbxx_ll_system.h ****   * @rmtoll SYSCFG_CFGR1 FPU_IE_3      LL_SYSCFG_IsEnabledIT_FPU_OFC
 742:Drivers/STM32WBxx_HAL_Driver/Inc/stm32wbxx_ll_system.h ****   * @retval State of bit (1 or 0).
 743:Drivers/STM32WBxx_HAL_Driver/Inc/stm32wbxx_ll_system.h ****   */
 744:Drivers/STM32WBxx_HAL_Driver/Inc/stm32wbxx_ll_system.h **** __STATIC_INLINE uint32_t LL_SYSCFG_IsEnabledIT_FPU_OFC(void)
 745:Drivers/STM32WBxx_HAL_Driver/Inc/stm32wbxx_ll_system.h **** {
 746:Drivers/STM32WBxx_HAL_Driver/Inc/stm32wbxx_ll_system.h ****   return ((READ_BIT(SYSCFG->CFGR1, SYSCFG_CFGR1_FPU_IE_3) == (SYSCFG_CFGR1_FPU_IE_3)) ? 1UL : 0UL);
 747:Drivers/STM32WBxx_HAL_Driver/Inc/stm32wbxx_ll_system.h **** }
 748:Drivers/STM32WBxx_HAL_Driver/Inc/stm32wbxx_ll_system.h **** 
 749:Drivers/STM32WBxx_HAL_Driver/Inc/stm32wbxx_ll_system.h **** /**
 750:Drivers/STM32WBxx_HAL_Driver/Inc/stm32wbxx_ll_system.h ****   * @brief  Check if Floating Point Unit Input denormal Interrupt source is enabled or disabled.
 751:Drivers/STM32WBxx_HAL_Driver/Inc/stm32wbxx_ll_system.h ****   * @rmtoll SYSCFG_CFGR1 FPU_IE_4      LL_SYSCFG_IsEnabledIT_FPU_IDC
 752:Drivers/STM32WBxx_HAL_Driver/Inc/stm32wbxx_ll_system.h ****   * @retval State of bit (1 or 0).
 753:Drivers/STM32WBxx_HAL_Driver/Inc/stm32wbxx_ll_system.h ****   */
 754:Drivers/STM32WBxx_HAL_Driver/Inc/stm32wbxx_ll_system.h **** __STATIC_INLINE uint32_t LL_SYSCFG_IsEnabledIT_FPU_IDC(void)
 755:Drivers/STM32WBxx_HAL_Driver/Inc/stm32wbxx_ll_system.h **** {
 756:Drivers/STM32WBxx_HAL_Driver/Inc/stm32wbxx_ll_system.h ****   return ((READ_BIT(SYSCFG->CFGR1, SYSCFG_CFGR1_FPU_IE_4) == (SYSCFG_CFGR1_FPU_IE_4)) ? 1UL : 0UL);
 757:Drivers/STM32WBxx_HAL_Driver/Inc/stm32wbxx_ll_system.h **** }
 758:Drivers/STM32WBxx_HAL_Driver/Inc/stm32wbxx_ll_system.h **** 
 759:Drivers/STM32WBxx_HAL_Driver/Inc/stm32wbxx_ll_system.h **** /**
 760:Drivers/STM32WBxx_HAL_Driver/Inc/stm32wbxx_ll_system.h ****   * @brief  Check if Floating Point Unit Inexact Interrupt source is enabled or disabled.
 761:Drivers/STM32WBxx_HAL_Driver/Inc/stm32wbxx_ll_system.h ****   * @rmtoll SYSCFG_CFGR1 FPU_IE_5      LL_SYSCFG_IsEnabledIT_FPU_IXC
 762:Drivers/STM32WBxx_HAL_Driver/Inc/stm32wbxx_ll_system.h ****   * @retval State of bit (1 or 0).
 763:Drivers/STM32WBxx_HAL_Driver/Inc/stm32wbxx_ll_system.h ****   */
 764:Drivers/STM32WBxx_HAL_Driver/Inc/stm32wbxx_ll_system.h **** __STATIC_INLINE uint32_t LL_SYSCFG_IsEnabledIT_FPU_IXC(void)
 765:Drivers/STM32WBxx_HAL_Driver/Inc/stm32wbxx_ll_system.h **** {
 766:Drivers/STM32WBxx_HAL_Driver/Inc/stm32wbxx_ll_system.h ****   return ((READ_BIT(SYSCFG->CFGR1, SYSCFG_CFGR1_FPU_IE_5) == (SYSCFG_CFGR1_FPU_IE_5)) ? 1UL : 0UL);
 767:Drivers/STM32WBxx_HAL_Driver/Inc/stm32wbxx_ll_system.h **** }
 768:Drivers/STM32WBxx_HAL_Driver/Inc/stm32wbxx_ll_system.h **** 
 769:Drivers/STM32WBxx_HAL_Driver/Inc/stm32wbxx_ll_system.h **** /**
 770:Drivers/STM32WBxx_HAL_Driver/Inc/stm32wbxx_ll_system.h ****   * @brief  Configure source input for the EXTI external interrupt.
 771:Drivers/STM32WBxx_HAL_Driver/Inc/stm32wbxx_ll_system.h ****   * @rmtoll SYSCFG_EXTICR1 EXTIx         LL_SYSCFG_SetEXTISource\n
 772:Drivers/STM32WBxx_HAL_Driver/Inc/stm32wbxx_ll_system.h ****   *         SYSCFG_EXTICR2 EXTIx         LL_SYSCFG_SetEXTISource\n
 773:Drivers/STM32WBxx_HAL_Driver/Inc/stm32wbxx_ll_system.h ****   *         SYSCFG_EXTICR3 EXTIx         LL_SYSCFG_SetEXTISource\n
 774:Drivers/STM32WBxx_HAL_Driver/Inc/stm32wbxx_ll_system.h ****   *         SYSCFG_EXTICR4 EXTIx         LL_SYSCFG_SetEXTISource
 775:Drivers/STM32WBxx_HAL_Driver/Inc/stm32wbxx_ll_system.h ****   * @param  Port This parameter can be one of the following values:
 776:Drivers/STM32WBxx_HAL_Driver/Inc/stm32wbxx_ll_system.h ****   *         @arg @ref LL_SYSCFG_EXTI_PORTA
 777:Drivers/STM32WBxx_HAL_Driver/Inc/stm32wbxx_ll_system.h ****   *         @arg @ref LL_SYSCFG_EXTI_PORTB
 778:Drivers/STM32WBxx_HAL_Driver/Inc/stm32wbxx_ll_system.h ****   *         @arg @ref LL_SYSCFG_EXTI_PORTC
 779:Drivers/STM32WBxx_HAL_Driver/Inc/stm32wbxx_ll_system.h ****   *         @arg @ref LL_SYSCFG_EXTI_PORTD
 780:Drivers/STM32WBxx_HAL_Driver/Inc/stm32wbxx_ll_system.h ****   *         @arg @ref LL_SYSCFG_EXTI_PORTE
ARM GAS  /var/folders/lt/l_qrc8c54t93n_phsj7cf5tc0000gn/T//ccg72gDc.s 			page 50


 781:Drivers/STM32WBxx_HAL_Driver/Inc/stm32wbxx_ll_system.h ****   *         @arg @ref LL_SYSCFG_EXTI_PORTH
 782:Drivers/STM32WBxx_HAL_Driver/Inc/stm32wbxx_ll_system.h ****   *
 783:Drivers/STM32WBxx_HAL_Driver/Inc/stm32wbxx_ll_system.h ****   * @param  Line This parameter can be one of the following values:
 784:Drivers/STM32WBxx_HAL_Driver/Inc/stm32wbxx_ll_system.h ****   *         @arg @ref LL_SYSCFG_EXTI_LINE0
 785:Drivers/STM32WBxx_HAL_Driver/Inc/stm32wbxx_ll_system.h ****   *         @arg @ref LL_SYSCFG_EXTI_LINE1
 786:Drivers/STM32WBxx_HAL_Driver/Inc/stm32wbxx_ll_system.h ****   *         @arg @ref LL_SYSCFG_EXTI_LINE2
 787:Drivers/STM32WBxx_HAL_Driver/Inc/stm32wbxx_ll_system.h ****   *         @arg @ref LL_SYSCFG_EXTI_LINE3
 788:Drivers/STM32WBxx_HAL_Driver/Inc/stm32wbxx_ll_system.h ****   *         @arg @ref LL_SYSCFG_EXTI_LINE4
 789:Drivers/STM32WBxx_HAL_Driver/Inc/stm32wbxx_ll_system.h ****   *         @arg @ref LL_SYSCFG_EXTI_LINE5
 790:Drivers/STM32WBxx_HAL_Driver/Inc/stm32wbxx_ll_system.h ****   *         @arg @ref LL_SYSCFG_EXTI_LINE6
 791:Drivers/STM32WBxx_HAL_Driver/Inc/stm32wbxx_ll_system.h ****   *         @arg @ref LL_SYSCFG_EXTI_LINE7
 792:Drivers/STM32WBxx_HAL_Driver/Inc/stm32wbxx_ll_system.h ****   *         @arg @ref LL_SYSCFG_EXTI_LINE8
 793:Drivers/STM32WBxx_HAL_Driver/Inc/stm32wbxx_ll_system.h ****   *         @arg @ref LL_SYSCFG_EXTI_LINE9
 794:Drivers/STM32WBxx_HAL_Driver/Inc/stm32wbxx_ll_system.h ****   *         @arg @ref LL_SYSCFG_EXTI_LINE10
 795:Drivers/STM32WBxx_HAL_Driver/Inc/stm32wbxx_ll_system.h ****   *         @arg @ref LL_SYSCFG_EXTI_LINE11
 796:Drivers/STM32WBxx_HAL_Driver/Inc/stm32wbxx_ll_system.h ****   *         @arg @ref LL_SYSCFG_EXTI_LINE12
 797:Drivers/STM32WBxx_HAL_Driver/Inc/stm32wbxx_ll_system.h ****   *         @arg @ref LL_SYSCFG_EXTI_LINE13
 798:Drivers/STM32WBxx_HAL_Driver/Inc/stm32wbxx_ll_system.h ****   *         @arg @ref LL_SYSCFG_EXTI_LINE14
 799:Drivers/STM32WBxx_HAL_Driver/Inc/stm32wbxx_ll_system.h ****   *         @arg @ref LL_SYSCFG_EXTI_LINE15
 800:Drivers/STM32WBxx_HAL_Driver/Inc/stm32wbxx_ll_system.h ****   * @retval None
 801:Drivers/STM32WBxx_HAL_Driver/Inc/stm32wbxx_ll_system.h ****   */
 802:Drivers/STM32WBxx_HAL_Driver/Inc/stm32wbxx_ll_system.h **** __STATIC_INLINE void LL_SYSCFG_SetEXTISource(uint32_t Port, uint32_t Line)
 803:Drivers/STM32WBxx_HAL_Driver/Inc/stm32wbxx_ll_system.h **** {
 804:Drivers/STM32WBxx_HAL_Driver/Inc/stm32wbxx_ll_system.h ****   MODIFY_REG(SYSCFG->EXTICR[Line & 0x03U], (Line >> 16U), (Port << ((POSITION_VAL((Line >> 16U))) &
 805:Drivers/STM32WBxx_HAL_Driver/Inc/stm32wbxx_ll_system.h **** }
 806:Drivers/STM32WBxx_HAL_Driver/Inc/stm32wbxx_ll_system.h **** 
 807:Drivers/STM32WBxx_HAL_Driver/Inc/stm32wbxx_ll_system.h **** /**
 808:Drivers/STM32WBxx_HAL_Driver/Inc/stm32wbxx_ll_system.h ****   * @brief  Get the configured defined for specific EXTI Line
 809:Drivers/STM32WBxx_HAL_Driver/Inc/stm32wbxx_ll_system.h ****   * @rmtoll SYSCFG_EXTICR1 EXTIx         LL_SYSCFG_GetEXTISource\n
 810:Drivers/STM32WBxx_HAL_Driver/Inc/stm32wbxx_ll_system.h ****   *         SYSCFG_EXTICR2 EXTIx         LL_SYSCFG_GetEXTISource\n
 811:Drivers/STM32WBxx_HAL_Driver/Inc/stm32wbxx_ll_system.h ****   *         SYSCFG_EXTICR3 EXTIx         LL_SYSCFG_GetEXTISource\n
 812:Drivers/STM32WBxx_HAL_Driver/Inc/stm32wbxx_ll_system.h ****   *         SYSCFG_EXTICR4 EXTIx         LL_SYSCFG_GetEXTISource
 813:Drivers/STM32WBxx_HAL_Driver/Inc/stm32wbxx_ll_system.h ****   * @param  Line This parameter can be one of the following values:
 814:Drivers/STM32WBxx_HAL_Driver/Inc/stm32wbxx_ll_system.h ****   *         @arg @ref LL_SYSCFG_EXTI_LINE0
 815:Drivers/STM32WBxx_HAL_Driver/Inc/stm32wbxx_ll_system.h ****   *         @arg @ref LL_SYSCFG_EXTI_LINE1
 816:Drivers/STM32WBxx_HAL_Driver/Inc/stm32wbxx_ll_system.h ****   *         @arg @ref LL_SYSCFG_EXTI_LINE2
 817:Drivers/STM32WBxx_HAL_Driver/Inc/stm32wbxx_ll_system.h ****   *         @arg @ref LL_SYSCFG_EXTI_LINE3
 818:Drivers/STM32WBxx_HAL_Driver/Inc/stm32wbxx_ll_system.h ****   *         @arg @ref LL_SYSCFG_EXTI_LINE4
 819:Drivers/STM32WBxx_HAL_Driver/Inc/stm32wbxx_ll_system.h ****   *         @arg @ref LL_SYSCFG_EXTI_LINE5
 820:Drivers/STM32WBxx_HAL_Driver/Inc/stm32wbxx_ll_system.h ****   *         @arg @ref LL_SYSCFG_EXTI_LINE6
 821:Drivers/STM32WBxx_HAL_Driver/Inc/stm32wbxx_ll_system.h ****   *         @arg @ref LL_SYSCFG_EXTI_LINE7
 822:Drivers/STM32WBxx_HAL_Driver/Inc/stm32wbxx_ll_system.h ****   *         @arg @ref LL_SYSCFG_EXTI_LINE8
 823:Drivers/STM32WBxx_HAL_Driver/Inc/stm32wbxx_ll_system.h ****   *         @arg @ref LL_SYSCFG_EXTI_LINE9
 824:Drivers/STM32WBxx_HAL_Driver/Inc/stm32wbxx_ll_system.h ****   *         @arg @ref LL_SYSCFG_EXTI_LINE10
 825:Drivers/STM32WBxx_HAL_Driver/Inc/stm32wbxx_ll_system.h ****   *         @arg @ref LL_SYSCFG_EXTI_LINE11
 826:Drivers/STM32WBxx_HAL_Driver/Inc/stm32wbxx_ll_system.h ****   *         @arg @ref LL_SYSCFG_EXTI_LINE12
 827:Drivers/STM32WBxx_HAL_Driver/Inc/stm32wbxx_ll_system.h ****   *         @arg @ref LL_SYSCFG_EXTI_LINE13
 828:Drivers/STM32WBxx_HAL_Driver/Inc/stm32wbxx_ll_system.h ****   *         @arg @ref LL_SYSCFG_EXTI_LINE14
 829:Drivers/STM32WBxx_HAL_Driver/Inc/stm32wbxx_ll_system.h ****   *         @arg @ref LL_SYSCFG_EXTI_LINE15
 830:Drivers/STM32WBxx_HAL_Driver/Inc/stm32wbxx_ll_system.h ****   * @retval Returned value can be one of the following values:
 831:Drivers/STM32WBxx_HAL_Driver/Inc/stm32wbxx_ll_system.h ****   *         @arg @ref LL_SYSCFG_EXTI_PORTA
 832:Drivers/STM32WBxx_HAL_Driver/Inc/stm32wbxx_ll_system.h ****   *         @arg @ref LL_SYSCFG_EXTI_PORTB
 833:Drivers/STM32WBxx_HAL_Driver/Inc/stm32wbxx_ll_system.h ****   *         @arg @ref LL_SYSCFG_EXTI_PORTC
 834:Drivers/STM32WBxx_HAL_Driver/Inc/stm32wbxx_ll_system.h ****   *         @arg @ref LL_SYSCFG_EXTI_PORTD
 835:Drivers/STM32WBxx_HAL_Driver/Inc/stm32wbxx_ll_system.h ****   *         @arg @ref LL_SYSCFG_EXTI_PORTE
 836:Drivers/STM32WBxx_HAL_Driver/Inc/stm32wbxx_ll_system.h ****   *         @arg @ref LL_SYSCFG_EXTI_PORTH
 837:Drivers/STM32WBxx_HAL_Driver/Inc/stm32wbxx_ll_system.h ****   */
ARM GAS  /var/folders/lt/l_qrc8c54t93n_phsj7cf5tc0000gn/T//ccg72gDc.s 			page 51


 838:Drivers/STM32WBxx_HAL_Driver/Inc/stm32wbxx_ll_system.h **** __STATIC_INLINE uint32_t LL_SYSCFG_GetEXTISource(uint32_t Line)
 839:Drivers/STM32WBxx_HAL_Driver/Inc/stm32wbxx_ll_system.h **** {
 840:Drivers/STM32WBxx_HAL_Driver/Inc/stm32wbxx_ll_system.h ****   return (uint32_t)(READ_BIT(SYSCFG->EXTICR[Line & 0x03U], (Line >> 16U)) >> (POSITION_VAL(Line >> 
 841:Drivers/STM32WBxx_HAL_Driver/Inc/stm32wbxx_ll_system.h **** }
 842:Drivers/STM32WBxx_HAL_Driver/Inc/stm32wbxx_ll_system.h **** 
 843:Drivers/STM32WBxx_HAL_Driver/Inc/stm32wbxx_ll_system.h **** /**
 844:Drivers/STM32WBxx_HAL_Driver/Inc/stm32wbxx_ll_system.h ****   * @brief  Enable SRAM2 Erase (starts a hardware SRAM2 erase operation. This bit is
 845:Drivers/STM32WBxx_HAL_Driver/Inc/stm32wbxx_ll_system.h ****   * automatically cleared at the end of the SRAM2 erase operation.)
 846:Drivers/STM32WBxx_HAL_Driver/Inc/stm32wbxx_ll_system.h ****   * @note This bit is write-protected: setting this bit is possible only after the
 847:Drivers/STM32WBxx_HAL_Driver/Inc/stm32wbxx_ll_system.h ****   *       correct key sequence is written in the SYSCFG_SKR register.
 848:Drivers/STM32WBxx_HAL_Driver/Inc/stm32wbxx_ll_system.h ****   * @rmtoll SYSCFG_SCSR  SRAM2ER       LL_SYSCFG_EnableSRAM2Erase
 849:Drivers/STM32WBxx_HAL_Driver/Inc/stm32wbxx_ll_system.h ****   * @retval None
 850:Drivers/STM32WBxx_HAL_Driver/Inc/stm32wbxx_ll_system.h ****   */
 851:Drivers/STM32WBxx_HAL_Driver/Inc/stm32wbxx_ll_system.h **** __STATIC_INLINE void LL_SYSCFG_EnableSRAM2Erase(void)
 852:Drivers/STM32WBxx_HAL_Driver/Inc/stm32wbxx_ll_system.h **** {
 853:Drivers/STM32WBxx_HAL_Driver/Inc/stm32wbxx_ll_system.h ****   SET_BIT(SYSCFG->SCSR, SYSCFG_SCSR_SRAM2ER);
 854:Drivers/STM32WBxx_HAL_Driver/Inc/stm32wbxx_ll_system.h **** }
 855:Drivers/STM32WBxx_HAL_Driver/Inc/stm32wbxx_ll_system.h **** 
 856:Drivers/STM32WBxx_HAL_Driver/Inc/stm32wbxx_ll_system.h **** /**
 857:Drivers/STM32WBxx_HAL_Driver/Inc/stm32wbxx_ll_system.h ****   * @brief  Check if SRAM2 erase operation is on going
 858:Drivers/STM32WBxx_HAL_Driver/Inc/stm32wbxx_ll_system.h ****   * @rmtoll SYSCFG_SCSR  SRAM2BSY      LL_SYSCFG_IsSRAM2EraseOngoing
 859:Drivers/STM32WBxx_HAL_Driver/Inc/stm32wbxx_ll_system.h ****   * @retval State of bit (1 or 0).
 860:Drivers/STM32WBxx_HAL_Driver/Inc/stm32wbxx_ll_system.h ****   */
 861:Drivers/STM32WBxx_HAL_Driver/Inc/stm32wbxx_ll_system.h **** __STATIC_INLINE uint32_t LL_SYSCFG_IsSRAM2EraseOngoing(void)
 862:Drivers/STM32WBxx_HAL_Driver/Inc/stm32wbxx_ll_system.h **** {
 863:Drivers/STM32WBxx_HAL_Driver/Inc/stm32wbxx_ll_system.h ****   return ((READ_BIT(SYSCFG->SCSR, SYSCFG_SCSR_SRAM2BSY) == (SYSCFG_SCSR_SRAM2BSY)) ? 1UL : 0UL);
 864:Drivers/STM32WBxx_HAL_Driver/Inc/stm32wbxx_ll_system.h **** }
 865:Drivers/STM32WBxx_HAL_Driver/Inc/stm32wbxx_ll_system.h **** 
 866:Drivers/STM32WBxx_HAL_Driver/Inc/stm32wbxx_ll_system.h **** /**
 867:Drivers/STM32WBxx_HAL_Driver/Inc/stm32wbxx_ll_system.h ****   * @brief  Disable CPU2 SRAM fetch (execution) (This bit can be set by Firmware
 868:Drivers/STM32WBxx_HAL_Driver/Inc/stm32wbxx_ll_system.h ****   *         and will only be reset by a Hardware reset, including a reset after Standby.)
 869:Drivers/STM32WBxx_HAL_Driver/Inc/stm32wbxx_ll_system.h ****   * @note Firmware writing 0 has no effect.
 870:Drivers/STM32WBxx_HAL_Driver/Inc/stm32wbxx_ll_system.h ****   * @rmtoll SYSCFG_SCSR  C2RFD         LL_SYSCFG_DisableSRAMFetch
 871:Drivers/STM32WBxx_HAL_Driver/Inc/stm32wbxx_ll_system.h ****   * @retval None
 872:Drivers/STM32WBxx_HAL_Driver/Inc/stm32wbxx_ll_system.h ****   */
 873:Drivers/STM32WBxx_HAL_Driver/Inc/stm32wbxx_ll_system.h **** __STATIC_INLINE void LL_SYSCFG_DisableSRAMFetch(void)
 874:Drivers/STM32WBxx_HAL_Driver/Inc/stm32wbxx_ll_system.h **** {
 875:Drivers/STM32WBxx_HAL_Driver/Inc/stm32wbxx_ll_system.h ****   SET_BIT(SYSCFG->SCSR, SYSCFG_SCSR_C2RFD);
 876:Drivers/STM32WBxx_HAL_Driver/Inc/stm32wbxx_ll_system.h **** }
 877:Drivers/STM32WBxx_HAL_Driver/Inc/stm32wbxx_ll_system.h **** 
 878:Drivers/STM32WBxx_HAL_Driver/Inc/stm32wbxx_ll_system.h **** /**
 879:Drivers/STM32WBxx_HAL_Driver/Inc/stm32wbxx_ll_system.h ****   * @brief  Check if CPU2 SRAM fetch is enabled
 880:Drivers/STM32WBxx_HAL_Driver/Inc/stm32wbxx_ll_system.h ****   * @rmtoll SYSCFG_SCSR  C2RFD         LL_SYSCFG_IsEnabledSRAMFetch
 881:Drivers/STM32WBxx_HAL_Driver/Inc/stm32wbxx_ll_system.h ****   * @retval State of bit (1 or 0).
 882:Drivers/STM32WBxx_HAL_Driver/Inc/stm32wbxx_ll_system.h ****   */
 883:Drivers/STM32WBxx_HAL_Driver/Inc/stm32wbxx_ll_system.h **** __STATIC_INLINE uint32_t LL_SYSCFG_IsEnabledSRAMFetch(void)
 884:Drivers/STM32WBxx_HAL_Driver/Inc/stm32wbxx_ll_system.h **** {
 885:Drivers/STM32WBxx_HAL_Driver/Inc/stm32wbxx_ll_system.h ****   return ((READ_BIT(SYSCFG->SCSR, SYSCFG_SCSR_C2RFD) != (SYSCFG_SCSR_C2RFD)) ? 1UL : 0UL);
 886:Drivers/STM32WBxx_HAL_Driver/Inc/stm32wbxx_ll_system.h **** }
 887:Drivers/STM32WBxx_HAL_Driver/Inc/stm32wbxx_ll_system.h **** 
 888:Drivers/STM32WBxx_HAL_Driver/Inc/stm32wbxx_ll_system.h **** /**
 889:Drivers/STM32WBxx_HAL_Driver/Inc/stm32wbxx_ll_system.h ****   * @brief  Set connections to TIM1/16/17 Break inputs
 890:Drivers/STM32WBxx_HAL_Driver/Inc/stm32wbxx_ll_system.h ****   * @rmtoll SYSCFG_CFGR2 CLL           LL_SYSCFG_SetTIMBreakInputs\n
 891:Drivers/STM32WBxx_HAL_Driver/Inc/stm32wbxx_ll_system.h ****   *         SYSCFG_CFGR2 SPL           LL_SYSCFG_SetTIMBreakInputs\n
 892:Drivers/STM32WBxx_HAL_Driver/Inc/stm32wbxx_ll_system.h ****   *         SYSCFG_CFGR2 PVDL          LL_SYSCFG_SetTIMBreakInputs\n
 893:Drivers/STM32WBxx_HAL_Driver/Inc/stm32wbxx_ll_system.h ****   *         SYSCFG_CFGR2 ECCL          LL_SYSCFG_SetTIMBreakInputs
 894:Drivers/STM32WBxx_HAL_Driver/Inc/stm32wbxx_ll_system.h ****   * @param  Break This parameter can be a combination of the following values:
ARM GAS  /var/folders/lt/l_qrc8c54t93n_phsj7cf5tc0000gn/T//ccg72gDc.s 			page 52


 895:Drivers/STM32WBxx_HAL_Driver/Inc/stm32wbxx_ll_system.h ****   *         @arg @ref LL_SYSCFG_TIMBREAK_ECC
 896:Drivers/STM32WBxx_HAL_Driver/Inc/stm32wbxx_ll_system.h ****   *         @arg @ref LL_SYSCFG_TIMBREAK_PVD
 897:Drivers/STM32WBxx_HAL_Driver/Inc/stm32wbxx_ll_system.h ****   *         @arg @ref LL_SYSCFG_TIMBREAK_SRAM2_PARITY
 898:Drivers/STM32WBxx_HAL_Driver/Inc/stm32wbxx_ll_system.h ****   *         @arg @ref LL_SYSCFG_TIMBREAK_LOCKUP
 899:Drivers/STM32WBxx_HAL_Driver/Inc/stm32wbxx_ll_system.h ****   * @retval None
 900:Drivers/STM32WBxx_HAL_Driver/Inc/stm32wbxx_ll_system.h ****   */
 901:Drivers/STM32WBxx_HAL_Driver/Inc/stm32wbxx_ll_system.h **** __STATIC_INLINE void LL_SYSCFG_SetTIMBreakInputs(uint32_t Break)
 902:Drivers/STM32WBxx_HAL_Driver/Inc/stm32wbxx_ll_system.h **** {
 903:Drivers/STM32WBxx_HAL_Driver/Inc/stm32wbxx_ll_system.h ****   MODIFY_REG(SYSCFG->CFGR2, SYSCFG_CFGR2_CLL | SYSCFG_CFGR2_SPL | SYSCFG_CFGR2_PVDL | SYSCFG_CFGR2_
 904:Drivers/STM32WBxx_HAL_Driver/Inc/stm32wbxx_ll_system.h **** }
 905:Drivers/STM32WBxx_HAL_Driver/Inc/stm32wbxx_ll_system.h **** 
 906:Drivers/STM32WBxx_HAL_Driver/Inc/stm32wbxx_ll_system.h **** /**
 907:Drivers/STM32WBxx_HAL_Driver/Inc/stm32wbxx_ll_system.h ****   * @brief  Get connections to TIM1/16/17 Break inputs
 908:Drivers/STM32WBxx_HAL_Driver/Inc/stm32wbxx_ll_system.h ****   * @rmtoll SYSCFG_CFGR2 CLL           LL_SYSCFG_GetTIMBreakInputs\n
 909:Drivers/STM32WBxx_HAL_Driver/Inc/stm32wbxx_ll_system.h ****   *         SYSCFG_CFGR2 SPL           LL_SYSCFG_GetTIMBreakInputs\n
 910:Drivers/STM32WBxx_HAL_Driver/Inc/stm32wbxx_ll_system.h ****   *         SYSCFG_CFGR2 PVDL          LL_SYSCFG_GetTIMBreakInputs\n
 911:Drivers/STM32WBxx_HAL_Driver/Inc/stm32wbxx_ll_system.h ****   *         SYSCFG_CFGR2 ECCL          LL_SYSCFG_GetTIMBreakInputs
 912:Drivers/STM32WBxx_HAL_Driver/Inc/stm32wbxx_ll_system.h ****   * @retval Returned value can be can be a combination of the following values:
 913:Drivers/STM32WBxx_HAL_Driver/Inc/stm32wbxx_ll_system.h ****   *         @arg @ref LL_SYSCFG_TIMBREAK_ECC
 914:Drivers/STM32WBxx_HAL_Driver/Inc/stm32wbxx_ll_system.h ****   *         @arg @ref LL_SYSCFG_TIMBREAK_PVD
 915:Drivers/STM32WBxx_HAL_Driver/Inc/stm32wbxx_ll_system.h ****   *         @arg @ref LL_SYSCFG_TIMBREAK_SRAM2_PARITY
 916:Drivers/STM32WBxx_HAL_Driver/Inc/stm32wbxx_ll_system.h ****   *         @arg @ref LL_SYSCFG_TIMBREAK_LOCKUP
 917:Drivers/STM32WBxx_HAL_Driver/Inc/stm32wbxx_ll_system.h ****   */
 918:Drivers/STM32WBxx_HAL_Driver/Inc/stm32wbxx_ll_system.h **** __STATIC_INLINE uint32_t LL_SYSCFG_GetTIMBreakInputs(void)
 919:Drivers/STM32WBxx_HAL_Driver/Inc/stm32wbxx_ll_system.h **** {
 920:Drivers/STM32WBxx_HAL_Driver/Inc/stm32wbxx_ll_system.h ****   return (uint32_t)(READ_BIT(SYSCFG->CFGR2, SYSCFG_CFGR2_CLL | SYSCFG_CFGR2_SPL | SYSCFG_CFGR2_PVDL
 921:Drivers/STM32WBxx_HAL_Driver/Inc/stm32wbxx_ll_system.h **** }
 922:Drivers/STM32WBxx_HAL_Driver/Inc/stm32wbxx_ll_system.h **** 
 923:Drivers/STM32WBxx_HAL_Driver/Inc/stm32wbxx_ll_system.h **** /**
 924:Drivers/STM32WBxx_HAL_Driver/Inc/stm32wbxx_ll_system.h ****   * @brief  Check if SRAM2 parity error detected
 925:Drivers/STM32WBxx_HAL_Driver/Inc/stm32wbxx_ll_system.h ****   * @rmtoll SYSCFG_CFGR2 SPF           LL_SYSCFG_IsActiveFlag_SP
 926:Drivers/STM32WBxx_HAL_Driver/Inc/stm32wbxx_ll_system.h ****   * @retval State of bit (1 or 0).
 927:Drivers/STM32WBxx_HAL_Driver/Inc/stm32wbxx_ll_system.h ****   */
 928:Drivers/STM32WBxx_HAL_Driver/Inc/stm32wbxx_ll_system.h **** __STATIC_INLINE uint32_t LL_SYSCFG_IsActiveFlag_SP(void)
 929:Drivers/STM32WBxx_HAL_Driver/Inc/stm32wbxx_ll_system.h **** {
 930:Drivers/STM32WBxx_HAL_Driver/Inc/stm32wbxx_ll_system.h ****   return ((READ_BIT(SYSCFG->CFGR2, SYSCFG_CFGR2_SPF) == (SYSCFG_CFGR2_SPF)) ? 1UL : 0UL);
 931:Drivers/STM32WBxx_HAL_Driver/Inc/stm32wbxx_ll_system.h **** }
 932:Drivers/STM32WBxx_HAL_Driver/Inc/stm32wbxx_ll_system.h **** 
 933:Drivers/STM32WBxx_HAL_Driver/Inc/stm32wbxx_ll_system.h **** /**
 934:Drivers/STM32WBxx_HAL_Driver/Inc/stm32wbxx_ll_system.h ****   * @brief  Clear SRAM2 parity error flag
 935:Drivers/STM32WBxx_HAL_Driver/Inc/stm32wbxx_ll_system.h ****   * @rmtoll SYSCFG_CFGR2 SPF           LL_SYSCFG_ClearFlag_SP
 936:Drivers/STM32WBxx_HAL_Driver/Inc/stm32wbxx_ll_system.h ****   * @retval None
 937:Drivers/STM32WBxx_HAL_Driver/Inc/stm32wbxx_ll_system.h ****   */
 938:Drivers/STM32WBxx_HAL_Driver/Inc/stm32wbxx_ll_system.h **** __STATIC_INLINE void LL_SYSCFG_ClearFlag_SP(void)
 939:Drivers/STM32WBxx_HAL_Driver/Inc/stm32wbxx_ll_system.h **** {
 940:Drivers/STM32WBxx_HAL_Driver/Inc/stm32wbxx_ll_system.h ****   SET_BIT(SYSCFG->CFGR2, SYSCFG_CFGR2_SPF);
 941:Drivers/STM32WBxx_HAL_Driver/Inc/stm32wbxx_ll_system.h **** }
 942:Drivers/STM32WBxx_HAL_Driver/Inc/stm32wbxx_ll_system.h **** 
 943:Drivers/STM32WBxx_HAL_Driver/Inc/stm32wbxx_ll_system.h **** /**
 944:Drivers/STM32WBxx_HAL_Driver/Inc/stm32wbxx_ll_system.h ****   * @brief  Enable SRAM2 page write protection for Pages in range 0 to 31
 945:Drivers/STM32WBxx_HAL_Driver/Inc/stm32wbxx_ll_system.h ****   * @note Write protection is cleared only by a system reset
 946:Drivers/STM32WBxx_HAL_Driver/Inc/stm32wbxx_ll_system.h ****   * @rmtoll SYSCFG_SWPR1 PxWP          LL_SYSCFG_EnableSRAM2PageWRP_0_31
 947:Drivers/STM32WBxx_HAL_Driver/Inc/stm32wbxx_ll_system.h ****   * @param  SRAM2WRP This parameter can be a combination of the following values:
 948:Drivers/STM32WBxx_HAL_Driver/Inc/stm32wbxx_ll_system.h ****   *         @arg @ref LL_SYSCFG_SRAM2WRP_PAGE0
 949:Drivers/STM32WBxx_HAL_Driver/Inc/stm32wbxx_ll_system.h ****   *         @arg @ref LL_SYSCFG_SRAM2WRP_PAGE1
 950:Drivers/STM32WBxx_HAL_Driver/Inc/stm32wbxx_ll_system.h ****   *         @arg @ref LL_SYSCFG_SRAM2WRP_PAGE2
 951:Drivers/STM32WBxx_HAL_Driver/Inc/stm32wbxx_ll_system.h ****   *         @arg @ref LL_SYSCFG_SRAM2WRP_PAGE3
ARM GAS  /var/folders/lt/l_qrc8c54t93n_phsj7cf5tc0000gn/T//ccg72gDc.s 			page 53


 952:Drivers/STM32WBxx_HAL_Driver/Inc/stm32wbxx_ll_system.h ****   *         @arg @ref LL_SYSCFG_SRAM2WRP_PAGE4
 953:Drivers/STM32WBxx_HAL_Driver/Inc/stm32wbxx_ll_system.h ****   *         @arg @ref LL_SYSCFG_SRAM2WRP_PAGE5
 954:Drivers/STM32WBxx_HAL_Driver/Inc/stm32wbxx_ll_system.h ****   *         @arg @ref LL_SYSCFG_SRAM2WRP_PAGE6
 955:Drivers/STM32WBxx_HAL_Driver/Inc/stm32wbxx_ll_system.h ****   *         @arg @ref LL_SYSCFG_SRAM2WRP_PAGE7
 956:Drivers/STM32WBxx_HAL_Driver/Inc/stm32wbxx_ll_system.h ****   *         @arg @ref LL_SYSCFG_SRAM2WRP_PAGE8
 957:Drivers/STM32WBxx_HAL_Driver/Inc/stm32wbxx_ll_system.h ****   *         @arg @ref LL_SYSCFG_SRAM2WRP_PAGE9
 958:Drivers/STM32WBxx_HAL_Driver/Inc/stm32wbxx_ll_system.h ****   *         @arg @ref LL_SYSCFG_SRAM2WRP_PAGE10
 959:Drivers/STM32WBxx_HAL_Driver/Inc/stm32wbxx_ll_system.h ****   *         @arg @ref LL_SYSCFG_SRAM2WRP_PAGE11
 960:Drivers/STM32WBxx_HAL_Driver/Inc/stm32wbxx_ll_system.h ****   *         @arg @ref LL_SYSCFG_SRAM2WRP_PAGE12
 961:Drivers/STM32WBxx_HAL_Driver/Inc/stm32wbxx_ll_system.h ****   *         @arg @ref LL_SYSCFG_SRAM2WRP_PAGE13
 962:Drivers/STM32WBxx_HAL_Driver/Inc/stm32wbxx_ll_system.h ****   *         @arg @ref LL_SYSCFG_SRAM2WRP_PAGE14
 963:Drivers/STM32WBxx_HAL_Driver/Inc/stm32wbxx_ll_system.h ****   *         @arg @ref LL_SYSCFG_SRAM2WRP_PAGE15
 964:Drivers/STM32WBxx_HAL_Driver/Inc/stm32wbxx_ll_system.h ****   *         @arg @ref LL_SYSCFG_SRAM2WRP_PAGE16
 965:Drivers/STM32WBxx_HAL_Driver/Inc/stm32wbxx_ll_system.h ****   *         @arg @ref LL_SYSCFG_SRAM2WRP_PAGE17
 966:Drivers/STM32WBxx_HAL_Driver/Inc/stm32wbxx_ll_system.h ****   *         @arg @ref LL_SYSCFG_SRAM2WRP_PAGE18
 967:Drivers/STM32WBxx_HAL_Driver/Inc/stm32wbxx_ll_system.h ****   *         @arg @ref LL_SYSCFG_SRAM2WRP_PAGE19
 968:Drivers/STM32WBxx_HAL_Driver/Inc/stm32wbxx_ll_system.h ****   *         @arg @ref LL_SYSCFG_SRAM2WRP_PAGE20
 969:Drivers/STM32WBxx_HAL_Driver/Inc/stm32wbxx_ll_system.h ****   *         @arg @ref LL_SYSCFG_SRAM2WRP_PAGE21
 970:Drivers/STM32WBxx_HAL_Driver/Inc/stm32wbxx_ll_system.h ****   *         @arg @ref LL_SYSCFG_SRAM2WRP_PAGE22
 971:Drivers/STM32WBxx_HAL_Driver/Inc/stm32wbxx_ll_system.h ****   *         @arg @ref LL_SYSCFG_SRAM2WRP_PAGE23
 972:Drivers/STM32WBxx_HAL_Driver/Inc/stm32wbxx_ll_system.h ****   *         @arg @ref LL_SYSCFG_SRAM2WRP_PAGE24
 973:Drivers/STM32WBxx_HAL_Driver/Inc/stm32wbxx_ll_system.h ****   *         @arg @ref LL_SYSCFG_SRAM2WRP_PAGE25
 974:Drivers/STM32WBxx_HAL_Driver/Inc/stm32wbxx_ll_system.h ****   *         @arg @ref LL_SYSCFG_SRAM2WRP_PAGE26
 975:Drivers/STM32WBxx_HAL_Driver/Inc/stm32wbxx_ll_system.h ****   *         @arg @ref LL_SYSCFG_SRAM2WRP_PAGE27
 976:Drivers/STM32WBxx_HAL_Driver/Inc/stm32wbxx_ll_system.h ****   *         @arg @ref LL_SYSCFG_SRAM2WRP_PAGE28
 977:Drivers/STM32WBxx_HAL_Driver/Inc/stm32wbxx_ll_system.h ****   *         @arg @ref LL_SYSCFG_SRAM2WRP_PAGE29
 978:Drivers/STM32WBxx_HAL_Driver/Inc/stm32wbxx_ll_system.h ****   *         @arg @ref LL_SYSCFG_SRAM2WRP_PAGE30
 979:Drivers/STM32WBxx_HAL_Driver/Inc/stm32wbxx_ll_system.h ****   *         @arg @ref LL_SYSCFG_SRAM2WRP_PAGE31
 980:Drivers/STM32WBxx_HAL_Driver/Inc/stm32wbxx_ll_system.h ****   * @retval None
 981:Drivers/STM32WBxx_HAL_Driver/Inc/stm32wbxx_ll_system.h ****   */
 982:Drivers/STM32WBxx_HAL_Driver/Inc/stm32wbxx_ll_system.h **** /* Legacy define */
 983:Drivers/STM32WBxx_HAL_Driver/Inc/stm32wbxx_ll_system.h **** #define LL_SYSCFG_EnableSRAM2PageWRP    LL_SYSCFG_EnableSRAM2PageWRP_0_31
 984:Drivers/STM32WBxx_HAL_Driver/Inc/stm32wbxx_ll_system.h **** __STATIC_INLINE void LL_SYSCFG_EnableSRAM2PageWRP_0_31(uint32_t SRAM2WRP)
 985:Drivers/STM32WBxx_HAL_Driver/Inc/stm32wbxx_ll_system.h **** {
 986:Drivers/STM32WBxx_HAL_Driver/Inc/stm32wbxx_ll_system.h ****   SET_BIT(SYSCFG->SWPR1, SRAM2WRP);
 987:Drivers/STM32WBxx_HAL_Driver/Inc/stm32wbxx_ll_system.h **** }
 988:Drivers/STM32WBxx_HAL_Driver/Inc/stm32wbxx_ll_system.h **** 
 989:Drivers/STM32WBxx_HAL_Driver/Inc/stm32wbxx_ll_system.h **** /**
 990:Drivers/STM32WBxx_HAL_Driver/Inc/stm32wbxx_ll_system.h ****   * @brief  Enable SRAM2 page write protection for Pages in range 32 to 63
 991:Drivers/STM32WBxx_HAL_Driver/Inc/stm32wbxx_ll_system.h ****   * @note Write protection is cleared only by a system reset
 992:Drivers/STM32WBxx_HAL_Driver/Inc/stm32wbxx_ll_system.h ****   * @rmtoll SYSCFG_SWPR2 PxWP          LL_SYSCFG_EnableSRAM2PageWRP_32_63
 993:Drivers/STM32WBxx_HAL_Driver/Inc/stm32wbxx_ll_system.h ****   * @param  SRAM2WRP This parameter can be a combination of the following values:
 994:Drivers/STM32WBxx_HAL_Driver/Inc/stm32wbxx_ll_system.h ****   *         @arg @ref LL_SYSCFG_SRAM2WRP_PAGE32
 995:Drivers/STM32WBxx_HAL_Driver/Inc/stm32wbxx_ll_system.h ****   *         @arg @ref LL_SYSCFG_SRAM2WRP_PAGE33
 996:Drivers/STM32WBxx_HAL_Driver/Inc/stm32wbxx_ll_system.h ****   *         @arg @ref LL_SYSCFG_SRAM2WRP_PAGE34
 997:Drivers/STM32WBxx_HAL_Driver/Inc/stm32wbxx_ll_system.h ****   *         @arg @ref LL_SYSCFG_SRAM2WRP_PAGE35
 998:Drivers/STM32WBxx_HAL_Driver/Inc/stm32wbxx_ll_system.h ****   *         @arg @ref LL_SYSCFG_SRAM2WRP_PAGE36
 999:Drivers/STM32WBxx_HAL_Driver/Inc/stm32wbxx_ll_system.h ****   *         @arg @ref LL_SYSCFG_SRAM2WRP_PAGE37
1000:Drivers/STM32WBxx_HAL_Driver/Inc/stm32wbxx_ll_system.h ****   *         @arg @ref LL_SYSCFG_SRAM2WRP_PAGE38
1001:Drivers/STM32WBxx_HAL_Driver/Inc/stm32wbxx_ll_system.h ****   *         @arg @ref LL_SYSCFG_SRAM2WRP_PAGE39
1002:Drivers/STM32WBxx_HAL_Driver/Inc/stm32wbxx_ll_system.h ****   *         @arg @ref LL_SYSCFG_SRAM2WRP_PAGE40
1003:Drivers/STM32WBxx_HAL_Driver/Inc/stm32wbxx_ll_system.h ****   *         @arg @ref LL_SYSCFG_SRAM2WRP_PAGE41
1004:Drivers/STM32WBxx_HAL_Driver/Inc/stm32wbxx_ll_system.h ****   *         @arg @ref LL_SYSCFG_SRAM2WRP_PAGE42
1005:Drivers/STM32WBxx_HAL_Driver/Inc/stm32wbxx_ll_system.h ****   *         @arg @ref LL_SYSCFG_SRAM2WRP_PAGE43
1006:Drivers/STM32WBxx_HAL_Driver/Inc/stm32wbxx_ll_system.h ****   *         @arg @ref LL_SYSCFG_SRAM2WRP_PAGE44
1007:Drivers/STM32WBxx_HAL_Driver/Inc/stm32wbxx_ll_system.h ****   *         @arg @ref LL_SYSCFG_SRAM2WRP_PAGE45
1008:Drivers/STM32WBxx_HAL_Driver/Inc/stm32wbxx_ll_system.h ****   *         @arg @ref LL_SYSCFG_SRAM2WRP_PAGE46
ARM GAS  /var/folders/lt/l_qrc8c54t93n_phsj7cf5tc0000gn/T//ccg72gDc.s 			page 54


1009:Drivers/STM32WBxx_HAL_Driver/Inc/stm32wbxx_ll_system.h ****   *         @arg @ref LL_SYSCFG_SRAM2WRP_PAGE47
1010:Drivers/STM32WBxx_HAL_Driver/Inc/stm32wbxx_ll_system.h ****   *         @arg @ref LL_SYSCFG_SRAM2WRP_PAGE48
1011:Drivers/STM32WBxx_HAL_Driver/Inc/stm32wbxx_ll_system.h ****   *         @arg @ref LL_SYSCFG_SRAM2WRP_PAGE49
1012:Drivers/STM32WBxx_HAL_Driver/Inc/stm32wbxx_ll_system.h ****   *         @arg @ref LL_SYSCFG_SRAM2WRP_PAGE50
1013:Drivers/STM32WBxx_HAL_Driver/Inc/stm32wbxx_ll_system.h ****   *         @arg @ref LL_SYSCFG_SRAM2WRP_PAGE51
1014:Drivers/STM32WBxx_HAL_Driver/Inc/stm32wbxx_ll_system.h ****   *         @arg @ref LL_SYSCFG_SRAM2WRP_PAGE52
1015:Drivers/STM32WBxx_HAL_Driver/Inc/stm32wbxx_ll_system.h ****   *         @arg @ref LL_SYSCFG_SRAM2WRP_PAGE53
1016:Drivers/STM32WBxx_HAL_Driver/Inc/stm32wbxx_ll_system.h ****   *         @arg @ref LL_SYSCFG_SRAM2WRP_PAGE54
1017:Drivers/STM32WBxx_HAL_Driver/Inc/stm32wbxx_ll_system.h ****   *         @arg @ref LL_SYSCFG_SRAM2WRP_PAGE55
1018:Drivers/STM32WBxx_HAL_Driver/Inc/stm32wbxx_ll_system.h ****   *         @arg @ref LL_SYSCFG_SRAM2WRP_PAGE56
1019:Drivers/STM32WBxx_HAL_Driver/Inc/stm32wbxx_ll_system.h ****   *         @arg @ref LL_SYSCFG_SRAM2WRP_PAGE57
1020:Drivers/STM32WBxx_HAL_Driver/Inc/stm32wbxx_ll_system.h ****   *         @arg @ref LL_SYSCFG_SRAM2WRP_PAGE58
1021:Drivers/STM32WBxx_HAL_Driver/Inc/stm32wbxx_ll_system.h ****   *         @arg @ref LL_SYSCFG_SRAM2WRP_PAGE59
1022:Drivers/STM32WBxx_HAL_Driver/Inc/stm32wbxx_ll_system.h ****   *         @arg @ref LL_SYSCFG_SRAM2WRP_PAGE60
1023:Drivers/STM32WBxx_HAL_Driver/Inc/stm32wbxx_ll_system.h ****   *         @arg @ref LL_SYSCFG_SRAM2WRP_PAGE61
1024:Drivers/STM32WBxx_HAL_Driver/Inc/stm32wbxx_ll_system.h ****   *         @arg @ref LL_SYSCFG_SRAM2WRP_PAGE62
1025:Drivers/STM32WBxx_HAL_Driver/Inc/stm32wbxx_ll_system.h ****   *         @arg @ref LL_SYSCFG_SRAM2WRP_PAGE63
1026:Drivers/STM32WBxx_HAL_Driver/Inc/stm32wbxx_ll_system.h ****   * @retval None
1027:Drivers/STM32WBxx_HAL_Driver/Inc/stm32wbxx_ll_system.h ****   */
1028:Drivers/STM32WBxx_HAL_Driver/Inc/stm32wbxx_ll_system.h **** __STATIC_INLINE void LL_SYSCFG_EnableSRAM2PageWRP_32_63(uint32_t SRAM2WRP)
1029:Drivers/STM32WBxx_HAL_Driver/Inc/stm32wbxx_ll_system.h **** {
1030:Drivers/STM32WBxx_HAL_Driver/Inc/stm32wbxx_ll_system.h ****   SET_BIT(SYSCFG->SWPR2, SRAM2WRP);
1031:Drivers/STM32WBxx_HAL_Driver/Inc/stm32wbxx_ll_system.h **** }
1032:Drivers/STM32WBxx_HAL_Driver/Inc/stm32wbxx_ll_system.h **** 
1033:Drivers/STM32WBxx_HAL_Driver/Inc/stm32wbxx_ll_system.h **** /**
1034:Drivers/STM32WBxx_HAL_Driver/Inc/stm32wbxx_ll_system.h ****   * @brief  SRAM2 page write protection lock prior to erase
1035:Drivers/STM32WBxx_HAL_Driver/Inc/stm32wbxx_ll_system.h ****   * @rmtoll SYSCFG_SKR   KEY           LL_SYSCFG_LockSRAM2WRP
1036:Drivers/STM32WBxx_HAL_Driver/Inc/stm32wbxx_ll_system.h ****   * @retval None
1037:Drivers/STM32WBxx_HAL_Driver/Inc/stm32wbxx_ll_system.h ****   */
1038:Drivers/STM32WBxx_HAL_Driver/Inc/stm32wbxx_ll_system.h **** __STATIC_INLINE void LL_SYSCFG_LockSRAM2WRP(void)
1039:Drivers/STM32WBxx_HAL_Driver/Inc/stm32wbxx_ll_system.h **** {
1040:Drivers/STM32WBxx_HAL_Driver/Inc/stm32wbxx_ll_system.h ****   /* Writing a wrong key reactivates the write protection */
1041:Drivers/STM32WBxx_HAL_Driver/Inc/stm32wbxx_ll_system.h ****   WRITE_REG(SYSCFG->SKR, 0x00U);
1042:Drivers/STM32WBxx_HAL_Driver/Inc/stm32wbxx_ll_system.h **** }
1043:Drivers/STM32WBxx_HAL_Driver/Inc/stm32wbxx_ll_system.h **** 
1044:Drivers/STM32WBxx_HAL_Driver/Inc/stm32wbxx_ll_system.h **** /**
1045:Drivers/STM32WBxx_HAL_Driver/Inc/stm32wbxx_ll_system.h ****   * @brief  SRAM2 page write protection unlock prior to erase
1046:Drivers/STM32WBxx_HAL_Driver/Inc/stm32wbxx_ll_system.h ****   * @rmtoll SYSCFG_SKR   KEY           LL_SYSCFG_UnlockSRAM2WRP
1047:Drivers/STM32WBxx_HAL_Driver/Inc/stm32wbxx_ll_system.h ****   * @retval None
1048:Drivers/STM32WBxx_HAL_Driver/Inc/stm32wbxx_ll_system.h ****   */
1049:Drivers/STM32WBxx_HAL_Driver/Inc/stm32wbxx_ll_system.h **** __STATIC_INLINE void LL_SYSCFG_UnlockSRAM2WRP(void)
1050:Drivers/STM32WBxx_HAL_Driver/Inc/stm32wbxx_ll_system.h **** {
1051:Drivers/STM32WBxx_HAL_Driver/Inc/stm32wbxx_ll_system.h ****   /* unlock the write protection of the SRAM2ER bit */
1052:Drivers/STM32WBxx_HAL_Driver/Inc/stm32wbxx_ll_system.h ****   WRITE_REG(SYSCFG->SKR, 0xCAU);
1053:Drivers/STM32WBxx_HAL_Driver/Inc/stm32wbxx_ll_system.h ****   WRITE_REG(SYSCFG->SKR, 0x53U);
1054:Drivers/STM32WBxx_HAL_Driver/Inc/stm32wbxx_ll_system.h **** }
1055:Drivers/STM32WBxx_HAL_Driver/Inc/stm32wbxx_ll_system.h **** 
1056:Drivers/STM32WBxx_HAL_Driver/Inc/stm32wbxx_ll_system.h **** /**
1057:Drivers/STM32WBxx_HAL_Driver/Inc/stm32wbxx_ll_system.h ****   * @brief  Enable CPU1 Interrupt Mask
1058:Drivers/STM32WBxx_HAL_Driver/Inc/stm32wbxx_ll_system.h ****   * @rmtoll SYSCFG_IMR1  TIM1IM      LL_SYSCFG_GRP1_EnableIT\n
1059:Drivers/STM32WBxx_HAL_Driver/Inc/stm32wbxx_ll_system.h ****   *         SYSCFG_IMR1  TIM16IM     LL_SYSCFG_GRP1_EnableIT\n
1060:Drivers/STM32WBxx_HAL_Driver/Inc/stm32wbxx_ll_system.h ****   *         SYSCFG_IMR1  TIM17IM     LL_SYSCFG_GRP1_EnableIT\n
1061:Drivers/STM32WBxx_HAL_Driver/Inc/stm32wbxx_ll_system.h ****   *         SYSCFG_IMR1  EXTIxIM     LL_SYSCFG_GRP1_EnableIT
1062:Drivers/STM32WBxx_HAL_Driver/Inc/stm32wbxx_ll_system.h ****   * @param  Interrupt This parameter can be a combination of the following values:
1063:Drivers/STM32WBxx_HAL_Driver/Inc/stm32wbxx_ll_system.h ****   *         @arg @ref LL_SYSCFG_GRP1_TIM1
1064:Drivers/STM32WBxx_HAL_Driver/Inc/stm32wbxx_ll_system.h ****   *         @arg @ref LL_SYSCFG_GRP1_TIM16
1065:Drivers/STM32WBxx_HAL_Driver/Inc/stm32wbxx_ll_system.h ****   *         @arg @ref LL_SYSCFG_GRP1_TIM17
ARM GAS  /var/folders/lt/l_qrc8c54t93n_phsj7cf5tc0000gn/T//ccg72gDc.s 			page 55


1066:Drivers/STM32WBxx_HAL_Driver/Inc/stm32wbxx_ll_system.h ****   *         @arg @ref LL_SYSCFG_GRP1_EXTI5
1067:Drivers/STM32WBxx_HAL_Driver/Inc/stm32wbxx_ll_system.h ****   *         @arg @ref LL_SYSCFG_GRP1_EXTI6
1068:Drivers/STM32WBxx_HAL_Driver/Inc/stm32wbxx_ll_system.h ****   *         @arg @ref LL_SYSCFG_GRP1_EXTI7
1069:Drivers/STM32WBxx_HAL_Driver/Inc/stm32wbxx_ll_system.h ****   *         @arg @ref LL_SYSCFG_GRP1_EXTI8
1070:Drivers/STM32WBxx_HAL_Driver/Inc/stm32wbxx_ll_system.h ****   *         @arg @ref LL_SYSCFG_GRP1_EXTI9
1071:Drivers/STM32WBxx_HAL_Driver/Inc/stm32wbxx_ll_system.h ****   *         @arg @ref LL_SYSCFG_GRP1_EXTI10
1072:Drivers/STM32WBxx_HAL_Driver/Inc/stm32wbxx_ll_system.h ****   *         @arg @ref LL_SYSCFG_GRP1_EXTI11
1073:Drivers/STM32WBxx_HAL_Driver/Inc/stm32wbxx_ll_system.h ****   *         @arg @ref LL_SYSCFG_GRP1_EXTI12
1074:Drivers/STM32WBxx_HAL_Driver/Inc/stm32wbxx_ll_system.h ****   *         @arg @ref LL_SYSCFG_GRP1_EXTI13
1075:Drivers/STM32WBxx_HAL_Driver/Inc/stm32wbxx_ll_system.h ****   *         @arg @ref LL_SYSCFG_GRP1_EXTI14
1076:Drivers/STM32WBxx_HAL_Driver/Inc/stm32wbxx_ll_system.h ****   *         @arg @ref LL_SYSCFG_GRP1_EXTI15
1077:Drivers/STM32WBxx_HAL_Driver/Inc/stm32wbxx_ll_system.h ****   * @retval None
1078:Drivers/STM32WBxx_HAL_Driver/Inc/stm32wbxx_ll_system.h ****   */
1079:Drivers/STM32WBxx_HAL_Driver/Inc/stm32wbxx_ll_system.h **** __STATIC_INLINE void LL_SYSCFG_GRP1_EnableIT(uint32_t Interrupt)
1080:Drivers/STM32WBxx_HAL_Driver/Inc/stm32wbxx_ll_system.h **** {
1081:Drivers/STM32WBxx_HAL_Driver/Inc/stm32wbxx_ll_system.h ****   CLEAR_BIT(SYSCFG->IMR1, Interrupt);
1082:Drivers/STM32WBxx_HAL_Driver/Inc/stm32wbxx_ll_system.h **** }
1083:Drivers/STM32WBxx_HAL_Driver/Inc/stm32wbxx_ll_system.h **** 
1084:Drivers/STM32WBxx_HAL_Driver/Inc/stm32wbxx_ll_system.h **** /**
1085:Drivers/STM32WBxx_HAL_Driver/Inc/stm32wbxx_ll_system.h ****   * @brief  Enable CPU1 Interrupt Mask
1086:Drivers/STM32WBxx_HAL_Driver/Inc/stm32wbxx_ll_system.h ****   * @rmtoll SYSCFG_IMR1  PVM1IM      LL_SYSCFG_GRP2_EnableIT\n
1087:Drivers/STM32WBxx_HAL_Driver/Inc/stm32wbxx_ll_system.h ****   *         SYSCFG_IMR1  PVM3IM      LL_SYSCFG_GRP2_EnableIT\n
1088:Drivers/STM32WBxx_HAL_Driver/Inc/stm32wbxx_ll_system.h ****   *         SYSCFG_IMR1  PVDIM       LL_SYSCFG_GRP2_EnableIT
1089:Drivers/STM32WBxx_HAL_Driver/Inc/stm32wbxx_ll_system.h ****   * @param  Interrupt This parameter can be a combination of the following values:
1090:Drivers/STM32WBxx_HAL_Driver/Inc/stm32wbxx_ll_system.h ****   *         @arg @ref LL_SYSCFG_GRP2_PVM1
1091:Drivers/STM32WBxx_HAL_Driver/Inc/stm32wbxx_ll_system.h ****   *         @arg @ref LL_SYSCFG_GRP2_PVM3
1092:Drivers/STM32WBxx_HAL_Driver/Inc/stm32wbxx_ll_system.h ****   *         @arg @ref LL_SYSCFG_GRP2_PVD
1093:Drivers/STM32WBxx_HAL_Driver/Inc/stm32wbxx_ll_system.h ****   * @retval None
1094:Drivers/STM32WBxx_HAL_Driver/Inc/stm32wbxx_ll_system.h ****   */
1095:Drivers/STM32WBxx_HAL_Driver/Inc/stm32wbxx_ll_system.h **** __STATIC_INLINE void LL_SYSCFG_GRP2_EnableIT(uint32_t Interrupt)
1096:Drivers/STM32WBxx_HAL_Driver/Inc/stm32wbxx_ll_system.h **** {
1097:Drivers/STM32WBxx_HAL_Driver/Inc/stm32wbxx_ll_system.h ****   CLEAR_BIT(SYSCFG->IMR2, Interrupt);
1098:Drivers/STM32WBxx_HAL_Driver/Inc/stm32wbxx_ll_system.h **** }
1099:Drivers/STM32WBxx_HAL_Driver/Inc/stm32wbxx_ll_system.h **** 
1100:Drivers/STM32WBxx_HAL_Driver/Inc/stm32wbxx_ll_system.h **** /**
1101:Drivers/STM32WBxx_HAL_Driver/Inc/stm32wbxx_ll_system.h ****   * @brief  Disable CPU1 Interrupt Mask
1102:Drivers/STM32WBxx_HAL_Driver/Inc/stm32wbxx_ll_system.h ****   * @rmtoll SYSCFG_IMR1  TIM1IM      LL_SYSCFG_GRP1_DisableIT\n
1103:Drivers/STM32WBxx_HAL_Driver/Inc/stm32wbxx_ll_system.h ****   *         SYSCFG_IMR1  TIM16IM     LL_SYSCFG_GRP1_DisableIT\n
1104:Drivers/STM32WBxx_HAL_Driver/Inc/stm32wbxx_ll_system.h ****   *         SYSCFG_IMR1  TIM17IM     LL_SYSCFG_GRP1_DisableIT\n
1105:Drivers/STM32WBxx_HAL_Driver/Inc/stm32wbxx_ll_system.h ****   *         SYSCFG_IMR1  EXTIxIM     LL_SYSCFG_GRP1_DisableIT
1106:Drivers/STM32WBxx_HAL_Driver/Inc/stm32wbxx_ll_system.h ****   * @param  Interrupt This parameter can be a combination of the following values:
1107:Drivers/STM32WBxx_HAL_Driver/Inc/stm32wbxx_ll_system.h ****   *         @arg @ref LL_SYSCFG_GRP1_TIM1
1108:Drivers/STM32WBxx_HAL_Driver/Inc/stm32wbxx_ll_system.h ****   *         @arg @ref LL_SYSCFG_GRP1_TIM16
1109:Drivers/STM32WBxx_HAL_Driver/Inc/stm32wbxx_ll_system.h ****   *         @arg @ref LL_SYSCFG_GRP1_TIM17
1110:Drivers/STM32WBxx_HAL_Driver/Inc/stm32wbxx_ll_system.h ****   *         @arg @ref LL_SYSCFG_GRP1_EXTI5
1111:Drivers/STM32WBxx_HAL_Driver/Inc/stm32wbxx_ll_system.h ****   *         @arg @ref LL_SYSCFG_GRP1_EXTI6
1112:Drivers/STM32WBxx_HAL_Driver/Inc/stm32wbxx_ll_system.h ****   *         @arg @ref LL_SYSCFG_GRP1_EXTI7
1113:Drivers/STM32WBxx_HAL_Driver/Inc/stm32wbxx_ll_system.h ****   *         @arg @ref LL_SYSCFG_GRP1_EXTI8
1114:Drivers/STM32WBxx_HAL_Driver/Inc/stm32wbxx_ll_system.h ****   *         @arg @ref LL_SYSCFG_GRP1_EXTI9
1115:Drivers/STM32WBxx_HAL_Driver/Inc/stm32wbxx_ll_system.h ****   *         @arg @ref LL_SYSCFG_GRP1_EXTI10
1116:Drivers/STM32WBxx_HAL_Driver/Inc/stm32wbxx_ll_system.h ****   *         @arg @ref LL_SYSCFG_GRP1_EXTI11
1117:Drivers/STM32WBxx_HAL_Driver/Inc/stm32wbxx_ll_system.h ****   *         @arg @ref LL_SYSCFG_GRP1_EXTI12
1118:Drivers/STM32WBxx_HAL_Driver/Inc/stm32wbxx_ll_system.h ****   *         @arg @ref LL_SYSCFG_GRP1_EXTI13
1119:Drivers/STM32WBxx_HAL_Driver/Inc/stm32wbxx_ll_system.h ****   *         @arg @ref LL_SYSCFG_GRP1_EXTI14
1120:Drivers/STM32WBxx_HAL_Driver/Inc/stm32wbxx_ll_system.h ****   *         @arg @ref LL_SYSCFG_GRP1_EXTI15
1121:Drivers/STM32WBxx_HAL_Driver/Inc/stm32wbxx_ll_system.h ****   * @retval None
1122:Drivers/STM32WBxx_HAL_Driver/Inc/stm32wbxx_ll_system.h ****   */
ARM GAS  /var/folders/lt/l_qrc8c54t93n_phsj7cf5tc0000gn/T//ccg72gDc.s 			page 56


1123:Drivers/STM32WBxx_HAL_Driver/Inc/stm32wbxx_ll_system.h **** __STATIC_INLINE void LL_SYSCFG_GRP1_DisableIT(uint32_t Interrupt)
1124:Drivers/STM32WBxx_HAL_Driver/Inc/stm32wbxx_ll_system.h **** {
1125:Drivers/STM32WBxx_HAL_Driver/Inc/stm32wbxx_ll_system.h ****   SET_BIT(SYSCFG->IMR1, Interrupt);
1126:Drivers/STM32WBxx_HAL_Driver/Inc/stm32wbxx_ll_system.h **** }
1127:Drivers/STM32WBxx_HAL_Driver/Inc/stm32wbxx_ll_system.h **** 
1128:Drivers/STM32WBxx_HAL_Driver/Inc/stm32wbxx_ll_system.h **** /**
1129:Drivers/STM32WBxx_HAL_Driver/Inc/stm32wbxx_ll_system.h ****   * @brief  Disable CPU1 Interrupt Mask
1130:Drivers/STM32WBxx_HAL_Driver/Inc/stm32wbxx_ll_system.h ****   * @rmtoll SYSCFG_IMR2  PVM1IM      LL_SYSCFG_GRP2_DisableIT\n
1131:Drivers/STM32WBxx_HAL_Driver/Inc/stm32wbxx_ll_system.h ****   *         SYSCFG_IMR2  PVM3IM      LL_SYSCFG_GRP2_DisableIT\n
1132:Drivers/STM32WBxx_HAL_Driver/Inc/stm32wbxx_ll_system.h ****   *         SYSCFG_IMR2  PVDIM       LL_SYSCFG_GRP2_DisableIT
1133:Drivers/STM32WBxx_HAL_Driver/Inc/stm32wbxx_ll_system.h ****   * @param  Interrupt This parameter can be a combination of the following values:
1134:Drivers/STM32WBxx_HAL_Driver/Inc/stm32wbxx_ll_system.h ****   *         @arg @ref LL_SYSCFG_GRP2_PVM1
1135:Drivers/STM32WBxx_HAL_Driver/Inc/stm32wbxx_ll_system.h ****   *         @arg @ref LL_SYSCFG_GRP2_PVM3
1136:Drivers/STM32WBxx_HAL_Driver/Inc/stm32wbxx_ll_system.h ****   *         @arg @ref LL_SYSCFG_GRP2_PVD
1137:Drivers/STM32WBxx_HAL_Driver/Inc/stm32wbxx_ll_system.h ****   * @retval None
1138:Drivers/STM32WBxx_HAL_Driver/Inc/stm32wbxx_ll_system.h ****   */
1139:Drivers/STM32WBxx_HAL_Driver/Inc/stm32wbxx_ll_system.h **** __STATIC_INLINE void LL_SYSCFG_GRP2_DisableIT(uint32_t Interrupt)
1140:Drivers/STM32WBxx_HAL_Driver/Inc/stm32wbxx_ll_system.h **** {
1141:Drivers/STM32WBxx_HAL_Driver/Inc/stm32wbxx_ll_system.h ****   SET_BIT(SYSCFG->IMR2, Interrupt);
1142:Drivers/STM32WBxx_HAL_Driver/Inc/stm32wbxx_ll_system.h **** }
1143:Drivers/STM32WBxx_HAL_Driver/Inc/stm32wbxx_ll_system.h **** 
1144:Drivers/STM32WBxx_HAL_Driver/Inc/stm32wbxx_ll_system.h **** /**
1145:Drivers/STM32WBxx_HAL_Driver/Inc/stm32wbxx_ll_system.h ****   * @brief  Indicate if CPU1 Interrupt Mask is enabled
1146:Drivers/STM32WBxx_HAL_Driver/Inc/stm32wbxx_ll_system.h ****   * @rmtoll SYSCFG_IMR1  TIM1IM      LL_SYSCFG_GRP1_IsEnabledIT\n
1147:Drivers/STM32WBxx_HAL_Driver/Inc/stm32wbxx_ll_system.h ****   *         SYSCFG_IMR1  TIM16IM     LL_SYSCFG_GRP1_IsEnabledIT\n
1148:Drivers/STM32WBxx_HAL_Driver/Inc/stm32wbxx_ll_system.h ****   *         SYSCFG_IMR1  TIM17IM     LL_SYSCFG_GRP1_IsEnabledIT\n
1149:Drivers/STM32WBxx_HAL_Driver/Inc/stm32wbxx_ll_system.h ****   *         SYSCFG_IMR1  EXTIxIM     LL_SYSCFG_GRP1_IsEnabledIT
1150:Drivers/STM32WBxx_HAL_Driver/Inc/stm32wbxx_ll_system.h ****   * @param  Interrupt This parameter can be one of the following values:
1151:Drivers/STM32WBxx_HAL_Driver/Inc/stm32wbxx_ll_system.h ****   *         @arg @ref LL_SYSCFG_GRP1_TIM1
1152:Drivers/STM32WBxx_HAL_Driver/Inc/stm32wbxx_ll_system.h ****   *         @arg @ref LL_SYSCFG_GRP1_TIM16
1153:Drivers/STM32WBxx_HAL_Driver/Inc/stm32wbxx_ll_system.h ****   *         @arg @ref LL_SYSCFG_GRP1_TIM17
1154:Drivers/STM32WBxx_HAL_Driver/Inc/stm32wbxx_ll_system.h ****   *         @arg @ref LL_SYSCFG_GRP1_EXTI5
1155:Drivers/STM32WBxx_HAL_Driver/Inc/stm32wbxx_ll_system.h ****   *         @arg @ref LL_SYSCFG_GRP1_EXTI6
1156:Drivers/STM32WBxx_HAL_Driver/Inc/stm32wbxx_ll_system.h ****   *         @arg @ref LL_SYSCFG_GRP1_EXTI7
1157:Drivers/STM32WBxx_HAL_Driver/Inc/stm32wbxx_ll_system.h ****   *         @arg @ref LL_SYSCFG_GRP1_EXTI8
1158:Drivers/STM32WBxx_HAL_Driver/Inc/stm32wbxx_ll_system.h ****   *         @arg @ref LL_SYSCFG_GRP1_EXTI9
1159:Drivers/STM32WBxx_HAL_Driver/Inc/stm32wbxx_ll_system.h ****   *         @arg @ref LL_SYSCFG_GRP1_EXTI10
1160:Drivers/STM32WBxx_HAL_Driver/Inc/stm32wbxx_ll_system.h ****   *         @arg @ref LL_SYSCFG_GRP1_EXTI11
1161:Drivers/STM32WBxx_HAL_Driver/Inc/stm32wbxx_ll_system.h ****   *         @arg @ref LL_SYSCFG_GRP1_EXTI12
1162:Drivers/STM32WBxx_HAL_Driver/Inc/stm32wbxx_ll_system.h ****   *         @arg @ref LL_SYSCFG_GRP1_EXTI13
1163:Drivers/STM32WBxx_HAL_Driver/Inc/stm32wbxx_ll_system.h ****   *         @arg @ref LL_SYSCFG_GRP1_EXTI14
1164:Drivers/STM32WBxx_HAL_Driver/Inc/stm32wbxx_ll_system.h ****   *         @arg @ref LL_SYSCFG_GRP1_EXTI15
1165:Drivers/STM32WBxx_HAL_Driver/Inc/stm32wbxx_ll_system.h ****   * @retval State of bit (1 or 0).
1166:Drivers/STM32WBxx_HAL_Driver/Inc/stm32wbxx_ll_system.h ****   */
1167:Drivers/STM32WBxx_HAL_Driver/Inc/stm32wbxx_ll_system.h **** __STATIC_INLINE uint32_t LL_SYSCFG_GRP1_IsEnabledIT(uint32_t Interrupt)
1168:Drivers/STM32WBxx_HAL_Driver/Inc/stm32wbxx_ll_system.h **** {
1169:Drivers/STM32WBxx_HAL_Driver/Inc/stm32wbxx_ll_system.h ****   return ((READ_BIT(SYSCFG->IMR1, Interrupt) != (Interrupt)) ? 1UL : 0UL);
1170:Drivers/STM32WBxx_HAL_Driver/Inc/stm32wbxx_ll_system.h **** }
1171:Drivers/STM32WBxx_HAL_Driver/Inc/stm32wbxx_ll_system.h **** 
1172:Drivers/STM32WBxx_HAL_Driver/Inc/stm32wbxx_ll_system.h **** /**
1173:Drivers/STM32WBxx_HAL_Driver/Inc/stm32wbxx_ll_system.h ****   * @brief  Indicate if CPU1 Interrupt Mask is enabled
1174:Drivers/STM32WBxx_HAL_Driver/Inc/stm32wbxx_ll_system.h ****   * @rmtoll SYSCFG_IMR2  PVM1IM      LL_SYSCFG_GRP2_IsEnabledIT\n
1175:Drivers/STM32WBxx_HAL_Driver/Inc/stm32wbxx_ll_system.h ****   *         SYSCFG_IMR2  PVM3IM      LL_SYSCFG_GRP2_IsEnabledIT\n
1176:Drivers/STM32WBxx_HAL_Driver/Inc/stm32wbxx_ll_system.h ****   *         SYSCFG_IMR2  PVDIM       LL_SYSCFG_GRP2_IsEnabledIT
1177:Drivers/STM32WBxx_HAL_Driver/Inc/stm32wbxx_ll_system.h ****   * @param  Interrupt This parameter can be one of the following values:
1178:Drivers/STM32WBxx_HAL_Driver/Inc/stm32wbxx_ll_system.h ****   *         @arg @ref LL_SYSCFG_GRP2_PVM1
1179:Drivers/STM32WBxx_HAL_Driver/Inc/stm32wbxx_ll_system.h ****   *         @arg @ref LL_SYSCFG_GRP2_PVM3
ARM GAS  /var/folders/lt/l_qrc8c54t93n_phsj7cf5tc0000gn/T//ccg72gDc.s 			page 57


1180:Drivers/STM32WBxx_HAL_Driver/Inc/stm32wbxx_ll_system.h ****   *         @arg @ref LL_SYSCFG_GRP2_PVD
1181:Drivers/STM32WBxx_HAL_Driver/Inc/stm32wbxx_ll_system.h ****   * @retval State of bit (1 or 0).
1182:Drivers/STM32WBxx_HAL_Driver/Inc/stm32wbxx_ll_system.h ****   */
1183:Drivers/STM32WBxx_HAL_Driver/Inc/stm32wbxx_ll_system.h **** __STATIC_INLINE uint32_t LL_SYSCFG_GRP2_IsEnabledIT(uint32_t Interrupt)
1184:Drivers/STM32WBxx_HAL_Driver/Inc/stm32wbxx_ll_system.h **** {
1185:Drivers/STM32WBxx_HAL_Driver/Inc/stm32wbxx_ll_system.h ****   return ((READ_BIT(SYSCFG->IMR2, Interrupt) != (Interrupt)) ? 1UL : 0UL);
1186:Drivers/STM32WBxx_HAL_Driver/Inc/stm32wbxx_ll_system.h **** }
1187:Drivers/STM32WBxx_HAL_Driver/Inc/stm32wbxx_ll_system.h **** 
1188:Drivers/STM32WBxx_HAL_Driver/Inc/stm32wbxx_ll_system.h **** /**
1189:Drivers/STM32WBxx_HAL_Driver/Inc/stm32wbxx_ll_system.h ****   * @brief  Enable CPU2 Interrupt Mask
1190:Drivers/STM32WBxx_HAL_Driver/Inc/stm32wbxx_ll_system.h ****   * @rmtoll SYSCFG_C2IMR1  RTCSTAMPTAMPLSECSSIM      LL_C2_SYSCFG_GRP1_EnableIT\n
1191:Drivers/STM32WBxx_HAL_Driver/Inc/stm32wbxx_ll_system.h ****   *         SYSCFG_C2IMR1  RTCWKUPIM   LL_C2_SYSCFG_GRP1_EnableIT\n
1192:Drivers/STM32WBxx_HAL_Driver/Inc/stm32wbxx_ll_system.h ****   *         SYSCFG_C2IMR1  RTCALARMIM  LL_C2_SYSCFG_GRP1_EnableIT\n
1193:Drivers/STM32WBxx_HAL_Driver/Inc/stm32wbxx_ll_system.h ****   *         SYSCFG_C2IMR1  RCCIM       LL_C2_SYSCFG_GRP1_EnableIT\n
1194:Drivers/STM32WBxx_HAL_Driver/Inc/stm32wbxx_ll_system.h ****   *         SYSCFG_C2IMR1  FLASHIM     LL_C2_SYSCFG_GRP1_EnableIT\n
1195:Drivers/STM32WBxx_HAL_Driver/Inc/stm32wbxx_ll_system.h ****   *         SYSCFG_C2IMR1  PKAIM       LL_C2_SYSCFG_GRP1_EnableIT\n
1196:Drivers/STM32WBxx_HAL_Driver/Inc/stm32wbxx_ll_system.h ****   *         SYSCFG_C2IMR1  RNGIM       LL_C2_SYSCFG_GRP1_EnableIT\n
1197:Drivers/STM32WBxx_HAL_Driver/Inc/stm32wbxx_ll_system.h ****   *         SYSCFG_C2IMR1  AES1IM      LL_C2_SYSCFG_GRP1_EnableIT\n
1198:Drivers/STM32WBxx_HAL_Driver/Inc/stm32wbxx_ll_system.h ****   *         SYSCFG_C2IMR1  COMPIM      LL_C2_SYSCFG_GRP1_EnableIT\n
1199:Drivers/STM32WBxx_HAL_Driver/Inc/stm32wbxx_ll_system.h ****   *         SYSCFG_C2IMR1  ADCIM       LL_C2_SYSCFG_GRP1_EnableIT\n
1200:Drivers/STM32WBxx_HAL_Driver/Inc/stm32wbxx_ll_system.h ****   *         SYSCFG_C2IMR1  EXTIxIM     LL_C2_SYSCFG_GRP1_EnableIT
1201:Drivers/STM32WBxx_HAL_Driver/Inc/stm32wbxx_ll_system.h ****   * @param  Interrupt This parameter can be a combination of the following values:
1202:Drivers/STM32WBxx_HAL_Driver/Inc/stm32wbxx_ll_system.h ****   *         @arg @ref LL_C2_SYSCFG_GRP1_RTCSTAMP_RTCTAMP_LSECSS
1203:Drivers/STM32WBxx_HAL_Driver/Inc/stm32wbxx_ll_system.h ****   *         @arg @ref LL_C2_SYSCFG_GRP1_RTCWKUP
1204:Drivers/STM32WBxx_HAL_Driver/Inc/stm32wbxx_ll_system.h ****   *         @arg @ref LL_C2_SYSCFG_GRP1_RTCALARM
1205:Drivers/STM32WBxx_HAL_Driver/Inc/stm32wbxx_ll_system.h ****   *         @arg @ref LL_C2_SYSCFG_GRP1_RCC
1206:Drivers/STM32WBxx_HAL_Driver/Inc/stm32wbxx_ll_system.h ****   *         @arg @ref LL_C2_SYSCFG_GRP1_FLASH
1207:Drivers/STM32WBxx_HAL_Driver/Inc/stm32wbxx_ll_system.h ****   *         @arg @ref LL_C2_SYSCFG_GRP1_PKA
1208:Drivers/STM32WBxx_HAL_Driver/Inc/stm32wbxx_ll_system.h ****   *         @arg @ref LL_C2_SYSCFG_GRP1_RNG
1209:Drivers/STM32WBxx_HAL_Driver/Inc/stm32wbxx_ll_system.h ****   *         @arg @ref LL_C2_SYSCFG_GRP1_AES1
1210:Drivers/STM32WBxx_HAL_Driver/Inc/stm32wbxx_ll_system.h ****   *         @arg @ref LL_C2_SYSCFG_GRP1_COMP
1211:Drivers/STM32WBxx_HAL_Driver/Inc/stm32wbxx_ll_system.h ****   *         @arg @ref LL_C2_SYSCFG_GRP1_ADC
