ARM GAS  /var/folders/lt/l_qrc8c54t93n_phsj7cf5tc0000gn/T//cc8yIxSZ.s 			page 1


   1              		.cpu cortex-m4
   2              		.eabi_attribute 27, 1
   3              		.eabi_attribute 28, 1
   4              		.eabi_attribute 20, 1
   5              		.eabi_attribute 21, 1
   6              		.eabi_attribute 23, 3
   7              		.eabi_attribute 24, 1
   8              		.eabi_attribute 25, 1
   9              		.eabi_attribute 26, 1
  10              		.eabi_attribute 30, 1
  11              		.eabi_attribute 34, 1
  12              		.eabi_attribute 18, 4
  13              		.file	"tl_mbox.c"
  14              		.text
  15              	.Ltext0:
  16              		.cfi_sections	.debug_frame
  17              		.section	.text.SendFreeBuf,"ax",%progbits
  18              		.align	1
  19              		.arch armv7e-m
  20              		.syntax unified
  21              		.thumb
  22              		.thumb_func
  23              		.fpu fpv4-sp-d16
  25              	SendFreeBuf:
  26              	.LFB1274:
  27              		.file 1 "Middlewares/ST/STM32_WPAN/interface/patterns/ble_thread/tl/tl_mbox.c"
   1:Middlewares/ST/STM32_WPAN/interface/patterns/ble_thread/tl/tl_mbox.c **** /**
   2:Middlewares/ST/STM32_WPAN/interface/patterns/ble_thread/tl/tl_mbox.c ****  ******************************************************************************
   3:Middlewares/ST/STM32_WPAN/interface/patterns/ble_thread/tl/tl_mbox.c ****  * @file    tl_mbox.c
   4:Middlewares/ST/STM32_WPAN/interface/patterns/ble_thread/tl/tl_mbox.c ****  * @author  MCD Application Team
   5:Middlewares/ST/STM32_WPAN/interface/patterns/ble_thread/tl/tl_mbox.c ****  * @brief   Transport layer for the mailbox interface
   6:Middlewares/ST/STM32_WPAN/interface/patterns/ble_thread/tl/tl_mbox.c ****  ******************************************************************************
   7:Middlewares/ST/STM32_WPAN/interface/patterns/ble_thread/tl/tl_mbox.c ****  * @attention
   8:Middlewares/ST/STM32_WPAN/interface/patterns/ble_thread/tl/tl_mbox.c ****  *
   9:Middlewares/ST/STM32_WPAN/interface/patterns/ble_thread/tl/tl_mbox.c ****  * Copyright (c) 2018-2021 STMicroelectronics.
  10:Middlewares/ST/STM32_WPAN/interface/patterns/ble_thread/tl/tl_mbox.c ****  * All rights reserved.
  11:Middlewares/ST/STM32_WPAN/interface/patterns/ble_thread/tl/tl_mbox.c ****  *
  12:Middlewares/ST/STM32_WPAN/interface/patterns/ble_thread/tl/tl_mbox.c ****  * This software is licensed under terms that can be found in the LICENSE file
  13:Middlewares/ST/STM32_WPAN/interface/patterns/ble_thread/tl/tl_mbox.c ****  * in the root directory of this software component.
  14:Middlewares/ST/STM32_WPAN/interface/patterns/ble_thread/tl/tl_mbox.c ****  * If no LICENSE file comes with this software, it is provided AS-IS.
  15:Middlewares/ST/STM32_WPAN/interface/patterns/ble_thread/tl/tl_mbox.c ****  *
  16:Middlewares/ST/STM32_WPAN/interface/patterns/ble_thread/tl/tl_mbox.c ****  ******************************************************************************
  17:Middlewares/ST/STM32_WPAN/interface/patterns/ble_thread/tl/tl_mbox.c ****  */
  18:Middlewares/ST/STM32_WPAN/interface/patterns/ble_thread/tl/tl_mbox.c **** 
  19:Middlewares/ST/STM32_WPAN/interface/patterns/ble_thread/tl/tl_mbox.c **** /* Includes ------------------------------------------------------------------*/
  20:Middlewares/ST/STM32_WPAN/interface/patterns/ble_thread/tl/tl_mbox.c **** #include "stm32_wpan_common.h"
  21:Middlewares/ST/STM32_WPAN/interface/patterns/ble_thread/tl/tl_mbox.c **** #include "hw.h"
  22:Middlewares/ST/STM32_WPAN/interface/patterns/ble_thread/tl/tl_mbox.c **** 
  23:Middlewares/ST/STM32_WPAN/interface/patterns/ble_thread/tl/tl_mbox.c **** #include "stm_list.h"
  24:Middlewares/ST/STM32_WPAN/interface/patterns/ble_thread/tl/tl_mbox.c **** #include "tl.h"
  25:Middlewares/ST/STM32_WPAN/interface/patterns/ble_thread/tl/tl_mbox.c **** #include "mbox_def.h"
  26:Middlewares/ST/STM32_WPAN/interface/patterns/ble_thread/tl/tl_mbox.c **** #include "tl_dbg_conf.h"
  27:Middlewares/ST/STM32_WPAN/interface/patterns/ble_thread/tl/tl_mbox.c **** 
  28:Middlewares/ST/STM32_WPAN/interface/patterns/ble_thread/tl/tl_mbox.c **** /* Private typedef -----------------------------------------------------------*/
  29:Middlewares/ST/STM32_WPAN/interface/patterns/ble_thread/tl/tl_mbox.c **** typedef enum
  30:Middlewares/ST/STM32_WPAN/interface/patterns/ble_thread/tl/tl_mbox.c **** {
  31:Middlewares/ST/STM32_WPAN/interface/patterns/ble_thread/tl/tl_mbox.c ****   TL_MB_MM_RELEASE_BUFFER,
ARM GAS  /var/folders/lt/l_qrc8c54t93n_phsj7cf5tc0000gn/T//cc8yIxSZ.s 			page 2


  32:Middlewares/ST/STM32_WPAN/interface/patterns/ble_thread/tl/tl_mbox.c ****   TL_MB_BLE_CMD,
  33:Middlewares/ST/STM32_WPAN/interface/patterns/ble_thread/tl/tl_mbox.c ****   TL_MB_BLE_CMD_RSP,
  34:Middlewares/ST/STM32_WPAN/interface/patterns/ble_thread/tl/tl_mbox.c ****   TL_MB_BLE_ASYNCH_EVT,
  35:Middlewares/ST/STM32_WPAN/interface/patterns/ble_thread/tl/tl_mbox.c ****   TL_MB_SYS_CMD,
  36:Middlewares/ST/STM32_WPAN/interface/patterns/ble_thread/tl/tl_mbox.c ****   TL_MB_SYS_CMD_RSP,
  37:Middlewares/ST/STM32_WPAN/interface/patterns/ble_thread/tl/tl_mbox.c ****   TL_MB_SYS_ASYNCH_EVT,
  38:Middlewares/ST/STM32_WPAN/interface/patterns/ble_thread/tl/tl_mbox.c **** } TL_MB_PacketType_t;
  39:Middlewares/ST/STM32_WPAN/interface/patterns/ble_thread/tl/tl_mbox.c **** 
  40:Middlewares/ST/STM32_WPAN/interface/patterns/ble_thread/tl/tl_mbox.c **** /* Private defines -----------------------------------------------------------*/
  41:Middlewares/ST/STM32_WPAN/interface/patterns/ble_thread/tl/tl_mbox.c **** /* Private macros ------------------------------------------------------------*/
  42:Middlewares/ST/STM32_WPAN/interface/patterns/ble_thread/tl/tl_mbox.c **** /* Private variables ---------------------------------------------------------*/
  43:Middlewares/ST/STM32_WPAN/interface/patterns/ble_thread/tl/tl_mbox.c **** 
  44:Middlewares/ST/STM32_WPAN/interface/patterns/ble_thread/tl/tl_mbox.c **** /**< reference table */
  45:Middlewares/ST/STM32_WPAN/interface/patterns/ble_thread/tl/tl_mbox.c **** PLACE_IN_SECTION("MAPPING_TABLE") static volatile MB_RefTable_t TL_RefTable;
  46:Middlewares/ST/STM32_WPAN/interface/patterns/ble_thread/tl/tl_mbox.c **** PLACE_IN_SECTION("MB_MEM1") ALIGN(4) static MB_DeviceInfoTable_t TL_DeviceInfoTable;
  47:Middlewares/ST/STM32_WPAN/interface/patterns/ble_thread/tl/tl_mbox.c **** PLACE_IN_SECTION("MB_MEM1") ALIGN(4) static MB_BleTable_t TL_BleTable;
  48:Middlewares/ST/STM32_WPAN/interface/patterns/ble_thread/tl/tl_mbox.c **** PLACE_IN_SECTION("MB_MEM1") ALIGN(4) static MB_ThreadTable_t TL_ThreadTable;
  49:Middlewares/ST/STM32_WPAN/interface/patterns/ble_thread/tl/tl_mbox.c **** PLACE_IN_SECTION("MB_MEM1") ALIGN(4) static MB_LldTestsTable_t TL_LldTestsTable;
  50:Middlewares/ST/STM32_WPAN/interface/patterns/ble_thread/tl/tl_mbox.c **** PLACE_IN_SECTION("MB_MEM1") ALIGN(4) static MB_BleLldTable_t TL_BleLldTable;
  51:Middlewares/ST/STM32_WPAN/interface/patterns/ble_thread/tl/tl_mbox.c **** PLACE_IN_SECTION("MB_MEM1") ALIGN(4) static MB_SysTable_t TL_SysTable;
  52:Middlewares/ST/STM32_WPAN/interface/patterns/ble_thread/tl/tl_mbox.c **** PLACE_IN_SECTION("MB_MEM1") ALIGN(4) static MB_MemManagerTable_t TL_MemManagerTable;
  53:Middlewares/ST/STM32_WPAN/interface/patterns/ble_thread/tl/tl_mbox.c **** PLACE_IN_SECTION("MB_MEM1") ALIGN(4) static MB_TracesTable_t TL_TracesTable;
  54:Middlewares/ST/STM32_WPAN/interface/patterns/ble_thread/tl/tl_mbox.c **** PLACE_IN_SECTION("MB_MEM1") ALIGN(4) static MB_Mac_802_15_4_t TL_Mac_802_15_4_Table;
  55:Middlewares/ST/STM32_WPAN/interface/patterns/ble_thread/tl/tl_mbox.c **** PLACE_IN_SECTION("MB_MEM1") ALIGN(4) static MB_ZigbeeTable_t TL_Zigbee_Table;
  56:Middlewares/ST/STM32_WPAN/interface/patterns/ble_thread/tl/tl_mbox.c **** 
  57:Middlewares/ST/STM32_WPAN/interface/patterns/ble_thread/tl/tl_mbox.c **** /**< tables */
  58:Middlewares/ST/STM32_WPAN/interface/patterns/ble_thread/tl/tl_mbox.c **** PLACE_IN_SECTION("MB_MEM1") ALIGN(4) static tListNode  FreeBufQueue;
  59:Middlewares/ST/STM32_WPAN/interface/patterns/ble_thread/tl/tl_mbox.c **** PLACE_IN_SECTION("MB_MEM1") ALIGN(4) static tListNode  TracesEvtQueue;
  60:Middlewares/ST/STM32_WPAN/interface/patterns/ble_thread/tl/tl_mbox.c **** PLACE_IN_SECTION("MB_MEM2") ALIGN(4) static uint8_t    CsBuffer[sizeof(TL_PacketHeader_t) + TL_EVT_
  61:Middlewares/ST/STM32_WPAN/interface/patterns/ble_thread/tl/tl_mbox.c **** PLACE_IN_SECTION("MB_MEM1") ALIGN(4) static tListNode  EvtQueue;
  62:Middlewares/ST/STM32_WPAN/interface/patterns/ble_thread/tl/tl_mbox.c **** PLACE_IN_SECTION("MB_MEM1") ALIGN(4) static tListNode  SystemEvtQueue;
  63:Middlewares/ST/STM32_WPAN/interface/patterns/ble_thread/tl/tl_mbox.c **** 
  64:Middlewares/ST/STM32_WPAN/interface/patterns/ble_thread/tl/tl_mbox.c **** 
  65:Middlewares/ST/STM32_WPAN/interface/patterns/ble_thread/tl/tl_mbox.c **** static tListNode  LocalFreeBufQueue;
  66:Middlewares/ST/STM32_WPAN/interface/patterns/ble_thread/tl/tl_mbox.c **** static void (* BLE_IoBusEvtCallBackFunction) (TL_EvtPacket_t *phcievt);
  67:Middlewares/ST/STM32_WPAN/interface/patterns/ble_thread/tl/tl_mbox.c **** static void (* BLE_IoBusAclDataTxAck) ( void );
  68:Middlewares/ST/STM32_WPAN/interface/patterns/ble_thread/tl/tl_mbox.c **** static void (* SYS_CMD_IoBusCallBackFunction) (TL_EvtPacket_t *phcievt);
  69:Middlewares/ST/STM32_WPAN/interface/patterns/ble_thread/tl/tl_mbox.c **** static void (* SYS_EVT_IoBusCallBackFunction) (TL_EvtPacket_t *phcievt);
  70:Middlewares/ST/STM32_WPAN/interface/patterns/ble_thread/tl/tl_mbox.c **** 
  71:Middlewares/ST/STM32_WPAN/interface/patterns/ble_thread/tl/tl_mbox.c **** 
  72:Middlewares/ST/STM32_WPAN/interface/patterns/ble_thread/tl/tl_mbox.c **** /* Global variables ----------------------------------------------------------*/
  73:Middlewares/ST/STM32_WPAN/interface/patterns/ble_thread/tl/tl_mbox.c **** /* Private function prototypes -----------------------------------------------*/
  74:Middlewares/ST/STM32_WPAN/interface/patterns/ble_thread/tl/tl_mbox.c **** static void SendFreeBuf( void );
  75:Middlewares/ST/STM32_WPAN/interface/patterns/ble_thread/tl/tl_mbox.c **** static void OutputDbgTrace(TL_MB_PacketType_t packet_type, uint8_t* buffer);
  76:Middlewares/ST/STM32_WPAN/interface/patterns/ble_thread/tl/tl_mbox.c **** 
  77:Middlewares/ST/STM32_WPAN/interface/patterns/ble_thread/tl/tl_mbox.c **** /* Public Functions Definition ------------------------------------------------------*/
  78:Middlewares/ST/STM32_WPAN/interface/patterns/ble_thread/tl/tl_mbox.c **** 
  79:Middlewares/ST/STM32_WPAN/interface/patterns/ble_thread/tl/tl_mbox.c **** /******************************************************************************
  80:Middlewares/ST/STM32_WPAN/interface/patterns/ble_thread/tl/tl_mbox.c ****  * GENERAL
  81:Middlewares/ST/STM32_WPAN/interface/patterns/ble_thread/tl/tl_mbox.c ****  ******************************************************************************/
  82:Middlewares/ST/STM32_WPAN/interface/patterns/ble_thread/tl/tl_mbox.c **** void TL_Enable( void )
  83:Middlewares/ST/STM32_WPAN/interface/patterns/ble_thread/tl/tl_mbox.c **** {
  84:Middlewares/ST/STM32_WPAN/interface/patterns/ble_thread/tl/tl_mbox.c ****   HW_IPCC_Enable();
  85:Middlewares/ST/STM32_WPAN/interface/patterns/ble_thread/tl/tl_mbox.c **** 
  86:Middlewares/ST/STM32_WPAN/interface/patterns/ble_thread/tl/tl_mbox.c ****   return;
  87:Middlewares/ST/STM32_WPAN/interface/patterns/ble_thread/tl/tl_mbox.c **** }
  88:Middlewares/ST/STM32_WPAN/interface/patterns/ble_thread/tl/tl_mbox.c **** 
ARM GAS  /var/folders/lt/l_qrc8c54t93n_phsj7cf5tc0000gn/T//cc8yIxSZ.s 			page 3


  89:Middlewares/ST/STM32_WPAN/interface/patterns/ble_thread/tl/tl_mbox.c **** 
  90:Middlewares/ST/STM32_WPAN/interface/patterns/ble_thread/tl/tl_mbox.c **** void TL_Init( void )
  91:Middlewares/ST/STM32_WPAN/interface/patterns/ble_thread/tl/tl_mbox.c **** {
  92:Middlewares/ST/STM32_WPAN/interface/patterns/ble_thread/tl/tl_mbox.c ****   TL_RefTable.p_device_info_table = &TL_DeviceInfoTable;
  93:Middlewares/ST/STM32_WPAN/interface/patterns/ble_thread/tl/tl_mbox.c ****   TL_RefTable.p_ble_table = &TL_BleTable;
  94:Middlewares/ST/STM32_WPAN/interface/patterns/ble_thread/tl/tl_mbox.c ****   TL_RefTable.p_thread_table = &TL_ThreadTable;
  95:Middlewares/ST/STM32_WPAN/interface/patterns/ble_thread/tl/tl_mbox.c ****   TL_RefTable.p_lld_tests_table = &TL_LldTestsTable;
  96:Middlewares/ST/STM32_WPAN/interface/patterns/ble_thread/tl/tl_mbox.c ****   TL_RefTable.p_ble_lld_table = &TL_BleLldTable;
  97:Middlewares/ST/STM32_WPAN/interface/patterns/ble_thread/tl/tl_mbox.c ****   TL_RefTable.p_sys_table = &TL_SysTable;
  98:Middlewares/ST/STM32_WPAN/interface/patterns/ble_thread/tl/tl_mbox.c ****   TL_RefTable.p_mem_manager_table = &TL_MemManagerTable;
  99:Middlewares/ST/STM32_WPAN/interface/patterns/ble_thread/tl/tl_mbox.c ****   TL_RefTable.p_traces_table = &TL_TracesTable;
 100:Middlewares/ST/STM32_WPAN/interface/patterns/ble_thread/tl/tl_mbox.c ****   TL_RefTable.p_mac_802_15_4_table = &TL_Mac_802_15_4_Table;
 101:Middlewares/ST/STM32_WPAN/interface/patterns/ble_thread/tl/tl_mbox.c ****   TL_RefTable.p_zigbee_table = &TL_Zigbee_Table;
 102:Middlewares/ST/STM32_WPAN/interface/patterns/ble_thread/tl/tl_mbox.c ****   HW_IPCC_Init();
 103:Middlewares/ST/STM32_WPAN/interface/patterns/ble_thread/tl/tl_mbox.c **** 
 104:Middlewares/ST/STM32_WPAN/interface/patterns/ble_thread/tl/tl_mbox.c ****   return;
 105:Middlewares/ST/STM32_WPAN/interface/patterns/ble_thread/tl/tl_mbox.c **** }
 106:Middlewares/ST/STM32_WPAN/interface/patterns/ble_thread/tl/tl_mbox.c **** 
 107:Middlewares/ST/STM32_WPAN/interface/patterns/ble_thread/tl/tl_mbox.c **** /******************************************************************************
 108:Middlewares/ST/STM32_WPAN/interface/patterns/ble_thread/tl/tl_mbox.c ****  * BLE
 109:Middlewares/ST/STM32_WPAN/interface/patterns/ble_thread/tl/tl_mbox.c ****  ******************************************************************************/
 110:Middlewares/ST/STM32_WPAN/interface/patterns/ble_thread/tl/tl_mbox.c **** int32_t TL_BLE_Init( void* pConf )
 111:Middlewares/ST/STM32_WPAN/interface/patterns/ble_thread/tl/tl_mbox.c **** {
 112:Middlewares/ST/STM32_WPAN/interface/patterns/ble_thread/tl/tl_mbox.c ****   MB_BleTable_t  * p_bletable;
 113:Middlewares/ST/STM32_WPAN/interface/patterns/ble_thread/tl/tl_mbox.c **** 
 114:Middlewares/ST/STM32_WPAN/interface/patterns/ble_thread/tl/tl_mbox.c ****   TL_BLE_InitConf_t *pInitHciConf = (TL_BLE_InitConf_t *) pConf;
 115:Middlewares/ST/STM32_WPAN/interface/patterns/ble_thread/tl/tl_mbox.c **** 
 116:Middlewares/ST/STM32_WPAN/interface/patterns/ble_thread/tl/tl_mbox.c ****   LST_init_head (&EvtQueue);
 117:Middlewares/ST/STM32_WPAN/interface/patterns/ble_thread/tl/tl_mbox.c **** 
 118:Middlewares/ST/STM32_WPAN/interface/patterns/ble_thread/tl/tl_mbox.c ****   p_bletable = TL_RefTable.p_ble_table;
 119:Middlewares/ST/STM32_WPAN/interface/patterns/ble_thread/tl/tl_mbox.c **** 
 120:Middlewares/ST/STM32_WPAN/interface/patterns/ble_thread/tl/tl_mbox.c ****   p_bletable->pcmd_buffer = pInitHciConf->p_cmdbuffer;
 121:Middlewares/ST/STM32_WPAN/interface/patterns/ble_thread/tl/tl_mbox.c ****   p_bletable->phci_acl_data_buffer = pInitHciConf->p_AclDataBuffer;
 122:Middlewares/ST/STM32_WPAN/interface/patterns/ble_thread/tl/tl_mbox.c ****   p_bletable->pcs_buffer  = (uint8_t*)CsBuffer;
 123:Middlewares/ST/STM32_WPAN/interface/patterns/ble_thread/tl/tl_mbox.c ****   p_bletable->pevt_queue  = (uint8_t*)&EvtQueue;
 124:Middlewares/ST/STM32_WPAN/interface/patterns/ble_thread/tl/tl_mbox.c **** 
 125:Middlewares/ST/STM32_WPAN/interface/patterns/ble_thread/tl/tl_mbox.c ****   HW_IPCC_BLE_Init();
 126:Middlewares/ST/STM32_WPAN/interface/patterns/ble_thread/tl/tl_mbox.c **** 
 127:Middlewares/ST/STM32_WPAN/interface/patterns/ble_thread/tl/tl_mbox.c ****   BLE_IoBusEvtCallBackFunction = pInitHciConf->IoBusEvtCallBack;
 128:Middlewares/ST/STM32_WPAN/interface/patterns/ble_thread/tl/tl_mbox.c ****   BLE_IoBusAclDataTxAck = pInitHciConf->IoBusAclDataTxAck;
 129:Middlewares/ST/STM32_WPAN/interface/patterns/ble_thread/tl/tl_mbox.c **** 
 130:Middlewares/ST/STM32_WPAN/interface/patterns/ble_thread/tl/tl_mbox.c ****   return 0;
 131:Middlewares/ST/STM32_WPAN/interface/patterns/ble_thread/tl/tl_mbox.c **** }
 132:Middlewares/ST/STM32_WPAN/interface/patterns/ble_thread/tl/tl_mbox.c **** 
 133:Middlewares/ST/STM32_WPAN/interface/patterns/ble_thread/tl/tl_mbox.c **** int32_t TL_BLE_SendCmd( uint8_t* buffer, uint16_t size )
 134:Middlewares/ST/STM32_WPAN/interface/patterns/ble_thread/tl/tl_mbox.c **** {
 135:Middlewares/ST/STM32_WPAN/interface/patterns/ble_thread/tl/tl_mbox.c ****   (void)(buffer);
 136:Middlewares/ST/STM32_WPAN/interface/patterns/ble_thread/tl/tl_mbox.c ****   (void)(size);
 137:Middlewares/ST/STM32_WPAN/interface/patterns/ble_thread/tl/tl_mbox.c **** 
 138:Middlewares/ST/STM32_WPAN/interface/patterns/ble_thread/tl/tl_mbox.c ****   ((TL_CmdPacket_t*)(TL_RefTable.p_ble_table->pcmd_buffer))->cmdserial.type = TL_BLECMD_PKT_TYPE;
 139:Middlewares/ST/STM32_WPAN/interface/patterns/ble_thread/tl/tl_mbox.c **** 
 140:Middlewares/ST/STM32_WPAN/interface/patterns/ble_thread/tl/tl_mbox.c ****   OutputDbgTrace(TL_MB_BLE_CMD, TL_RefTable.p_ble_table->pcmd_buffer);
 141:Middlewares/ST/STM32_WPAN/interface/patterns/ble_thread/tl/tl_mbox.c **** 
 142:Middlewares/ST/STM32_WPAN/interface/patterns/ble_thread/tl/tl_mbox.c ****   HW_IPCC_BLE_SendCmd();
 143:Middlewares/ST/STM32_WPAN/interface/patterns/ble_thread/tl/tl_mbox.c **** 
 144:Middlewares/ST/STM32_WPAN/interface/patterns/ble_thread/tl/tl_mbox.c ****   return 0;
 145:Middlewares/ST/STM32_WPAN/interface/patterns/ble_thread/tl/tl_mbox.c **** }
ARM GAS  /var/folders/lt/l_qrc8c54t93n_phsj7cf5tc0000gn/T//cc8yIxSZ.s 			page 4


 146:Middlewares/ST/STM32_WPAN/interface/patterns/ble_thread/tl/tl_mbox.c **** 
 147:Middlewares/ST/STM32_WPAN/interface/patterns/ble_thread/tl/tl_mbox.c **** void HW_IPCC_BLE_RxEvtNot(void)
 148:Middlewares/ST/STM32_WPAN/interface/patterns/ble_thread/tl/tl_mbox.c **** {
 149:Middlewares/ST/STM32_WPAN/interface/patterns/ble_thread/tl/tl_mbox.c ****   TL_EvtPacket_t *phcievt;
 150:Middlewares/ST/STM32_WPAN/interface/patterns/ble_thread/tl/tl_mbox.c **** 
 151:Middlewares/ST/STM32_WPAN/interface/patterns/ble_thread/tl/tl_mbox.c ****   while(LST_is_empty(&EvtQueue) == FALSE)
 152:Middlewares/ST/STM32_WPAN/interface/patterns/ble_thread/tl/tl_mbox.c ****   {
 153:Middlewares/ST/STM32_WPAN/interface/patterns/ble_thread/tl/tl_mbox.c ****     LST_remove_head (&EvtQueue, (tListNode **)&phcievt);
 154:Middlewares/ST/STM32_WPAN/interface/patterns/ble_thread/tl/tl_mbox.c **** 
 155:Middlewares/ST/STM32_WPAN/interface/patterns/ble_thread/tl/tl_mbox.c ****     if ( ((phcievt->evtserial.evt.evtcode) == TL_BLEEVT_CS_OPCODE) || ((phcievt->evtserial.evt.evtc
 156:Middlewares/ST/STM32_WPAN/interface/patterns/ble_thread/tl/tl_mbox.c ****     {
 157:Middlewares/ST/STM32_WPAN/interface/patterns/ble_thread/tl/tl_mbox.c ****       OutputDbgTrace(TL_MB_BLE_CMD_RSP, (uint8_t*)phcievt);
 158:Middlewares/ST/STM32_WPAN/interface/patterns/ble_thread/tl/tl_mbox.c ****     }
 159:Middlewares/ST/STM32_WPAN/interface/patterns/ble_thread/tl/tl_mbox.c ****     else
 160:Middlewares/ST/STM32_WPAN/interface/patterns/ble_thread/tl/tl_mbox.c ****     {
 161:Middlewares/ST/STM32_WPAN/interface/patterns/ble_thread/tl/tl_mbox.c ****       OutputDbgTrace(TL_MB_BLE_ASYNCH_EVT, (uint8_t*)phcievt);
 162:Middlewares/ST/STM32_WPAN/interface/patterns/ble_thread/tl/tl_mbox.c ****     }
 163:Middlewares/ST/STM32_WPAN/interface/patterns/ble_thread/tl/tl_mbox.c **** 
 164:Middlewares/ST/STM32_WPAN/interface/patterns/ble_thread/tl/tl_mbox.c ****     BLE_IoBusEvtCallBackFunction(phcievt);
 165:Middlewares/ST/STM32_WPAN/interface/patterns/ble_thread/tl/tl_mbox.c ****   }
 166:Middlewares/ST/STM32_WPAN/interface/patterns/ble_thread/tl/tl_mbox.c **** 
 167:Middlewares/ST/STM32_WPAN/interface/patterns/ble_thread/tl/tl_mbox.c ****   return;
 168:Middlewares/ST/STM32_WPAN/interface/patterns/ble_thread/tl/tl_mbox.c **** }
 169:Middlewares/ST/STM32_WPAN/interface/patterns/ble_thread/tl/tl_mbox.c **** 
 170:Middlewares/ST/STM32_WPAN/interface/patterns/ble_thread/tl/tl_mbox.c **** int32_t TL_BLE_SendAclData( uint8_t* buffer, uint16_t size )
 171:Middlewares/ST/STM32_WPAN/interface/patterns/ble_thread/tl/tl_mbox.c **** {
 172:Middlewares/ST/STM32_WPAN/interface/patterns/ble_thread/tl/tl_mbox.c ****   (void)(buffer);
 173:Middlewares/ST/STM32_WPAN/interface/patterns/ble_thread/tl/tl_mbox.c ****   (void)(size);
 174:Middlewares/ST/STM32_WPAN/interface/patterns/ble_thread/tl/tl_mbox.c **** 
 175:Middlewares/ST/STM32_WPAN/interface/patterns/ble_thread/tl/tl_mbox.c ****   ((TL_AclDataPacket_t *)(TL_RefTable.p_ble_table->phci_acl_data_buffer))->AclDataSerial.type = TL_
 176:Middlewares/ST/STM32_WPAN/interface/patterns/ble_thread/tl/tl_mbox.c **** 
 177:Middlewares/ST/STM32_WPAN/interface/patterns/ble_thread/tl/tl_mbox.c ****   HW_IPCC_BLE_SendAclData();
 178:Middlewares/ST/STM32_WPAN/interface/patterns/ble_thread/tl/tl_mbox.c **** 
 179:Middlewares/ST/STM32_WPAN/interface/patterns/ble_thread/tl/tl_mbox.c ****   return 0;
 180:Middlewares/ST/STM32_WPAN/interface/patterns/ble_thread/tl/tl_mbox.c **** }
 181:Middlewares/ST/STM32_WPAN/interface/patterns/ble_thread/tl/tl_mbox.c **** 
 182:Middlewares/ST/STM32_WPAN/interface/patterns/ble_thread/tl/tl_mbox.c **** void HW_IPCC_BLE_AclDataAckNot(void)
 183:Middlewares/ST/STM32_WPAN/interface/patterns/ble_thread/tl/tl_mbox.c **** {
 184:Middlewares/ST/STM32_WPAN/interface/patterns/ble_thread/tl/tl_mbox.c ****   BLE_IoBusAclDataTxAck( );
 185:Middlewares/ST/STM32_WPAN/interface/patterns/ble_thread/tl/tl_mbox.c **** 
 186:Middlewares/ST/STM32_WPAN/interface/patterns/ble_thread/tl/tl_mbox.c ****   return;
 187:Middlewares/ST/STM32_WPAN/interface/patterns/ble_thread/tl/tl_mbox.c **** }
 188:Middlewares/ST/STM32_WPAN/interface/patterns/ble_thread/tl/tl_mbox.c **** 
 189:Middlewares/ST/STM32_WPAN/interface/patterns/ble_thread/tl/tl_mbox.c **** /******************************************************************************
 190:Middlewares/ST/STM32_WPAN/interface/patterns/ble_thread/tl/tl_mbox.c ****  * SYSTEM
 191:Middlewares/ST/STM32_WPAN/interface/patterns/ble_thread/tl/tl_mbox.c ****  ******************************************************************************/
 192:Middlewares/ST/STM32_WPAN/interface/patterns/ble_thread/tl/tl_mbox.c **** int32_t TL_SYS_Init( void* pConf  )
 193:Middlewares/ST/STM32_WPAN/interface/patterns/ble_thread/tl/tl_mbox.c **** {
 194:Middlewares/ST/STM32_WPAN/interface/patterns/ble_thread/tl/tl_mbox.c ****   MB_SysTable_t  * p_systable;
 195:Middlewares/ST/STM32_WPAN/interface/patterns/ble_thread/tl/tl_mbox.c **** 
 196:Middlewares/ST/STM32_WPAN/interface/patterns/ble_thread/tl/tl_mbox.c ****   TL_SYS_InitConf_t *pInitHciConf = (TL_SYS_InitConf_t *) pConf;
 197:Middlewares/ST/STM32_WPAN/interface/patterns/ble_thread/tl/tl_mbox.c **** 
 198:Middlewares/ST/STM32_WPAN/interface/patterns/ble_thread/tl/tl_mbox.c ****   LST_init_head (&SystemEvtQueue);
 199:Middlewares/ST/STM32_WPAN/interface/patterns/ble_thread/tl/tl_mbox.c ****   p_systable = TL_RefTable.p_sys_table;
 200:Middlewares/ST/STM32_WPAN/interface/patterns/ble_thread/tl/tl_mbox.c ****   p_systable->pcmd_buffer = pInitHciConf->p_cmdbuffer;
 201:Middlewares/ST/STM32_WPAN/interface/patterns/ble_thread/tl/tl_mbox.c ****   p_systable->sys_queue = (uint8_t*)&SystemEvtQueue;
 202:Middlewares/ST/STM32_WPAN/interface/patterns/ble_thread/tl/tl_mbox.c **** 
ARM GAS  /var/folders/lt/l_qrc8c54t93n_phsj7cf5tc0000gn/T//cc8yIxSZ.s 			page 5


 203:Middlewares/ST/STM32_WPAN/interface/patterns/ble_thread/tl/tl_mbox.c ****   HW_IPCC_SYS_Init();
 204:Middlewares/ST/STM32_WPAN/interface/patterns/ble_thread/tl/tl_mbox.c **** 
 205:Middlewares/ST/STM32_WPAN/interface/patterns/ble_thread/tl/tl_mbox.c ****   SYS_CMD_IoBusCallBackFunction = pInitHciConf->IoBusCallBackCmdEvt;
 206:Middlewares/ST/STM32_WPAN/interface/patterns/ble_thread/tl/tl_mbox.c ****   SYS_EVT_IoBusCallBackFunction = pInitHciConf->IoBusCallBackUserEvt;
 207:Middlewares/ST/STM32_WPAN/interface/patterns/ble_thread/tl/tl_mbox.c **** 
 208:Middlewares/ST/STM32_WPAN/interface/patterns/ble_thread/tl/tl_mbox.c ****   return 0;
 209:Middlewares/ST/STM32_WPAN/interface/patterns/ble_thread/tl/tl_mbox.c **** }
 210:Middlewares/ST/STM32_WPAN/interface/patterns/ble_thread/tl/tl_mbox.c **** 
 211:Middlewares/ST/STM32_WPAN/interface/patterns/ble_thread/tl/tl_mbox.c **** int32_t TL_SYS_SendCmd( uint8_t* buffer, uint16_t size )
 212:Middlewares/ST/STM32_WPAN/interface/patterns/ble_thread/tl/tl_mbox.c **** {
 213:Middlewares/ST/STM32_WPAN/interface/patterns/ble_thread/tl/tl_mbox.c ****   (void)(buffer);
 214:Middlewares/ST/STM32_WPAN/interface/patterns/ble_thread/tl/tl_mbox.c ****   (void)(size);
 215:Middlewares/ST/STM32_WPAN/interface/patterns/ble_thread/tl/tl_mbox.c **** 
 216:Middlewares/ST/STM32_WPAN/interface/patterns/ble_thread/tl/tl_mbox.c ****   ((TL_CmdPacket_t *)(TL_RefTable.p_sys_table->pcmd_buffer))->cmdserial.type = TL_SYSCMD_PKT_TYPE;
 217:Middlewares/ST/STM32_WPAN/interface/patterns/ble_thread/tl/tl_mbox.c **** 
 218:Middlewares/ST/STM32_WPAN/interface/patterns/ble_thread/tl/tl_mbox.c ****   OutputDbgTrace(TL_MB_SYS_CMD, TL_RefTable.p_sys_table->pcmd_buffer);
 219:Middlewares/ST/STM32_WPAN/interface/patterns/ble_thread/tl/tl_mbox.c **** 
 220:Middlewares/ST/STM32_WPAN/interface/patterns/ble_thread/tl/tl_mbox.c ****   HW_IPCC_SYS_SendCmd();
 221:Middlewares/ST/STM32_WPAN/interface/patterns/ble_thread/tl/tl_mbox.c **** 
 222:Middlewares/ST/STM32_WPAN/interface/patterns/ble_thread/tl/tl_mbox.c ****   return 0;
 223:Middlewares/ST/STM32_WPAN/interface/patterns/ble_thread/tl/tl_mbox.c **** }
 224:Middlewares/ST/STM32_WPAN/interface/patterns/ble_thread/tl/tl_mbox.c **** 
 225:Middlewares/ST/STM32_WPAN/interface/patterns/ble_thread/tl/tl_mbox.c **** void HW_IPCC_SYS_CmdEvtNot(void)
 226:Middlewares/ST/STM32_WPAN/interface/patterns/ble_thread/tl/tl_mbox.c **** {
 227:Middlewares/ST/STM32_WPAN/interface/patterns/ble_thread/tl/tl_mbox.c ****   OutputDbgTrace(TL_MB_SYS_CMD_RSP, (uint8_t*)(TL_RefTable.p_sys_table->pcmd_buffer) );
 228:Middlewares/ST/STM32_WPAN/interface/patterns/ble_thread/tl/tl_mbox.c **** 
 229:Middlewares/ST/STM32_WPAN/interface/patterns/ble_thread/tl/tl_mbox.c ****   SYS_CMD_IoBusCallBackFunction( (TL_EvtPacket_t*)(TL_RefTable.p_sys_table->pcmd_buffer) );
 230:Middlewares/ST/STM32_WPAN/interface/patterns/ble_thread/tl/tl_mbox.c **** 
 231:Middlewares/ST/STM32_WPAN/interface/patterns/ble_thread/tl/tl_mbox.c ****   return;
 232:Middlewares/ST/STM32_WPAN/interface/patterns/ble_thread/tl/tl_mbox.c **** }
 233:Middlewares/ST/STM32_WPAN/interface/patterns/ble_thread/tl/tl_mbox.c **** 
 234:Middlewares/ST/STM32_WPAN/interface/patterns/ble_thread/tl/tl_mbox.c **** void HW_IPCC_SYS_EvtNot( void )
 235:Middlewares/ST/STM32_WPAN/interface/patterns/ble_thread/tl/tl_mbox.c **** {
 236:Middlewares/ST/STM32_WPAN/interface/patterns/ble_thread/tl/tl_mbox.c ****   TL_EvtPacket_t *p_evt;
 237:Middlewares/ST/STM32_WPAN/interface/patterns/ble_thread/tl/tl_mbox.c **** 
 238:Middlewares/ST/STM32_WPAN/interface/patterns/ble_thread/tl/tl_mbox.c ****   while(LST_is_empty(&SystemEvtQueue) == FALSE)
 239:Middlewares/ST/STM32_WPAN/interface/patterns/ble_thread/tl/tl_mbox.c ****   {
 240:Middlewares/ST/STM32_WPAN/interface/patterns/ble_thread/tl/tl_mbox.c ****     LST_remove_head (&SystemEvtQueue, (tListNode **)&p_evt);
 241:Middlewares/ST/STM32_WPAN/interface/patterns/ble_thread/tl/tl_mbox.c **** 
 242:Middlewares/ST/STM32_WPAN/interface/patterns/ble_thread/tl/tl_mbox.c ****     OutputDbgTrace(TL_MB_SYS_ASYNCH_EVT, (uint8_t*)p_evt );
 243:Middlewares/ST/STM32_WPAN/interface/patterns/ble_thread/tl/tl_mbox.c **** 
 244:Middlewares/ST/STM32_WPAN/interface/patterns/ble_thread/tl/tl_mbox.c ****     SYS_EVT_IoBusCallBackFunction( p_evt );
 245:Middlewares/ST/STM32_WPAN/interface/patterns/ble_thread/tl/tl_mbox.c ****   }
 246:Middlewares/ST/STM32_WPAN/interface/patterns/ble_thread/tl/tl_mbox.c **** 
 247:Middlewares/ST/STM32_WPAN/interface/patterns/ble_thread/tl/tl_mbox.c ****   return;
 248:Middlewares/ST/STM32_WPAN/interface/patterns/ble_thread/tl/tl_mbox.c **** }
 249:Middlewares/ST/STM32_WPAN/interface/patterns/ble_thread/tl/tl_mbox.c **** 
 250:Middlewares/ST/STM32_WPAN/interface/patterns/ble_thread/tl/tl_mbox.c **** /******************************************************************************
 251:Middlewares/ST/STM32_WPAN/interface/patterns/ble_thread/tl/tl_mbox.c ****  * THREAD
 252:Middlewares/ST/STM32_WPAN/interface/patterns/ble_thread/tl/tl_mbox.c ****  ******************************************************************************/
 253:Middlewares/ST/STM32_WPAN/interface/patterns/ble_thread/tl/tl_mbox.c **** #ifdef THREAD_WB
 254:Middlewares/ST/STM32_WPAN/interface/patterns/ble_thread/tl/tl_mbox.c **** void TL_THREAD_Init( TL_TH_Config_t *p_Config )
 255:Middlewares/ST/STM32_WPAN/interface/patterns/ble_thread/tl/tl_mbox.c **** {
 256:Middlewares/ST/STM32_WPAN/interface/patterns/ble_thread/tl/tl_mbox.c ****   MB_ThreadTable_t  * p_thread_table;
 257:Middlewares/ST/STM32_WPAN/interface/patterns/ble_thread/tl/tl_mbox.c **** 
 258:Middlewares/ST/STM32_WPAN/interface/patterns/ble_thread/tl/tl_mbox.c ****   p_thread_table = TL_RefTable.p_thread_table;
 259:Middlewares/ST/STM32_WPAN/interface/patterns/ble_thread/tl/tl_mbox.c **** 
ARM GAS  /var/folders/lt/l_qrc8c54t93n_phsj7cf5tc0000gn/T//cc8yIxSZ.s 			page 6


 260:Middlewares/ST/STM32_WPAN/interface/patterns/ble_thread/tl/tl_mbox.c ****   p_thread_table->clicmdrsp_buffer = p_Config->p_ThreadCliRspBuffer;
 261:Middlewares/ST/STM32_WPAN/interface/patterns/ble_thread/tl/tl_mbox.c ****   p_thread_table->otcmdrsp_buffer = p_Config->p_ThreadOtCmdRspBuffer;
 262:Middlewares/ST/STM32_WPAN/interface/patterns/ble_thread/tl/tl_mbox.c ****   p_thread_table->notack_buffer = p_Config->p_ThreadNotAckBuffer;
 263:Middlewares/ST/STM32_WPAN/interface/patterns/ble_thread/tl/tl_mbox.c **** 
 264:Middlewares/ST/STM32_WPAN/interface/patterns/ble_thread/tl/tl_mbox.c ****   HW_IPCC_THREAD_Init();
 265:Middlewares/ST/STM32_WPAN/interface/patterns/ble_thread/tl/tl_mbox.c **** 
 266:Middlewares/ST/STM32_WPAN/interface/patterns/ble_thread/tl/tl_mbox.c ****   return;
 267:Middlewares/ST/STM32_WPAN/interface/patterns/ble_thread/tl/tl_mbox.c **** }
 268:Middlewares/ST/STM32_WPAN/interface/patterns/ble_thread/tl/tl_mbox.c **** 
 269:Middlewares/ST/STM32_WPAN/interface/patterns/ble_thread/tl/tl_mbox.c **** void TL_OT_SendCmd( void )
 270:Middlewares/ST/STM32_WPAN/interface/patterns/ble_thread/tl/tl_mbox.c **** {
 271:Middlewares/ST/STM32_WPAN/interface/patterns/ble_thread/tl/tl_mbox.c ****   ((TL_CmdPacket_t *)(TL_RefTable.p_thread_table->otcmdrsp_buffer))->cmdserial.type = TL_OTCMD_PKT_
 272:Middlewares/ST/STM32_WPAN/interface/patterns/ble_thread/tl/tl_mbox.c **** 
 273:Middlewares/ST/STM32_WPAN/interface/patterns/ble_thread/tl/tl_mbox.c ****   HW_IPCC_OT_SendCmd();
 274:Middlewares/ST/STM32_WPAN/interface/patterns/ble_thread/tl/tl_mbox.c **** 
 275:Middlewares/ST/STM32_WPAN/interface/patterns/ble_thread/tl/tl_mbox.c ****   return;
 276:Middlewares/ST/STM32_WPAN/interface/patterns/ble_thread/tl/tl_mbox.c **** }
 277:Middlewares/ST/STM32_WPAN/interface/patterns/ble_thread/tl/tl_mbox.c **** 
 278:Middlewares/ST/STM32_WPAN/interface/patterns/ble_thread/tl/tl_mbox.c **** void TL_CLI_SendCmd( void )
 279:Middlewares/ST/STM32_WPAN/interface/patterns/ble_thread/tl/tl_mbox.c **** {
 280:Middlewares/ST/STM32_WPAN/interface/patterns/ble_thread/tl/tl_mbox.c ****   ((TL_CmdPacket_t *)(TL_RefTable.p_thread_table->clicmdrsp_buffer))->cmdserial.type = TL_CLICMD_PK
 281:Middlewares/ST/STM32_WPAN/interface/patterns/ble_thread/tl/tl_mbox.c **** 
 282:Middlewares/ST/STM32_WPAN/interface/patterns/ble_thread/tl/tl_mbox.c ****   HW_IPCC_CLI_SendCmd();
 283:Middlewares/ST/STM32_WPAN/interface/patterns/ble_thread/tl/tl_mbox.c **** 
 284:Middlewares/ST/STM32_WPAN/interface/patterns/ble_thread/tl/tl_mbox.c ****   return;
 285:Middlewares/ST/STM32_WPAN/interface/patterns/ble_thread/tl/tl_mbox.c **** }
 286:Middlewares/ST/STM32_WPAN/interface/patterns/ble_thread/tl/tl_mbox.c **** 
 287:Middlewares/ST/STM32_WPAN/interface/patterns/ble_thread/tl/tl_mbox.c **** void TL_THREAD_SendAck ( void )
 288:Middlewares/ST/STM32_WPAN/interface/patterns/ble_thread/tl/tl_mbox.c **** {
 289:Middlewares/ST/STM32_WPAN/interface/patterns/ble_thread/tl/tl_mbox.c ****   ((TL_CmdPacket_t *)(TL_RefTable.p_thread_table->notack_buffer))->cmdserial.type = TL_OTACK_PKT_TY
 290:Middlewares/ST/STM32_WPAN/interface/patterns/ble_thread/tl/tl_mbox.c **** 
 291:Middlewares/ST/STM32_WPAN/interface/patterns/ble_thread/tl/tl_mbox.c ****   HW_IPCC_THREAD_SendAck();
 292:Middlewares/ST/STM32_WPAN/interface/patterns/ble_thread/tl/tl_mbox.c **** 
 293:Middlewares/ST/STM32_WPAN/interface/patterns/ble_thread/tl/tl_mbox.c ****   return;
 294:Middlewares/ST/STM32_WPAN/interface/patterns/ble_thread/tl/tl_mbox.c **** }
 295:Middlewares/ST/STM32_WPAN/interface/patterns/ble_thread/tl/tl_mbox.c **** 
 296:Middlewares/ST/STM32_WPAN/interface/patterns/ble_thread/tl/tl_mbox.c **** void TL_THREAD_CliSendAck ( void )
 297:Middlewares/ST/STM32_WPAN/interface/patterns/ble_thread/tl/tl_mbox.c **** {
 298:Middlewares/ST/STM32_WPAN/interface/patterns/ble_thread/tl/tl_mbox.c ****   ((TL_CmdPacket_t *)(TL_RefTable.p_thread_table->notack_buffer))->cmdserial.type = TL_OTACK_PKT_TY
 299:Middlewares/ST/STM32_WPAN/interface/patterns/ble_thread/tl/tl_mbox.c **** 
 300:Middlewares/ST/STM32_WPAN/interface/patterns/ble_thread/tl/tl_mbox.c ****   HW_IPCC_THREAD_CliSendAck();
 301:Middlewares/ST/STM32_WPAN/interface/patterns/ble_thread/tl/tl_mbox.c **** 
 302:Middlewares/ST/STM32_WPAN/interface/patterns/ble_thread/tl/tl_mbox.c ****   return;
 303:Middlewares/ST/STM32_WPAN/interface/patterns/ble_thread/tl/tl_mbox.c **** }
 304:Middlewares/ST/STM32_WPAN/interface/patterns/ble_thread/tl/tl_mbox.c **** 
 305:Middlewares/ST/STM32_WPAN/interface/patterns/ble_thread/tl/tl_mbox.c **** void HW_IPCC_OT_CmdEvtNot(void)
 306:Middlewares/ST/STM32_WPAN/interface/patterns/ble_thread/tl/tl_mbox.c **** {
 307:Middlewares/ST/STM32_WPAN/interface/patterns/ble_thread/tl/tl_mbox.c ****   TL_OT_CmdEvtReceived( (TL_EvtPacket_t*)(TL_RefTable.p_thread_table->otcmdrsp_buffer) );
 308:Middlewares/ST/STM32_WPAN/interface/patterns/ble_thread/tl/tl_mbox.c **** 
 309:Middlewares/ST/STM32_WPAN/interface/patterns/ble_thread/tl/tl_mbox.c ****   return;
 310:Middlewares/ST/STM32_WPAN/interface/patterns/ble_thread/tl/tl_mbox.c **** }
 311:Middlewares/ST/STM32_WPAN/interface/patterns/ble_thread/tl/tl_mbox.c **** 
 312:Middlewares/ST/STM32_WPAN/interface/patterns/ble_thread/tl/tl_mbox.c **** void HW_IPCC_THREAD_EvtNot( void )
 313:Middlewares/ST/STM32_WPAN/interface/patterns/ble_thread/tl/tl_mbox.c **** {
 314:Middlewares/ST/STM32_WPAN/interface/patterns/ble_thread/tl/tl_mbox.c ****   TL_THREAD_NotReceived( (TL_EvtPacket_t*)(TL_RefTable.p_thread_table->notack_buffer) );
 315:Middlewares/ST/STM32_WPAN/interface/patterns/ble_thread/tl/tl_mbox.c **** 
 316:Middlewares/ST/STM32_WPAN/interface/patterns/ble_thread/tl/tl_mbox.c ****   return;
ARM GAS  /var/folders/lt/l_qrc8c54t93n_phsj7cf5tc0000gn/T//cc8yIxSZ.s 			page 7


 317:Middlewares/ST/STM32_WPAN/interface/patterns/ble_thread/tl/tl_mbox.c **** }
 318:Middlewares/ST/STM32_WPAN/interface/patterns/ble_thread/tl/tl_mbox.c **** 
 319:Middlewares/ST/STM32_WPAN/interface/patterns/ble_thread/tl/tl_mbox.c **** void HW_IPCC_THREAD_CliEvtNot( void )
 320:Middlewares/ST/STM32_WPAN/interface/patterns/ble_thread/tl/tl_mbox.c **** {
 321:Middlewares/ST/STM32_WPAN/interface/patterns/ble_thread/tl/tl_mbox.c ****   TL_THREAD_CliNotReceived( (TL_EvtPacket_t*)(TL_RefTable.p_thread_table->clicmdrsp_buffer) );
 322:Middlewares/ST/STM32_WPAN/interface/patterns/ble_thread/tl/tl_mbox.c **** 
 323:Middlewares/ST/STM32_WPAN/interface/patterns/ble_thread/tl/tl_mbox.c ****   return;
 324:Middlewares/ST/STM32_WPAN/interface/patterns/ble_thread/tl/tl_mbox.c **** }
 325:Middlewares/ST/STM32_WPAN/interface/patterns/ble_thread/tl/tl_mbox.c **** 
 326:Middlewares/ST/STM32_WPAN/interface/patterns/ble_thread/tl/tl_mbox.c **** __WEAK void TL_OT_CmdEvtReceived( TL_EvtPacket_t * Otbuffer  ){};
 327:Middlewares/ST/STM32_WPAN/interface/patterns/ble_thread/tl/tl_mbox.c **** __WEAK void TL_THREAD_NotReceived( TL_EvtPacket_t * Notbuffer ){};
 328:Middlewares/ST/STM32_WPAN/interface/patterns/ble_thread/tl/tl_mbox.c **** __WEAK void TL_THREAD_CliNotReceived( TL_EvtPacket_t * Notbuffer ){};
 329:Middlewares/ST/STM32_WPAN/interface/patterns/ble_thread/tl/tl_mbox.c **** 
 330:Middlewares/ST/STM32_WPAN/interface/patterns/ble_thread/tl/tl_mbox.c **** #endif /* THREAD_WB */
 331:Middlewares/ST/STM32_WPAN/interface/patterns/ble_thread/tl/tl_mbox.c **** 
 332:Middlewares/ST/STM32_WPAN/interface/patterns/ble_thread/tl/tl_mbox.c **** /******************************************************************************
 333:Middlewares/ST/STM32_WPAN/interface/patterns/ble_thread/tl/tl_mbox.c ****  * LLD TESTS
 334:Middlewares/ST/STM32_WPAN/interface/patterns/ble_thread/tl/tl_mbox.c ****  ******************************************************************************/
 335:Middlewares/ST/STM32_WPAN/interface/patterns/ble_thread/tl/tl_mbox.c **** #ifdef LLD_TESTS_WB
 336:Middlewares/ST/STM32_WPAN/interface/patterns/ble_thread/tl/tl_mbox.c **** void TL_LLDTESTS_Init( TL_LLD_tests_Config_t *p_Config )
 337:Middlewares/ST/STM32_WPAN/interface/patterns/ble_thread/tl/tl_mbox.c **** {
 338:Middlewares/ST/STM32_WPAN/interface/patterns/ble_thread/tl/tl_mbox.c ****   MB_LldTestsTable_t  * p_lld_tests_table;
 339:Middlewares/ST/STM32_WPAN/interface/patterns/ble_thread/tl/tl_mbox.c **** 
 340:Middlewares/ST/STM32_WPAN/interface/patterns/ble_thread/tl/tl_mbox.c ****   p_lld_tests_table = TL_RefTable.p_lld_tests_table;
 341:Middlewares/ST/STM32_WPAN/interface/patterns/ble_thread/tl/tl_mbox.c ****   p_lld_tests_table->clicmdrsp_buffer = p_Config->p_LldTestsCliCmdRspBuffer;
 342:Middlewares/ST/STM32_WPAN/interface/patterns/ble_thread/tl/tl_mbox.c ****   p_lld_tests_table->m0cmd_buffer = p_Config->p_LldTestsM0CmdBuffer;
 343:Middlewares/ST/STM32_WPAN/interface/patterns/ble_thread/tl/tl_mbox.c ****   HW_IPCC_LLDTESTS_Init();
 344:Middlewares/ST/STM32_WPAN/interface/patterns/ble_thread/tl/tl_mbox.c ****   return;
 345:Middlewares/ST/STM32_WPAN/interface/patterns/ble_thread/tl/tl_mbox.c **** }
 346:Middlewares/ST/STM32_WPAN/interface/patterns/ble_thread/tl/tl_mbox.c **** 
 347:Middlewares/ST/STM32_WPAN/interface/patterns/ble_thread/tl/tl_mbox.c **** void TL_LLDTESTS_SendCliCmd( void )
 348:Middlewares/ST/STM32_WPAN/interface/patterns/ble_thread/tl/tl_mbox.c **** {
 349:Middlewares/ST/STM32_WPAN/interface/patterns/ble_thread/tl/tl_mbox.c ****   ((TL_CmdPacket_t *)(TL_RefTable.p_lld_tests_table->clicmdrsp_buffer))->cmdserial.type = TL_CLICMD
 350:Middlewares/ST/STM32_WPAN/interface/patterns/ble_thread/tl/tl_mbox.c ****   HW_IPCC_LLDTESTS_SendCliCmd();
 351:Middlewares/ST/STM32_WPAN/interface/patterns/ble_thread/tl/tl_mbox.c ****   return;
 352:Middlewares/ST/STM32_WPAN/interface/patterns/ble_thread/tl/tl_mbox.c **** }
 353:Middlewares/ST/STM32_WPAN/interface/patterns/ble_thread/tl/tl_mbox.c **** 
 354:Middlewares/ST/STM32_WPAN/interface/patterns/ble_thread/tl/tl_mbox.c **** void HW_IPCC_LLDTESTS_ReceiveCliRsp( void )
 355:Middlewares/ST/STM32_WPAN/interface/patterns/ble_thread/tl/tl_mbox.c **** {
 356:Middlewares/ST/STM32_WPAN/interface/patterns/ble_thread/tl/tl_mbox.c ****   TL_LLDTESTS_ReceiveCliRsp( (TL_CmdPacket_t*)(TL_RefTable.p_lld_tests_table->clicmdrsp_buffer) );
 357:Middlewares/ST/STM32_WPAN/interface/patterns/ble_thread/tl/tl_mbox.c ****   return;
 358:Middlewares/ST/STM32_WPAN/interface/patterns/ble_thread/tl/tl_mbox.c **** }
 359:Middlewares/ST/STM32_WPAN/interface/patterns/ble_thread/tl/tl_mbox.c **** 
 360:Middlewares/ST/STM32_WPAN/interface/patterns/ble_thread/tl/tl_mbox.c **** void TL_LLDTESTS_SendCliRspAck( void )
 361:Middlewares/ST/STM32_WPAN/interface/patterns/ble_thread/tl/tl_mbox.c **** {
 362:Middlewares/ST/STM32_WPAN/interface/patterns/ble_thread/tl/tl_mbox.c ****   HW_IPCC_LLDTESTS_SendCliRspAck();
 363:Middlewares/ST/STM32_WPAN/interface/patterns/ble_thread/tl/tl_mbox.c ****   return;
 364:Middlewares/ST/STM32_WPAN/interface/patterns/ble_thread/tl/tl_mbox.c **** }
 365:Middlewares/ST/STM32_WPAN/interface/patterns/ble_thread/tl/tl_mbox.c **** 
 366:Middlewares/ST/STM32_WPAN/interface/patterns/ble_thread/tl/tl_mbox.c **** void HW_IPCC_LLDTESTS_ReceiveM0Cmd( void )
 367:Middlewares/ST/STM32_WPAN/interface/patterns/ble_thread/tl/tl_mbox.c **** {
 368:Middlewares/ST/STM32_WPAN/interface/patterns/ble_thread/tl/tl_mbox.c ****   TL_LLDTESTS_ReceiveM0Cmd( (TL_CmdPacket_t*)(TL_RefTable.p_lld_tests_table->m0cmd_buffer) );
 369:Middlewares/ST/STM32_WPAN/interface/patterns/ble_thread/tl/tl_mbox.c ****   return;
 370:Middlewares/ST/STM32_WPAN/interface/patterns/ble_thread/tl/tl_mbox.c **** }
 371:Middlewares/ST/STM32_WPAN/interface/patterns/ble_thread/tl/tl_mbox.c **** 
 372:Middlewares/ST/STM32_WPAN/interface/patterns/ble_thread/tl/tl_mbox.c **** 
 373:Middlewares/ST/STM32_WPAN/interface/patterns/ble_thread/tl/tl_mbox.c **** void TL_LLDTESTS_SendM0CmdAck( void )
ARM GAS  /var/folders/lt/l_qrc8c54t93n_phsj7cf5tc0000gn/T//cc8yIxSZ.s 			page 8


 374:Middlewares/ST/STM32_WPAN/interface/patterns/ble_thread/tl/tl_mbox.c **** {
 375:Middlewares/ST/STM32_WPAN/interface/patterns/ble_thread/tl/tl_mbox.c ****   HW_IPCC_LLDTESTS_SendM0CmdAck();
 376:Middlewares/ST/STM32_WPAN/interface/patterns/ble_thread/tl/tl_mbox.c ****   return;
 377:Middlewares/ST/STM32_WPAN/interface/patterns/ble_thread/tl/tl_mbox.c **** }
 378:Middlewares/ST/STM32_WPAN/interface/patterns/ble_thread/tl/tl_mbox.c **** 
 379:Middlewares/ST/STM32_WPAN/interface/patterns/ble_thread/tl/tl_mbox.c **** __WEAK void TL_LLDTESTS_ReceiveCliRsp( TL_CmdPacket_t * Notbuffer ){};
 380:Middlewares/ST/STM32_WPAN/interface/patterns/ble_thread/tl/tl_mbox.c **** __WEAK void TL_LLDTESTS_ReceiveM0Cmd( TL_CmdPacket_t * Notbuffer ){};
 381:Middlewares/ST/STM32_WPAN/interface/patterns/ble_thread/tl/tl_mbox.c **** #endif /* LLD_TESTS_WB */
 382:Middlewares/ST/STM32_WPAN/interface/patterns/ble_thread/tl/tl_mbox.c **** 
 383:Middlewares/ST/STM32_WPAN/interface/patterns/ble_thread/tl/tl_mbox.c **** /******************************************************************************
 384:Middlewares/ST/STM32_WPAN/interface/patterns/ble_thread/tl/tl_mbox.c ****  * BLE LLD
 385:Middlewares/ST/STM32_WPAN/interface/patterns/ble_thread/tl/tl_mbox.c ****  ******************************************************************************/
 386:Middlewares/ST/STM32_WPAN/interface/patterns/ble_thread/tl/tl_mbox.c **** #ifdef BLE_LLD_WB
 387:Middlewares/ST/STM32_WPAN/interface/patterns/ble_thread/tl/tl_mbox.c **** void TL_BLE_LLD_Init( TL_BLE_LLD_Config_t *p_Config )
 388:Middlewares/ST/STM32_WPAN/interface/patterns/ble_thread/tl/tl_mbox.c **** {
 389:Middlewares/ST/STM32_WPAN/interface/patterns/ble_thread/tl/tl_mbox.c ****   MB_BleLldTable_t  * p_ble_lld_table;
 390:Middlewares/ST/STM32_WPAN/interface/patterns/ble_thread/tl/tl_mbox.c **** 
 391:Middlewares/ST/STM32_WPAN/interface/patterns/ble_thread/tl/tl_mbox.c ****   p_ble_lld_table = TL_RefTable.p_ble_lld_table;
 392:Middlewares/ST/STM32_WPAN/interface/patterns/ble_thread/tl/tl_mbox.c ****   p_ble_lld_table->cmdrsp_buffer = p_Config->p_BleLldCmdRspBuffer;
 393:Middlewares/ST/STM32_WPAN/interface/patterns/ble_thread/tl/tl_mbox.c ****   p_ble_lld_table->m0cmd_buffer = p_Config->p_BleLldM0CmdBuffer;
 394:Middlewares/ST/STM32_WPAN/interface/patterns/ble_thread/tl/tl_mbox.c ****   HW_IPCC_BLE_LLD_Init();
 395:Middlewares/ST/STM32_WPAN/interface/patterns/ble_thread/tl/tl_mbox.c ****   return;
 396:Middlewares/ST/STM32_WPAN/interface/patterns/ble_thread/tl/tl_mbox.c **** }
 397:Middlewares/ST/STM32_WPAN/interface/patterns/ble_thread/tl/tl_mbox.c **** 
 398:Middlewares/ST/STM32_WPAN/interface/patterns/ble_thread/tl/tl_mbox.c **** void TL_BLE_LLD_SendCliCmd( void )
 399:Middlewares/ST/STM32_WPAN/interface/patterns/ble_thread/tl/tl_mbox.c **** {
 400:Middlewares/ST/STM32_WPAN/interface/patterns/ble_thread/tl/tl_mbox.c ****   ((TL_CmdPacket_t *)(TL_RefTable.p_ble_lld_table->cmdrsp_buffer))->cmdserial.type = TL_CLICMD_PKT_
 401:Middlewares/ST/STM32_WPAN/interface/patterns/ble_thread/tl/tl_mbox.c ****   HW_IPCC_BLE_LLD_SendCliCmd();
 402:Middlewares/ST/STM32_WPAN/interface/patterns/ble_thread/tl/tl_mbox.c ****   return;
 403:Middlewares/ST/STM32_WPAN/interface/patterns/ble_thread/tl/tl_mbox.c **** }
 404:Middlewares/ST/STM32_WPAN/interface/patterns/ble_thread/tl/tl_mbox.c **** 
 405:Middlewares/ST/STM32_WPAN/interface/patterns/ble_thread/tl/tl_mbox.c **** void HW_IPCC_BLE_LLD_ReceiveCliRsp( void )
 406:Middlewares/ST/STM32_WPAN/interface/patterns/ble_thread/tl/tl_mbox.c **** {
 407:Middlewares/ST/STM32_WPAN/interface/patterns/ble_thread/tl/tl_mbox.c ****   TL_BLE_LLD_ReceiveCliRsp( (TL_CmdPacket_t*)(TL_RefTable.p_ble_lld_table->cmdrsp_buffer) );
 408:Middlewares/ST/STM32_WPAN/interface/patterns/ble_thread/tl/tl_mbox.c ****   return;
 409:Middlewares/ST/STM32_WPAN/interface/patterns/ble_thread/tl/tl_mbox.c **** }
 410:Middlewares/ST/STM32_WPAN/interface/patterns/ble_thread/tl/tl_mbox.c **** 
 411:Middlewares/ST/STM32_WPAN/interface/patterns/ble_thread/tl/tl_mbox.c **** void TL_BLE_LLD_SendCliRspAck( void )
 412:Middlewares/ST/STM32_WPAN/interface/patterns/ble_thread/tl/tl_mbox.c **** {
 413:Middlewares/ST/STM32_WPAN/interface/patterns/ble_thread/tl/tl_mbox.c ****   HW_IPCC_BLE_LLD_SendCliRspAck();
 414:Middlewares/ST/STM32_WPAN/interface/patterns/ble_thread/tl/tl_mbox.c ****   return;
 415:Middlewares/ST/STM32_WPAN/interface/patterns/ble_thread/tl/tl_mbox.c **** }
 416:Middlewares/ST/STM32_WPAN/interface/patterns/ble_thread/tl/tl_mbox.c **** 
 417:Middlewares/ST/STM32_WPAN/interface/patterns/ble_thread/tl/tl_mbox.c **** void HW_IPCC_BLE_LLD_ReceiveM0Cmd( void )
 418:Middlewares/ST/STM32_WPAN/interface/patterns/ble_thread/tl/tl_mbox.c **** {
 419:Middlewares/ST/STM32_WPAN/interface/patterns/ble_thread/tl/tl_mbox.c ****   TL_BLE_LLD_ReceiveM0Cmd( (TL_CmdPacket_t*)(TL_RefTable.p_ble_lld_table->m0cmd_buffer) );
 420:Middlewares/ST/STM32_WPAN/interface/patterns/ble_thread/tl/tl_mbox.c ****   return;
 421:Middlewares/ST/STM32_WPAN/interface/patterns/ble_thread/tl/tl_mbox.c **** }
 422:Middlewares/ST/STM32_WPAN/interface/patterns/ble_thread/tl/tl_mbox.c **** 
 423:Middlewares/ST/STM32_WPAN/interface/patterns/ble_thread/tl/tl_mbox.c **** 
 424:Middlewares/ST/STM32_WPAN/interface/patterns/ble_thread/tl/tl_mbox.c **** void TL_BLE_LLD_SendM0CmdAck( void )
 425:Middlewares/ST/STM32_WPAN/interface/patterns/ble_thread/tl/tl_mbox.c **** {
 426:Middlewares/ST/STM32_WPAN/interface/patterns/ble_thread/tl/tl_mbox.c ****   HW_IPCC_BLE_LLD_SendM0CmdAck();
 427:Middlewares/ST/STM32_WPAN/interface/patterns/ble_thread/tl/tl_mbox.c ****   return;
 428:Middlewares/ST/STM32_WPAN/interface/patterns/ble_thread/tl/tl_mbox.c **** }
 429:Middlewares/ST/STM32_WPAN/interface/patterns/ble_thread/tl/tl_mbox.c **** 
 430:Middlewares/ST/STM32_WPAN/interface/patterns/ble_thread/tl/tl_mbox.c **** __WEAK void TL_BLE_LLD_ReceiveCliRsp( TL_CmdPacket_t * Notbuffer ){};
ARM GAS  /var/folders/lt/l_qrc8c54t93n_phsj7cf5tc0000gn/T//cc8yIxSZ.s 			page 9


 431:Middlewares/ST/STM32_WPAN/interface/patterns/ble_thread/tl/tl_mbox.c **** __WEAK void TL_BLE_LLD_ReceiveM0Cmd( TL_CmdPacket_t * Notbuffer ){};
 432:Middlewares/ST/STM32_WPAN/interface/patterns/ble_thread/tl/tl_mbox.c **** 
 433:Middlewares/ST/STM32_WPAN/interface/patterns/ble_thread/tl/tl_mbox.c **** /* Transparent Mode */
 434:Middlewares/ST/STM32_WPAN/interface/patterns/ble_thread/tl/tl_mbox.c **** void TL_BLE_LLD_SendCmd( void )
 435:Middlewares/ST/STM32_WPAN/interface/patterns/ble_thread/tl/tl_mbox.c **** {
 436:Middlewares/ST/STM32_WPAN/interface/patterns/ble_thread/tl/tl_mbox.c ****   ((TL_CmdPacket_t *)(TL_RefTable.p_ble_lld_table->cmdrsp_buffer))->cmdserial.type = TL_CLICMD_PKT_
 437:Middlewares/ST/STM32_WPAN/interface/patterns/ble_thread/tl/tl_mbox.c ****   HW_IPCC_BLE_LLD_SendCmd();
 438:Middlewares/ST/STM32_WPAN/interface/patterns/ble_thread/tl/tl_mbox.c ****   return;
 439:Middlewares/ST/STM32_WPAN/interface/patterns/ble_thread/tl/tl_mbox.c **** }
 440:Middlewares/ST/STM32_WPAN/interface/patterns/ble_thread/tl/tl_mbox.c **** 
 441:Middlewares/ST/STM32_WPAN/interface/patterns/ble_thread/tl/tl_mbox.c **** void HW_IPCC_BLE_LLD_ReceiveRsp( void )
 442:Middlewares/ST/STM32_WPAN/interface/patterns/ble_thread/tl/tl_mbox.c **** {
 443:Middlewares/ST/STM32_WPAN/interface/patterns/ble_thread/tl/tl_mbox.c ****   TL_BLE_LLD_ReceiveRsp( (TL_CmdPacket_t*)(TL_RefTable.p_ble_lld_table->cmdrsp_buffer) );
 444:Middlewares/ST/STM32_WPAN/interface/patterns/ble_thread/tl/tl_mbox.c ****   return;
 445:Middlewares/ST/STM32_WPAN/interface/patterns/ble_thread/tl/tl_mbox.c **** }
 446:Middlewares/ST/STM32_WPAN/interface/patterns/ble_thread/tl/tl_mbox.c **** 
 447:Middlewares/ST/STM32_WPAN/interface/patterns/ble_thread/tl/tl_mbox.c **** void TL_BLE_LLD_SendRspAck( void )
 448:Middlewares/ST/STM32_WPAN/interface/patterns/ble_thread/tl/tl_mbox.c **** {
 449:Middlewares/ST/STM32_WPAN/interface/patterns/ble_thread/tl/tl_mbox.c ****   HW_IPCC_BLE_LLD_SendRspAck();
 450:Middlewares/ST/STM32_WPAN/interface/patterns/ble_thread/tl/tl_mbox.c ****   return;
 451:Middlewares/ST/STM32_WPAN/interface/patterns/ble_thread/tl/tl_mbox.c **** }
 452:Middlewares/ST/STM32_WPAN/interface/patterns/ble_thread/tl/tl_mbox.c **** #endif /* BLE_LLD_WB */
 453:Middlewares/ST/STM32_WPAN/interface/patterns/ble_thread/tl/tl_mbox.c **** 
 454:Middlewares/ST/STM32_WPAN/interface/patterns/ble_thread/tl/tl_mbox.c **** #ifdef MAC_802_15_4_WB
 455:Middlewares/ST/STM32_WPAN/interface/patterns/ble_thread/tl/tl_mbox.c **** /******************************************************************************
 456:Middlewares/ST/STM32_WPAN/interface/patterns/ble_thread/tl/tl_mbox.c ****  * MAC 802.15.4
 457:Middlewares/ST/STM32_WPAN/interface/patterns/ble_thread/tl/tl_mbox.c ****  ******************************************************************************/
 458:Middlewares/ST/STM32_WPAN/interface/patterns/ble_thread/tl/tl_mbox.c **** void TL_MAC_802_15_4_Init( TL_MAC_802_15_4_Config_t *p_Config )
 459:Middlewares/ST/STM32_WPAN/interface/patterns/ble_thread/tl/tl_mbox.c **** {
 460:Middlewares/ST/STM32_WPAN/interface/patterns/ble_thread/tl/tl_mbox.c ****   MB_Mac_802_15_4_t  * p_mac_802_15_4_table;
 461:Middlewares/ST/STM32_WPAN/interface/patterns/ble_thread/tl/tl_mbox.c **** 
 462:Middlewares/ST/STM32_WPAN/interface/patterns/ble_thread/tl/tl_mbox.c ****   p_mac_802_15_4_table = TL_RefTable.p_mac_802_15_4_table;
 463:Middlewares/ST/STM32_WPAN/interface/patterns/ble_thread/tl/tl_mbox.c **** 
 464:Middlewares/ST/STM32_WPAN/interface/patterns/ble_thread/tl/tl_mbox.c ****   p_mac_802_15_4_table->p_cmdrsp_buffer = p_Config->p_Mac_802_15_4_CmdRspBuffer;
 465:Middlewares/ST/STM32_WPAN/interface/patterns/ble_thread/tl/tl_mbox.c ****   p_mac_802_15_4_table->p_notack_buffer = p_Config->p_Mac_802_15_4_NotAckBuffer;
 466:Middlewares/ST/STM32_WPAN/interface/patterns/ble_thread/tl/tl_mbox.c **** 
 467:Middlewares/ST/STM32_WPAN/interface/patterns/ble_thread/tl/tl_mbox.c ****   HW_IPCC_MAC_802_15_4_Init();
 468:Middlewares/ST/STM32_WPAN/interface/patterns/ble_thread/tl/tl_mbox.c **** 
 469:Middlewares/ST/STM32_WPAN/interface/patterns/ble_thread/tl/tl_mbox.c ****   return;
 470:Middlewares/ST/STM32_WPAN/interface/patterns/ble_thread/tl/tl_mbox.c **** }
 471:Middlewares/ST/STM32_WPAN/interface/patterns/ble_thread/tl/tl_mbox.c **** 
 472:Middlewares/ST/STM32_WPAN/interface/patterns/ble_thread/tl/tl_mbox.c **** void TL_MAC_802_15_4_SendCmd( void )
 473:Middlewares/ST/STM32_WPAN/interface/patterns/ble_thread/tl/tl_mbox.c **** {
 474:Middlewares/ST/STM32_WPAN/interface/patterns/ble_thread/tl/tl_mbox.c ****   ((TL_CmdPacket_t *)(TL_RefTable.p_mac_802_15_4_table->p_cmdrsp_buffer))->cmdserial.type = TL_OTCM
 475:Middlewares/ST/STM32_WPAN/interface/patterns/ble_thread/tl/tl_mbox.c **** 
 476:Middlewares/ST/STM32_WPAN/interface/patterns/ble_thread/tl/tl_mbox.c ****   HW_IPCC_MAC_802_15_4_SendCmd();
 477:Middlewares/ST/STM32_WPAN/interface/patterns/ble_thread/tl/tl_mbox.c **** 
 478:Middlewares/ST/STM32_WPAN/interface/patterns/ble_thread/tl/tl_mbox.c ****   return;
 479:Middlewares/ST/STM32_WPAN/interface/patterns/ble_thread/tl/tl_mbox.c **** }
 480:Middlewares/ST/STM32_WPAN/interface/patterns/ble_thread/tl/tl_mbox.c **** 
 481:Middlewares/ST/STM32_WPAN/interface/patterns/ble_thread/tl/tl_mbox.c **** void TL_MAC_802_15_4_SendAck ( void )
 482:Middlewares/ST/STM32_WPAN/interface/patterns/ble_thread/tl/tl_mbox.c **** {
 483:Middlewares/ST/STM32_WPAN/interface/patterns/ble_thread/tl/tl_mbox.c ****   ((TL_CmdPacket_t *)(TL_RefTable.p_mac_802_15_4_table->p_notack_buffer))->cmdserial.type = TL_OTAC
 484:Middlewares/ST/STM32_WPAN/interface/patterns/ble_thread/tl/tl_mbox.c **** 
 485:Middlewares/ST/STM32_WPAN/interface/patterns/ble_thread/tl/tl_mbox.c ****   HW_IPCC_MAC_802_15_4_SendAck();
 486:Middlewares/ST/STM32_WPAN/interface/patterns/ble_thread/tl/tl_mbox.c **** 
 487:Middlewares/ST/STM32_WPAN/interface/patterns/ble_thread/tl/tl_mbox.c ****   return;
ARM GAS  /var/folders/lt/l_qrc8c54t93n_phsj7cf5tc0000gn/T//cc8yIxSZ.s 			page 10


 488:Middlewares/ST/STM32_WPAN/interface/patterns/ble_thread/tl/tl_mbox.c **** }
 489:Middlewares/ST/STM32_WPAN/interface/patterns/ble_thread/tl/tl_mbox.c **** 
 490:Middlewares/ST/STM32_WPAN/interface/patterns/ble_thread/tl/tl_mbox.c **** void HW_IPCC_MAC_802_15_4_CmdEvtNot(void)
 491:Middlewares/ST/STM32_WPAN/interface/patterns/ble_thread/tl/tl_mbox.c **** {
 492:Middlewares/ST/STM32_WPAN/interface/patterns/ble_thread/tl/tl_mbox.c ****   TL_MAC_802_15_4_CmdEvtReceived( (TL_EvtPacket_t*)(TL_RefTable.p_mac_802_15_4_table->p_cmdrsp_buff
 493:Middlewares/ST/STM32_WPAN/interface/patterns/ble_thread/tl/tl_mbox.c **** 
 494:Middlewares/ST/STM32_WPAN/interface/patterns/ble_thread/tl/tl_mbox.c ****   return;
 495:Middlewares/ST/STM32_WPAN/interface/patterns/ble_thread/tl/tl_mbox.c **** }
 496:Middlewares/ST/STM32_WPAN/interface/patterns/ble_thread/tl/tl_mbox.c **** 
 497:Middlewares/ST/STM32_WPAN/interface/patterns/ble_thread/tl/tl_mbox.c **** void HW_IPCC_MAC_802_15_4_EvtNot( void )
 498:Middlewares/ST/STM32_WPAN/interface/patterns/ble_thread/tl/tl_mbox.c **** {
 499:Middlewares/ST/STM32_WPAN/interface/patterns/ble_thread/tl/tl_mbox.c ****   TL_MAC_802_15_4_NotReceived( (TL_EvtPacket_t*)(TL_RefTable.p_mac_802_15_4_table->p_notack_buffer)
 500:Middlewares/ST/STM32_WPAN/interface/patterns/ble_thread/tl/tl_mbox.c **** 
 501:Middlewares/ST/STM32_WPAN/interface/patterns/ble_thread/tl/tl_mbox.c ****   return;
 502:Middlewares/ST/STM32_WPAN/interface/patterns/ble_thread/tl/tl_mbox.c **** }
 503:Middlewares/ST/STM32_WPAN/interface/patterns/ble_thread/tl/tl_mbox.c **** 
 504:Middlewares/ST/STM32_WPAN/interface/patterns/ble_thread/tl/tl_mbox.c **** __WEAK void TL_MAC_802_15_4_CmdEvtReceived( TL_EvtPacket_t * Otbuffer  ){};
 505:Middlewares/ST/STM32_WPAN/interface/patterns/ble_thread/tl/tl_mbox.c **** __WEAK void TL_MAC_802_15_4_NotReceived( TL_EvtPacket_t * Notbuffer ){};
 506:Middlewares/ST/STM32_WPAN/interface/patterns/ble_thread/tl/tl_mbox.c **** #endif
 507:Middlewares/ST/STM32_WPAN/interface/patterns/ble_thread/tl/tl_mbox.c **** 
 508:Middlewares/ST/STM32_WPAN/interface/patterns/ble_thread/tl/tl_mbox.c **** #ifdef ZIGBEE_WB
 509:Middlewares/ST/STM32_WPAN/interface/patterns/ble_thread/tl/tl_mbox.c **** /******************************************************************************
 510:Middlewares/ST/STM32_WPAN/interface/patterns/ble_thread/tl/tl_mbox.c ****  * ZIGBEE
 511:Middlewares/ST/STM32_WPAN/interface/patterns/ble_thread/tl/tl_mbox.c ****  ******************************************************************************/
 512:Middlewares/ST/STM32_WPAN/interface/patterns/ble_thread/tl/tl_mbox.c **** void TL_ZIGBEE_Init( TL_ZIGBEE_Config_t *p_Config )
 513:Middlewares/ST/STM32_WPAN/interface/patterns/ble_thread/tl/tl_mbox.c **** {
 514:Middlewares/ST/STM32_WPAN/interface/patterns/ble_thread/tl/tl_mbox.c ****   MB_ZigbeeTable_t  * p_zigbee_table;
 515:Middlewares/ST/STM32_WPAN/interface/patterns/ble_thread/tl/tl_mbox.c **** 
 516:Middlewares/ST/STM32_WPAN/interface/patterns/ble_thread/tl/tl_mbox.c ****   p_zigbee_table = TL_RefTable.p_zigbee_table;
 517:Middlewares/ST/STM32_WPAN/interface/patterns/ble_thread/tl/tl_mbox.c ****   p_zigbee_table->appliCmdM4toM0_buffer = p_Config->p_ZigbeeOtCmdRspBuffer;
 518:Middlewares/ST/STM32_WPAN/interface/patterns/ble_thread/tl/tl_mbox.c ****   p_zigbee_table->notifM0toM4_buffer = p_Config->p_ZigbeeNotAckBuffer;
 519:Middlewares/ST/STM32_WPAN/interface/patterns/ble_thread/tl/tl_mbox.c ****   p_zigbee_table->requestM0toM4_buffer = p_Config->p_ZigbeeNotifRequestBuffer;
 520:Middlewares/ST/STM32_WPAN/interface/patterns/ble_thread/tl/tl_mbox.c **** 
 521:Middlewares/ST/STM32_WPAN/interface/patterns/ble_thread/tl/tl_mbox.c ****   HW_IPCC_ZIGBEE_Init();
 522:Middlewares/ST/STM32_WPAN/interface/patterns/ble_thread/tl/tl_mbox.c **** 
 523:Middlewares/ST/STM32_WPAN/interface/patterns/ble_thread/tl/tl_mbox.c ****   return;
 524:Middlewares/ST/STM32_WPAN/interface/patterns/ble_thread/tl/tl_mbox.c **** }
 525:Middlewares/ST/STM32_WPAN/interface/patterns/ble_thread/tl/tl_mbox.c **** 
 526:Middlewares/ST/STM32_WPAN/interface/patterns/ble_thread/tl/tl_mbox.c **** /* Zigbee M4 to M0 Request */
 527:Middlewares/ST/STM32_WPAN/interface/patterns/ble_thread/tl/tl_mbox.c **** void TL_ZIGBEE_SendM4RequestToM0( void )
 528:Middlewares/ST/STM32_WPAN/interface/patterns/ble_thread/tl/tl_mbox.c **** {
 529:Middlewares/ST/STM32_WPAN/interface/patterns/ble_thread/tl/tl_mbox.c ****   ((TL_CmdPacket_t *)(TL_RefTable.p_zigbee_table->appliCmdM4toM0_buffer))->cmdserial.type = TL_OTCM
 530:Middlewares/ST/STM32_WPAN/interface/patterns/ble_thread/tl/tl_mbox.c **** 
 531:Middlewares/ST/STM32_WPAN/interface/patterns/ble_thread/tl/tl_mbox.c ****   HW_IPCC_ZIGBEE_SendM4RequestToM0();
 532:Middlewares/ST/STM32_WPAN/interface/patterns/ble_thread/tl/tl_mbox.c **** 
 533:Middlewares/ST/STM32_WPAN/interface/patterns/ble_thread/tl/tl_mbox.c ****   return;
 534:Middlewares/ST/STM32_WPAN/interface/patterns/ble_thread/tl/tl_mbox.c **** }
 535:Middlewares/ST/STM32_WPAN/interface/patterns/ble_thread/tl/tl_mbox.c **** 
 536:Middlewares/ST/STM32_WPAN/interface/patterns/ble_thread/tl/tl_mbox.c **** /* Used to receive an ACK from the M0 */
 537:Middlewares/ST/STM32_WPAN/interface/patterns/ble_thread/tl/tl_mbox.c **** void HW_IPCC_ZIGBEE_RecvAppliAckFromM0(void)
 538:Middlewares/ST/STM32_WPAN/interface/patterns/ble_thread/tl/tl_mbox.c **** {
 539:Middlewares/ST/STM32_WPAN/interface/patterns/ble_thread/tl/tl_mbox.c ****   TL_ZIGBEE_CmdEvtReceived( (TL_EvtPacket_t*)(TL_RefTable.p_zigbee_table->appliCmdM4toM0_buffer) );
 540:Middlewares/ST/STM32_WPAN/interface/patterns/ble_thread/tl/tl_mbox.c **** 
 541:Middlewares/ST/STM32_WPAN/interface/patterns/ble_thread/tl/tl_mbox.c ****   return;
 542:Middlewares/ST/STM32_WPAN/interface/patterns/ble_thread/tl/tl_mbox.c **** }
 543:Middlewares/ST/STM32_WPAN/interface/patterns/ble_thread/tl/tl_mbox.c **** 
 544:Middlewares/ST/STM32_WPAN/interface/patterns/ble_thread/tl/tl_mbox.c **** /* Zigbee notification from M0 to M4 */
ARM GAS  /var/folders/lt/l_qrc8c54t93n_phsj7cf5tc0000gn/T//cc8yIxSZ.s 			page 11


 545:Middlewares/ST/STM32_WPAN/interface/patterns/ble_thread/tl/tl_mbox.c **** void HW_IPCC_ZIGBEE_RecvM0NotifyToM4( void )
 546:Middlewares/ST/STM32_WPAN/interface/patterns/ble_thread/tl/tl_mbox.c **** {
 547:Middlewares/ST/STM32_WPAN/interface/patterns/ble_thread/tl/tl_mbox.c ****   TL_ZIGBEE_NotReceived( (TL_EvtPacket_t*)(TL_RefTable.p_zigbee_table->notifM0toM4_buffer) );
 548:Middlewares/ST/STM32_WPAN/interface/patterns/ble_thread/tl/tl_mbox.c **** 
 549:Middlewares/ST/STM32_WPAN/interface/patterns/ble_thread/tl/tl_mbox.c ****   return;
 550:Middlewares/ST/STM32_WPAN/interface/patterns/ble_thread/tl/tl_mbox.c **** }
 551:Middlewares/ST/STM32_WPAN/interface/patterns/ble_thread/tl/tl_mbox.c **** 
 552:Middlewares/ST/STM32_WPAN/interface/patterns/ble_thread/tl/tl_mbox.c **** /* Send an ACK to the M0 for a Notification */
 553:Middlewares/ST/STM32_WPAN/interface/patterns/ble_thread/tl/tl_mbox.c **** void TL_ZIGBEE_SendM4AckToM0Notify ( void )
 554:Middlewares/ST/STM32_WPAN/interface/patterns/ble_thread/tl/tl_mbox.c **** {
 555:Middlewares/ST/STM32_WPAN/interface/patterns/ble_thread/tl/tl_mbox.c ****   ((TL_CmdPacket_t *)(TL_RefTable.p_zigbee_table->notifM0toM4_buffer))->cmdserial.type = TL_OTACK_P
 556:Middlewares/ST/STM32_WPAN/interface/patterns/ble_thread/tl/tl_mbox.c **** 
 557:Middlewares/ST/STM32_WPAN/interface/patterns/ble_thread/tl/tl_mbox.c ****   HW_IPCC_ZIGBEE_SendM4AckToM0Notify();
 558:Middlewares/ST/STM32_WPAN/interface/patterns/ble_thread/tl/tl_mbox.c **** 
 559:Middlewares/ST/STM32_WPAN/interface/patterns/ble_thread/tl/tl_mbox.c ****   return;
 560:Middlewares/ST/STM32_WPAN/interface/patterns/ble_thread/tl/tl_mbox.c **** }
 561:Middlewares/ST/STM32_WPAN/interface/patterns/ble_thread/tl/tl_mbox.c **** 
 562:Middlewares/ST/STM32_WPAN/interface/patterns/ble_thread/tl/tl_mbox.c **** /* Zigbee M0 to M4 Request */
 563:Middlewares/ST/STM32_WPAN/interface/patterns/ble_thread/tl/tl_mbox.c **** void HW_IPCC_ZIGBEE_RecvM0RequestToM4( void )
 564:Middlewares/ST/STM32_WPAN/interface/patterns/ble_thread/tl/tl_mbox.c **** {
 565:Middlewares/ST/STM32_WPAN/interface/patterns/ble_thread/tl/tl_mbox.c ****   TL_ZIGBEE_M0RequestReceived( (TL_EvtPacket_t*)(TL_RefTable.p_zigbee_table->requestM0toM4_buffer) 
 566:Middlewares/ST/STM32_WPAN/interface/patterns/ble_thread/tl/tl_mbox.c **** 
 567:Middlewares/ST/STM32_WPAN/interface/patterns/ble_thread/tl/tl_mbox.c ****   return;
 568:Middlewares/ST/STM32_WPAN/interface/patterns/ble_thread/tl/tl_mbox.c **** }
 569:Middlewares/ST/STM32_WPAN/interface/patterns/ble_thread/tl/tl_mbox.c **** 
 570:Middlewares/ST/STM32_WPAN/interface/patterns/ble_thread/tl/tl_mbox.c **** /* Send an ACK to the M0 for a Request */
 571:Middlewares/ST/STM32_WPAN/interface/patterns/ble_thread/tl/tl_mbox.c **** void TL_ZIGBEE_SendM4AckToM0Request(void)
 572:Middlewares/ST/STM32_WPAN/interface/patterns/ble_thread/tl/tl_mbox.c **** {
 573:Middlewares/ST/STM32_WPAN/interface/patterns/ble_thread/tl/tl_mbox.c ****   ((TL_CmdPacket_t *)(TL_RefTable.p_zigbee_table->requestM0toM4_buffer))->cmdserial.type = TL_OTACK
 574:Middlewares/ST/STM32_WPAN/interface/patterns/ble_thread/tl/tl_mbox.c **** 
 575:Middlewares/ST/STM32_WPAN/interface/patterns/ble_thread/tl/tl_mbox.c ****   HW_IPCC_ZIGBEE_SendM4AckToM0Request();
 576:Middlewares/ST/STM32_WPAN/interface/patterns/ble_thread/tl/tl_mbox.c **** 
 577:Middlewares/ST/STM32_WPAN/interface/patterns/ble_thread/tl/tl_mbox.c ****   return;
 578:Middlewares/ST/STM32_WPAN/interface/patterns/ble_thread/tl/tl_mbox.c **** }
 579:Middlewares/ST/STM32_WPAN/interface/patterns/ble_thread/tl/tl_mbox.c **** 
 580:Middlewares/ST/STM32_WPAN/interface/patterns/ble_thread/tl/tl_mbox.c **** 
 581:Middlewares/ST/STM32_WPAN/interface/patterns/ble_thread/tl/tl_mbox.c **** __WEAK void TL_ZIGBEE_CmdEvtReceived( TL_EvtPacket_t * Otbuffer  ){};
 582:Middlewares/ST/STM32_WPAN/interface/patterns/ble_thread/tl/tl_mbox.c **** __WEAK void TL_ZIGBEE_NotReceived( TL_EvtPacket_t * Notbuffer ){};
 583:Middlewares/ST/STM32_WPAN/interface/patterns/ble_thread/tl/tl_mbox.c **** #endif
 584:Middlewares/ST/STM32_WPAN/interface/patterns/ble_thread/tl/tl_mbox.c **** 
 585:Middlewares/ST/STM32_WPAN/interface/patterns/ble_thread/tl/tl_mbox.c **** 
 586:Middlewares/ST/STM32_WPAN/interface/patterns/ble_thread/tl/tl_mbox.c **** 
 587:Middlewares/ST/STM32_WPAN/interface/patterns/ble_thread/tl/tl_mbox.c **** /******************************************************************************
 588:Middlewares/ST/STM32_WPAN/interface/patterns/ble_thread/tl/tl_mbox.c ****  * MEMORY MANAGER
 589:Middlewares/ST/STM32_WPAN/interface/patterns/ble_thread/tl/tl_mbox.c ****  ******************************************************************************/
 590:Middlewares/ST/STM32_WPAN/interface/patterns/ble_thread/tl/tl_mbox.c **** void TL_MM_Init( TL_MM_Config_t *p_Config )
 591:Middlewares/ST/STM32_WPAN/interface/patterns/ble_thread/tl/tl_mbox.c **** {
 592:Middlewares/ST/STM32_WPAN/interface/patterns/ble_thread/tl/tl_mbox.c ****   static MB_MemManagerTable_t  * p_mem_manager_table;
 593:Middlewares/ST/STM32_WPAN/interface/patterns/ble_thread/tl/tl_mbox.c **** 
 594:Middlewares/ST/STM32_WPAN/interface/patterns/ble_thread/tl/tl_mbox.c ****   LST_init_head (&FreeBufQueue);
 595:Middlewares/ST/STM32_WPAN/interface/patterns/ble_thread/tl/tl_mbox.c ****   LST_init_head (&LocalFreeBufQueue);
 596:Middlewares/ST/STM32_WPAN/interface/patterns/ble_thread/tl/tl_mbox.c **** 
 597:Middlewares/ST/STM32_WPAN/interface/patterns/ble_thread/tl/tl_mbox.c ****   p_mem_manager_table = TL_RefTable.p_mem_manager_table;
 598:Middlewares/ST/STM32_WPAN/interface/patterns/ble_thread/tl/tl_mbox.c **** 
 599:Middlewares/ST/STM32_WPAN/interface/patterns/ble_thread/tl/tl_mbox.c ****   p_mem_manager_table->blepool = p_Config->p_AsynchEvtPool;
 600:Middlewares/ST/STM32_WPAN/interface/patterns/ble_thread/tl/tl_mbox.c ****   p_mem_manager_table->blepoolsize = p_Config->AsynchEvtPoolSize;
 601:Middlewares/ST/STM32_WPAN/interface/patterns/ble_thread/tl/tl_mbox.c ****   p_mem_manager_table->pevt_free_buffer_queue = (uint8_t*)&FreeBufQueue;
ARM GAS  /var/folders/lt/l_qrc8c54t93n_phsj7cf5tc0000gn/T//cc8yIxSZ.s 			page 12


 602:Middlewares/ST/STM32_WPAN/interface/patterns/ble_thread/tl/tl_mbox.c ****   p_mem_manager_table->spare_ble_buffer = p_Config->p_BleSpareEvtBuffer;
 603:Middlewares/ST/STM32_WPAN/interface/patterns/ble_thread/tl/tl_mbox.c ****   p_mem_manager_table->spare_sys_buffer = p_Config->p_SystemSpareEvtBuffer;
 604:Middlewares/ST/STM32_WPAN/interface/patterns/ble_thread/tl/tl_mbox.c ****   p_mem_manager_table->traces_evt_pool = p_Config->p_TracesEvtPool;
 605:Middlewares/ST/STM32_WPAN/interface/patterns/ble_thread/tl/tl_mbox.c ****   p_mem_manager_table->tracespoolsize = p_Config->TracesEvtPoolSize;
 606:Middlewares/ST/STM32_WPAN/interface/patterns/ble_thread/tl/tl_mbox.c **** 
 607:Middlewares/ST/STM32_WPAN/interface/patterns/ble_thread/tl/tl_mbox.c ****   return;
 608:Middlewares/ST/STM32_WPAN/interface/patterns/ble_thread/tl/tl_mbox.c **** }
 609:Middlewares/ST/STM32_WPAN/interface/patterns/ble_thread/tl/tl_mbox.c **** 
 610:Middlewares/ST/STM32_WPAN/interface/patterns/ble_thread/tl/tl_mbox.c **** void TL_MM_EvtDone(TL_EvtPacket_t * phcievt)
 611:Middlewares/ST/STM32_WPAN/interface/patterns/ble_thread/tl/tl_mbox.c **** {
 612:Middlewares/ST/STM32_WPAN/interface/patterns/ble_thread/tl/tl_mbox.c ****   LST_insert_tail(&LocalFreeBufQueue, (tListNode *)phcievt);
 613:Middlewares/ST/STM32_WPAN/interface/patterns/ble_thread/tl/tl_mbox.c **** 
 614:Middlewares/ST/STM32_WPAN/interface/patterns/ble_thread/tl/tl_mbox.c ****   OutputDbgTrace(TL_MB_MM_RELEASE_BUFFER, (uint8_t*)phcievt);
 615:Middlewares/ST/STM32_WPAN/interface/patterns/ble_thread/tl/tl_mbox.c **** 
 616:Middlewares/ST/STM32_WPAN/interface/patterns/ble_thread/tl/tl_mbox.c ****   HW_IPCC_MM_SendFreeBuf( SendFreeBuf );
 617:Middlewares/ST/STM32_WPAN/interface/patterns/ble_thread/tl/tl_mbox.c **** 
 618:Middlewares/ST/STM32_WPAN/interface/patterns/ble_thread/tl/tl_mbox.c ****   return;
 619:Middlewares/ST/STM32_WPAN/interface/patterns/ble_thread/tl/tl_mbox.c **** }
 620:Middlewares/ST/STM32_WPAN/interface/patterns/ble_thread/tl/tl_mbox.c **** 
 621:Middlewares/ST/STM32_WPAN/interface/patterns/ble_thread/tl/tl_mbox.c **** static void SendFreeBuf( void )
 622:Middlewares/ST/STM32_WPAN/interface/patterns/ble_thread/tl/tl_mbox.c **** {
  28              		.loc 1 622 1 view -0
  29              		.cfi_startproc
  30              		@ args = 0, pretend = 0, frame = 8
  31              		@ frame_needed = 0, uses_anonymous_args = 0
  32 0000 00B5     		push	{lr}
  33              	.LCFI0:
  34              		.cfi_def_cfa_offset 4
  35              		.cfi_offset 14, -4
  36 0002 83B0     		sub	sp, sp, #12
  37              	.LCFI1:
  38              		.cfi_def_cfa_offset 16
 623:Middlewares/ST/STM32_WPAN/interface/patterns/ble_thread/tl/tl_mbox.c ****   tListNode *p_node;
  39              		.loc 1 623 3 view .LVU1
 624:Middlewares/ST/STM32_WPAN/interface/patterns/ble_thread/tl/tl_mbox.c **** 
 625:Middlewares/ST/STM32_WPAN/interface/patterns/ble_thread/tl/tl_mbox.c ****   while ( FALSE == LST_is_empty (&LocalFreeBufQueue) )
  40              		.loc 1 625 3 view .LVU2
  41              	.L2:
  42              		.loc 1 625 9 view .LVU3
  43              		.loc 1 625 20 is_stmt 0 view .LVU4
  44 0004 0848     		ldr	r0, .L6
  45 0006 FFF7FEFF 		bl	LST_is_empty
  46              	.LVL0:
  47              		.loc 1 625 9 view .LVU5
  48 000a 50B9     		cbnz	r0, .L5
 626:Middlewares/ST/STM32_WPAN/interface/patterns/ble_thread/tl/tl_mbox.c ****   {
 627:Middlewares/ST/STM32_WPAN/interface/patterns/ble_thread/tl/tl_mbox.c ****     LST_remove_head( &LocalFreeBufQueue, (tListNode **)&p_node );
  49              		.loc 1 627 5 is_stmt 1 view .LVU6
  50 000c 01A9     		add	r1, sp, #4
  51 000e 0648     		ldr	r0, .L6
  52 0010 FFF7FEFF 		bl	LST_remove_head
  53              	.LVL1:
 628:Middlewares/ST/STM32_WPAN/interface/patterns/ble_thread/tl/tl_mbox.c ****     LST_insert_tail( (tListNode*)(TL_RefTable.p_mem_manager_table->pevt_free_buffer_queue), p_node 
  54              		.loc 1 628 5 view .LVU7
  55              		.loc 1 628 46 is_stmt 0 view .LVU8
  56 0014 054B     		ldr	r3, .L6+4
  57 0016 1B69     		ldr	r3, [r3, #16]
ARM GAS  /var/folders/lt/l_qrc8c54t93n_phsj7cf5tc0000gn/T//cc8yIxSZ.s 			page 13


  58              		.loc 1 628 5 view .LVU9
  59 0018 0199     		ldr	r1, [sp, #4]
  60 001a 1869     		ldr	r0, [r3, #16]
  61 001c FFF7FEFF 		bl	LST_insert_tail
  62              	.LVL2:
  63 0020 F0E7     		b	.L2
  64              	.L5:
 629:Middlewares/ST/STM32_WPAN/interface/patterns/ble_thread/tl/tl_mbox.c ****   }
 630:Middlewares/ST/STM32_WPAN/interface/patterns/ble_thread/tl/tl_mbox.c **** 
 631:Middlewares/ST/STM32_WPAN/interface/patterns/ble_thread/tl/tl_mbox.c ****   return;
 632:Middlewares/ST/STM32_WPAN/interface/patterns/ble_thread/tl/tl_mbox.c **** }
  65              		.loc 1 632 1 view .LVU10
  66 0022 03B0     		add	sp, sp, #12
  67              	.LCFI2:
  68              		.cfi_def_cfa_offset 4
  69              		@ sp needed
  70 0024 5DF804FB 		ldr	pc, [sp], #4
  71              	.L7:
  72              		.align	2
  73              	.L6:
  74 0028 00000000 		.word	.LANCHOR0
  75 002c 00000000 		.word	.LANCHOR1
  76              		.cfi_endproc
  77              	.LFE1274:
  79              		.section	.text.TL_Enable,"ax",%progbits
  80              		.align	1
  81              		.global	TL_Enable
  82              		.syntax unified
  83              		.thumb
  84              		.thumb_func
  85              		.fpu fpv4-sp-d16
  87              	TL_Enable:
  88              	.LFB1261:
  83:Middlewares/ST/STM32_WPAN/interface/patterns/ble_thread/tl/tl_mbox.c ****   HW_IPCC_Enable();
  89              		.loc 1 83 1 is_stmt 1 view -0
  90              		.cfi_startproc
  91              		@ args = 0, pretend = 0, frame = 0
  92              		@ frame_needed = 0, uses_anonymous_args = 0
  93 0000 08B5     		push	{r3, lr}
  94              	.LCFI3:
  95              		.cfi_def_cfa_offset 8
  96              		.cfi_offset 3, -8
  97              		.cfi_offset 14, -4
  84:Middlewares/ST/STM32_WPAN/interface/patterns/ble_thread/tl/tl_mbox.c **** 
  98              		.loc 1 84 3 view .LVU12
  99 0002 FFF7FEFF 		bl	HW_IPCC_Enable
 100              	.LVL3:
  86:Middlewares/ST/STM32_WPAN/interface/patterns/ble_thread/tl/tl_mbox.c **** }
 101              		.loc 1 86 3 view .LVU13
  87:Middlewares/ST/STM32_WPAN/interface/patterns/ble_thread/tl/tl_mbox.c **** 
 102              		.loc 1 87 1 is_stmt 0 view .LVU14
 103 0006 08BD     		pop	{r3, pc}
 104              		.cfi_endproc
 105              	.LFE1261:
 107              		.section	.text.TL_Init,"ax",%progbits
 108              		.align	1
 109              		.global	TL_Init
ARM GAS  /var/folders/lt/l_qrc8c54t93n_phsj7cf5tc0000gn/T//cc8yIxSZ.s 			page 14


 110              		.syntax unified
 111              		.thumb
 112              		.thumb_func
 113              		.fpu fpv4-sp-d16
 115              	TL_Init:
 116              	.LFB1262:
  91:Middlewares/ST/STM32_WPAN/interface/patterns/ble_thread/tl/tl_mbox.c ****   TL_RefTable.p_device_info_table = &TL_DeviceInfoTable;
 117              		.loc 1 91 1 is_stmt 1 view -0
 118              		.cfi_startproc
 119              		@ args = 0, pretend = 0, frame = 0
 120              		@ frame_needed = 0, uses_anonymous_args = 0
 121 0000 08B5     		push	{r3, lr}
 122              	.LCFI4:
 123              		.cfi_def_cfa_offset 8
 124              		.cfi_offset 3, -8
 125              		.cfi_offset 14, -4
  92:Middlewares/ST/STM32_WPAN/interface/patterns/ble_thread/tl/tl_mbox.c ****   TL_RefTable.p_ble_table = &TL_BleTable;
 126              		.loc 1 92 3 view .LVU16
  92:Middlewares/ST/STM32_WPAN/interface/patterns/ble_thread/tl/tl_mbox.c ****   TL_RefTable.p_ble_table = &TL_BleTable;
 127              		.loc 1 92 35 is_stmt 0 view .LVU17
 128 0002 104A     		ldr	r2, .L12
 129 0004 104B     		ldr	r3, .L12+4
 130 0006 1360     		str	r3, [r2]
  93:Middlewares/ST/STM32_WPAN/interface/patterns/ble_thread/tl/tl_mbox.c ****   TL_RefTable.p_thread_table = &TL_ThreadTable;
 131              		.loc 1 93 3 is_stmt 1 view .LVU18
  93:Middlewares/ST/STM32_WPAN/interface/patterns/ble_thread/tl/tl_mbox.c ****   TL_RefTable.p_thread_table = &TL_ThreadTable;
 132              		.loc 1 93 27 is_stmt 0 view .LVU19
 133 0008 03F12001 		add	r1, r3, #32
 134 000c 5160     		str	r1, [r2, #4]
  94:Middlewares/ST/STM32_WPAN/interface/patterns/ble_thread/tl/tl_mbox.c ****   TL_RefTable.p_lld_tests_table = &TL_LldTestsTable;
 135              		.loc 1 94 3 is_stmt 1 view .LVU20
  94:Middlewares/ST/STM32_WPAN/interface/patterns/ble_thread/tl/tl_mbox.c ****   TL_RefTable.p_lld_tests_table = &TL_LldTestsTable;
 136              		.loc 1 94 30 is_stmt 0 view .LVU21
 137 000e 03F13001 		add	r1, r3, #48
 138 0012 9160     		str	r1, [r2, #8]
  95:Middlewares/ST/STM32_WPAN/interface/patterns/ble_thread/tl/tl_mbox.c ****   TL_RefTable.p_ble_lld_table = &TL_BleLldTable;
 139              		.loc 1 95 3 is_stmt 1 view .LVU22
  95:Middlewares/ST/STM32_WPAN/interface/patterns/ble_thread/tl/tl_mbox.c ****   TL_RefTable.p_ble_lld_table = &TL_BleLldTable;
 140              		.loc 1 95 33 is_stmt 0 view .LVU23
 141 0014 03F13C01 		add	r1, r3, #60
 142 0018 1162     		str	r1, [r2, #32]
  96:Middlewares/ST/STM32_WPAN/interface/patterns/ble_thread/tl/tl_mbox.c ****   TL_RefTable.p_sys_table = &TL_SysTable;
 143              		.loc 1 96 3 is_stmt 1 view .LVU24
  96:Middlewares/ST/STM32_WPAN/interface/patterns/ble_thread/tl/tl_mbox.c ****   TL_RefTable.p_sys_table = &TL_SysTable;
 144              		.loc 1 96 31 is_stmt 0 view .LVU25
 145 001a 03F14401 		add	r1, r3, #68
 146 001e 5162     		str	r1, [r2, #36]
  97:Middlewares/ST/STM32_WPAN/interface/patterns/ble_thread/tl/tl_mbox.c ****   TL_RefTable.p_mem_manager_table = &TL_MemManagerTable;
 147              		.loc 1 97 3 is_stmt 1 view .LVU26
  97:Middlewares/ST/STM32_WPAN/interface/patterns/ble_thread/tl/tl_mbox.c ****   TL_RefTable.p_mem_manager_table = &TL_MemManagerTable;
 148              		.loc 1 97 27 is_stmt 0 view .LVU27
 149 0020 03F14C01 		add	r1, r3, #76
 150 0024 D160     		str	r1, [r2, #12]
  98:Middlewares/ST/STM32_WPAN/interface/patterns/ble_thread/tl/tl_mbox.c ****   TL_RefTable.p_traces_table = &TL_TracesTable;
 151              		.loc 1 98 3 is_stmt 1 view .LVU28
  98:Middlewares/ST/STM32_WPAN/interface/patterns/ble_thread/tl/tl_mbox.c ****   TL_RefTable.p_traces_table = &TL_TracesTable;
 152              		.loc 1 98 35 is_stmt 0 view .LVU29
ARM GAS  /var/folders/lt/l_qrc8c54t93n_phsj7cf5tc0000gn/T//cc8yIxSZ.s 			page 15


 153 0026 03F15401 		add	r1, r3, #84
 154 002a 1161     		str	r1, [r2, #16]
  99:Middlewares/ST/STM32_WPAN/interface/patterns/ble_thread/tl/tl_mbox.c ****   TL_RefTable.p_mac_802_15_4_table = &TL_Mac_802_15_4_Table;
 155              		.loc 1 99 3 is_stmt 1 view .LVU30
  99:Middlewares/ST/STM32_WPAN/interface/patterns/ble_thread/tl/tl_mbox.c ****   TL_RefTable.p_mac_802_15_4_table = &TL_Mac_802_15_4_Table;
 156              		.loc 1 99 30 is_stmt 0 view .LVU31
 157 002c 03F17001 		add	r1, r3, #112
 158 0030 5161     		str	r1, [r2, #20]
 100:Middlewares/ST/STM32_WPAN/interface/patterns/ble_thread/tl/tl_mbox.c ****   TL_RefTable.p_zigbee_table = &TL_Zigbee_Table;
 159              		.loc 1 100 3 is_stmt 1 view .LVU32
 100:Middlewares/ST/STM32_WPAN/interface/patterns/ble_thread/tl/tl_mbox.c ****   TL_RefTable.p_zigbee_table = &TL_Zigbee_Table;
 160              		.loc 1 100 36 is_stmt 0 view .LVU33
 161 0032 03F17401 		add	r1, r3, #116
 162 0036 9161     		str	r1, [r2, #24]
 101:Middlewares/ST/STM32_WPAN/interface/patterns/ble_thread/tl/tl_mbox.c ****   HW_IPCC_Init();
 163              		.loc 1 101 3 is_stmt 1 view .LVU34
 101:Middlewares/ST/STM32_WPAN/interface/patterns/ble_thread/tl/tl_mbox.c ****   HW_IPCC_Init();
 164              		.loc 1 101 30 is_stmt 0 view .LVU35
 165 0038 8033     		adds	r3, r3, #128
 166 003a D361     		str	r3, [r2, #28]
 102:Middlewares/ST/STM32_WPAN/interface/patterns/ble_thread/tl/tl_mbox.c **** 
 167              		.loc 1 102 3 is_stmt 1 view .LVU36
 168 003c FFF7FEFF 		bl	HW_IPCC_Init
 169              	.LVL4:
 104:Middlewares/ST/STM32_WPAN/interface/patterns/ble_thread/tl/tl_mbox.c **** }
 170              		.loc 1 104 3 view .LVU37
 105:Middlewares/ST/STM32_WPAN/interface/patterns/ble_thread/tl/tl_mbox.c **** 
 171              		.loc 1 105 1 is_stmt 0 view .LVU38
 172 0040 08BD     		pop	{r3, pc}
 173              	.L13:
 174 0042 00BF     		.align	2
 175              	.L12:
 176 0044 00000000 		.word	.LANCHOR1
 177 0048 00000000 		.word	.LANCHOR2
 178              		.cfi_endproc
 179              	.LFE1262:
 181              		.section	.text.TL_BLE_Init,"ax",%progbits
 182              		.align	1
 183              		.global	TL_BLE_Init
 184              		.syntax unified
 185              		.thumb
 186              		.thumb_func
 187              		.fpu fpv4-sp-d16
 189              	TL_BLE_Init:
 190              	.LVL5:
 191              	.LFB1263:
 111:Middlewares/ST/STM32_WPAN/interface/patterns/ble_thread/tl/tl_mbox.c ****   MB_BleTable_t  * p_bletable;
 192              		.loc 1 111 1 is_stmt 1 view -0
 193              		.cfi_startproc
 194              		@ args = 0, pretend = 0, frame = 0
 195              		@ frame_needed = 0, uses_anonymous_args = 0
 111:Middlewares/ST/STM32_WPAN/interface/patterns/ble_thread/tl/tl_mbox.c ****   MB_BleTable_t  * p_bletable;
 196              		.loc 1 111 1 is_stmt 0 view .LVU40
 197 0000 38B5     		push	{r3, r4, r5, lr}
 198              	.LCFI5:
 199              		.cfi_def_cfa_offset 16
 200              		.cfi_offset 3, -16
ARM GAS  /var/folders/lt/l_qrc8c54t93n_phsj7cf5tc0000gn/T//cc8yIxSZ.s 			page 16


 201              		.cfi_offset 4, -12
 202              		.cfi_offset 5, -8
 203              		.cfi_offset 14, -4
 204 0002 0446     		mov	r4, r0
 112:Middlewares/ST/STM32_WPAN/interface/patterns/ble_thread/tl/tl_mbox.c **** 
 205              		.loc 1 112 3 is_stmt 1 view .LVU41
 114:Middlewares/ST/STM32_WPAN/interface/patterns/ble_thread/tl/tl_mbox.c **** 
 206              		.loc 1 114 3 view .LVU42
 207              	.LVL6:
 116:Middlewares/ST/STM32_WPAN/interface/patterns/ble_thread/tl/tl_mbox.c **** 
 208              		.loc 1 116 3 view .LVU43
 209 0004 0B4D     		ldr	r5, .L16
 210 0006 2846     		mov	r0, r5
 211              	.LVL7:
 116:Middlewares/ST/STM32_WPAN/interface/patterns/ble_thread/tl/tl_mbox.c **** 
 212              		.loc 1 116 3 is_stmt 0 view .LVU44
 213 0008 FFF7FEFF 		bl	LST_init_head
 214              	.LVL8:
 118:Middlewares/ST/STM32_WPAN/interface/patterns/ble_thread/tl/tl_mbox.c **** 
 215              		.loc 1 118 3 is_stmt 1 view .LVU45
 118:Middlewares/ST/STM32_WPAN/interface/patterns/ble_thread/tl/tl_mbox.c **** 
 216              		.loc 1 118 14 is_stmt 0 view .LVU46
 217 000c 0A4B     		ldr	r3, .L16+4
 218 000e 5B68     		ldr	r3, [r3, #4]
 219              	.LVL9:
 120:Middlewares/ST/STM32_WPAN/interface/patterns/ble_thread/tl/tl_mbox.c ****   p_bletable->phci_acl_data_buffer = pInitHciConf->p_AclDataBuffer;
 220              		.loc 1 120 3 is_stmt 1 view .LVU47
 120:Middlewares/ST/STM32_WPAN/interface/patterns/ble_thread/tl/tl_mbox.c ****   p_bletable->phci_acl_data_buffer = pInitHciConf->p_AclDataBuffer;
 221              		.loc 1 120 41 is_stmt 0 view .LVU48
 222 0010 A268     		ldr	r2, [r4, #8]
 120:Middlewares/ST/STM32_WPAN/interface/patterns/ble_thread/tl/tl_mbox.c ****   p_bletable->phci_acl_data_buffer = pInitHciConf->p_AclDataBuffer;
 223              		.loc 1 120 27 view .LVU49
 224 0012 1A60     		str	r2, [r3]
 121:Middlewares/ST/STM32_WPAN/interface/patterns/ble_thread/tl/tl_mbox.c ****   p_bletable->pcs_buffer  = (uint8_t*)CsBuffer;
 225              		.loc 1 121 3 is_stmt 1 view .LVU50
 121:Middlewares/ST/STM32_WPAN/interface/patterns/ble_thread/tl/tl_mbox.c ****   p_bletable->pcs_buffer  = (uint8_t*)CsBuffer;
 226              		.loc 1 121 50 is_stmt 0 view .LVU51
 227 0014 E268     		ldr	r2, [r4, #12]
 121:Middlewares/ST/STM32_WPAN/interface/patterns/ble_thread/tl/tl_mbox.c ****   p_bletable->pcs_buffer  = (uint8_t*)CsBuffer;
 228              		.loc 1 121 36 view .LVU52
 229 0016 DA60     		str	r2, [r3, #12]
 122:Middlewares/ST/STM32_WPAN/interface/patterns/ble_thread/tl/tl_mbox.c ****   p_bletable->pevt_queue  = (uint8_t*)&EvtQueue;
 230              		.loc 1 122 3 is_stmt 1 view .LVU53
 122:Middlewares/ST/STM32_WPAN/interface/patterns/ble_thread/tl/tl_mbox.c ****   p_bletable->pevt_queue  = (uint8_t*)&EvtQueue;
 231              		.loc 1 122 27 is_stmt 0 view .LVU54
 232 0018 084A     		ldr	r2, .L16+8
 233 001a 5A60     		str	r2, [r3, #4]
 123:Middlewares/ST/STM32_WPAN/interface/patterns/ble_thread/tl/tl_mbox.c **** 
 234              		.loc 1 123 3 is_stmt 1 view .LVU55
 123:Middlewares/ST/STM32_WPAN/interface/patterns/ble_thread/tl/tl_mbox.c **** 
 235              		.loc 1 123 27 is_stmt 0 view .LVU56
 236 001c 9D60     		str	r5, [r3, #8]
 125:Middlewares/ST/STM32_WPAN/interface/patterns/ble_thread/tl/tl_mbox.c **** 
 237              		.loc 1 125 3 is_stmt 1 view .LVU57
 238 001e FFF7FEFF 		bl	HW_IPCC_BLE_Init
 239              	.LVL10:
 127:Middlewares/ST/STM32_WPAN/interface/patterns/ble_thread/tl/tl_mbox.c ****   BLE_IoBusAclDataTxAck = pInitHciConf->IoBusAclDataTxAck;
ARM GAS  /var/folders/lt/l_qrc8c54t93n_phsj7cf5tc0000gn/T//cc8yIxSZ.s 			page 17


 240              		.loc 1 127 3 view .LVU58
 127:Middlewares/ST/STM32_WPAN/interface/patterns/ble_thread/tl/tl_mbox.c ****   BLE_IoBusAclDataTxAck = pInitHciConf->IoBusAclDataTxAck;
 241              		.loc 1 127 46 is_stmt 0 view .LVU59
 242 0022 2268     		ldr	r2, [r4]
 127:Middlewares/ST/STM32_WPAN/interface/patterns/ble_thread/tl/tl_mbox.c ****   BLE_IoBusAclDataTxAck = pInitHciConf->IoBusAclDataTxAck;
 243              		.loc 1 127 32 view .LVU60
 244 0024 064B     		ldr	r3, .L16+12
 245 0026 1A60     		str	r2, [r3]
 128:Middlewares/ST/STM32_WPAN/interface/patterns/ble_thread/tl/tl_mbox.c **** 
 246              		.loc 1 128 3 is_stmt 1 view .LVU61
 128:Middlewares/ST/STM32_WPAN/interface/patterns/ble_thread/tl/tl_mbox.c **** 
 247              		.loc 1 128 39 is_stmt 0 view .LVU62
 248 0028 6268     		ldr	r2, [r4, #4]
 128:Middlewares/ST/STM32_WPAN/interface/patterns/ble_thread/tl/tl_mbox.c **** 
 249              		.loc 1 128 25 view .LVU63
 250 002a 064B     		ldr	r3, .L16+16
 251 002c 1A60     		str	r2, [r3]
 130:Middlewares/ST/STM32_WPAN/interface/patterns/ble_thread/tl/tl_mbox.c **** }
 252              		.loc 1 130 3 is_stmt 1 view .LVU64
 131:Middlewares/ST/STM32_WPAN/interface/patterns/ble_thread/tl/tl_mbox.c **** 
 253              		.loc 1 131 1 is_stmt 0 view .LVU65
 254 002e 0020     		movs	r0, #0
 255 0030 38BD     		pop	{r3, r4, r5, pc}
 256              	.LVL11:
 257              	.L17:
 131:Middlewares/ST/STM32_WPAN/interface/patterns/ble_thread/tl/tl_mbox.c **** 
 258              		.loc 1 131 1 view .LVU66
 259 0032 00BF     		.align	2
 260              	.L16:
 261 0034 8C000000 		.word	.LANCHOR2+140
 262 0038 00000000 		.word	.LANCHOR1
 263 003c 00000000 		.word	.LANCHOR3
 264 0040 00000000 		.word	.LANCHOR4
 265 0044 00000000 		.word	.LANCHOR5
 266              		.cfi_endproc
 267              	.LFE1263:
 269              		.section	.text.TL_BLE_SendCmd,"ax",%progbits
 270              		.align	1
 271              		.global	TL_BLE_SendCmd
 272              		.syntax unified
 273              		.thumb
 274              		.thumb_func
 275              		.fpu fpv4-sp-d16
 277              	TL_BLE_SendCmd:
 278              	.LVL12:
 279              	.LFB1264:
 134:Middlewares/ST/STM32_WPAN/interface/patterns/ble_thread/tl/tl_mbox.c ****   (void)(buffer);
 280              		.loc 1 134 1 is_stmt 1 view -0
 281              		.cfi_startproc
 282              		@ args = 0, pretend = 0, frame = 0
 283              		@ frame_needed = 0, uses_anonymous_args = 0
 134:Middlewares/ST/STM32_WPAN/interface/patterns/ble_thread/tl/tl_mbox.c ****   (void)(buffer);
 284              		.loc 1 134 1 is_stmt 0 view .LVU68
 285 0000 08B5     		push	{r3, lr}
 286              	.LCFI6:
 287              		.cfi_def_cfa_offset 8
 288              		.cfi_offset 3, -8
ARM GAS  /var/folders/lt/l_qrc8c54t93n_phsj7cf5tc0000gn/T//cc8yIxSZ.s 			page 18


 289              		.cfi_offset 14, -4
 135:Middlewares/ST/STM32_WPAN/interface/patterns/ble_thread/tl/tl_mbox.c ****   (void)(size);
 290              		.loc 1 135 3 is_stmt 1 view .LVU69
 136:Middlewares/ST/STM32_WPAN/interface/patterns/ble_thread/tl/tl_mbox.c **** 
 291              		.loc 1 136 3 view .LVU70
 138:Middlewares/ST/STM32_WPAN/interface/patterns/ble_thread/tl/tl_mbox.c **** 
 292              		.loc 1 138 3 view .LVU71
 138:Middlewares/ST/STM32_WPAN/interface/patterns/ble_thread/tl/tl_mbox.c **** 
 293              		.loc 1 138 33 is_stmt 0 view .LVU72
 294 0002 054B     		ldr	r3, .L20
 295 0004 5A68     		ldr	r2, [r3, #4]
 138:Middlewares/ST/STM32_WPAN/interface/patterns/ble_thread/tl/tl_mbox.c **** 
 296              		.loc 1 138 45 view .LVU73
 297 0006 1268     		ldr	r2, [r2]
 138:Middlewares/ST/STM32_WPAN/interface/patterns/ble_thread/tl/tl_mbox.c **** 
 298              		.loc 1 138 77 view .LVU74
 299 0008 0121     		movs	r1, #1
 300              	.LVL13:
 138:Middlewares/ST/STM32_WPAN/interface/patterns/ble_thread/tl/tl_mbox.c **** 
 301              		.loc 1 138 77 view .LVU75
 302 000a 1172     		strb	r1, [r2, #8]
 140:Middlewares/ST/STM32_WPAN/interface/patterns/ble_thread/tl/tl_mbox.c **** 
 303              		.loc 1 140 3 is_stmt 1 view .LVU76
 140:Middlewares/ST/STM32_WPAN/interface/patterns/ble_thread/tl/tl_mbox.c **** 
 304              		.loc 1 140 44 is_stmt 0 view .LVU77
 305 000c 5B68     		ldr	r3, [r3, #4]
 142:Middlewares/ST/STM32_WPAN/interface/patterns/ble_thread/tl/tl_mbox.c **** 
 306              		.loc 1 142 3 is_stmt 1 view .LVU78
 307 000e FFF7FEFF 		bl	HW_IPCC_BLE_SendCmd
 308              	.LVL14:
 144:Middlewares/ST/STM32_WPAN/interface/patterns/ble_thread/tl/tl_mbox.c **** }
 309              		.loc 1 144 3 view .LVU79
 145:Middlewares/ST/STM32_WPAN/interface/patterns/ble_thread/tl/tl_mbox.c **** 
 310              		.loc 1 145 1 is_stmt 0 view .LVU80
 311 0012 0020     		movs	r0, #0
 312 0014 08BD     		pop	{r3, pc}
 313              	.L21:
 314 0016 00BF     		.align	2
 315              	.L20:
 316 0018 00000000 		.word	.LANCHOR1
 317              		.cfi_endproc
 318              	.LFE1264:
 320              		.section	.text.HW_IPCC_BLE_RxEvtNot,"ax",%progbits
 321              		.align	1
 322              		.global	HW_IPCC_BLE_RxEvtNot
 323              		.syntax unified
 324              		.thumb
 325              		.thumb_func
 326              		.fpu fpv4-sp-d16
 328              	HW_IPCC_BLE_RxEvtNot:
 329              	.LFB1265:
 148:Middlewares/ST/STM32_WPAN/interface/patterns/ble_thread/tl/tl_mbox.c ****   TL_EvtPacket_t *phcievt;
 330              		.loc 1 148 1 is_stmt 1 view -0
 331              		.cfi_startproc
 332              		@ args = 0, pretend = 0, frame = 8
 333              		@ frame_needed = 0, uses_anonymous_args = 0
 334 0000 00B5     		push	{lr}
ARM GAS  /var/folders/lt/l_qrc8c54t93n_phsj7cf5tc0000gn/T//cc8yIxSZ.s 			page 19


 335              	.LCFI7:
 336              		.cfi_def_cfa_offset 4
 337              		.cfi_offset 14, -4
 338 0002 83B0     		sub	sp, sp, #12
 339              	.LCFI8:
 340              		.cfi_def_cfa_offset 16
 149:Middlewares/ST/STM32_WPAN/interface/patterns/ble_thread/tl/tl_mbox.c **** 
 341              		.loc 1 149 3 view .LVU82
 151:Middlewares/ST/STM32_WPAN/interface/patterns/ble_thread/tl/tl_mbox.c ****   {
 342              		.loc 1 151 3 view .LVU83
 343              	.L23:
 151:Middlewares/ST/STM32_WPAN/interface/patterns/ble_thread/tl/tl_mbox.c ****   {
 344              		.loc 1 151 8 view .LVU84
 151:Middlewares/ST/STM32_WPAN/interface/patterns/ble_thread/tl/tl_mbox.c ****   {
 345              		.loc 1 151 9 is_stmt 0 view .LVU85
 346 0004 0748     		ldr	r0, .L27
 347 0006 FFF7FEFF 		bl	LST_is_empty
 348              	.LVL15:
 151:Middlewares/ST/STM32_WPAN/interface/patterns/ble_thread/tl/tl_mbox.c ****   {
 349              		.loc 1 151 8 view .LVU86
 350 000a 40B9     		cbnz	r0, .L26
 153:Middlewares/ST/STM32_WPAN/interface/patterns/ble_thread/tl/tl_mbox.c **** 
 351              		.loc 1 153 5 is_stmt 1 view .LVU87
 352 000c 01A9     		add	r1, sp, #4
 353 000e 0548     		ldr	r0, .L27
 354 0010 FFF7FEFF 		bl	LST_remove_head
 355              	.LVL16:
 155:Middlewares/ST/STM32_WPAN/interface/patterns/ble_thread/tl/tl_mbox.c ****     {
 356              		.loc 1 155 5 view .LVU88
 164:Middlewares/ST/STM32_WPAN/interface/patterns/ble_thread/tl/tl_mbox.c ****   }
 357              		.loc 1 164 5 view .LVU89
 358 0014 044B     		ldr	r3, .L27+4
 359 0016 1B68     		ldr	r3, [r3]
 360 0018 0198     		ldr	r0, [sp, #4]
 361 001a 9847     		blx	r3
 362              	.LVL17:
 363 001c F2E7     		b	.L23
 364              	.L26:
 168:Middlewares/ST/STM32_WPAN/interface/patterns/ble_thread/tl/tl_mbox.c **** 
 365              		.loc 1 168 1 is_stmt 0 view .LVU90
 366 001e 03B0     		add	sp, sp, #12
 367              	.LCFI9:
 368              		.cfi_def_cfa_offset 4
 369              		@ sp needed
 370 0020 5DF804FB 		ldr	pc, [sp], #4
 371              	.L28:
 372              		.align	2
 373              	.L27:
 374 0024 8C000000 		.word	.LANCHOR2+140
 375 0028 00000000 		.word	.LANCHOR4
 376              		.cfi_endproc
 377              	.LFE1265:
 379              		.section	.text.TL_BLE_SendAclData,"ax",%progbits
 380              		.align	1
 381              		.global	TL_BLE_SendAclData
 382              		.syntax unified
 383              		.thumb
ARM GAS  /var/folders/lt/l_qrc8c54t93n_phsj7cf5tc0000gn/T//cc8yIxSZ.s 			page 20


 384              		.thumb_func
 385              		.fpu fpv4-sp-d16
 387              	TL_BLE_SendAclData:
 388              	.LVL18:
 389              	.LFB1266:
 171:Middlewares/ST/STM32_WPAN/interface/patterns/ble_thread/tl/tl_mbox.c ****   (void)(buffer);
 390              		.loc 1 171 1 is_stmt 1 view -0
 391              		.cfi_startproc
 392              		@ args = 0, pretend = 0, frame = 0
 393              		@ frame_needed = 0, uses_anonymous_args = 0
 171:Middlewares/ST/STM32_WPAN/interface/patterns/ble_thread/tl/tl_mbox.c ****   (void)(buffer);
 394              		.loc 1 171 1 is_stmt 0 view .LVU92
 395 0000 08B5     		push	{r3, lr}
 396              	.LCFI10:
 397              		.cfi_def_cfa_offset 8
 398              		.cfi_offset 3, -8
 399              		.cfi_offset 14, -4
 172:Middlewares/ST/STM32_WPAN/interface/patterns/ble_thread/tl/tl_mbox.c ****   (void)(size);
 400              		.loc 1 172 3 is_stmt 1 view .LVU93
 173:Middlewares/ST/STM32_WPAN/interface/patterns/ble_thread/tl/tl_mbox.c **** 
 401              		.loc 1 173 3 view .LVU94
 175:Middlewares/ST/STM32_WPAN/interface/patterns/ble_thread/tl/tl_mbox.c **** 
 402              		.loc 1 175 3 view .LVU95
 175:Middlewares/ST/STM32_WPAN/interface/patterns/ble_thread/tl/tl_mbox.c **** 
 403              		.loc 1 175 38 is_stmt 0 view .LVU96
 404 0002 044B     		ldr	r3, .L31
 405 0004 5B68     		ldr	r3, [r3, #4]
 175:Middlewares/ST/STM32_WPAN/interface/patterns/ble_thread/tl/tl_mbox.c **** 
 406              		.loc 1 175 50 view .LVU97
 407 0006 DB68     		ldr	r3, [r3, #12]
 175:Middlewares/ST/STM32_WPAN/interface/patterns/ble_thread/tl/tl_mbox.c **** 
 408              		.loc 1 175 95 view .LVU98
 409 0008 0222     		movs	r2, #2
 410 000a 1A72     		strb	r2, [r3, #8]
 177:Middlewares/ST/STM32_WPAN/interface/patterns/ble_thread/tl/tl_mbox.c **** 
 411              		.loc 1 177 3 is_stmt 1 view .LVU99
 412 000c FFF7FEFF 		bl	HW_IPCC_BLE_SendAclData
 413              	.LVL19:
 179:Middlewares/ST/STM32_WPAN/interface/patterns/ble_thread/tl/tl_mbox.c **** }
 414              		.loc 1 179 3 view .LVU100
 180:Middlewares/ST/STM32_WPAN/interface/patterns/ble_thread/tl/tl_mbox.c **** 
 415              		.loc 1 180 1 is_stmt 0 view .LVU101
 416 0010 0020     		movs	r0, #0
 417 0012 08BD     		pop	{r3, pc}
 418              	.L32:
 419              		.align	2
 420              	.L31:
 421 0014 00000000 		.word	.LANCHOR1
 422              		.cfi_endproc
 423              	.LFE1266:
 425              		.section	.text.HW_IPCC_BLE_AclDataAckNot,"ax",%progbits
 426              		.align	1
 427              		.global	HW_IPCC_BLE_AclDataAckNot
 428              		.syntax unified
 429              		.thumb
 430              		.thumb_func
 431              		.fpu fpv4-sp-d16
ARM GAS  /var/folders/lt/l_qrc8c54t93n_phsj7cf5tc0000gn/T//cc8yIxSZ.s 			page 21


 433              	HW_IPCC_BLE_AclDataAckNot:
 434              	.LFB1267:
 183:Middlewares/ST/STM32_WPAN/interface/patterns/ble_thread/tl/tl_mbox.c ****   BLE_IoBusAclDataTxAck( );
 435              		.loc 1 183 1 is_stmt 1 view -0
 436              		.cfi_startproc
 437              		@ args = 0, pretend = 0, frame = 0
 438              		@ frame_needed = 0, uses_anonymous_args = 0
 439 0000 08B5     		push	{r3, lr}
 440              	.LCFI11:
 441              		.cfi_def_cfa_offset 8
 442              		.cfi_offset 3, -8
 443              		.cfi_offset 14, -4
 184:Middlewares/ST/STM32_WPAN/interface/patterns/ble_thread/tl/tl_mbox.c **** 
 444              		.loc 1 184 3 view .LVU103
 445 0002 024B     		ldr	r3, .L35
 446 0004 1B68     		ldr	r3, [r3]
 447 0006 9847     		blx	r3
 448              	.LVL20:
 186:Middlewares/ST/STM32_WPAN/interface/patterns/ble_thread/tl/tl_mbox.c **** }
 449              		.loc 1 186 3 view .LVU104
 187:Middlewares/ST/STM32_WPAN/interface/patterns/ble_thread/tl/tl_mbox.c **** 
 450              		.loc 1 187 1 is_stmt 0 view .LVU105
 451 0008 08BD     		pop	{r3, pc}
 452              	.L36:
 453 000a 00BF     		.align	2
 454              	.L35:
 455 000c 00000000 		.word	.LANCHOR5
 456              		.cfi_endproc
 457              	.LFE1267:
 459              		.section	.text.TL_SYS_Init,"ax",%progbits
 460              		.align	1
 461              		.global	TL_SYS_Init
 462              		.syntax unified
 463              		.thumb
 464              		.thumb_func
 465              		.fpu fpv4-sp-d16
 467              	TL_SYS_Init:
 468              	.LVL21:
 469              	.LFB1268:
 193:Middlewares/ST/STM32_WPAN/interface/patterns/ble_thread/tl/tl_mbox.c ****   MB_SysTable_t  * p_systable;
 470              		.loc 1 193 1 is_stmt 1 view -0
 471              		.cfi_startproc
 472              		@ args = 0, pretend = 0, frame = 0
 473              		@ frame_needed = 0, uses_anonymous_args = 0
 193:Middlewares/ST/STM32_WPAN/interface/patterns/ble_thread/tl/tl_mbox.c ****   MB_SysTable_t  * p_systable;
 474              		.loc 1 193 1 is_stmt 0 view .LVU107
 475 0000 38B5     		push	{r3, r4, r5, lr}
 476              	.LCFI12:
 477              		.cfi_def_cfa_offset 16
 478              		.cfi_offset 3, -16
 479              		.cfi_offset 4, -12
 480              		.cfi_offset 5, -8
 481              		.cfi_offset 14, -4
 482 0002 0446     		mov	r4, r0
 194:Middlewares/ST/STM32_WPAN/interface/patterns/ble_thread/tl/tl_mbox.c **** 
 483              		.loc 1 194 3 is_stmt 1 view .LVU108
 196:Middlewares/ST/STM32_WPAN/interface/patterns/ble_thread/tl/tl_mbox.c **** 
ARM GAS  /var/folders/lt/l_qrc8c54t93n_phsj7cf5tc0000gn/T//cc8yIxSZ.s 			page 22


 484              		.loc 1 196 3 view .LVU109
 485              	.LVL22:
 198:Middlewares/ST/STM32_WPAN/interface/patterns/ble_thread/tl/tl_mbox.c ****   p_systable = TL_RefTable.p_sys_table;
 486              		.loc 1 198 3 view .LVU110
 487 0004 094D     		ldr	r5, .L39
 488 0006 2846     		mov	r0, r5
 489              	.LVL23:
 198:Middlewares/ST/STM32_WPAN/interface/patterns/ble_thread/tl/tl_mbox.c ****   p_systable = TL_RefTable.p_sys_table;
 490              		.loc 1 198 3 is_stmt 0 view .LVU111
 491 0008 FFF7FEFF 		bl	LST_init_head
 492              	.LVL24:
 199:Middlewares/ST/STM32_WPAN/interface/patterns/ble_thread/tl/tl_mbox.c ****   p_systable->pcmd_buffer = pInitHciConf->p_cmdbuffer;
 493              		.loc 1 199 3 is_stmt 1 view .LVU112
 199:Middlewares/ST/STM32_WPAN/interface/patterns/ble_thread/tl/tl_mbox.c ****   p_systable->pcmd_buffer = pInitHciConf->p_cmdbuffer;
 494              		.loc 1 199 14 is_stmt 0 view .LVU113
 495 000c 084B     		ldr	r3, .L39+4
 496 000e DB68     		ldr	r3, [r3, #12]
 497              	.LVL25:
 200:Middlewares/ST/STM32_WPAN/interface/patterns/ble_thread/tl/tl_mbox.c ****   p_systable->sys_queue = (uint8_t*)&SystemEvtQueue;
 498              		.loc 1 200 3 is_stmt 1 view .LVU114
 200:Middlewares/ST/STM32_WPAN/interface/patterns/ble_thread/tl/tl_mbox.c ****   p_systable->sys_queue = (uint8_t*)&SystemEvtQueue;
 499              		.loc 1 200 41 is_stmt 0 view .LVU115
 500 0010 A268     		ldr	r2, [r4, #8]
 200:Middlewares/ST/STM32_WPAN/interface/patterns/ble_thread/tl/tl_mbox.c ****   p_systable->sys_queue = (uint8_t*)&SystemEvtQueue;
 501              		.loc 1 200 27 view .LVU116
 502 0012 1A60     		str	r2, [r3]
 201:Middlewares/ST/STM32_WPAN/interface/patterns/ble_thread/tl/tl_mbox.c **** 
 503              		.loc 1 201 3 is_stmt 1 view .LVU117
 201:Middlewares/ST/STM32_WPAN/interface/patterns/ble_thread/tl/tl_mbox.c **** 
 504              		.loc 1 201 25 is_stmt 0 view .LVU118
 505 0014 5D60     		str	r5, [r3, #4]
 203:Middlewares/ST/STM32_WPAN/interface/patterns/ble_thread/tl/tl_mbox.c **** 
 506              		.loc 1 203 3 is_stmt 1 view .LVU119
 507 0016 FFF7FEFF 		bl	HW_IPCC_SYS_Init
 508              	.LVL26:
 205:Middlewares/ST/STM32_WPAN/interface/patterns/ble_thread/tl/tl_mbox.c ****   SYS_EVT_IoBusCallBackFunction = pInitHciConf->IoBusCallBackUserEvt;
 509              		.loc 1 205 3 view .LVU120
 205:Middlewares/ST/STM32_WPAN/interface/patterns/ble_thread/tl/tl_mbox.c ****   SYS_EVT_IoBusCallBackFunction = pInitHciConf->IoBusCallBackUserEvt;
 510              		.loc 1 205 47 is_stmt 0 view .LVU121
 511 001a 2268     		ldr	r2, [r4]
 205:Middlewares/ST/STM32_WPAN/interface/patterns/ble_thread/tl/tl_mbox.c ****   SYS_EVT_IoBusCallBackFunction = pInitHciConf->IoBusCallBackUserEvt;
 512              		.loc 1 205 33 view .LVU122
 513 001c 054B     		ldr	r3, .L39+8
 514 001e 1A60     		str	r2, [r3]
 206:Middlewares/ST/STM32_WPAN/interface/patterns/ble_thread/tl/tl_mbox.c **** 
 515              		.loc 1 206 3 is_stmt 1 view .LVU123
 206:Middlewares/ST/STM32_WPAN/interface/patterns/ble_thread/tl/tl_mbox.c **** 
 516              		.loc 1 206 47 is_stmt 0 view .LVU124
 517 0020 6268     		ldr	r2, [r4, #4]
 206:Middlewares/ST/STM32_WPAN/interface/patterns/ble_thread/tl/tl_mbox.c **** 
 518              		.loc 1 206 33 view .LVU125
 519 0022 054B     		ldr	r3, .L39+12
 520 0024 1A60     		str	r2, [r3]
 208:Middlewares/ST/STM32_WPAN/interface/patterns/ble_thread/tl/tl_mbox.c **** }
 521              		.loc 1 208 3 is_stmt 1 view .LVU126
 209:Middlewares/ST/STM32_WPAN/interface/patterns/ble_thread/tl/tl_mbox.c **** 
 522              		.loc 1 209 1 is_stmt 0 view .LVU127
ARM GAS  /var/folders/lt/l_qrc8c54t93n_phsj7cf5tc0000gn/T//cc8yIxSZ.s 			page 23


 523 0026 0020     		movs	r0, #0
 524 0028 38BD     		pop	{r3, r4, r5, pc}
 525              	.LVL27:
 526              	.L40:
 209:Middlewares/ST/STM32_WPAN/interface/patterns/ble_thread/tl/tl_mbox.c **** 
 527              		.loc 1 209 1 view .LVU128
 528 002a 00BF     		.align	2
 529              	.L39:
 530 002c 94000000 		.word	.LANCHOR2+148
 531 0030 00000000 		.word	.LANCHOR1
 532 0034 00000000 		.word	.LANCHOR6
 533 0038 00000000 		.word	.LANCHOR7
 534              		.cfi_endproc
 535              	.LFE1268:
 537              		.section	.text.TL_SYS_SendCmd,"ax",%progbits
 538              		.align	1
 539              		.global	TL_SYS_SendCmd
 540              		.syntax unified
 541              		.thumb
 542              		.thumb_func
 543              		.fpu fpv4-sp-d16
 545              	TL_SYS_SendCmd:
 546              	.LVL28:
 547              	.LFB1269:
 212:Middlewares/ST/STM32_WPAN/interface/patterns/ble_thread/tl/tl_mbox.c ****   (void)(buffer);
 548              		.loc 1 212 1 is_stmt 1 view -0
 549              		.cfi_startproc
 550              		@ args = 0, pretend = 0, frame = 0
 551              		@ frame_needed = 0, uses_anonymous_args = 0
 212:Middlewares/ST/STM32_WPAN/interface/patterns/ble_thread/tl/tl_mbox.c ****   (void)(buffer);
 552              		.loc 1 212 1 is_stmt 0 view .LVU130
 553 0000 08B5     		push	{r3, lr}
 554              	.LCFI13:
 555              		.cfi_def_cfa_offset 8
 556              		.cfi_offset 3, -8
 557              		.cfi_offset 14, -4
 213:Middlewares/ST/STM32_WPAN/interface/patterns/ble_thread/tl/tl_mbox.c ****   (void)(size);
 558              		.loc 1 213 3 is_stmt 1 view .LVU131
 214:Middlewares/ST/STM32_WPAN/interface/patterns/ble_thread/tl/tl_mbox.c **** 
 559              		.loc 1 214 3 view .LVU132
 216:Middlewares/ST/STM32_WPAN/interface/patterns/ble_thread/tl/tl_mbox.c **** 
 560              		.loc 1 216 3 view .LVU133
 216:Middlewares/ST/STM32_WPAN/interface/patterns/ble_thread/tl/tl_mbox.c **** 
 561              		.loc 1 216 34 is_stmt 0 view .LVU134
 562 0002 054B     		ldr	r3, .L43
 563 0004 DA68     		ldr	r2, [r3, #12]
 216:Middlewares/ST/STM32_WPAN/interface/patterns/ble_thread/tl/tl_mbox.c **** 
 564              		.loc 1 216 46 view .LVU135
 565 0006 1268     		ldr	r2, [r2]
 216:Middlewares/ST/STM32_WPAN/interface/patterns/ble_thread/tl/tl_mbox.c **** 
 566              		.loc 1 216 78 view .LVU136
 567 0008 1021     		movs	r1, #16
 568              	.LVL29:
 216:Middlewares/ST/STM32_WPAN/interface/patterns/ble_thread/tl/tl_mbox.c **** 
 569              		.loc 1 216 78 view .LVU137
 570 000a 1172     		strb	r1, [r2, #8]
 218:Middlewares/ST/STM32_WPAN/interface/patterns/ble_thread/tl/tl_mbox.c **** 
ARM GAS  /var/folders/lt/l_qrc8c54t93n_phsj7cf5tc0000gn/T//cc8yIxSZ.s 			page 24


 571              		.loc 1 218 3 is_stmt 1 view .LVU138
 218:Middlewares/ST/STM32_WPAN/interface/patterns/ble_thread/tl/tl_mbox.c **** 
 572              		.loc 1 218 44 is_stmt 0 view .LVU139
 573 000c DB68     		ldr	r3, [r3, #12]
 220:Middlewares/ST/STM32_WPAN/interface/patterns/ble_thread/tl/tl_mbox.c **** 
 574              		.loc 1 220 3 is_stmt 1 view .LVU140
 575 000e FFF7FEFF 		bl	HW_IPCC_SYS_SendCmd
 576              	.LVL30:
 222:Middlewares/ST/STM32_WPAN/interface/patterns/ble_thread/tl/tl_mbox.c **** }
 577              		.loc 1 222 3 view .LVU141
 223:Middlewares/ST/STM32_WPAN/interface/patterns/ble_thread/tl/tl_mbox.c **** 
 578              		.loc 1 223 1 is_stmt 0 view .LVU142
 579 0012 0020     		movs	r0, #0
 580 0014 08BD     		pop	{r3, pc}
 581              	.L44:
 582 0016 00BF     		.align	2
 583              	.L43:
 584 0018 00000000 		.word	.LANCHOR1
 585              		.cfi_endproc
 586              	.LFE1269:
 588              		.section	.text.HW_IPCC_SYS_CmdEvtNot,"ax",%progbits
 589              		.align	1
 590              		.global	HW_IPCC_SYS_CmdEvtNot
 591              		.syntax unified
 592              		.thumb
 593              		.thumb_func
 594              		.fpu fpv4-sp-d16
 596              	HW_IPCC_SYS_CmdEvtNot:
 597              	.LFB1270:
 226:Middlewares/ST/STM32_WPAN/interface/patterns/ble_thread/tl/tl_mbox.c ****   OutputDbgTrace(TL_MB_SYS_CMD_RSP, (uint8_t*)(TL_RefTable.p_sys_table->pcmd_buffer) );
 598              		.loc 1 226 1 is_stmt 1 view -0
 599              		.cfi_startproc
 600              		@ args = 0, pretend = 0, frame = 0
 601              		@ frame_needed = 0, uses_anonymous_args = 0
 602 0000 08B5     		push	{r3, lr}
 603              	.LCFI14:
 604              		.cfi_def_cfa_offset 8
 605              		.cfi_offset 3, -8
 606              		.cfi_offset 14, -4
 227:Middlewares/ST/STM32_WPAN/interface/patterns/ble_thread/tl/tl_mbox.c **** 
 607              		.loc 1 227 3 view .LVU144
 227:Middlewares/ST/STM32_WPAN/interface/patterns/ble_thread/tl/tl_mbox.c **** 
 608              		.loc 1 227 59 is_stmt 0 view .LVU145
 609 0002 044B     		ldr	r3, .L47
 610 0004 DA68     		ldr	r2, [r3, #12]
 229:Middlewares/ST/STM32_WPAN/interface/patterns/ble_thread/tl/tl_mbox.c **** 
 611              		.loc 1 229 3 is_stmt 1 view .LVU146
 229:Middlewares/ST/STM32_WPAN/interface/patterns/ble_thread/tl/tl_mbox.c **** 
 612              		.loc 1 229 63 is_stmt 0 view .LVU147
 613 0006 DA68     		ldr	r2, [r3, #12]
 229:Middlewares/ST/STM32_WPAN/interface/patterns/ble_thread/tl/tl_mbox.c **** 
 614              		.loc 1 229 3 view .LVU148
 615 0008 034B     		ldr	r3, .L47+4
 616 000a 1B68     		ldr	r3, [r3]
 617 000c 1068     		ldr	r0, [r2]
 618 000e 9847     		blx	r3
 619              	.LVL31:
ARM GAS  /var/folders/lt/l_qrc8c54t93n_phsj7cf5tc0000gn/T//cc8yIxSZ.s 			page 25


 231:Middlewares/ST/STM32_WPAN/interface/patterns/ble_thread/tl/tl_mbox.c **** }
 620              		.loc 1 231 3 is_stmt 1 view .LVU149
 232:Middlewares/ST/STM32_WPAN/interface/patterns/ble_thread/tl/tl_mbox.c **** 
 621              		.loc 1 232 1 is_stmt 0 view .LVU150
 622 0010 08BD     		pop	{r3, pc}
 623              	.L48:
 624 0012 00BF     		.align	2
 625              	.L47:
 626 0014 00000000 		.word	.LANCHOR1
 627 0018 00000000 		.word	.LANCHOR6
 628              		.cfi_endproc
 629              	.LFE1270:
 631              		.section	.text.HW_IPCC_SYS_EvtNot,"ax",%progbits
 632              		.align	1
 633              		.global	HW_IPCC_SYS_EvtNot
 634              		.syntax unified
 635              		.thumb
 636              		.thumb_func
 637              		.fpu fpv4-sp-d16
 639              	HW_IPCC_SYS_EvtNot:
 640              	.LFB1271:
 235:Middlewares/ST/STM32_WPAN/interface/patterns/ble_thread/tl/tl_mbox.c ****   TL_EvtPacket_t *p_evt;
 641              		.loc 1 235 1 is_stmt 1 view -0
 642              		.cfi_startproc
 643              		@ args = 0, pretend = 0, frame = 8
 644              		@ frame_needed = 0, uses_anonymous_args = 0
 645 0000 00B5     		push	{lr}
 646              	.LCFI15:
 647              		.cfi_def_cfa_offset 4
 648              		.cfi_offset 14, -4
 649 0002 83B0     		sub	sp, sp, #12
 650              	.LCFI16:
 651              		.cfi_def_cfa_offset 16
 236:Middlewares/ST/STM32_WPAN/interface/patterns/ble_thread/tl/tl_mbox.c **** 
 652              		.loc 1 236 3 view .LVU152
 238:Middlewares/ST/STM32_WPAN/interface/patterns/ble_thread/tl/tl_mbox.c ****   {
 653              		.loc 1 238 3 view .LVU153
 654              	.L50:
 238:Middlewares/ST/STM32_WPAN/interface/patterns/ble_thread/tl/tl_mbox.c ****   {
 655              		.loc 1 238 8 view .LVU154
 238:Middlewares/ST/STM32_WPAN/interface/patterns/ble_thread/tl/tl_mbox.c ****   {
 656              		.loc 1 238 9 is_stmt 0 view .LVU155
 657 0004 0748     		ldr	r0, .L54
 658 0006 FFF7FEFF 		bl	LST_is_empty
 659              	.LVL32:
 238:Middlewares/ST/STM32_WPAN/interface/patterns/ble_thread/tl/tl_mbox.c ****   {
 660              		.loc 1 238 8 view .LVU156
 661 000a 40B9     		cbnz	r0, .L53
 240:Middlewares/ST/STM32_WPAN/interface/patterns/ble_thread/tl/tl_mbox.c **** 
 662              		.loc 1 240 5 is_stmt 1 view .LVU157
 663 000c 01A9     		add	r1, sp, #4
 664 000e 0548     		ldr	r0, .L54
 665 0010 FFF7FEFF 		bl	LST_remove_head
 666              	.LVL33:
 242:Middlewares/ST/STM32_WPAN/interface/patterns/ble_thread/tl/tl_mbox.c **** 
 667              		.loc 1 242 5 view .LVU158
 244:Middlewares/ST/STM32_WPAN/interface/patterns/ble_thread/tl/tl_mbox.c ****   }
ARM GAS  /var/folders/lt/l_qrc8c54t93n_phsj7cf5tc0000gn/T//cc8yIxSZ.s 			page 26


 668              		.loc 1 244 5 view .LVU159
 669 0014 044B     		ldr	r3, .L54+4
 670 0016 1B68     		ldr	r3, [r3]
 671 0018 0198     		ldr	r0, [sp, #4]
 672 001a 9847     		blx	r3
 673              	.LVL34:
 674 001c F2E7     		b	.L50
 675              	.L53:
 248:Middlewares/ST/STM32_WPAN/interface/patterns/ble_thread/tl/tl_mbox.c **** 
 676              		.loc 1 248 1 is_stmt 0 view .LVU160
 677 001e 03B0     		add	sp, sp, #12
 678              	.LCFI17:
 679              		.cfi_def_cfa_offset 4
 680              		@ sp needed
 681 0020 5DF804FB 		ldr	pc, [sp], #4
 682              	.L55:
 683              		.align	2
 684              	.L54:
 685 0024 94000000 		.word	.LANCHOR2+148
 686 0028 00000000 		.word	.LANCHOR7
 687              		.cfi_endproc
 688              	.LFE1271:
 690              		.section	.text.TL_MM_Init,"ax",%progbits
 691              		.align	1
 692              		.global	TL_MM_Init
 693              		.syntax unified
 694              		.thumb
 695              		.thumb_func
 696              		.fpu fpv4-sp-d16
 698              	TL_MM_Init:
 699              	.LVL35:
 700              	.LFB1272:
 591:Middlewares/ST/STM32_WPAN/interface/patterns/ble_thread/tl/tl_mbox.c ****   static MB_MemManagerTable_t  * p_mem_manager_table;
 701              		.loc 1 591 1 is_stmt 1 view -0
 702              		.cfi_startproc
 703              		@ args = 0, pretend = 0, frame = 0
 704              		@ frame_needed = 0, uses_anonymous_args = 0
 591:Middlewares/ST/STM32_WPAN/interface/patterns/ble_thread/tl/tl_mbox.c ****   static MB_MemManagerTable_t  * p_mem_manager_table;
 705              		.loc 1 591 1 is_stmt 0 view .LVU162
 706 0000 38B5     		push	{r3, r4, r5, lr}
 707              	.LCFI18:
 708              		.cfi_def_cfa_offset 16
 709              		.cfi_offset 3, -16
 710              		.cfi_offset 4, -12
 711              		.cfi_offset 5, -8
 712              		.cfi_offset 14, -4
 713 0002 0446     		mov	r4, r0
 592:Middlewares/ST/STM32_WPAN/interface/patterns/ble_thread/tl/tl_mbox.c **** 
 714              		.loc 1 592 3 is_stmt 1 view .LVU163
 594:Middlewares/ST/STM32_WPAN/interface/patterns/ble_thread/tl/tl_mbox.c ****   LST_init_head (&LocalFreeBufQueue);
 715              		.loc 1 594 3 view .LVU164
 716 0004 0B4D     		ldr	r5, .L58
 717 0006 2846     		mov	r0, r5
 718              	.LVL36:
 594:Middlewares/ST/STM32_WPAN/interface/patterns/ble_thread/tl/tl_mbox.c ****   LST_init_head (&LocalFreeBufQueue);
 719              		.loc 1 594 3 is_stmt 0 view .LVU165
 720 0008 FFF7FEFF 		bl	LST_init_head
ARM GAS  /var/folders/lt/l_qrc8c54t93n_phsj7cf5tc0000gn/T//cc8yIxSZ.s 			page 27


 721              	.LVL37:
 595:Middlewares/ST/STM32_WPAN/interface/patterns/ble_thread/tl/tl_mbox.c **** 
 722              		.loc 1 595 3 is_stmt 1 view .LVU166
 723 000c 0A48     		ldr	r0, .L58+4
 724 000e FFF7FEFF 		bl	LST_init_head
 725              	.LVL38:
 597:Middlewares/ST/STM32_WPAN/interface/patterns/ble_thread/tl/tl_mbox.c **** 
 726              		.loc 1 597 3 view .LVU167
 597:Middlewares/ST/STM32_WPAN/interface/patterns/ble_thread/tl/tl_mbox.c **** 
 727              		.loc 1 597 36 is_stmt 0 view .LVU168
 728 0012 0A4B     		ldr	r3, .L58+8
 729 0014 1B69     		ldr	r3, [r3, #16]
 599:Middlewares/ST/STM32_WPAN/interface/patterns/ble_thread/tl/tl_mbox.c ****   p_mem_manager_table->blepoolsize = p_Config->AsynchEvtPoolSize;
 730              		.loc 1 599 3 is_stmt 1 view .LVU169
 599:Middlewares/ST/STM32_WPAN/interface/patterns/ble_thread/tl/tl_mbox.c ****   p_mem_manager_table->blepoolsize = p_Config->AsynchEvtPoolSize;
 731              		.loc 1 599 42 is_stmt 0 view .LVU170
 732 0016 A268     		ldr	r2, [r4, #8]
 599:Middlewares/ST/STM32_WPAN/interface/patterns/ble_thread/tl/tl_mbox.c ****   p_mem_manager_table->blepoolsize = p_Config->AsynchEvtPoolSize;
 733              		.loc 1 599 32 view .LVU171
 734 0018 9A60     		str	r2, [r3, #8]
 600:Middlewares/ST/STM32_WPAN/interface/patterns/ble_thread/tl/tl_mbox.c ****   p_mem_manager_table->pevt_free_buffer_queue = (uint8_t*)&FreeBufQueue;
 735              		.loc 1 600 3 is_stmt 1 view .LVU172
 600:Middlewares/ST/STM32_WPAN/interface/patterns/ble_thread/tl/tl_mbox.c ****   p_mem_manager_table->pevt_free_buffer_queue = (uint8_t*)&FreeBufQueue;
 736              		.loc 1 600 46 is_stmt 0 view .LVU173
 737 001a E268     		ldr	r2, [r4, #12]
 600:Middlewares/ST/STM32_WPAN/interface/patterns/ble_thread/tl/tl_mbox.c ****   p_mem_manager_table->pevt_free_buffer_queue = (uint8_t*)&FreeBufQueue;
 738              		.loc 1 600 36 view .LVU174
 739 001c DA60     		str	r2, [r3, #12]
 601:Middlewares/ST/STM32_WPAN/interface/patterns/ble_thread/tl/tl_mbox.c ****   p_mem_manager_table->spare_ble_buffer = p_Config->p_BleSpareEvtBuffer;
 740              		.loc 1 601 3 is_stmt 1 view .LVU175
 601:Middlewares/ST/STM32_WPAN/interface/patterns/ble_thread/tl/tl_mbox.c ****   p_mem_manager_table->spare_ble_buffer = p_Config->p_BleSpareEvtBuffer;
 741              		.loc 1 601 47 is_stmt 0 view .LVU176
 742 001e 1D61     		str	r5, [r3, #16]
 602:Middlewares/ST/STM32_WPAN/interface/patterns/ble_thread/tl/tl_mbox.c ****   p_mem_manager_table->spare_sys_buffer = p_Config->p_SystemSpareEvtBuffer;
 743              		.loc 1 602 3 is_stmt 1 view .LVU177
 602:Middlewares/ST/STM32_WPAN/interface/patterns/ble_thread/tl/tl_mbox.c ****   p_mem_manager_table->spare_sys_buffer = p_Config->p_SystemSpareEvtBuffer;
 744              		.loc 1 602 51 is_stmt 0 view .LVU178
 745 0020 2268     		ldr	r2, [r4]
 602:Middlewares/ST/STM32_WPAN/interface/patterns/ble_thread/tl/tl_mbox.c ****   p_mem_manager_table->spare_sys_buffer = p_Config->p_SystemSpareEvtBuffer;
 746              		.loc 1 602 41 view .LVU179
 747 0022 1A60     		str	r2, [r3]
 603:Middlewares/ST/STM32_WPAN/interface/patterns/ble_thread/tl/tl_mbox.c ****   p_mem_manager_table->traces_evt_pool = p_Config->p_TracesEvtPool;
 748              		.loc 1 603 3 is_stmt 1 view .LVU180
 603:Middlewares/ST/STM32_WPAN/interface/patterns/ble_thread/tl/tl_mbox.c ****   p_mem_manager_table->traces_evt_pool = p_Config->p_TracesEvtPool;
 749              		.loc 1 603 51 is_stmt 0 view .LVU181
 750 0024 6268     		ldr	r2, [r4, #4]
 603:Middlewares/ST/STM32_WPAN/interface/patterns/ble_thread/tl/tl_mbox.c ****   p_mem_manager_table->traces_evt_pool = p_Config->p_TracesEvtPool;
 751              		.loc 1 603 41 view .LVU182
 752 0026 5A60     		str	r2, [r3, #4]
 604:Middlewares/ST/STM32_WPAN/interface/patterns/ble_thread/tl/tl_mbox.c ****   p_mem_manager_table->tracespoolsize = p_Config->TracesEvtPoolSize;
 753              		.loc 1 604 3 is_stmt 1 view .LVU183
 604:Middlewares/ST/STM32_WPAN/interface/patterns/ble_thread/tl/tl_mbox.c ****   p_mem_manager_table->tracespoolsize = p_Config->TracesEvtPoolSize;
 754              		.loc 1 604 50 is_stmt 0 view .LVU184
 755 0028 2269     		ldr	r2, [r4, #16]
 604:Middlewares/ST/STM32_WPAN/interface/patterns/ble_thread/tl/tl_mbox.c ****   p_mem_manager_table->tracespoolsize = p_Config->TracesEvtPoolSize;
 756              		.loc 1 604 40 view .LVU185
 757 002a 5A61     		str	r2, [r3, #20]
ARM GAS  /var/folders/lt/l_qrc8c54t93n_phsj7cf5tc0000gn/T//cc8yIxSZ.s 			page 28


 605:Middlewares/ST/STM32_WPAN/interface/patterns/ble_thread/tl/tl_mbox.c **** 
 758              		.loc 1 605 3 is_stmt 1 view .LVU186
 605:Middlewares/ST/STM32_WPAN/interface/patterns/ble_thread/tl/tl_mbox.c **** 
 759              		.loc 1 605 49 is_stmt 0 view .LVU187
 760 002c 6269     		ldr	r2, [r4, #20]
 605:Middlewares/ST/STM32_WPAN/interface/patterns/ble_thread/tl/tl_mbox.c **** 
 761              		.loc 1 605 39 view .LVU188
 762 002e 9A61     		str	r2, [r3, #24]
 607:Middlewares/ST/STM32_WPAN/interface/patterns/ble_thread/tl/tl_mbox.c **** }
 763              		.loc 1 607 3 is_stmt 1 view .LVU189
 608:Middlewares/ST/STM32_WPAN/interface/patterns/ble_thread/tl/tl_mbox.c **** 
 764              		.loc 1 608 1 is_stmt 0 view .LVU190
 765 0030 38BD     		pop	{r3, r4, r5, pc}
 766              	.LVL39:
 767              	.L59:
 608:Middlewares/ST/STM32_WPAN/interface/patterns/ble_thread/tl/tl_mbox.c **** 
 768              		.loc 1 608 1 view .LVU191
 769 0032 00BF     		.align	2
 770              	.L58:
 771 0034 9C000000 		.word	.LANCHOR2+156
 772 0038 00000000 		.word	.LANCHOR0
 773 003c 00000000 		.word	.LANCHOR1
 774              		.cfi_endproc
 775              	.LFE1272:
 777              		.section	.text.TL_MM_EvtDone,"ax",%progbits
 778              		.align	1
 779              		.global	TL_MM_EvtDone
 780              		.syntax unified
 781              		.thumb
 782              		.thumb_func
 783              		.fpu fpv4-sp-d16
 785              	TL_MM_EvtDone:
 786              	.LVL40:
 787              	.LFB1273:
 611:Middlewares/ST/STM32_WPAN/interface/patterns/ble_thread/tl/tl_mbox.c ****   LST_insert_tail(&LocalFreeBufQueue, (tListNode *)phcievt);
 788              		.loc 1 611 1 is_stmt 1 view -0
 789              		.cfi_startproc
 790              		@ args = 0, pretend = 0, frame = 0
 791              		@ frame_needed = 0, uses_anonymous_args = 0
 611:Middlewares/ST/STM32_WPAN/interface/patterns/ble_thread/tl/tl_mbox.c ****   LST_insert_tail(&LocalFreeBufQueue, (tListNode *)phcievt);
 792              		.loc 1 611 1 is_stmt 0 view .LVU193
 793 0000 08B5     		push	{r3, lr}
 794              	.LCFI19:
 795              		.cfi_def_cfa_offset 8
 796              		.cfi_offset 3, -8
 797              		.cfi_offset 14, -4
 798 0002 0146     		mov	r1, r0
 612:Middlewares/ST/STM32_WPAN/interface/patterns/ble_thread/tl/tl_mbox.c **** 
 799              		.loc 1 612 3 is_stmt 1 view .LVU194
 800 0004 0348     		ldr	r0, .L62
 801              	.LVL41:
 612:Middlewares/ST/STM32_WPAN/interface/patterns/ble_thread/tl/tl_mbox.c **** 
 802              		.loc 1 612 3 is_stmt 0 view .LVU195
 803 0006 FFF7FEFF 		bl	LST_insert_tail
 804              	.LVL42:
 614:Middlewares/ST/STM32_WPAN/interface/patterns/ble_thread/tl/tl_mbox.c **** 
 805              		.loc 1 614 3 is_stmt 1 view .LVU196
ARM GAS  /var/folders/lt/l_qrc8c54t93n_phsj7cf5tc0000gn/T//cc8yIxSZ.s 			page 29


 616:Middlewares/ST/STM32_WPAN/interface/patterns/ble_thread/tl/tl_mbox.c **** 
 806              		.loc 1 616 3 view .LVU197
 807 000a 0348     		ldr	r0, .L62+4
 808 000c FFF7FEFF 		bl	HW_IPCC_MM_SendFreeBuf
 809              	.LVL43:
 618:Middlewares/ST/STM32_WPAN/interface/patterns/ble_thread/tl/tl_mbox.c **** }
 810              		.loc 1 618 3 view .LVU198
 619:Middlewares/ST/STM32_WPAN/interface/patterns/ble_thread/tl/tl_mbox.c **** 
 811              		.loc 1 619 1 is_stmt 0 view .LVU199
 812 0010 08BD     		pop	{r3, pc}
 813              	.L63:
 814 0012 00BF     		.align	2
 815              	.L62:
 816 0014 00000000 		.word	.LANCHOR0
 817 0018 00000000 		.word	SendFreeBuf
 818              		.cfi_endproc
 819              	.LFE1273:
 821              		.section	.text.TL_TRACES_Init,"ax",%progbits
 822              		.align	1
 823              		.global	TL_TRACES_Init
 824              		.syntax unified
 825              		.thumb
 826              		.thumb_func
 827              		.fpu fpv4-sp-d16
 829              	TL_TRACES_Init:
 830              	.LFB1275:
 633:Middlewares/ST/STM32_WPAN/interface/patterns/ble_thread/tl/tl_mbox.c **** 
 634:Middlewares/ST/STM32_WPAN/interface/patterns/ble_thread/tl/tl_mbox.c **** /******************************************************************************
 635:Middlewares/ST/STM32_WPAN/interface/patterns/ble_thread/tl/tl_mbox.c ****  * TRACES
 636:Middlewares/ST/STM32_WPAN/interface/patterns/ble_thread/tl/tl_mbox.c ****  ******************************************************************************/
 637:Middlewares/ST/STM32_WPAN/interface/patterns/ble_thread/tl/tl_mbox.c **** void TL_TRACES_Init( void )
 638:Middlewares/ST/STM32_WPAN/interface/patterns/ble_thread/tl/tl_mbox.c **** {
 831              		.loc 1 638 1 is_stmt 1 view -0
 832              		.cfi_startproc
 833              		@ args = 0, pretend = 0, frame = 0
 834              		@ frame_needed = 0, uses_anonymous_args = 0
 835 0000 10B5     		push	{r4, lr}
 836              	.LCFI20:
 837              		.cfi_def_cfa_offset 8
 838              		.cfi_offset 4, -8
 839              		.cfi_offset 14, -4
 639:Middlewares/ST/STM32_WPAN/interface/patterns/ble_thread/tl/tl_mbox.c ****   LST_init_head (&TracesEvtQueue);
 840              		.loc 1 639 3 view .LVU201
 841 0002 054C     		ldr	r4, .L66
 842 0004 2046     		mov	r0, r4
 843 0006 FFF7FEFF 		bl	LST_init_head
 844              	.LVL44:
 640:Middlewares/ST/STM32_WPAN/interface/patterns/ble_thread/tl/tl_mbox.c **** 
 641:Middlewares/ST/STM32_WPAN/interface/patterns/ble_thread/tl/tl_mbox.c ****   TL_RefTable.p_traces_table->traces_queue = (uint8_t*)&TracesEvtQueue;
 845              		.loc 1 641 3 view .LVU202
 846              		.loc 1 641 14 is_stmt 0 view .LVU203
 847 000a 044B     		ldr	r3, .L66+4
 848 000c 5B69     		ldr	r3, [r3, #20]
 849              		.loc 1 641 44 view .LVU204
 850 000e 1C60     		str	r4, [r3]
 642:Middlewares/ST/STM32_WPAN/interface/patterns/ble_thread/tl/tl_mbox.c **** 
 643:Middlewares/ST/STM32_WPAN/interface/patterns/ble_thread/tl/tl_mbox.c ****   HW_IPCC_TRACES_Init();
ARM GAS  /var/folders/lt/l_qrc8c54t93n_phsj7cf5tc0000gn/T//cc8yIxSZ.s 			page 30


 851              		.loc 1 643 3 is_stmt 1 view .LVU205
 852 0010 FFF7FEFF 		bl	HW_IPCC_TRACES_Init
 853              	.LVL45:
 644:Middlewares/ST/STM32_WPAN/interface/patterns/ble_thread/tl/tl_mbox.c **** 
 645:Middlewares/ST/STM32_WPAN/interface/patterns/ble_thread/tl/tl_mbox.c ****   return;
 854              		.loc 1 645 3 view .LVU206
 646:Middlewares/ST/STM32_WPAN/interface/patterns/ble_thread/tl/tl_mbox.c **** }
 855              		.loc 1 646 1 is_stmt 0 view .LVU207
 856 0014 10BD     		pop	{r4, pc}
 857              	.L67:
 858 0016 00BF     		.align	2
 859              	.L66:
 860 0018 A4000000 		.word	.LANCHOR2+164
 861 001c 00000000 		.word	.LANCHOR1
 862              		.cfi_endproc
 863              	.LFE1275:
 865              		.section	.text.TL_TRACES_EvtReceived,"ax",%progbits
 866              		.align	1
 867              		.weak	TL_TRACES_EvtReceived
 868              		.syntax unified
 869              		.thumb
 870              		.thumb_func
 871              		.fpu fpv4-sp-d16
 873              	TL_TRACES_EvtReceived:
 874              	.LVL46:
 875              	.LFB1277:
 647:Middlewares/ST/STM32_WPAN/interface/patterns/ble_thread/tl/tl_mbox.c **** 
 648:Middlewares/ST/STM32_WPAN/interface/patterns/ble_thread/tl/tl_mbox.c **** void HW_IPCC_TRACES_EvtNot(void)
 649:Middlewares/ST/STM32_WPAN/interface/patterns/ble_thread/tl/tl_mbox.c **** {
 650:Middlewares/ST/STM32_WPAN/interface/patterns/ble_thread/tl/tl_mbox.c ****   TL_EvtPacket_t *phcievt;
 651:Middlewares/ST/STM32_WPAN/interface/patterns/ble_thread/tl/tl_mbox.c **** 
 652:Middlewares/ST/STM32_WPAN/interface/patterns/ble_thread/tl/tl_mbox.c ****   while(LST_is_empty(&TracesEvtQueue) == FALSE)
 653:Middlewares/ST/STM32_WPAN/interface/patterns/ble_thread/tl/tl_mbox.c ****   {
 654:Middlewares/ST/STM32_WPAN/interface/patterns/ble_thread/tl/tl_mbox.c ****     LST_remove_head (&TracesEvtQueue, (tListNode **)&phcievt);
 655:Middlewares/ST/STM32_WPAN/interface/patterns/ble_thread/tl/tl_mbox.c ****     TL_TRACES_EvtReceived( phcievt );
 656:Middlewares/ST/STM32_WPAN/interface/patterns/ble_thread/tl/tl_mbox.c ****   }
 657:Middlewares/ST/STM32_WPAN/interface/patterns/ble_thread/tl/tl_mbox.c **** 
 658:Middlewares/ST/STM32_WPAN/interface/patterns/ble_thread/tl/tl_mbox.c ****   return;
 659:Middlewares/ST/STM32_WPAN/interface/patterns/ble_thread/tl/tl_mbox.c **** }
 660:Middlewares/ST/STM32_WPAN/interface/patterns/ble_thread/tl/tl_mbox.c **** 
 661:Middlewares/ST/STM32_WPAN/interface/patterns/ble_thread/tl/tl_mbox.c **** __WEAK void TL_TRACES_EvtReceived( TL_EvtPacket_t * hcievt )
 662:Middlewares/ST/STM32_WPAN/interface/patterns/ble_thread/tl/tl_mbox.c **** {
 876              		.loc 1 662 1 is_stmt 1 view -0
 877              		.cfi_startproc
 878              		@ args = 0, pretend = 0, frame = 0
 879              		@ frame_needed = 0, uses_anonymous_args = 0
 880              		@ link register save eliminated.
 663:Middlewares/ST/STM32_WPAN/interface/patterns/ble_thread/tl/tl_mbox.c ****   (void)(hcievt);
 881              		.loc 1 663 3 view .LVU209
 664:Middlewares/ST/STM32_WPAN/interface/patterns/ble_thread/tl/tl_mbox.c **** }
 882              		.loc 1 664 1 is_stmt 0 view .LVU210
 883 0000 7047     		bx	lr
 884              		.cfi_endproc
 885              	.LFE1277:
 887              		.section	.text.HW_IPCC_TRACES_EvtNot,"ax",%progbits
 888              		.align	1
 889              		.global	HW_IPCC_TRACES_EvtNot
ARM GAS  /var/folders/lt/l_qrc8c54t93n_phsj7cf5tc0000gn/T//cc8yIxSZ.s 			page 31


 890              		.syntax unified
 891              		.thumb
 892              		.thumb_func
 893              		.fpu fpv4-sp-d16
 895              	HW_IPCC_TRACES_EvtNot:
 896              	.LFB1276:
 649:Middlewares/ST/STM32_WPAN/interface/patterns/ble_thread/tl/tl_mbox.c ****   TL_EvtPacket_t *phcievt;
 897              		.loc 1 649 1 is_stmt 1 view -0
 898              		.cfi_startproc
 899              		@ args = 0, pretend = 0, frame = 8
 900              		@ frame_needed = 0, uses_anonymous_args = 0
 901 0000 00B5     		push	{lr}
 902              	.LCFI21:
 903              		.cfi_def_cfa_offset 4
 904              		.cfi_offset 14, -4
 905 0002 83B0     		sub	sp, sp, #12
 906              	.LCFI22:
 907              		.cfi_def_cfa_offset 16
 650:Middlewares/ST/STM32_WPAN/interface/patterns/ble_thread/tl/tl_mbox.c **** 
 908              		.loc 1 650 3 view .LVU212
 652:Middlewares/ST/STM32_WPAN/interface/patterns/ble_thread/tl/tl_mbox.c ****   {
 909              		.loc 1 652 3 view .LVU213
 910              	.L70:
 652:Middlewares/ST/STM32_WPAN/interface/patterns/ble_thread/tl/tl_mbox.c ****   {
 911              		.loc 1 652 8 view .LVU214
 652:Middlewares/ST/STM32_WPAN/interface/patterns/ble_thread/tl/tl_mbox.c ****   {
 912              		.loc 1 652 9 is_stmt 0 view .LVU215
 913 0004 0748     		ldr	r0, .L74
 914 0006 FFF7FEFF 		bl	LST_is_empty
 915              	.LVL47:
 652:Middlewares/ST/STM32_WPAN/interface/patterns/ble_thread/tl/tl_mbox.c ****   {
 916              		.loc 1 652 8 view .LVU216
 917 000a 38B9     		cbnz	r0, .L73
 654:Middlewares/ST/STM32_WPAN/interface/patterns/ble_thread/tl/tl_mbox.c ****     TL_TRACES_EvtReceived( phcievt );
 918              		.loc 1 654 5 is_stmt 1 view .LVU217
 919 000c 01A9     		add	r1, sp, #4
 920 000e 0548     		ldr	r0, .L74
 921 0010 FFF7FEFF 		bl	LST_remove_head
 922              	.LVL48:
 655:Middlewares/ST/STM32_WPAN/interface/patterns/ble_thread/tl/tl_mbox.c ****   }
 923              		.loc 1 655 5 view .LVU218
 924 0014 0198     		ldr	r0, [sp, #4]
 925 0016 FFF7FEFF 		bl	TL_TRACES_EvtReceived
 926              	.LVL49:
 927 001a F3E7     		b	.L70
 928              	.L73:
 659:Middlewares/ST/STM32_WPAN/interface/patterns/ble_thread/tl/tl_mbox.c **** 
 929              		.loc 1 659 1 is_stmt 0 view .LVU219
 930 001c 03B0     		add	sp, sp, #12
 931              	.LCFI23:
 932              		.cfi_def_cfa_offset 4
 933              		@ sp needed
 934 001e 5DF804FB 		ldr	pc, [sp], #4
 935              	.L75:
 936 0022 00BF     		.align	2
 937              	.L74:
 938 0024 A4000000 		.word	.LANCHOR2+164
ARM GAS  /var/folders/lt/l_qrc8c54t93n_phsj7cf5tc0000gn/T//cc8yIxSZ.s 			page 32


 939              		.cfi_endproc
 940              	.LFE1276:
 942              		.section	.bss.BLE_IoBusAclDataTxAck,"aw",%nobits
 943              		.align	2
 944              		.set	.LANCHOR5,. + 0
 947              	BLE_IoBusAclDataTxAck:
 948 0000 00000000 		.space	4
 949              		.section	.bss.BLE_IoBusEvtCallBackFunction,"aw",%nobits
 950              		.align	2
 951              		.set	.LANCHOR4,. + 0
 954              	BLE_IoBusEvtCallBackFunction:
 955 0000 00000000 		.space	4
 956              		.section	.bss.LocalFreeBufQueue,"aw",%nobits
 957              		.align	2
 958              		.set	.LANCHOR0,. + 0
 961              	LocalFreeBufQueue:
 962 0000 00000000 		.space	8
 962      00000000 
 963              		.section	.bss.SYS_CMD_IoBusCallBackFunction,"aw",%nobits
 964              		.align	2
 965              		.set	.LANCHOR6,. + 0
 968              	SYS_CMD_IoBusCallBackFunction:
 969 0000 00000000 		.space	4
 970              		.section	.bss.SYS_EVT_IoBusCallBackFunction,"aw",%nobits
 971              		.align	2
 972              		.set	.LANCHOR7,. + 0
 975              	SYS_EVT_IoBusCallBackFunction:
 976 0000 00000000 		.space	4
 977              		.section	MAPPING_TABLE,"aw"
 978              		.align	2
 979              		.set	.LANCHOR1,. + 0
 982              	TL_RefTable:
 983 0000 00000000 		.space	40
 983      00000000 
 983      00000000 
 983      00000000 
 983      00000000 
 984              		.section	MB_MEM1,"aw"
 985              		.align	2
 986              		.set	.LANCHOR2,. + 0
 989              	TL_DeviceInfoTable:
 990 0000 00000000 		.space	32
 990      00000000 
 990      00000000 
 990      00000000 
 990      00000000 
 993              	TL_BleTable:
 994 0020 00000000 		.space	16
 994      00000000 
 994      00000000 
 994      00000000 
 997              	TL_ThreadTable:
 998 0030 00000000 		.space	12
 998      00000000 
 998      00000000 
 1001              	TL_LldTestsTable:
 1002 003c 00000000 		.space	8
ARM GAS  /var/folders/lt/l_qrc8c54t93n_phsj7cf5tc0000gn/T//cc8yIxSZ.s 			page 33


 1002      00000000 
 1005              	TL_BleLldTable:
 1006 0044 00000000 		.space	8
 1006      00000000 
 1009              	TL_SysTable:
 1010 004c 00000000 		.space	8
 1010      00000000 
 1013              	TL_MemManagerTable:
 1014 0054 00000000 		.space	28
 1014      00000000 
 1014      00000000 
 1014      00000000 
 1014      00000000 
 1017              	TL_TracesTable:
 1018 0070 00000000 		.space	4
 1021              	TL_Mac_802_15_4_Table:
 1022 0074 00000000 		.space	12
 1022      00000000 
 1022      00000000 
 1025              	TL_Zigbee_Table:
 1026 0080 00000000 		.space	12
 1026      00000000 
 1026      00000000 
 1029              	EvtQueue:
 1030 008c 00000000 		.space	8
 1030      00000000 
 1033              	SystemEvtQueue:
 1034 0094 00000000 		.space	8
 1034      00000000 
 1037              	FreeBufQueue:
 1038 009c 00000000 		.space	8
 1038      00000000 
 1041              	TracesEvtQueue:
 1042 00a4 00000000 		.space	8
 1042      00000000 
 1043              		.section	MB_MEM2,"aw"
 1044              		.align	2
 1045              		.set	.LANCHOR3,. + 0
 1048              	CsBuffer:
 1049 0000 00000000 		.space	15
 1049      00000000 
 1049      00000000 
 1049      000000
 1050              		.text
 1051              	.Letext0:
 1052              		.file 2 "/usr/local/Cellar/arm-none-eabi-gcc/9-2019-q4-major/gcc/arm-none-eabi/include/machine/_de
 1053              		.file 3 "/usr/local/Cellar/arm-none-eabi-gcc/9-2019-q4-major/gcc/arm-none-eabi/include/sys/_stdint
 1054              		.file 4 "/usr/local/Cellar/arm-none-eabi-gcc/9-2019-q4-major/gcc/arm-none-eabi/include/sys/lock.h"
 1055              		.file 5 "/usr/local/Cellar/arm-none-eabi-gcc/9-2019-q4-major/gcc/arm-none-eabi/include/sys/_types.
 1056              		.file 6 "/usr/local/Cellar/arm-none-eabi-gcc/9-2019-q4-major/gcc/lib/gcc/arm-none-eabi/9.2.1/inclu
 1057              		.file 7 "/usr/local/Cellar/arm-none-eabi-gcc/9-2019-q4-major/gcc/arm-none-eabi/include/sys/reent.h
 1058              		.file 8 "/usr/local/Cellar/arm-none-eabi-gcc/9-2019-q4-major/gcc/arm-none-eabi/include/stdlib.h"
 1059              		.file 9 "Middlewares/ST/STM32_WPAN/utilities/stm_list.h"
 1060              		.file 10 "Middlewares/ST/STM32_WPAN/interface/patterns/ble_thread/tl/tl.h"
 1061              		.file 11 "Middlewares/ST/STM32_WPAN/interface/patterns/ble_thread/tl/mbox_def.h"
 1062              		.file 12 "Drivers/CMSIS/Include/core_cm4.h"
 1063              		.file 13 "Drivers/CMSIS/Device/ST/STM32WBxx/Include/system_stm32wbxx.h"
ARM GAS  /var/folders/lt/l_qrc8c54t93n_phsj7cf5tc0000gn/T//cc8yIxSZ.s 			page 34


 1064              		.file 14 "Drivers/STM32WBxx_HAL_Driver/Inc/stm32wbxx_hal_def.h"
 1065              		.file 15 "Drivers/STM32WBxx_HAL_Driver/Inc/stm32wbxx_hal_flash.h"
 1066              		.file 16 "Drivers/STM32WBxx_HAL_Driver/Inc/stm32wbxx_hal_uart.h"
 1067              		.file 17 "Drivers/STM32WBxx_HAL_Driver/Inc/stm32wbxx_hal.h"
 1068              		.file 18 "Core/Inc/app_conf.h"
 1069              		.file 19 "Middlewares/ST/STM32_WPAN/interface/patterns/ble_thread/hw.h"
ARM GAS  /var/folders/lt/l_qrc8c54t93n_phsj7cf5tc0000gn/T//cc8yIxSZ.s 			page 35

