ARM GAS  /var/folders/lt/l_qrc8c54t93n_phsj7cf5tc0000gn/T//ccA3hYQE.s 			page 1


   1              		.cpu cortex-m4
   2              		.eabi_attribute 27, 1
   3              		.eabi_attribute 28, 1
   4              		.eabi_attribute 20, 1
   5              		.eabi_attribute 21, 1
   6              		.eabi_attribute 23, 3
   7              		.eabi_attribute 24, 1
   8              		.eabi_attribute 25, 1
   9              		.eabi_attribute 26, 1
  10              		.eabi_attribute 30, 1
  11              		.eabi_attribute 34, 1
  12              		.eabi_attribute 18, 4
  13              		.file	"p2p_server_app.c"
  14              		.text
  15              	.Ltext0:
  16              		.cfi_sections	.debug_frame
  17              		.section	.text.P2PS_APP_LED_BUTTON_context_Init,"ax",%progbits
  18              		.align	1
  19              		.arch armv7e-m
  20              		.syntax unified
  21              		.thumb
  22              		.thumb_func
  23              		.fpu fpv4-sp-d16
  25              	P2PS_APP_LED_BUTTON_context_Init:
  26              	.LFB1264:
  27              		.file 1 "STM32_WPAN/App/p2p_server_app.c"
   1:STM32_WPAN/App/p2p_server_app.c **** /* USER CODE BEGIN Header */
   2:STM32_WPAN/App/p2p_server_app.c **** /**
   3:STM32_WPAN/App/p2p_server_app.c ****   ******************************************************************************
   4:STM32_WPAN/App/p2p_server_app.c ****   * @file    p2p_server_app.c
   5:STM32_WPAN/App/p2p_server_app.c ****   * @author  MCD Application Team
   6:STM32_WPAN/App/p2p_server_app.c ****   * @brief   Peer to peer Server Application
   7:STM32_WPAN/App/p2p_server_app.c ****   ******************************************************************************
   8:STM32_WPAN/App/p2p_server_app.c ****   * @attention
   9:STM32_WPAN/App/p2p_server_app.c ****   *
  10:STM32_WPAN/App/p2p_server_app.c ****   * Copyright (c) 2019-2021 STMicroelectronics.
  11:STM32_WPAN/App/p2p_server_app.c ****   * All rights reserved.
  12:STM32_WPAN/App/p2p_server_app.c ****   *
  13:STM32_WPAN/App/p2p_server_app.c ****   * This software is licensed under terms that can be found in the LICENSE file
  14:STM32_WPAN/App/p2p_server_app.c ****   * in the root directory of this software component.
  15:STM32_WPAN/App/p2p_server_app.c ****   * If no LICENSE file comes with this software, it is provided AS-IS.
  16:STM32_WPAN/App/p2p_server_app.c ****   *
  17:STM32_WPAN/App/p2p_server_app.c ****   ******************************************************************************
  18:STM32_WPAN/App/p2p_server_app.c ****   */
  19:STM32_WPAN/App/p2p_server_app.c **** /* USER CODE END Header */
  20:STM32_WPAN/App/p2p_server_app.c **** 
  21:STM32_WPAN/App/p2p_server_app.c **** /* Includes ------------------------------------------------------------------*/
  22:STM32_WPAN/App/p2p_server_app.c **** #include "main.h"
  23:STM32_WPAN/App/p2p_server_app.c **** #include "app_common.h"
  24:STM32_WPAN/App/p2p_server_app.c **** #include "dbg_trace.h"
  25:STM32_WPAN/App/p2p_server_app.c **** #include "ble.h"
  26:STM32_WPAN/App/p2p_server_app.c **** #include "p2p_server_app.h"
  27:STM32_WPAN/App/p2p_server_app.c **** #include "stm32_seq.h"
  28:STM32_WPAN/App/p2p_server_app.c **** 
  29:STM32_WPAN/App/p2p_server_app.c **** /* Private includes ----------------------------------------------------------*/
  30:STM32_WPAN/App/p2p_server_app.c **** /* USER CODE BEGIN Includes */
  31:STM32_WPAN/App/p2p_server_app.c **** 
ARM GAS  /var/folders/lt/l_qrc8c54t93n_phsj7cf5tc0000gn/T//ccA3hYQE.s 			page 2


  32:STM32_WPAN/App/p2p_server_app.c **** /* USER CODE END Includes */
  33:STM32_WPAN/App/p2p_server_app.c **** 
  34:STM32_WPAN/App/p2p_server_app.c **** /* Private typedef -----------------------------------------------------------*/
  35:STM32_WPAN/App/p2p_server_app.c **** /* USER CODE BEGIN PTD */
  36:STM32_WPAN/App/p2p_server_app.c ****  typedef struct{
  37:STM32_WPAN/App/p2p_server_app.c ****     uint8_t             Device_Led_Selection;
  38:STM32_WPAN/App/p2p_server_app.c ****     uint8_t             Led1;
  39:STM32_WPAN/App/p2p_server_app.c ****  }P2P_LedCharValue_t;
  40:STM32_WPAN/App/p2p_server_app.c **** 
  41:STM32_WPAN/App/p2p_server_app.c ****  typedef struct{
  42:STM32_WPAN/App/p2p_server_app.c ****     uint8_t             Device_Button_Selection;
  43:STM32_WPAN/App/p2p_server_app.c ****     uint8_t             ButtonStatus;
  44:STM32_WPAN/App/p2p_server_app.c ****  }P2P_ButtonCharValue_t;
  45:STM32_WPAN/App/p2p_server_app.c **** 
  46:STM32_WPAN/App/p2p_server_app.c ****   typedef struct{
  47:STM32_WPAN/App/p2p_server_app.c ****     uint8_t *           temp_data;
  48:STM32_WPAN/App/p2p_server_app.c ****   }P2P_DataStruct_t;
  49:STM32_WPAN/App/p2p_server_app.c **** // {
  50:STM32_WPAN/App/p2p_server_app.c **** //   /* data */
  51:STM32_WPAN/App/p2p_server_app.c **** // };
  52:STM32_WPAN/App/p2p_server_app.c **** 
  53:STM32_WPAN/App/p2p_server_app.c **** /**
  54:STM32_WPAN/App/p2p_server_app.c ****  *   Light Sensor Data Struct
  55:STM32_WPAN/App/p2p_server_app.c ****  */
  56:STM32_WPAN/App/p2p_server_app.c **** // Sensor Data is 128 bits
  57:STM32_WPAN/App/p2p_server_app.c **** // typedef struct sensordata {
  58:STM32_WPAN/App/p2p_server_app.c **** //     uint8_t watermark;               // 0x01=populated, 0xFF=unpopulated
  59:STM32_WPAN/App/p2p_server_app.c **** //     uint8_t status;                  // record type, 01=sensor data, 02=log data;
  60:STM32_WPAN/App/p2p_server_app.c **** //     uint16_t record_number;          // Which number is this particular record
  61:STM32_WPAN/App/p2p_server_app.c **** //     uint32_t timestamp;              // Time, bit packed into 32 bits
  62:STM32_WPAN/App/p2p_server_app.c **** //     uint16_t battery_voltage;        // 16 bit battery voltage
  63:STM32_WPAN/App/p2p_server_app.c **** //     int16_t temperature;             // STM32 Temperature sensor reading
  64:STM32_WPAN/App/p2p_server_app.c **** //     uint32_t sensor_period;          // Reading from the light sensor
  65:STM32_WPAN/App/p2p_server_app.c **** // } sensordata_t;
  66:STM32_WPAN/App/p2p_server_app.c **** typedef enum
  67:STM32_WPAN/App/p2p_server_app.c **** {
  68:STM32_WPAN/App/p2p_server_app.c ****   DATA_TRANSFER_OFF,
  69:STM32_WPAN/App/p2p_server_app.c ****   DATA_TRANSFER_ON,
  70:STM32_WPAN/App/p2p_server_app.c ****   DATA_SEND,
  71:STM32_WPAN/App/p2p_server_app.c ****   DATA_WAIT
  72:STM32_WPAN/App/p2p_server_app.c **** 
  73:STM32_WPAN/App/p2p_server_app.c **** } Data_Transfer_Status_t;
  74:STM32_WPAN/App/p2p_server_app.c **** 
  75:STM32_WPAN/App/p2p_server_app.c **** typedef struct
  76:STM32_WPAN/App/p2p_server_app.c **** {
  77:STM32_WPAN/App/p2p_server_app.c ****   uint8_t               Notification_Status; /* used to check if P2P Server is enabled to Notify */
  78:STM32_WPAN/App/p2p_server_app.c ****   P2P_LedCharValue_t    LedControl;
  79:STM32_WPAN/App/p2p_server_app.c ****   P2P_ButtonCharValue_t ButtonControl;
  80:STM32_WPAN/App/p2p_server_app.c ****   sensordata_t *        SensorData;
  81:STM32_WPAN/App/p2p_server_app.c ****   uint16_t              ConnectionHandle;
  82:STM32_WPAN/App/p2p_server_app.c ****   Data_Transfer_Status_t DTFlowStatus;
  83:STM32_WPAN/App/p2p_server_app.c **** } P2P_Server_App_Context_t;
  84:STM32_WPAN/App/p2p_server_app.c **** 
  85:STM32_WPAN/App/p2p_server_app.c **** typedef struct
  86:STM32_WPAN/App/p2p_server_app.c **** {
  87:STM32_WPAN/App/p2p_server_app.c ****   uint8_t *pPayload;
  88:STM32_WPAN/App/p2p_server_app.c ****   uint32_t pPayload_n_1;
ARM GAS  /var/folders/lt/l_qrc8c54t93n_phsj7cf5tc0000gn/T//ccA3hYQE.s 			page 3


  89:STM32_WPAN/App/p2p_server_app.c ****   uint32_t pPayload_n;
  90:STM32_WPAN/App/p2p_server_app.c ****   uint32_t Length;
  91:STM32_WPAN/App/p2p_server_app.c **** } DTS_STM_Payload_t;
  92:STM32_WPAN/App/p2p_server_app.c **** 
  93:STM32_WPAN/App/p2p_server_app.c **** #define MAX_LEN 16
  94:STM32_WPAN/App/p2p_server_app.c **** static uint8_t Notification_Data_Buffer[MAX_LEN];
  95:STM32_WPAN/App/p2p_server_app.c **** /* USER CODE END PTD */
  96:STM32_WPAN/App/p2p_server_app.c **** 
  97:STM32_WPAN/App/p2p_server_app.c **** /* Private defines ------------------------------------------------------------*/
  98:STM32_WPAN/App/p2p_server_app.c **** /* USER CODE BEGIN PD */
  99:STM32_WPAN/App/p2p_server_app.c **** 
 100:STM32_WPAN/App/p2p_server_app.c **** /* USER CODE END PD */
 101:STM32_WPAN/App/p2p_server_app.c **** 
 102:STM32_WPAN/App/p2p_server_app.c **** /* Private macros -------------------------------------------------------------*/
 103:STM32_WPAN/App/p2p_server_app.c **** /* USER CODE BEGIN PM */
 104:STM32_WPAN/App/p2p_server_app.c **** 
 105:STM32_WPAN/App/p2p_server_app.c **** /* USER CODE END PM */
 106:STM32_WPAN/App/p2p_server_app.c **** 
 107:STM32_WPAN/App/p2p_server_app.c **** /* Private variables ---------------------------------------------------------*/
 108:STM32_WPAN/App/p2p_server_app.c **** /* USER CODE BEGIN PV */
 109:STM32_WPAN/App/p2p_server_app.c **** int count = 0;
 110:STM32_WPAN/App/p2p_server_app.c **** /**
 111:STM32_WPAN/App/p2p_server_app.c ****  * START of Section BLE_APP_CONTEXT
 112:STM32_WPAN/App/p2p_server_app.c ****  */
 113:STM32_WPAN/App/p2p_server_app.c **** 
 114:STM32_WPAN/App/p2p_server_app.c **** PLACE_IN_SECTION("BLE_APP_CONTEXT") static P2P_Server_App_Context_t P2P_Server_App_Context;
 115:STM32_WPAN/App/p2p_server_app.c **** 
 116:STM32_WPAN/App/p2p_server_app.c **** /**
 117:STM32_WPAN/App/p2p_server_app.c ****  * END of Section BLE_APP_CONTEXT
 118:STM32_WPAN/App/p2p_server_app.c ****  */
 119:STM32_WPAN/App/p2p_server_app.c **** 
 120:STM32_WPAN/App/p2p_server_app.c **** // static uint8_t Notification_Data_Buffer[DATA_NOTIFICATION_MAX_PACKET_SIZE];
 121:STM32_WPAN/App/p2p_server_app.c **** /* USER CODE END PV */
 122:STM32_WPAN/App/p2p_server_app.c **** 
 123:STM32_WPAN/App/p2p_server_app.c **** /* Private function prototypes -----------------------------------------------*/
 124:STM32_WPAN/App/p2p_server_app.c **** /* USER CODE BEGIN PFP */
 125:STM32_WPAN/App/p2p_server_app.c **** static void P2PS_Send_Notification(void);
 126:STM32_WPAN/App/p2p_server_app.c **** static void P2P_Send_Data(void);
 127:STM32_WPAN/App/p2p_server_app.c **** static void P2PS_APP_LED_BUTTON_context_Init(void);
 128:STM32_WPAN/App/p2p_server_app.c **** /* USER CODE END PFP */
 129:STM32_WPAN/App/p2p_server_app.c **** 
 130:STM32_WPAN/App/p2p_server_app.c **** /* Functions Definition ------------------------------------------------------*/
 131:STM32_WPAN/App/p2p_server_app.c **** void P2PS_STM_App_Notification(P2PS_STM_App_Notification_evt_t *pNotification)
 132:STM32_WPAN/App/p2p_server_app.c **** {
 133:STM32_WPAN/App/p2p_server_app.c **** /* USER CODE BEGIN P2PS_STM_App_Notification_1 */
 134:STM32_WPAN/App/p2p_server_app.c **** 
 135:STM32_WPAN/App/p2p_server_app.c **** /* USER CODE END P2PS_STM_App_Notification_1 */
 136:STM32_WPAN/App/p2p_server_app.c ****   switch(pNotification->P2P_Evt_Opcode)
 137:STM32_WPAN/App/p2p_server_app.c ****   {
 138:STM32_WPAN/App/p2p_server_app.c **** /* USER CODE BEGIN P2PS_STM_App_Notification_P2P_Evt_Opcode */
 139:STM32_WPAN/App/p2p_server_app.c **** #if(BLE_CFG_OTA_REBOOT_CHAR != 0)
 140:STM32_WPAN/App/p2p_server_app.c ****     case P2PS_STM_BOOT_REQUEST_EVT:
 141:STM32_WPAN/App/p2p_server_app.c ****       APP_DBG_MSG("-- P2P APPLICATION SERVER : BOOT REQUESTED\n");
 142:STM32_WPAN/App/p2p_server_app.c ****       APP_DBG_MSG(" \n\r");
 143:STM32_WPAN/App/p2p_server_app.c **** 
 144:STM32_WPAN/App/p2p_server_app.c ****       *(uint32_t*)SRAM1_BASE = *(uint32_t*)pNotification->DataTransfered.pPayload;
 145:STM32_WPAN/App/p2p_server_app.c ****       NVIC_SystemReset();
ARM GAS  /var/folders/lt/l_qrc8c54t93n_phsj7cf5tc0000gn/T//ccA3hYQE.s 			page 4


 146:STM32_WPAN/App/p2p_server_app.c ****       break;
 147:STM32_WPAN/App/p2p_server_app.c **** #endif
 148:STM32_WPAN/App/p2p_server_app.c **** /* USER CODE END P2PS_STM_App_Notification_P2P_Evt_Opcode */
 149:STM32_WPAN/App/p2p_server_app.c **** 
 150:STM32_WPAN/App/p2p_server_app.c ****     case P2PS_STM__NOTIFY_ENABLED_EVT:
 151:STM32_WPAN/App/p2p_server_app.c **** /* USER CODE BEGIN P2PS_STM__NOTIFY_ENABLED_EVT */
 152:STM32_WPAN/App/p2p_server_app.c ****       P2P_Server_App_Context.DTFlowStatus = DATA_TRANSFER_ON;
 153:STM32_WPAN/App/p2p_server_app.c ****       APP_DBG_MSG("Data Flow Status Turned ON");
 154:STM32_WPAN/App/p2p_server_app.c ****       P2P_Server_App_Context.Notification_Status = 1;
 155:STM32_WPAN/App/p2p_server_app.c ****       APP_DBG_MSG("-- P2P APPLICATION SERVER : NOTIFICATION ENABLED\n"); 
 156:STM32_WPAN/App/p2p_server_app.c ****       APP_DBG_MSG(" \n\r");
 157:STM32_WPAN/App/p2p_server_app.c **** /* USER CODE END P2PS_STM__NOTIFY_ENABLED_EVT */
 158:STM32_WPAN/App/p2p_server_app.c ****       break;
 159:STM32_WPAN/App/p2p_server_app.c **** 
 160:STM32_WPAN/App/p2p_server_app.c ****     case P2PS_STM_NOTIFY_DISABLED_EVT:
 161:STM32_WPAN/App/p2p_server_app.c **** /* USER CODE BEGIN P2PS_STM_NOTIFY_DISABLED_EVT */
 162:STM32_WPAN/App/p2p_server_app.c ****       P2P_Server_App_Context.DTFlowStatus = DATA_TRANSFER_OFF;
 163:STM32_WPAN/App/p2p_server_app.c ****       APP_DBG_MSG("Data Flow Status Turned OFF");
 164:STM32_WPAN/App/p2p_server_app.c ****       P2P_Server_App_Context.Notification_Status = 0;
 165:STM32_WPAN/App/p2p_server_app.c ****       APP_DBG_MSG("-- P2P APPLICATION SERVER : NOTIFICATION DISABLED\n");
 166:STM32_WPAN/App/p2p_server_app.c ****       APP_DBG_MSG(" \n\r");
 167:STM32_WPAN/App/p2p_server_app.c **** /* USER CODE END P2PS_STM_NOTIFY_DISABLED_EVT */
 168:STM32_WPAN/App/p2p_server_app.c ****       break;
 169:STM32_WPAN/App/p2p_server_app.c **** 
 170:STM32_WPAN/App/p2p_server_app.c ****     case P2PS_STM_WRITE_EVT:
 171:STM32_WPAN/App/p2p_server_app.c **** /* USER CODE BEGIN P2PS_STM_WRITE_EVT */
 172:STM32_WPAN/App/p2p_server_app.c ****       APP_DBG_MSG("Event recieved: %s\r\n", pNotification->DataTransfered.pPayload);
 173:STM32_WPAN/App/p2p_server_app.c ****       
 174:STM32_WPAN/App/p2p_server_app.c ****       uint8_t * command = pNotification->DataTransfered.pPayload;
 175:STM32_WPAN/App/p2p_server_app.c ****       // uint8_t * data = "data";
 176:STM32_WPAN/App/p2p_server_app.c ****       // APP_DBG_MSG("strlen %d", strlen(command));
 177:STM32_WPAN/App/p2p_server_app.c ****       // APP_DBG_MSG("Command: %s", command);
 178:STM32_WPAN/App/p2p_server_app.c ****   
 179:STM32_WPAN/App/p2p_server_app.c ****       // COMMAND: data
 180:STM32_WPAN/App/p2p_server_app.c ****       if (strncmp(command, "data", 4) == 0) {
 181:STM32_WPAN/App/p2p_server_app.c ****         APP_DBG_MSG("COMMAND: data");
 182:STM32_WPAN/App/p2p_server_app.c ****         APP_DBG_MSG("Turning on datasend");
 183:STM32_WPAN/App/p2p_server_app.c ****         P2P_Send_Data();
 184:STM32_WPAN/App/p2p_server_app.c ****         // for (int i = 0; i < 100; i ++){
 185:STM32_WPAN/App/p2p_server_app.c ****         //   P2P_Send_Data();
 186:STM32_WPAN/App/p2p_server_app.c ****         // }
 187:STM32_WPAN/App/p2p_server_app.c **** 
 188:STM32_WPAN/App/p2p_server_app.c ****       }
 189:STM32_WPAN/App/p2p_server_app.c ****       // COMMAND: data
 190:STM32_WPAN/App/p2p_server_app.c ****       else if (strncmp(command, "lof", 3) == 0) {
 191:STM32_WPAN/App/p2p_server_app.c ****         BSP_LED_Off(LED_BLUE);
 192:STM32_WPAN/App/p2p_server_app.c ****         APP_DBG_MSG("COMMAND: lof");
 193:STM32_WPAN/App/p2p_server_app.c ****       }
 194:STM32_WPAN/App/p2p_server_app.c ****       // COMMAND: data
 195:STM32_WPAN/App/p2p_server_app.c ****       else if (strncmp(command, "lon", 3) == 0) {
 196:STM32_WPAN/App/p2p_server_app.c ****         BSP_LED_On(LED_BLUE);
 197:STM32_WPAN/App/p2p_server_app.c ****         APP_DBG_MSG("COMMAND: lon");
 198:STM32_WPAN/App/p2p_server_app.c ****       }
 199:STM32_WPAN/App/p2p_server_app.c ****       
 200:STM32_WPAN/App/p2p_server_app.c ****       // // TURN ON LED
 201:STM32_WPAN/App/p2p_server_app.c ****       // if(pNotification->DataTransfered.pPayload[0] == 0x00){ /* ALL Deviceselected - may be nece
 202:STM32_WPAN/App/p2p_server_app.c ****       //   // TURN ON LED
ARM GAS  /var/folders/lt/l_qrc8c54t93n_phsj7cf5tc0000gn/T//ccA3hYQE.s 			page 5


 203:STM32_WPAN/App/p2p_server_app.c ****       //   if(pNotification->DataTransfered.pPayload[1] == 0x01)
 204:STM32_WPAN/App/p2p_server_app.c ****       //   {
 205:STM32_WPAN/App/p2p_server_app.c ****       //     BSP_LED_On(LED_BLUE);
 206:STM32_WPAN/App/p2p_server_app.c ****       //     APP_DBG_MSG("-- P2P APPLICATION SERVER  : LED1 ON\n"); 
 207:STM32_WPAN/App/p2p_server_app.c ****       //     APP_DBG_MSG(" \n\r");
 208:STM32_WPAN/App/p2p_server_app.c ****       //     P2P_Server_App_Context.LedControl.Led1=0x01; /* LED1 ON */
 209:STM32_WPAN/App/p2p_server_app.c ****       //   }
 210:STM32_WPAN/App/p2p_server_app.c ****       //   // TURN OFF LED
 211:STM32_WPAN/App/p2p_server_app.c ****       //   if(pNotification->DataTransfered.pPayload[1] == 0x00)
 212:STM32_WPAN/App/p2p_server_app.c ****       //   {
 213:STM32_WPAN/App/p2p_server_app.c ****       //     BSP_LED_Off(LED_BLUE);
 214:STM32_WPAN/App/p2p_server_app.c ****       //     APP_DBG_MSG("-- P2P APPLICATION SERVER  : LED1 OFF\n"); 
 215:STM32_WPAN/App/p2p_server_app.c ****       //     APP_DBG_MSG(" \n\r");
 216:STM32_WPAN/App/p2p_server_app.c ****       //     P2P_Server_App_Context.LedControl.Led1=0x00; /* LED1 OFF */
 217:STM32_WPAN/App/p2p_server_app.c ****       //   }
 218:STM32_WPAN/App/p2p_server_app.c ****       // }
 219:STM32_WPAN/App/p2p_server_app.c **** 
 220:STM32_WPAN/App/p2p_server_app.c **** 
 221:STM32_WPAN/App/p2p_server_app.c **** 
 222:STM32_WPAN/App/p2p_server_app.c **** /* USER CODE END P2PS_STM_WRITE_EVT */
 223:STM32_WPAN/App/p2p_server_app.c ****       break;
 224:STM32_WPAN/App/p2p_server_app.c **** 
 225:STM32_WPAN/App/p2p_server_app.c ****   
 226:STM32_WPAN/App/p2p_server_app.c **** 
 227:STM32_WPAN/App/p2p_server_app.c **** 
 228:STM32_WPAN/App/p2p_server_app.c ****     default:
 229:STM32_WPAN/App/p2p_server_app.c **** /* USER CODE BEGIN P2PS_STM_App_Notification_default */
 230:STM32_WPAN/App/p2p_server_app.c ****       
 231:STM32_WPAN/App/p2p_server_app.c **** /* USER CODE END P2PS_STM_App_Notification_default */
 232:STM32_WPAN/App/p2p_server_app.c ****       break;
 233:STM32_WPAN/App/p2p_server_app.c ****   }
 234:STM32_WPAN/App/p2p_server_app.c **** /* USER CODE BEGIN P2PS_STM_App_Notification_2 */
 235:STM32_WPAN/App/p2p_server_app.c **** 
 236:STM32_WPAN/App/p2p_server_app.c **** /* USER CODE END P2PS_STM_App_Notification_2 */
 237:STM32_WPAN/App/p2p_server_app.c ****   return;
 238:STM32_WPAN/App/p2p_server_app.c **** }
 239:STM32_WPAN/App/p2p_server_app.c **** 
 240:STM32_WPAN/App/p2p_server_app.c **** void P2PS_APP_Notification(P2PS_APP_ConnHandle_Not_evt_t *pNotification)
 241:STM32_WPAN/App/p2p_server_app.c **** {
 242:STM32_WPAN/App/p2p_server_app.c **** /* USER CODE BEGIN P2PS_APP_Notification_1 */
 243:STM32_WPAN/App/p2p_server_app.c **** 
 244:STM32_WPAN/App/p2p_server_app.c **** /* USER CODE END P2PS_APP_Notification_1 */
 245:STM32_WPAN/App/p2p_server_app.c ****   switch(pNotification->P2P_Evt_Opcode)
 246:STM32_WPAN/App/p2p_server_app.c ****   {
 247:STM32_WPAN/App/p2p_server_app.c **** /* USER CODE BEGIN P2PS_APP_Notification_P2P_Evt_Opcode */
 248:STM32_WPAN/App/p2p_server_app.c **** 
 249:STM32_WPAN/App/p2p_server_app.c **** /* USER CODE END P2PS_APP_Notification_P2P_Evt_Opcode */
 250:STM32_WPAN/App/p2p_server_app.c ****   case PEER_CONN_HANDLE_EVT :
 251:STM32_WPAN/App/p2p_server_app.c **** /* USER CODE BEGIN PEER_CONN_HANDLE_EVT */
 252:STM32_WPAN/App/p2p_server_app.c ****           
 253:STM32_WPAN/App/p2p_server_app.c **** /* USER CODE END PEER_CONN_HANDLE_EVT */
 254:STM32_WPAN/App/p2p_server_app.c ****     break;
 255:STM32_WPAN/App/p2p_server_app.c **** 
 256:STM32_WPAN/App/p2p_server_app.c ****     case PEER_DISCON_HANDLE_EVT :
 257:STM32_WPAN/App/p2p_server_app.c **** /* USER CODE BEGIN PEER_DISCON_HANDLE_EVT */
 258:STM32_WPAN/App/p2p_server_app.c ****        P2PS_APP_LED_BUTTON_context_Init();       
 259:STM32_WPAN/App/p2p_server_app.c **** /* USER CODE END PEER_DISCON_HANDLE_EVT */
ARM GAS  /var/folders/lt/l_qrc8c54t93n_phsj7cf5tc0000gn/T//ccA3hYQE.s 			page 6


 260:STM32_WPAN/App/p2p_server_app.c ****     break;
 261:STM32_WPAN/App/p2p_server_app.c **** 
 262:STM32_WPAN/App/p2p_server_app.c ****     default:
 263:STM32_WPAN/App/p2p_server_app.c **** /* USER CODE BEGIN P2PS_APP_Notification_default */
 264:STM32_WPAN/App/p2p_server_app.c **** 
 265:STM32_WPAN/App/p2p_server_app.c **** /* USER CODE END P2PS_APP_Notification_default */
 266:STM32_WPAN/App/p2p_server_app.c ****       break;
 267:STM32_WPAN/App/p2p_server_app.c ****   }
 268:STM32_WPAN/App/p2p_server_app.c **** /* USER CODE BEGIN P2PS_APP_Notification_2 */
 269:STM32_WPAN/App/p2p_server_app.c **** 
 270:STM32_WPAN/App/p2p_server_app.c **** /* USER CODE END P2PS_APP_Notification_2 */
 271:STM32_WPAN/App/p2p_server_app.c ****   return;
 272:STM32_WPAN/App/p2p_server_app.c **** }
 273:STM32_WPAN/App/p2p_server_app.c **** 
 274:STM32_WPAN/App/p2p_server_app.c **** void P2PS_APP_Init(void)
 275:STM32_WPAN/App/p2p_server_app.c **** {
 276:STM32_WPAN/App/p2p_server_app.c **** /* USER CODE BEGIN P2PS_APP_Init */
 277:STM32_WPAN/App/p2p_server_app.c ****   UTIL_SEQ_RegTask( 1<< CFG_TASK_SW1_BUTTON_PUSHED_ID, UTIL_SEQ_RFU, P2PS_Send_Notification );
 278:STM32_WPAN/App/p2p_server_app.c ****   UTIL_SEQ_RegTask( 1<<CFG_TASK_DATA_TRANSFER_UPDATE_ID, UTIL_SEQ_RFU, P2P_Send_Data);
 279:STM32_WPAN/App/p2p_server_app.c ****   /**
 280:STM32_WPAN/App/p2p_server_app.c ****    * Initialize LedButton Service
 281:STM32_WPAN/App/p2p_server_app.c ****    */
 282:STM32_WPAN/App/p2p_server_app.c ****   P2P_Server_App_Context.Notification_Status=0; 
 283:STM32_WPAN/App/p2p_server_app.c ****   P2PS_APP_LED_BUTTON_context_Init();
 284:STM32_WPAN/App/p2p_server_app.c ****   P2P_Server_App_Context.DTFlowStatus = DATA_TRANSFER_OFF;
 285:STM32_WPAN/App/p2p_server_app.c **** /* USER CODE END P2PS_APP_Init */
 286:STM32_WPAN/App/p2p_server_app.c ****   return;
 287:STM32_WPAN/App/p2p_server_app.c **** }
 288:STM32_WPAN/App/p2p_server_app.c **** 
 289:STM32_WPAN/App/p2p_server_app.c **** /* USER CODE BEGIN FD */
 290:STM32_WPAN/App/p2p_server_app.c **** void P2PS_APP_LED_BUTTON_context_Init(void){
  28              		.loc 1 290 44 view -0
  29              		.cfi_startproc
  30              		@ args = 0, pretend = 0, frame = 0
  31              		@ frame_needed = 0, uses_anonymous_args = 0
  32 0000 08B5     		push	{r3, lr}
  33              	.LCFI0:
  34              		.cfi_def_cfa_offset 8
  35              		.cfi_offset 3, -8
  36              		.cfi_offset 14, -4
 291:STM32_WPAN/App/p2p_server_app.c ****   
 292:STM32_WPAN/App/p2p_server_app.c ****   BSP_LED_Off(LED_BLUE);
  37              		.loc 1 292 3 view .LVU1
  38 0002 0020     		movs	r0, #0
  39 0004 FFF7FEFF 		bl	BSP_LED_Off
  40              	.LVL0:
 293:STM32_WPAN/App/p2p_server_app.c ****   
 294:STM32_WPAN/App/p2p_server_app.c ****   #if(P2P_SERVER1 != 0)
 295:STM32_WPAN/App/p2p_server_app.c ****   P2P_Server_App_Context.LedControl.Device_Led_Selection=0x01; /* Device1 */
  41              		.loc 1 295 3 view .LVU2
  42              		.loc 1 295 57 is_stmt 0 view .LVU3
  43 0008 034B     		ldr	r3, .L3
  44 000a 0121     		movs	r1, #1
  45 000c 5970     		strb	r1, [r3, #1]
 296:STM32_WPAN/App/p2p_server_app.c ****   P2P_Server_App_Context.LedControl.Led1=0x00; /* led OFF */
  46              		.loc 1 296 3 is_stmt 1 view .LVU4
  47              		.loc 1 296 41 is_stmt 0 view .LVU5
ARM GAS  /var/folders/lt/l_qrc8c54t93n_phsj7cf5tc0000gn/T//ccA3hYQE.s 			page 7


  48 000e 0022     		movs	r2, #0
  49 0010 9A70     		strb	r2, [r3, #2]
 297:STM32_WPAN/App/p2p_server_app.c ****   P2P_Server_App_Context.ButtonControl.Device_Button_Selection=0x01;/* Device1 */
  50              		.loc 1 297 3 is_stmt 1 view .LVU6
  51              		.loc 1 297 63 is_stmt 0 view .LVU7
  52 0012 D970     		strb	r1, [r3, #3]
 298:STM32_WPAN/App/p2p_server_app.c ****   P2P_Server_App_Context.ButtonControl.ButtonStatus=0x00;
  53              		.loc 1 298 3 is_stmt 1 view .LVU8
  54              		.loc 1 298 52 is_stmt 0 view .LVU9
  55 0014 1A71     		strb	r2, [r3, #4]
 299:STM32_WPAN/App/p2p_server_app.c **** #endif
 300:STM32_WPAN/App/p2p_server_app.c **** // #if(P2P_SERVER2 != 0)
 301:STM32_WPAN/App/p2p_server_app.c **** //   P2P_Server_App_Context.LedControl.Device_Led_Selection=0x02; /* Device2 */
 302:STM32_WPAN/App/p2p_server_app.c **** //   P2P_Server_App_Context.LedControl.Led1=0x00; /* led OFF */
 303:STM32_WPAN/App/p2p_server_app.c **** //   P2P_Server_App_Context.ButtonControl.Device_Button_Selection=0x02;/* Device2 */
 304:STM32_WPAN/App/p2p_server_app.c **** //   P2P_Server_App_Context.ButtonControl.ButtonStatus=0x00;
 305:STM32_WPAN/App/p2p_server_app.c **** // #endif  
 306:STM32_WPAN/App/p2p_server_app.c **** // #if(P2P_SERVER3 != 0)
 307:STM32_WPAN/App/p2p_server_app.c **** //   P2P_Server_App_Context.LedControl.Device_Led_Selection=0x03; /* Device3 */
 308:STM32_WPAN/App/p2p_server_app.c **** //   P2P_Server_App_Context.LedControl.Led1=0x00; /* led OFF */
 309:STM32_WPAN/App/p2p_server_app.c **** //   P2P_Server_App_Context.ButtonControl.Device_Button_Selection=0x03; /* Device3 */
 310:STM32_WPAN/App/p2p_server_app.c **** //   P2P_Server_App_Context.ButtonControl.ButtonStatus=0x00;
 311:STM32_WPAN/App/p2p_server_app.c **** // #endif
 312:STM32_WPAN/App/p2p_server_app.c **** // #if(P2P_SERVER4 != 0)
 313:STM32_WPAN/App/p2p_server_app.c **** //   P2P_Server_App_Context.LedControl.Device_Led_Selection=0x04; /* Device4 */
 314:STM32_WPAN/App/p2p_server_app.c **** //   P2P_Server_App_Context.LedControl.Led1=0x00; /* led OFF */
 315:STM32_WPAN/App/p2p_server_app.c **** //   P2P_Server_App_Context.ButtonControl.Device_Button_Selection=0x04; /* Device4 */
 316:STM32_WPAN/App/p2p_server_app.c **** //   P2P_Server_App_Context.ButtonControl.ButtonStatus=0x00;
 317:STM32_WPAN/App/p2p_server_app.c **** // #endif  
 318:STM32_WPAN/App/p2p_server_app.c **** //  #if(P2P_SERVER5 != 0)
 319:STM32_WPAN/App/p2p_server_app.c **** //   P2P_Server_App_Context.LedControl.Device_Led_Selection=0x05; /* Device5 */
 320:STM32_WPAN/App/p2p_server_app.c **** //   P2P_Server_App_Context.LedControl.Led1=0x00; /* led OFF */
 321:STM32_WPAN/App/p2p_server_app.c **** //   P2P_Server_App_Context.ButtonControl.Device_Button_Selection=0x05; /* Device5 */
 322:STM32_WPAN/App/p2p_server_app.c **** //   P2P_Server_App_Context.ButtonControl.ButtonStatus=0x00;
 323:STM32_WPAN/App/p2p_server_app.c **** // #endif
 324:STM32_WPAN/App/p2p_server_app.c **** // #if(P2P_SERVER6 != 0)
 325:STM32_WPAN/App/p2p_server_app.c **** //   P2P_Server_App_Context.LedControl.Device_Led_Selection=0x06; /* device6 */
 326:STM32_WPAN/App/p2p_server_app.c **** //   P2P_Server_App_Context.LedControl.Led1=0x00; /* led OFF */
 327:STM32_WPAN/App/p2p_server_app.c **** //   P2P_Server_App_Context.ButtonControl.Device_Button_Selection=0x06; /* Device6 */
 328:STM32_WPAN/App/p2p_server_app.c **** //   P2P_Server_App_Context.ButtonControl.ButtonStatus=0x00;
 329:STM32_WPAN/App/p2p_server_app.c **** // #endif  
 330:STM32_WPAN/App/p2p_server_app.c **** }
  56              		.loc 1 330 1 view .LVU10
  57 0016 08BD     		pop	{r3, pc}
  58              	.L4:
  59              		.align	2
  60              	.L3:
  61 0018 00000000 		.word	.LANCHOR0
  62              		.cfi_endproc
  63              	.LFE1264:
  65              		.section	.rodata.P2P_Send_Data.str1.4,"aMS",%progbits,1
  66              		.align	2
  67              	.LC1:
  68 0000 53544D33 		.ascii	"STM32_WPAN/App/p2p_server_app.c\000"
  68      325F5750 
  68      414E2F41 
  68      70702F70 
ARM GAS  /var/folders/lt/l_qrc8c54t93n_phsj7cf5tc0000gn/T//ccA3hYQE.s 			page 8


  68      32705F73 
  69              		.align	2
  70              	.LC2:
  71 0020 0D0A205B 		.ascii	"\015\012 [%s][%s][%d] \000"
  71      25735D5B 
  71      25735D5B 
  71      25645D20 
  71      00
  72 0031 000000   		.align	2
  73              	.LC3:
  74 0034 2D2D2050 		.ascii	"-- P2P APPLICATION SERVER  : SENDING DATA\000"
  74      32502041 
  74      50504C49 
  74      43415449 
  74      4F4E2053 
  75 005e 0000     		.align	2
  76              	.LC4:
  77 0060 200A0D00 		.ascii	" \012\015\000"
  78              		.align	2
  79              	.LC5:
  80 0064 2D2D2050 		.ascii	"-- P2P APPLICATION SERVER : CAN'T SEND DATA -  NOTI"
  80      32502041 
  80      50504C49 
  80      43415449 
  80      4F4E2053 
  81 0097 46494341 		.ascii	"FICATION DISABLED\012 \000"
  81      54494F4E 
  81      20444953 
  81      41424C45 
  81      440A2000 
  82 00ab 00       		.align	2
  83              	.LC0:
  84 00ac 30313031 		.ascii	"01010001FFFFFFFF0000111100000000\000"
  84      30303031 
  84      46464646 
  84      46464646 
  84      30303030 
  85              		.section	.text.P2P_Send_Data,"ax",%progbits
  86              		.align	1
  87              		.syntax unified
  88              		.thumb
  89              		.thumb_func
  90              		.fpu fpv4-sp-d16
  92              	P2P_Send_Data:
  93              	.LFB1267:
 331:STM32_WPAN/App/p2p_server_app.c **** 
 332:STM32_WPAN/App/p2p_server_app.c **** void P2PS_APP_SW1_Button_Action(void)
 333:STM32_WPAN/App/p2p_server_app.c **** {
 334:STM32_WPAN/App/p2p_server_app.c ****   UTIL_SEQ_SetTask( 1<<CFG_TASK_SW1_BUTTON_PUSHED_ID, CFG_SCH_PRIO_0);
 335:STM32_WPAN/App/p2p_server_app.c **** 
 336:STM32_WPAN/App/p2p_server_app.c ****   return;
 337:STM32_WPAN/App/p2p_server_app.c **** }
 338:STM32_WPAN/App/p2p_server_app.c **** /* USER CODE END FD */
 339:STM32_WPAN/App/p2p_server_app.c **** 
 340:STM32_WPAN/App/p2p_server_app.c **** /*************************************************************
 341:STM32_WPAN/App/p2p_server_app.c ****  *
 342:STM32_WPAN/App/p2p_server_app.c ****  * LOCAL FUNCTIONS
ARM GAS  /var/folders/lt/l_qrc8c54t93n_phsj7cf5tc0000gn/T//ccA3hYQE.s 			page 9


 343:STM32_WPAN/App/p2p_server_app.c ****  *
 344:STM32_WPAN/App/p2p_server_app.c ****  *************************************************************/
 345:STM32_WPAN/App/p2p_server_app.c **** /* USER CODE BEGIN FD_LOCAL_FUNCTIONS*/
 346:STM32_WPAN/App/p2p_server_app.c **** void P2PS_Send_Notification(void)
 347:STM32_WPAN/App/p2p_server_app.c **** {
 348:STM32_WPAN/App/p2p_server_app.c ****  
 349:STM32_WPAN/App/p2p_server_app.c ****   if(P2P_Server_App_Context.ButtonControl.ButtonStatus == 0x00){
 350:STM32_WPAN/App/p2p_server_app.c ****     P2P_Server_App_Context.ButtonControl.ButtonStatus=0x01;
 351:STM32_WPAN/App/p2p_server_app.c ****   } else {
 352:STM32_WPAN/App/p2p_server_app.c ****     P2P_Server_App_Context.ButtonControl.ButtonStatus=0x00;
 353:STM32_WPAN/App/p2p_server_app.c ****   }
 354:STM32_WPAN/App/p2p_server_app.c ****   
 355:STM32_WPAN/App/p2p_server_app.c ****    if(P2P_Server_App_Context.Notification_Status){ 
 356:STM32_WPAN/App/p2p_server_app.c ****     APP_DBG_MSG("-- P2P APPLICATION SERVER  : INFORM CLIENT BUTTON 1 PUSHED \n ");
 357:STM32_WPAN/App/p2p_server_app.c ****     APP_DBG_MSG(" \n\r");
 358:STM32_WPAN/App/p2p_server_app.c ****     P2PS_STM_App_Update_Char(P2P_NOTIFY_CHAR_UUID, (uint8_t *)&P2P_Server_App_Context.ButtonControl
 359:STM32_WPAN/App/p2p_server_app.c ****    } else {
 360:STM32_WPAN/App/p2p_server_app.c ****     APP_DBG_MSG("-- P2P APPLICATION SERVER : CAN'T INFORM CLIENT -  NOTIFICATION DISABLED\n "); 
 361:STM32_WPAN/App/p2p_server_app.c ****    }
 362:STM32_WPAN/App/p2p_server_app.c **** 
 363:STM32_WPAN/App/p2p_server_app.c ****   return;
 364:STM32_WPAN/App/p2p_server_app.c **** }
 365:STM32_WPAN/App/p2p_server_app.c **** void P2P_Send_Data(void)
 366:STM32_WPAN/App/p2p_server_app.c **** {
  94              		.loc 1 366 1 is_stmt 1 view -0
  95              		.cfi_startproc
  96              		@ args = 0, pretend = 0, frame = 40
  97              		@ frame_needed = 0, uses_anonymous_args = 0
  98 0000 F0B5     		push	{r4, r5, r6, r7, lr}
  99              	.LCFI1:
 100              		.cfi_def_cfa_offset 20
 101              		.cfi_offset 4, -20
 102              		.cfi_offset 5, -16
 103              		.cfi_offset 6, -12
 104              		.cfi_offset 7, -8
 105              		.cfi_offset 14, -4
 106 0002 8BB0     		sub	sp, sp, #44
 107              	.LCFI2:
 108              		.cfi_def_cfa_offset 64
 367:STM32_WPAN/App/p2p_server_app.c ****   // sensordata_t temp_data = {0};
 368:STM32_WPAN/App/p2p_server_app.c ****   // temp_data.watermark = 0x02;
 369:STM32_WPAN/App/p2p_server_app.c **** 
 370:STM32_WPAN/App/p2p_server_app.c ****   // temp_data.status = 00;
 371:STM32_WPAN/App/p2p_server_app.c ****   // temp_data.record_number = 00;
 372:STM32_WPAN/App/p2p_server_app.c ****   // temp_data.timestamp = 0;
 373:STM32_WPAN/App/p2p_server_app.c ****   // temp_data.battery_voltage = (uint16_t) 0;
 374:STM32_WPAN/App/p2p_server_app.c ****   // temp_data.temperature = (int16_t) 0;
 375:STM32_WPAN/App/p2p_server_app.c ****   // temp_data.sensor_period = (uint32_t) 0;
 376:STM32_WPAN/App/p2p_server_app.c ****   char temp_line[] ="01010001FFFFFFFF0000111100000000";
 109              		.loc 1 376 3 view .LVU12
 110              		.loc 1 376 8 is_stmt 0 view .LVU13
 111 0004 01AC     		add	r4, sp, #4
 112 0006 214D     		ldr	r5, .L12
 113 0008 0FCD     		ldmia	r5!, {r0, r1, r2, r3}
 114 000a 0FC4     		stmia	r4!, {r0, r1, r2, r3}
 115 000c 0FCD     		ldmia	r5!, {r0, r1, r2, r3}
 116 000e 0FC4     		stmia	r4!, {r0, r1, r2, r3}
ARM GAS  /var/folders/lt/l_qrc8c54t93n_phsj7cf5tc0000gn/T//ccA3hYQE.s 			page 10


 117 0010 2B68     		ldr	r3, [r5]
 118 0012 2370     		strb	r3, [r4]
 377:STM32_WPAN/App/p2p_server_app.c ****   // char temp_line[64];
 378:STM32_WPAN/App/p2p_server_app.c ****   int counter = 0;
 119              		.loc 1 378 3 is_stmt 1 view .LVU14
 120              	.LVL1:
 379:STM32_WPAN/App/p2p_server_app.c ****   for (int i = 0; i < 10; i++) {
 121              		.loc 1 379 3 view .LVU15
 122              	.LBB2:
 123              		.loc 1 379 8 view .LVU16
 124              		.loc 1 379 12 is_stmt 0 view .LVU17
 125 0014 0024     		movs	r4, #0
 126              		.loc 1 379 3 view .LVU18
 127 0016 0DE0     		b	.L6
 128              	.LVL2:
 129              	.L7:
 380:STM32_WPAN/App/p2p_server_app.c ****     // itoa(i, temp_line, 10);
 381:STM32_WPAN/App/p2p_server_app.c ****     // temp_data.record_number +=1;
 382:STM32_WPAN/App/p2p_server_app.c ****     if(P2P_Server_App_Context.Notification_Status){ 
 383:STM32_WPAN/App/p2p_server_app.c ****       APP_DBG_MSG("-- P2P APPLICATION SERVER  : SENDING DATA\n");
 384:STM32_WPAN/App/p2p_server_app.c ****       APP_DBG_MSG(" \n\r");
 385:STM32_WPAN/App/p2p_server_app.c **** 
 386:STM32_WPAN/App/p2p_server_app.c ****       P2PS_STM_App_Update_Char(P2P_DATA_CHAR_UUID, (uint8_t *)&temp_line);
 387:STM32_WPAN/App/p2p_server_app.c ****     } 
 388:STM32_WPAN/App/p2p_server_app.c ****     else {
 389:STM32_WPAN/App/p2p_server_app.c ****       APP_DBG_MSG("-- P2P APPLICATION SERVER : CAN'T SEND DATA -  NOTIFICATION DISABLED\n "); 
 130              		.loc 1 389 7 is_stmt 1 view .LVU19
 131              		.loc 1 389 7 view .LVU20
 132 0018 1D48     		ldr	r0, .L12+4
 133 001a FFF7FEFF 		bl	DbgTraceGetFileName
 134              	.LVL3:
 135 001e 0146     		mov	r1, r0
 136 0020 40F28513 		movw	r3, #389
 137 0024 1B4A     		ldr	r2, .L12+8
 138 0026 1C48     		ldr	r0, .L12+12
 139 0028 FFF7FEFF 		bl	printf
 140              	.LVL4:
 141              		.loc 1 389 7 view .LVU21
 142 002c 1B48     		ldr	r0, .L12+16
 143 002e FFF7FEFF 		bl	printf
 144              	.LVL5:
 145              	.L8:
 146              		.loc 1 389 7 discriminator 1 view .LVU22
 147              		.loc 1 389 93 discriminator 1 view .LVU23
 379:STM32_WPAN/App/p2p_server_app.c ****   for (int i = 0; i < 10; i++) {
 148              		.loc 1 379 27 discriminator 1 view .LVU24
 379:STM32_WPAN/App/p2p_server_app.c ****   for (int i = 0; i < 10; i++) {
 149              		.loc 1 379 28 is_stmt 0 discriminator 1 view .LVU25
 150 0032 0134     		adds	r4, r4, #1
 151              	.LVL6:
 152              	.L6:
 379:STM32_WPAN/App/p2p_server_app.c ****   for (int i = 0; i < 10; i++) {
 153              		.loc 1 379 19 is_stmt 1 discriminator 2 view .LVU26
 379:STM32_WPAN/App/p2p_server_app.c ****   for (int i = 0; i < 10; i++) {
 154              		.loc 1 379 3 is_stmt 0 discriminator 2 view .LVU27
 155 0034 092C     		cmp	r4, #9
 156 0036 26DC     		bgt	.L11
ARM GAS  /var/folders/lt/l_qrc8c54t93n_phsj7cf5tc0000gn/T//ccA3hYQE.s 			page 11


 382:STM32_WPAN/App/p2p_server_app.c ****       APP_DBG_MSG("-- P2P APPLICATION SERVER  : SENDING DATA\n");
 157              		.loc 1 382 5 is_stmt 1 view .LVU28
 382:STM32_WPAN/App/p2p_server_app.c ****       APP_DBG_MSG("-- P2P APPLICATION SERVER  : SENDING DATA\n");
 158              		.loc 1 382 30 is_stmt 0 view .LVU29
 159 0038 194B     		ldr	r3, .L12+20
 160 003a 1B78     		ldrb	r3, [r3]	@ zero_extendqisi2
 382:STM32_WPAN/App/p2p_server_app.c ****       APP_DBG_MSG("-- P2P APPLICATION SERVER  : SENDING DATA\n");
 161              		.loc 1 382 7 view .LVU30
 162 003c 002B     		cmp	r3, #0
 163 003e EBD0     		beq	.L7
 383:STM32_WPAN/App/p2p_server_app.c ****       APP_DBG_MSG(" \n\r");
 164              		.loc 1 383 7 is_stmt 1 view .LVU31
 383:STM32_WPAN/App/p2p_server_app.c ****       APP_DBG_MSG(" \n\r");
 165              		.loc 1 383 7 view .LVU32
 166 0040 134F     		ldr	r7, .L12+4
 167 0042 3846     		mov	r0, r7
 168 0044 FFF7FEFF 		bl	DbgTraceGetFileName
 169              	.LVL7:
 170 0048 0146     		mov	r1, r0
 171 004a 124E     		ldr	r6, .L12+8
 172 004c 124D     		ldr	r5, .L12+12
 173 004e 40F27F13 		movw	r3, #383
 174 0052 3246     		mov	r2, r6
 175 0054 2846     		mov	r0, r5
 176 0056 FFF7FEFF 		bl	printf
 177              	.LVL8:
 383:STM32_WPAN/App/p2p_server_app.c ****       APP_DBG_MSG(" \n\r");
 178              		.loc 1 383 7 view .LVU33
 179 005a 1248     		ldr	r0, .L12+24
 180 005c FFF7FEFF 		bl	puts
 181              	.LVL9:
 383:STM32_WPAN/App/p2p_server_app.c ****       APP_DBG_MSG(" \n\r");
 182              		.loc 1 383 7 view .LVU34
 383:STM32_WPAN/App/p2p_server_app.c ****       APP_DBG_MSG(" \n\r");
 183              		.loc 1 383 65 view .LVU35
 384:STM32_WPAN/App/p2p_server_app.c **** 
 184              		.loc 1 384 7 view .LVU36
 384:STM32_WPAN/App/p2p_server_app.c **** 
 185              		.loc 1 384 7 view .LVU37
 186 0060 3846     		mov	r0, r7
 187 0062 FFF7FEFF 		bl	DbgTraceGetFileName
 188              	.LVL10:
 189 0066 0146     		mov	r1, r0
 190 0068 4FF4C073 		mov	r3, #384
 191 006c 3246     		mov	r2, r6
 192 006e 2846     		mov	r0, r5
 193 0070 FFF7FEFF 		bl	printf
 194              	.LVL11:
 384:STM32_WPAN/App/p2p_server_app.c **** 
 195              		.loc 1 384 7 view .LVU38
 196 0074 0C48     		ldr	r0, .L12+28
 197 0076 FFF7FEFF 		bl	printf
 198              	.LVL12:
 384:STM32_WPAN/App/p2p_server_app.c **** 
 199              		.loc 1 384 7 view .LVU39
 384:STM32_WPAN/App/p2p_server_app.c **** 
 200              		.loc 1 384 27 view .LVU40
ARM GAS  /var/folders/lt/l_qrc8c54t93n_phsj7cf5tc0000gn/T//ccA3hYQE.s 			page 12


 386:STM32_WPAN/App/p2p_server_app.c ****     } 
 201              		.loc 1 386 7 view .LVU41
 202 007a 01A9     		add	r1, sp, #4
 203 007c 4FF64360 		movw	r0, #65091
 204 0080 FFF7FEFF 		bl	P2PS_STM_App_Update_Char
 205              	.LVL13:
 206 0084 D5E7     		b	.L8
 207              	.L11:
 208              	.LBE2:
 390:STM32_WPAN/App/p2p_server_app.c ****    }
 391:STM32_WPAN/App/p2p_server_app.c ****   }
 392:STM32_WPAN/App/p2p_server_app.c ****   return;
 393:STM32_WPAN/App/p2p_server_app.c ****   // int MAX_LEN = 10;
 394:STM32_WPAN/App/p2p_server_app.c ****   // uint8_t Notification_Data_Buffer[MAX_LEN];
 395:STM32_WPAN/App/p2p_server_app.c ****   // if(P2P_Server_App_Context.DTFlowStatus == DATA_TRANSFER_OFF) {
 396:STM32_WPAN/App/p2p_server_app.c ****   //   APP_DBG_MSG("FLOW OFF");
 397:STM32_WPAN/App/p2p_server_app.c ****   // }
 398:STM32_WPAN/App/p2p_server_app.c ****   // else if(P2P_Server_App_Context.DTFlowStatus == DATA_SEND) {
 399:STM32_WPAN/App/p2p_server_app.c ****   //   APP_DBG_MSG("Function: Send Data")
 400:STM32_WPAN/App/p2p_server_app.c ****   
 401:STM32_WPAN/App/p2p_server_app.c ****   //   tBleStatus status = BLE_STATUS_INVALID_PARAMS;
 402:STM32_WPAN/App/p2p_server_app.c ****   //   uint8_t crc_result;
 403:STM32_WPAN/App/p2p_server_app.c **** 
 404:STM32_WPAN/App/p2p_server_app.c ****   //   Notification_Data_Buffer[0] += 1;
 405:STM32_WPAN/App/p2p_server_app.c ****   //   crc_result = APP_BLE_ComputeCRC8((uint8_t*) Notification_Data_Buffer, (MAX_LEN - 1));
 406:STM32_WPAN/App/p2p_server_app.c ****   //   Notification_Data_Buffer[MAX_LEN - 1] = crc_result;
 407:STM32_WPAN/App/p2p_server_app.c **** 
 408:STM32_WPAN/App/p2p_server_app.c ****   //   status = P2PS_STM_App_Update_Char(P2P_DATA_CHAR_UUID, (uint8_t *) &temp_line);
 409:STM32_WPAN/App/p2p_server_app.c ****   //   if (status == BLE_STATUS_INSUFFICIENT_RESOURCES)
 410:STM32_WPAN/App/p2p_server_app.c ****   //   {
 411:STM32_WPAN/App/p2p_server_app.c ****   //     P2P_Server_App_Context.DTFlowStatus = DATA_TRANSFER_OFF;
 412:STM32_WPAN/App/p2p_server_app.c ****   //     (Notification_Data_Buffer[0])-=1;
 413:STM32_WPAN/App/p2p_server_app.c ****   //   }
 414:STM32_WPAN/App/p2p_server_app.c ****   //   else
 415:STM32_WPAN/App/p2p_server_app.c ****   //   {
 416:STM32_WPAN/App/p2p_server_app.c ****   //     UTIL_SEQ_SetTask(1 << CFG_TASK_DATA_TRANSFER_UPDATE_ID, CFG_SCH_PRIO_0);
 417:STM32_WPAN/App/p2p_server_app.c ****   //   }
 418:STM32_WPAN/App/p2p_server_app.c ****   //   }
 419:STM32_WPAN/App/p2p_server_app.c ****   // return;
 420:STM32_WPAN/App/p2p_server_app.c ****   // P2P_Server_App_Context.SensorData = temp_line;
 421:STM32_WPAN/App/p2p_server_app.c ****   // crc_result = APP_BLE_ComputeCRC8((uint8_t*) Notification_Data_Buffer, (DATA_NOTIFICATION_MAX_P
 422:STM32_WPAN/App/p2p_server_app.c **** }
 209              		.loc 1 422 1 is_stmt 0 view .LVU42
 210 0086 0BB0     		add	sp, sp, #44
 211              	.LCFI3:
 212              		.cfi_def_cfa_offset 20
 213              		@ sp needed
 214 0088 F0BD     		pop	{r4, r5, r6, r7, pc}
 215              	.LVL14:
 216              	.L13:
 217              		.loc 1 422 1 view .LVU43
 218 008a 00BF     		.align	2
 219              	.L12:
 220 008c AC000000 		.word	.LC0
 221 0090 00000000 		.word	.LC1
 222 0094 00000000 		.word	.LANCHOR1
 223 0098 20000000 		.word	.LC2
ARM GAS  /var/folders/lt/l_qrc8c54t93n_phsj7cf5tc0000gn/T//ccA3hYQE.s 			page 13


 224 009c 64000000 		.word	.LC5
 225 00a0 00000000 		.word	.LANCHOR0
 226 00a4 34000000 		.word	.LC3
 227 00a8 60000000 		.word	.LC4
 228              		.cfi_endproc
 229              	.LFE1267:
 231              		.section	.rodata.P2PS_Send_Notification.str1.4,"aMS",%progbits,1
 232              		.align	2
 233              	.LC6:
 234 0000 2D2D2050 		.ascii	"-- P2P APPLICATION SERVER  : INFORM CLIENT BUTTON 1"
 234      32502041 
 234      50504C49 
 234      43415449 
 234      4F4E2053 
 235 0033 20505553 		.ascii	" PUSHED \012 \000"
 235      48454420 
 235      0A2000
 236 003e 0000     		.align	2
 237              	.LC7:
 238 0040 2D2D2050 		.ascii	"-- P2P APPLICATION SERVER : CAN'T INFORM CLIENT -  "
 238      32502041 
 238      50504C49 
 238      43415449 
 238      4F4E2053 
 239 0073 4E4F5449 		.ascii	"NOTIFICATION DISABLED\012 \000"
 239      46494341 
 239      54494F4E 
 239      20444953 
 239      41424C45 
 240              		.section	.text.P2PS_Send_Notification,"ax",%progbits
 241              		.align	1
 242              		.syntax unified
 243              		.thumb
 244              		.thumb_func
 245              		.fpu fpv4-sp-d16
 247              	P2PS_Send_Notification:
 248              	.LFB1266:
 347:STM32_WPAN/App/p2p_server_app.c ****  
 249              		.loc 1 347 1 is_stmt 1 view -0
 250              		.cfi_startproc
 251              		@ args = 0, pretend = 0, frame = 0
 252              		@ frame_needed = 0, uses_anonymous_args = 0
 253 0000 70B5     		push	{r4, r5, r6, lr}
 254              	.LCFI4:
 255              		.cfi_def_cfa_offset 16
 256              		.cfi_offset 4, -16
 257              		.cfi_offset 5, -12
 258              		.cfi_offset 6, -8
 259              		.cfi_offset 14, -4
 349:STM32_WPAN/App/p2p_server_app.c ****     P2P_Server_App_Context.ButtonControl.ButtonStatus=0x01;
 260              		.loc 1 349 3 view .LVU45
 349:STM32_WPAN/App/p2p_server_app.c ****     P2P_Server_App_Context.ButtonControl.ButtonStatus=0x01;
 261              		.loc 1 349 42 is_stmt 0 view .LVU46
 262 0002 1F4B     		ldr	r3, .L20
 263 0004 1B79     		ldrb	r3, [r3, #4]	@ zero_extendqisi2
 349:STM32_WPAN/App/p2p_server_app.c ****     P2P_Server_App_Context.ButtonControl.ButtonStatus=0x01;
 264              		.loc 1 349 5 view .LVU47
ARM GAS  /var/folders/lt/l_qrc8c54t93n_phsj7cf5tc0000gn/T//ccA3hYQE.s 			page 14


 265 0006 43BB     		cbnz	r3, .L15
 350:STM32_WPAN/App/p2p_server_app.c ****   } else {
 266              		.loc 1 350 5 is_stmt 1 view .LVU48
 350:STM32_WPAN/App/p2p_server_app.c ****   } else {
 267              		.loc 1 350 54 is_stmt 0 view .LVU49
 268 0008 1D4B     		ldr	r3, .L20
 269 000a 0122     		movs	r2, #1
 270 000c 1A71     		strb	r2, [r3, #4]
 271              	.L16:
 355:STM32_WPAN/App/p2p_server_app.c ****     APP_DBG_MSG("-- P2P APPLICATION SERVER  : INFORM CLIENT BUTTON 1 PUSHED \n ");
 272              		.loc 1 355 4 is_stmt 1 view .LVU50
 355:STM32_WPAN/App/p2p_server_app.c ****     APP_DBG_MSG("-- P2P APPLICATION SERVER  : INFORM CLIENT BUTTON 1 PUSHED \n ");
 273              		.loc 1 355 29 is_stmt 0 view .LVU51
 274 000e 1C4B     		ldr	r3, .L20
 275 0010 1B78     		ldrb	r3, [r3]	@ zero_extendqisi2
 355:STM32_WPAN/App/p2p_server_app.c ****     APP_DBG_MSG("-- P2P APPLICATION SERVER  : INFORM CLIENT BUTTON 1 PUSHED \n ");
 276              		.loc 1 355 6 view .LVU52
 277 0012 33B3     		cbz	r3, .L17
 356:STM32_WPAN/App/p2p_server_app.c ****     APP_DBG_MSG(" \n\r");
 278              		.loc 1 356 5 is_stmt 1 view .LVU53
 356:STM32_WPAN/App/p2p_server_app.c ****     APP_DBG_MSG(" \n\r");
 279              		.loc 1 356 5 view .LVU54
 280 0014 1B4E     		ldr	r6, .L20+4
 281 0016 3046     		mov	r0, r6
 282 0018 FFF7FEFF 		bl	DbgTraceGetFileName
 283              	.LVL15:
 284 001c 0146     		mov	r1, r0
 285 001e 1A4D     		ldr	r5, .L20+8
 286 0020 1A4C     		ldr	r4, .L20+12
 287 0022 4FF4B273 		mov	r3, #356
 288 0026 2A46     		mov	r2, r5
 289 0028 2046     		mov	r0, r4
 290 002a FFF7FEFF 		bl	printf
 291              	.LVL16:
 356:STM32_WPAN/App/p2p_server_app.c ****     APP_DBG_MSG(" \n\r");
 292              		.loc 1 356 5 view .LVU55
 293 002e 1848     		ldr	r0, .L20+16
 294 0030 FFF7FEFF 		bl	printf
 295              	.LVL17:
 356:STM32_WPAN/App/p2p_server_app.c ****     APP_DBG_MSG(" \n\r");
 296              		.loc 1 356 5 view .LVU56
 356:STM32_WPAN/App/p2p_server_app.c ****     APP_DBG_MSG(" \n\r");
 297              		.loc 1 356 82 view .LVU57
 357:STM32_WPAN/App/p2p_server_app.c ****     P2PS_STM_App_Update_Char(P2P_NOTIFY_CHAR_UUID, (uint8_t *)&P2P_Server_App_Context.ButtonControl
 298              		.loc 1 357 5 view .LVU58
 357:STM32_WPAN/App/p2p_server_app.c ****     P2PS_STM_App_Update_Char(P2P_NOTIFY_CHAR_UUID, (uint8_t *)&P2P_Server_App_Context.ButtonControl
 299              		.loc 1 357 5 view .LVU59
 300 0034 3046     		mov	r0, r6
 301 0036 FFF7FEFF 		bl	DbgTraceGetFileName
 302              	.LVL18:
 303 003a 0146     		mov	r1, r0
 304 003c 40F26513 		movw	r3, #357
 305 0040 2A46     		mov	r2, r5
 306 0042 2046     		mov	r0, r4
 307 0044 FFF7FEFF 		bl	printf
 308              	.LVL19:
 357:STM32_WPAN/App/p2p_server_app.c ****     P2PS_STM_App_Update_Char(P2P_NOTIFY_CHAR_UUID, (uint8_t *)&P2P_Server_App_Context.ButtonControl
ARM GAS  /var/folders/lt/l_qrc8c54t93n_phsj7cf5tc0000gn/T//ccA3hYQE.s 			page 15


 309              		.loc 1 357 5 view .LVU60
 310 0048 1248     		ldr	r0, .L20+20
 311 004a FFF7FEFF 		bl	printf
 312              	.LVL20:
 357:STM32_WPAN/App/p2p_server_app.c ****     P2PS_STM_App_Update_Char(P2P_NOTIFY_CHAR_UUID, (uint8_t *)&P2P_Server_App_Context.ButtonControl
 313              		.loc 1 357 5 view .LVU61
 357:STM32_WPAN/App/p2p_server_app.c ****     P2PS_STM_App_Update_Char(P2P_NOTIFY_CHAR_UUID, (uint8_t *)&P2P_Server_App_Context.ButtonControl
 314              		.loc 1 357 25 view .LVU62
 358:STM32_WPAN/App/p2p_server_app.c ****    } else {
 315              		.loc 1 358 5 view .LVU63
 316 004e 1249     		ldr	r1, .L20+24
 317 0050 4FF64260 		movw	r0, #65090
 318 0054 FFF7FEFF 		bl	P2PS_STM_App_Update_Char
 319              	.LVL21:
 320              	.L14:
 364:STM32_WPAN/App/p2p_server_app.c **** void P2P_Send_Data(void)
 321              		.loc 1 364 1 is_stmt 0 view .LVU64
 322 0058 70BD     		pop	{r4, r5, r6, pc}
 323              	.L15:
 352:STM32_WPAN/App/p2p_server_app.c ****   }
 324              		.loc 1 352 5 is_stmt 1 view .LVU65
 352:STM32_WPAN/App/p2p_server_app.c ****   }
 325              		.loc 1 352 54 is_stmt 0 view .LVU66
 326 005a 094B     		ldr	r3, .L20
 327 005c 0022     		movs	r2, #0
 328 005e 1A71     		strb	r2, [r3, #4]
 329 0060 D5E7     		b	.L16
 330              	.L17:
 360:STM32_WPAN/App/p2p_server_app.c ****    }
 331              		.loc 1 360 5 is_stmt 1 view .LVU67
 360:STM32_WPAN/App/p2p_server_app.c ****    }
 332              		.loc 1 360 5 view .LVU68
 333 0062 0848     		ldr	r0, .L20+4
 334 0064 FFF7FEFF 		bl	DbgTraceGetFileName
 335              	.LVL22:
 336 0068 0146     		mov	r1, r0
 337 006a 4FF4B473 		mov	r3, #360
 338 006e 064A     		ldr	r2, .L20+8
 339 0070 0648     		ldr	r0, .L20+12
 340 0072 FFF7FEFF 		bl	printf
 341              	.LVL23:
 360:STM32_WPAN/App/p2p_server_app.c ****    }
 342              		.loc 1 360 5 view .LVU69
 343 0076 0948     		ldr	r0, .L20+28
 344 0078 FFF7FEFF 		bl	printf
 345              	.LVL24:
 360:STM32_WPAN/App/p2p_server_app.c ****    }
 346              		.loc 1 360 5 view .LVU70
 360:STM32_WPAN/App/p2p_server_app.c ****    }
 347              		.loc 1 360 95 view .LVU71
 363:STM32_WPAN/App/p2p_server_app.c **** }
 348              		.loc 1 363 3 view .LVU72
 349 007c ECE7     		b	.L14
 350              	.L21:
 351 007e 00BF     		.align	2
 352              	.L20:
 353 0080 00000000 		.word	.LANCHOR0
ARM GAS  /var/folders/lt/l_qrc8c54t93n_phsj7cf5tc0000gn/T//ccA3hYQE.s 			page 16


 354 0084 00000000 		.word	.LC1
 355 0088 00000000 		.word	.LANCHOR2
 356 008c 20000000 		.word	.LC2
 357 0090 00000000 		.word	.LC6
 358 0094 60000000 		.word	.LC4
 359 0098 03000000 		.word	.LANCHOR0+3
 360 009c 40000000 		.word	.LC7
 361              		.cfi_endproc
 362              	.LFE1266:
 364              		.section	.rodata.P2PS_STM_App_Notification.str1.4,"aMS",%progbits,1
 365              		.align	2
 366              	.LC8:
 367 0000 44617461 		.ascii	"Data Flow Status Turned ON\000"
 367      20466C6F 
 367      77205374 
 367      61747573 
 367      20547572 
 368 001b 00       		.align	2
 369              	.LC9:
 370 001c 2D2D2050 		.ascii	"-- P2P APPLICATION SERVER : NOTIFICATION ENABLED\000"
 370      32502041 
 370      50504C49 
 370      43415449 
 370      4F4E2053 
 371 004d 000000   		.align	2
 372              	.LC10:
 373 0050 44617461 		.ascii	"Data Flow Status Turned OFF\000"
 373      20466C6F 
 373      77205374 
 373      61747573 
 373      20547572 
 374              		.align	2
 375              	.LC11:
 376 006c 2D2D2050 		.ascii	"-- P2P APPLICATION SERVER : NOTIFICATION DISABLED\000"
 376      32502041 
 376      50504C49 
 376      43415449 
 376      4F4E2053 
 377 009e 0000     		.align	2
 378              	.LC12:
 379 00a0 4576656E 		.ascii	"Event recieved: %s\015\012\000"
 379      74207265 
 379      63696576 
 379      65643A20 
 379      25730D0A 
 380 00b5 000000   		.align	2
 381              	.LC13:
 382 00b8 64617461 		.ascii	"data\000"
 382      00
 383 00bd 000000   		.align	2
 384              	.LC14:
 385 00c0 434F4D4D 		.ascii	"COMMAND: data\000"
 385      414E443A 
 385      20646174 
 385      6100
 386 00ce 0000     		.align	2
 387              	.LC15:
ARM GAS  /var/folders/lt/l_qrc8c54t93n_phsj7cf5tc0000gn/T//ccA3hYQE.s 			page 17


 388 00d0 5475726E 		.ascii	"Turning on datasend\000"
 388      696E6720 
 388      6F6E2064 
 388      61746173 
 388      656E6400 
 389              		.align	2
 390              	.LC16:
 391 00e4 6C6F6600 		.ascii	"lof\000"
 392              		.align	2
 393              	.LC17:
 394 00e8 434F4D4D 		.ascii	"COMMAND: lof\000"
 394      414E443A 
 394      206C6F66 
 394      00
 395 00f5 000000   		.align	2
 396              	.LC18:
 397 00f8 6C6F6E00 		.ascii	"lon\000"
 398              		.align	2
 399              	.LC19:
 400 00fc 434F4D4D 		.ascii	"COMMAND: lon\000"
 400      414E443A 
 400      206C6F6E 
 400      00
 401              		.section	.text.P2PS_STM_App_Notification,"ax",%progbits
 402              		.align	1
 403              		.global	P2PS_STM_App_Notification
 404              		.syntax unified
 405              		.thumb
 406              		.thumb_func
 407              		.fpu fpv4-sp-d16
 409              	P2PS_STM_App_Notification:
 410              	.LVL25:
 411              	.LFB1261:
 132:STM32_WPAN/App/p2p_server_app.c **** /* USER CODE BEGIN P2PS_STM_App_Notification_1 */
 412              		.loc 1 132 1 view -0
 413              		.cfi_startproc
 414              		@ args = 0, pretend = 0, frame = 0
 415              		@ frame_needed = 0, uses_anonymous_args = 0
 132:STM32_WPAN/App/p2p_server_app.c **** /* USER CODE BEGIN P2PS_STM_App_Notification_1 */
 416              		.loc 1 132 1 is_stmt 0 view .LVU74
 417 0000 2DE9F041 		push	{r4, r5, r6, r7, r8, lr}
 418              	.LCFI5:
 419              		.cfi_def_cfa_offset 24
 420              		.cfi_offset 4, -24
 421              		.cfi_offset 5, -20
 422              		.cfi_offset 6, -16
 423              		.cfi_offset 7, -12
 424              		.cfi_offset 8, -8
 425              		.cfi_offset 14, -4
 136:STM32_WPAN/App/p2p_server_app.c ****   {
 426              		.loc 1 136 3 is_stmt 1 view .LVU75
 136:STM32_WPAN/App/p2p_server_app.c ****   {
 427              		.loc 1 136 23 is_stmt 0 view .LVU76
 428 0004 0378     		ldrb	r3, [r0]	@ zero_extendqisi2
 136:STM32_WPAN/App/p2p_server_app.c ****   {
 429              		.loc 1 136 3 view .LVU77
 430 0006 012B     		cmp	r3, #1
ARM GAS  /var/folders/lt/l_qrc8c54t93n_phsj7cf5tc0000gn/T//ccA3hYQE.s 			page 18


 431 0008 34D0     		beq	.L23
 432 000a 0446     		mov	r4, r0
 433 000c 032B     		cmp	r3, #3
 434 000e 60D0     		beq	.L24
 435 0010 0BB1     		cbz	r3, .L29
 436              	.LVL26:
 437              	.L22:
 238:STM32_WPAN/App/p2p_server_app.c **** 
 438              		.loc 1 238 1 view .LVU78
 439 0012 BDE8F081 		pop	{r4, r5, r6, r7, r8, pc}
 440              	.LVL27:
 441              	.L29:
 442              	.LBB3:
 152:STM32_WPAN/App/p2p_server_app.c ****       APP_DBG_MSG("Data Flow Status Turned ON");
 443              		.loc 1 152 7 is_stmt 1 view .LVU79
 152:STM32_WPAN/App/p2p_server_app.c ****       APP_DBG_MSG("Data Flow Status Turned ON");
 444              		.loc 1 152 43 is_stmt 0 view .LVU80
 445 0016 5E4F     		ldr	r7, .L32
 446 0018 4FF00108 		mov	r8, #1
 447 001c 87F80E80 		strb	r8, [r7, #14]
 153:STM32_WPAN/App/p2p_server_app.c ****       P2P_Server_App_Context.Notification_Status = 1;
 448              		.loc 1 153 7 is_stmt 1 view .LVU81
 153:STM32_WPAN/App/p2p_server_app.c ****       P2P_Server_App_Context.Notification_Status = 1;
 449              		.loc 1 153 7 view .LVU82
 450 0020 5C4E     		ldr	r6, .L32+4
 451 0022 3046     		mov	r0, r6
 452              	.LVL28:
 153:STM32_WPAN/App/p2p_server_app.c ****       P2P_Server_App_Context.Notification_Status = 1;
 453              		.loc 1 153 7 is_stmt 0 view .LVU83
 454 0024 FFF7FEFF 		bl	DbgTraceGetFileName
 455              	.LVL29:
 456 0028 0146     		mov	r1, r0
 457 002a 5B4D     		ldr	r5, .L32+8
 458 002c 5B4C     		ldr	r4, .L32+12
 459              	.LVL30:
 153:STM32_WPAN/App/p2p_server_app.c ****       P2P_Server_App_Context.Notification_Status = 1;
 460              		.loc 1 153 7 view .LVU84
 461 002e 9923     		movs	r3, #153
 462 0030 2A46     		mov	r2, r5
 463 0032 2046     		mov	r0, r4
 464 0034 FFF7FEFF 		bl	printf
 465              	.LVL31:
 153:STM32_WPAN/App/p2p_server_app.c ****       P2P_Server_App_Context.Notification_Status = 1;
 466              		.loc 1 153 7 is_stmt 1 view .LVU85
 467 0038 5948     		ldr	r0, .L32+16
 468 003a FFF7FEFF 		bl	printf
 469              	.LVL32:
 153:STM32_WPAN/App/p2p_server_app.c ****       P2P_Server_App_Context.Notification_Status = 1;
 470              		.loc 1 153 7 view .LVU86
 153:STM32_WPAN/App/p2p_server_app.c ****       P2P_Server_App_Context.Notification_Status = 1;
 471              		.loc 1 153 48 view .LVU87
 154:STM32_WPAN/App/p2p_server_app.c ****       APP_DBG_MSG("-- P2P APPLICATION SERVER : NOTIFICATION ENABLED\n"); 
 472              		.loc 1 154 7 view .LVU88
 154:STM32_WPAN/App/p2p_server_app.c ****       APP_DBG_MSG("-- P2P APPLICATION SERVER : NOTIFICATION ENABLED\n"); 
 473              		.loc 1 154 50 is_stmt 0 view .LVU89
 474 003e 87F80080 		strb	r8, [r7]
 155:STM32_WPAN/App/p2p_server_app.c ****       APP_DBG_MSG(" \n\r");
ARM GAS  /var/folders/lt/l_qrc8c54t93n_phsj7cf5tc0000gn/T//ccA3hYQE.s 			page 19


 475              		.loc 1 155 7 is_stmt 1 view .LVU90
 155:STM32_WPAN/App/p2p_server_app.c ****       APP_DBG_MSG(" \n\r");
 476              		.loc 1 155 7 view .LVU91
 477 0042 3046     		mov	r0, r6
 478 0044 FFF7FEFF 		bl	DbgTraceGetFileName
 479              	.LVL33:
 480 0048 0146     		mov	r1, r0
 481 004a 9B23     		movs	r3, #155
 482 004c 2A46     		mov	r2, r5
 483 004e 2046     		mov	r0, r4
 484 0050 FFF7FEFF 		bl	printf
 485              	.LVL34:
 155:STM32_WPAN/App/p2p_server_app.c ****       APP_DBG_MSG(" \n\r");
 486              		.loc 1 155 7 view .LVU92
 487 0054 5348     		ldr	r0, .L32+20
 488 0056 FFF7FEFF 		bl	puts
 489              	.LVL35:
 155:STM32_WPAN/App/p2p_server_app.c ****       APP_DBG_MSG(" \n\r");
 490              		.loc 1 155 7 view .LVU93
 155:STM32_WPAN/App/p2p_server_app.c ****       APP_DBG_MSG(" \n\r");
 491              		.loc 1 155 72 view .LVU94
 156:STM32_WPAN/App/p2p_server_app.c **** /* USER CODE END P2PS_STM__NOTIFY_ENABLED_EVT */
 492              		.loc 1 156 7 view .LVU95
 156:STM32_WPAN/App/p2p_server_app.c **** /* USER CODE END P2PS_STM__NOTIFY_ENABLED_EVT */
 493              		.loc 1 156 7 view .LVU96
 494 005a 3046     		mov	r0, r6
 495 005c FFF7FEFF 		bl	DbgTraceGetFileName
 496              	.LVL36:
 497 0060 0146     		mov	r1, r0
 498 0062 9C23     		movs	r3, #156
 499 0064 2A46     		mov	r2, r5
 500 0066 2046     		mov	r0, r4
 501 0068 FFF7FEFF 		bl	printf
 502              	.LVL37:
 156:STM32_WPAN/App/p2p_server_app.c **** /* USER CODE END P2PS_STM__NOTIFY_ENABLED_EVT */
 503              		.loc 1 156 7 view .LVU97
 504 006c 4E48     		ldr	r0, .L32+24
 505 006e FFF7FEFF 		bl	printf
 506              	.LVL38:
 156:STM32_WPAN/App/p2p_server_app.c **** /* USER CODE END P2PS_STM__NOTIFY_ENABLED_EVT */
 507              		.loc 1 156 7 view .LVU98
 156:STM32_WPAN/App/p2p_server_app.c **** /* USER CODE END P2PS_STM__NOTIFY_ENABLED_EVT */
 508              		.loc 1 156 27 view .LVU99
 158:STM32_WPAN/App/p2p_server_app.c **** 
 509              		.loc 1 158 7 view .LVU100
 510 0072 CEE7     		b	.L22
 511              	.LVL39:
 512              	.L23:
 162:STM32_WPAN/App/p2p_server_app.c ****       APP_DBG_MSG("Data Flow Status Turned OFF");
 513              		.loc 1 162 7 view .LVU101
 162:STM32_WPAN/App/p2p_server_app.c ****       APP_DBG_MSG("Data Flow Status Turned OFF");
 514              		.loc 1 162 43 is_stmt 0 view .LVU102
 515 0074 464F     		ldr	r7, .L32
 516 0076 4FF00008 		mov	r8, #0
 517 007a 87F80E80 		strb	r8, [r7, #14]
 163:STM32_WPAN/App/p2p_server_app.c ****       P2P_Server_App_Context.Notification_Status = 0;
 518              		.loc 1 163 7 is_stmt 1 view .LVU103
ARM GAS  /var/folders/lt/l_qrc8c54t93n_phsj7cf5tc0000gn/T//ccA3hYQE.s 			page 20


 163:STM32_WPAN/App/p2p_server_app.c ****       P2P_Server_App_Context.Notification_Status = 0;
 519              		.loc 1 163 7 view .LVU104
 520 007e 454E     		ldr	r6, .L32+4
 521 0080 3046     		mov	r0, r6
 522              	.LVL40:
 163:STM32_WPAN/App/p2p_server_app.c ****       P2P_Server_App_Context.Notification_Status = 0;
 523              		.loc 1 163 7 is_stmt 0 view .LVU105
 524 0082 FFF7FEFF 		bl	DbgTraceGetFileName
 525              	.LVL41:
 526 0086 0146     		mov	r1, r0
 527 0088 434D     		ldr	r5, .L32+8
 528 008a 444C     		ldr	r4, .L32+12
 529 008c A323     		movs	r3, #163
 530 008e 2A46     		mov	r2, r5
 531 0090 2046     		mov	r0, r4
 532 0092 FFF7FEFF 		bl	printf
 533              	.LVL42:
 163:STM32_WPAN/App/p2p_server_app.c ****       P2P_Server_App_Context.Notification_Status = 0;
 534              		.loc 1 163 7 is_stmt 1 view .LVU106
 535 0096 4548     		ldr	r0, .L32+28
 536 0098 FFF7FEFF 		bl	printf
 537              	.LVL43:
 163:STM32_WPAN/App/p2p_server_app.c ****       P2P_Server_App_Context.Notification_Status = 0;
 538              		.loc 1 163 7 view .LVU107
 163:STM32_WPAN/App/p2p_server_app.c ****       P2P_Server_App_Context.Notification_Status = 0;
 539              		.loc 1 163 49 view .LVU108
 164:STM32_WPAN/App/p2p_server_app.c ****       APP_DBG_MSG("-- P2P APPLICATION SERVER : NOTIFICATION DISABLED\n");
 540              		.loc 1 164 7 view .LVU109
 164:STM32_WPAN/App/p2p_server_app.c ****       APP_DBG_MSG("-- P2P APPLICATION SERVER : NOTIFICATION DISABLED\n");
 541              		.loc 1 164 50 is_stmt 0 view .LVU110
 542 009c 87F80080 		strb	r8, [r7]
 165:STM32_WPAN/App/p2p_server_app.c ****       APP_DBG_MSG(" \n\r");
 543              		.loc 1 165 7 is_stmt 1 view .LVU111
 165:STM32_WPAN/App/p2p_server_app.c ****       APP_DBG_MSG(" \n\r");
 544              		.loc 1 165 7 view .LVU112
 545 00a0 3046     		mov	r0, r6
 546 00a2 FFF7FEFF 		bl	DbgTraceGetFileName
 547              	.LVL44:
 548 00a6 0146     		mov	r1, r0
 549 00a8 A523     		movs	r3, #165
 550 00aa 2A46     		mov	r2, r5
 551 00ac 2046     		mov	r0, r4
 552 00ae FFF7FEFF 		bl	printf
 553              	.LVL45:
 165:STM32_WPAN/App/p2p_server_app.c ****       APP_DBG_MSG(" \n\r");
 554              		.loc 1 165 7 view .LVU113
 555 00b2 3F48     		ldr	r0, .L32+32
 556 00b4 FFF7FEFF 		bl	puts
 557              	.LVL46:
 165:STM32_WPAN/App/p2p_server_app.c ****       APP_DBG_MSG(" \n\r");
 558              		.loc 1 165 7 view .LVU114
 165:STM32_WPAN/App/p2p_server_app.c ****       APP_DBG_MSG(" \n\r");
 559              		.loc 1 165 73 view .LVU115
 166:STM32_WPAN/App/p2p_server_app.c **** /* USER CODE END P2PS_STM_NOTIFY_DISABLED_EVT */
 560              		.loc 1 166 7 view .LVU116
 166:STM32_WPAN/App/p2p_server_app.c **** /* USER CODE END P2PS_STM_NOTIFY_DISABLED_EVT */
 561              		.loc 1 166 7 view .LVU117
ARM GAS  /var/folders/lt/l_qrc8c54t93n_phsj7cf5tc0000gn/T//ccA3hYQE.s 			page 21


 562 00b8 3046     		mov	r0, r6
 563 00ba FFF7FEFF 		bl	DbgTraceGetFileName
 564              	.LVL47:
 565 00be 0146     		mov	r1, r0
 566 00c0 A623     		movs	r3, #166
 567 00c2 2A46     		mov	r2, r5
 568 00c4 2046     		mov	r0, r4
 569 00c6 FFF7FEFF 		bl	printf
 570              	.LVL48:
 166:STM32_WPAN/App/p2p_server_app.c **** /* USER CODE END P2PS_STM_NOTIFY_DISABLED_EVT */
 571              		.loc 1 166 7 view .LVU118
 572 00ca 3748     		ldr	r0, .L32+24
 573 00cc FFF7FEFF 		bl	printf
 574              	.LVL49:
 166:STM32_WPAN/App/p2p_server_app.c **** /* USER CODE END P2PS_STM_NOTIFY_DISABLED_EVT */
 575              		.loc 1 166 7 view .LVU119
 166:STM32_WPAN/App/p2p_server_app.c **** /* USER CODE END P2PS_STM_NOTIFY_DISABLED_EVT */
 576              		.loc 1 166 27 view .LVU120
 168:STM32_WPAN/App/p2p_server_app.c **** 
 577              		.loc 1 168 7 view .LVU121
 578 00d0 9FE7     		b	.L22
 579              	.LVL50:
 580              	.L24:
 172:STM32_WPAN/App/p2p_server_app.c ****       
 581              		.loc 1 172 7 view .LVU122
 172:STM32_WPAN/App/p2p_server_app.c ****       
 582              		.loc 1 172 7 view .LVU123
 583 00d2 3048     		ldr	r0, .L32+4
 584              	.LVL51:
 172:STM32_WPAN/App/p2p_server_app.c ****       
 585              		.loc 1 172 7 is_stmt 0 view .LVU124
 586 00d4 FFF7FEFF 		bl	DbgTraceGetFileName
 587              	.LVL52:
 588 00d8 0146     		mov	r1, r0
 589 00da AC23     		movs	r3, #172
 590 00dc 2E4A     		ldr	r2, .L32+8
 591 00de 2F48     		ldr	r0, .L32+12
 592 00e0 FFF7FEFF 		bl	printf
 593              	.LVL53:
 172:STM32_WPAN/App/p2p_server_app.c ****       
 594              		.loc 1 172 7 is_stmt 1 view .LVU125
 595 00e4 6168     		ldr	r1, [r4, #4]
 596 00e6 3348     		ldr	r0, .L32+36
 597 00e8 FFF7FEFF 		bl	printf
 598              	.LVL54:
 172:STM32_WPAN/App/p2p_server_app.c ****       
 599              		.loc 1 172 7 view .LVU126
 172:STM32_WPAN/App/p2p_server_app.c ****       
 600              		.loc 1 172 84 view .LVU127
 174:STM32_WPAN/App/p2p_server_app.c ****       // uint8_t * data = "data";
 601              		.loc 1 174 7 view .LVU128
 174:STM32_WPAN/App/p2p_server_app.c ****       // uint8_t * data = "data";
 602              		.loc 1 174 17 is_stmt 0 view .LVU129
 603 00ec 6468     		ldr	r4, [r4, #4]
 604              	.LVL55:
 180:STM32_WPAN/App/p2p_server_app.c ****         APP_DBG_MSG("COMMAND: data");
 605              		.loc 1 180 7 is_stmt 1 view .LVU130
ARM GAS  /var/folders/lt/l_qrc8c54t93n_phsj7cf5tc0000gn/T//ccA3hYQE.s 			page 22


 180:STM32_WPAN/App/p2p_server_app.c ****         APP_DBG_MSG("COMMAND: data");
 606              		.loc 1 180 11 is_stmt 0 view .LVU131
 607 00ee 0422     		movs	r2, #4
 608 00f0 3149     		ldr	r1, .L32+40
 609 00f2 2046     		mov	r0, r4
 610 00f4 FFF7FEFF 		bl	strncmp
 611              	.LVL56:
 180:STM32_WPAN/App/p2p_server_app.c ****         APP_DBG_MSG("COMMAND: data");
 612              		.loc 1 180 10 view .LVU132
 613 00f8 E0B1     		cbz	r0, .L30
 190:STM32_WPAN/App/p2p_server_app.c ****         BSP_LED_Off(LED_BLUE);
 614              		.loc 1 190 12 is_stmt 1 view .LVU133
 190:STM32_WPAN/App/p2p_server_app.c ****         BSP_LED_Off(LED_BLUE);
 615              		.loc 1 190 16 is_stmt 0 view .LVU134
 616 00fa 0322     		movs	r2, #3
 617 00fc 2F49     		ldr	r1, .L32+44
 618 00fe 2046     		mov	r0, r4
 619 0100 FFF7FEFF 		bl	strncmp
 620              	.LVL57:
 190:STM32_WPAN/App/p2p_server_app.c ****         BSP_LED_Off(LED_BLUE);
 621              		.loc 1 190 15 view .LVU135
 622 0104 A0B3     		cbz	r0, .L31
 195:STM32_WPAN/App/p2p_server_app.c ****         BSP_LED_On(LED_BLUE);
 623              		.loc 1 195 12 is_stmt 1 view .LVU136
 195:STM32_WPAN/App/p2p_server_app.c ****         BSP_LED_On(LED_BLUE);
 624              		.loc 1 195 16 is_stmt 0 view .LVU137
 625 0106 0322     		movs	r2, #3
 626 0108 2D49     		ldr	r1, .L32+48
 627 010a 2046     		mov	r0, r4
 628 010c FFF7FEFF 		bl	strncmp
 629              	.LVL58:
 195:STM32_WPAN/App/p2p_server_app.c ****         BSP_LED_On(LED_BLUE);
 630              		.loc 1 195 15 view .LVU138
 631 0110 0028     		cmp	r0, #0
 632 0112 7FF47EAF 		bne	.L22
 196:STM32_WPAN/App/p2p_server_app.c ****         APP_DBG_MSG("COMMAND: lon");
 633              		.loc 1 196 9 is_stmt 1 view .LVU139
 634 0116 FFF7FEFF 		bl	BSP_LED_On
 635              	.LVL59:
 197:STM32_WPAN/App/p2p_server_app.c ****       }
 636              		.loc 1 197 9 view .LVU140
 197:STM32_WPAN/App/p2p_server_app.c ****       }
 637              		.loc 1 197 9 view .LVU141
 638 011a 1E48     		ldr	r0, .L32+4
 639 011c FFF7FEFF 		bl	DbgTraceGetFileName
 640              	.LVL60:
 641 0120 0146     		mov	r1, r0
 642 0122 C523     		movs	r3, #197
 643 0124 1C4A     		ldr	r2, .L32+8
 644 0126 1D48     		ldr	r0, .L32+12
 645 0128 FFF7FEFF 		bl	printf
 646              	.LVL61:
 197:STM32_WPAN/App/p2p_server_app.c ****       }
 647              		.loc 1 197 9 view .LVU142
 648 012c 2548     		ldr	r0, .L32+52
 649 012e FFF7FEFF 		bl	printf
 650              	.LVL62:
ARM GAS  /var/folders/lt/l_qrc8c54t93n_phsj7cf5tc0000gn/T//ccA3hYQE.s 			page 23


 651              	.LBE3:
 237:STM32_WPAN/App/p2p_server_app.c **** }
 652              		.loc 1 237 3 view .LVU143
 653 0132 6EE7     		b	.L22
 654              	.L30:
 655              	.LBB4:
 181:STM32_WPAN/App/p2p_server_app.c ****         APP_DBG_MSG("Turning on datasend");
 656              		.loc 1 181 9 view .LVU144
 181:STM32_WPAN/App/p2p_server_app.c ****         APP_DBG_MSG("Turning on datasend");
 657              		.loc 1 181 9 view .LVU145
 658 0134 174E     		ldr	r6, .L32+4
 659 0136 3046     		mov	r0, r6
 660 0138 FFF7FEFF 		bl	DbgTraceGetFileName
 661              	.LVL63:
 662 013c 0146     		mov	r1, r0
 663 013e 164D     		ldr	r5, .L32+8
 664 0140 164C     		ldr	r4, .L32+12
 665              	.LVL64:
 181:STM32_WPAN/App/p2p_server_app.c ****         APP_DBG_MSG("Turning on datasend");
 666              		.loc 1 181 9 is_stmt 0 view .LVU146
 667 0142 B523     		movs	r3, #181
 668 0144 2A46     		mov	r2, r5
 669 0146 2046     		mov	r0, r4
 670 0148 FFF7FEFF 		bl	printf
 671              	.LVL65:
 181:STM32_WPAN/App/p2p_server_app.c ****         APP_DBG_MSG("Turning on datasend");
 672              		.loc 1 181 9 is_stmt 1 view .LVU147
 673 014c 1E48     		ldr	r0, .L32+56
 674 014e FFF7FEFF 		bl	printf
 675              	.LVL66:
 181:STM32_WPAN/App/p2p_server_app.c ****         APP_DBG_MSG("Turning on datasend");
 676              		.loc 1 181 9 view .LVU148
 181:STM32_WPAN/App/p2p_server_app.c ****         APP_DBG_MSG("Turning on datasend");
 677              		.loc 1 181 37 view .LVU149
 182:STM32_WPAN/App/p2p_server_app.c ****         P2P_Send_Data();
 678              		.loc 1 182 9 view .LVU150
 182:STM32_WPAN/App/p2p_server_app.c ****         P2P_Send_Data();
 679              		.loc 1 182 9 view .LVU151
 680 0152 3046     		mov	r0, r6
 681 0154 FFF7FEFF 		bl	DbgTraceGetFileName
 682              	.LVL67:
 683 0158 0146     		mov	r1, r0
 684 015a B623     		movs	r3, #182
 685 015c 2A46     		mov	r2, r5
 686 015e 2046     		mov	r0, r4
 687 0160 FFF7FEFF 		bl	printf
 688              	.LVL68:
 182:STM32_WPAN/App/p2p_server_app.c ****         P2P_Send_Data();
 689              		.loc 1 182 9 view .LVU152
 690 0164 1948     		ldr	r0, .L32+60
 691 0166 FFF7FEFF 		bl	printf
 692              	.LVL69:
 182:STM32_WPAN/App/p2p_server_app.c ****         P2P_Send_Data();
 693              		.loc 1 182 9 view .LVU153
 182:STM32_WPAN/App/p2p_server_app.c ****         P2P_Send_Data();
 694              		.loc 1 182 43 view .LVU154
 183:STM32_WPAN/App/p2p_server_app.c ****         // for (int i = 0; i < 100; i ++){
ARM GAS  /var/folders/lt/l_qrc8c54t93n_phsj7cf5tc0000gn/T//ccA3hYQE.s 			page 24


 695              		.loc 1 183 9 view .LVU155
 696 016a FFF7FEFF 		bl	P2P_Send_Data
 697              	.LVL70:
 698 016e 50E7     		b	.L22
 699              	.LVL71:
 700              	.L31:
 191:STM32_WPAN/App/p2p_server_app.c ****         APP_DBG_MSG("COMMAND: lof");
 701              		.loc 1 191 9 view .LVU156
 702 0170 FFF7FEFF 		bl	BSP_LED_Off
 703              	.LVL72:
 192:STM32_WPAN/App/p2p_server_app.c ****       }
 704              		.loc 1 192 9 view .LVU157
 192:STM32_WPAN/App/p2p_server_app.c ****       }
 705              		.loc 1 192 9 view .LVU158
 706 0174 0748     		ldr	r0, .L32+4
 707 0176 FFF7FEFF 		bl	DbgTraceGetFileName
 708              	.LVL73:
 709 017a 0146     		mov	r1, r0
 710 017c C023     		movs	r3, #192
 711 017e 064A     		ldr	r2, .L32+8
 712 0180 0648     		ldr	r0, .L32+12
 713 0182 FFF7FEFF 		bl	printf
 714              	.LVL74:
 192:STM32_WPAN/App/p2p_server_app.c ****       }
 715              		.loc 1 192 9 view .LVU159
 716 0186 1248     		ldr	r0, .L32+64
 717 0188 FFF7FEFF 		bl	printf
 718              	.LVL75:
 192:STM32_WPAN/App/p2p_server_app.c ****       }
 719              		.loc 1 192 9 view .LVU160
 192:STM32_WPAN/App/p2p_server_app.c ****       }
 720              		.loc 1 192 36 view .LVU161
 721 018c 41E7     		b	.L22
 722              	.L33:
 723 018e 00BF     		.align	2
 724              	.L32:
 725 0190 00000000 		.word	.LANCHOR0
 726 0194 00000000 		.word	.LC1
 727 0198 00000000 		.word	.LANCHOR3
 728 019c 20000000 		.word	.LC2
 729 01a0 00000000 		.word	.LC8
 730 01a4 1C000000 		.word	.LC9
 731 01a8 60000000 		.word	.LC4
 732 01ac 50000000 		.word	.LC10
 733 01b0 6C000000 		.word	.LC11
 734 01b4 A0000000 		.word	.LC12
 735 01b8 B8000000 		.word	.LC13
 736 01bc E4000000 		.word	.LC16
 737 01c0 F8000000 		.word	.LC18
 738 01c4 FC000000 		.word	.LC19
 739 01c8 C0000000 		.word	.LC14
 740 01cc D0000000 		.word	.LC15
 741 01d0 E8000000 		.word	.LC17
 742              	.LBE4:
 743              		.cfi_endproc
 744              	.LFE1261:
 746              		.section	.text.P2PS_APP_Notification,"ax",%progbits
ARM GAS  /var/folders/lt/l_qrc8c54t93n_phsj7cf5tc0000gn/T//ccA3hYQE.s 			page 25


 747              		.align	1
 748              		.global	P2PS_APP_Notification
 749              		.syntax unified
 750              		.thumb
 751              		.thumb_func
 752              		.fpu fpv4-sp-d16
 754              	P2PS_APP_Notification:
 755              	.LVL76:
 756              	.LFB1262:
 241:STM32_WPAN/App/p2p_server_app.c **** /* USER CODE BEGIN P2PS_APP_Notification_1 */
 757              		.loc 1 241 1 view -0
 758              		.cfi_startproc
 759              		@ args = 0, pretend = 0, frame = 0
 760              		@ frame_needed = 0, uses_anonymous_args = 0
 241:STM32_WPAN/App/p2p_server_app.c **** /* USER CODE BEGIN P2PS_APP_Notification_1 */
 761              		.loc 1 241 1 is_stmt 0 view .LVU163
 762 0000 08B5     		push	{r3, lr}
 763              	.LCFI6:
 764              		.cfi_def_cfa_offset 8
 765              		.cfi_offset 3, -8
 766              		.cfi_offset 14, -4
 245:STM32_WPAN/App/p2p_server_app.c ****   {
 767              		.loc 1 245 3 is_stmt 1 view .LVU164
 245:STM32_WPAN/App/p2p_server_app.c ****   {
 768              		.loc 1 245 23 is_stmt 0 view .LVU165
 769 0002 0378     		ldrb	r3, [r0]	@ zero_extendqisi2
 245:STM32_WPAN/App/p2p_server_app.c ****   {
 770              		.loc 1 245 3 view .LVU166
 771 0004 012B     		cmp	r3, #1
 772 0006 00D0     		beq	.L37
 773              	.LVL77:
 774              	.L34:
 272:STM32_WPAN/App/p2p_server_app.c **** 
 775              		.loc 1 272 1 view .LVU167
 776 0008 08BD     		pop	{r3, pc}
 777              	.LVL78:
 778              	.L37:
 258:STM32_WPAN/App/p2p_server_app.c **** /* USER CODE END PEER_DISCON_HANDLE_EVT */
 779              		.loc 1 258 8 is_stmt 1 view .LVU168
 780 000a FFF7FEFF 		bl	P2PS_APP_LED_BUTTON_context_Init
 781              	.LVL79:
 260:STM32_WPAN/App/p2p_server_app.c **** 
 782              		.loc 1 260 5 view .LVU169
 271:STM32_WPAN/App/p2p_server_app.c **** }
 783              		.loc 1 271 3 view .LVU170
 784 000e FBE7     		b	.L34
 785              		.cfi_endproc
 786              	.LFE1262:
 788              		.section	.text.P2PS_APP_Init,"ax",%progbits
 789              		.align	1
 790              		.global	P2PS_APP_Init
 791              		.syntax unified
 792              		.thumb
 793              		.thumb_func
 794              		.fpu fpv4-sp-d16
 796              	P2PS_APP_Init:
 797              	.LFB1263:
ARM GAS  /var/folders/lt/l_qrc8c54t93n_phsj7cf5tc0000gn/T//ccA3hYQE.s 			page 26


 275:STM32_WPAN/App/p2p_server_app.c **** /* USER CODE BEGIN P2PS_APP_Init */
 798              		.loc 1 275 1 view -0
 799              		.cfi_startproc
 800              		@ args = 0, pretend = 0, frame = 0
 801              		@ frame_needed = 0, uses_anonymous_args = 0
 802 0000 38B5     		push	{r3, r4, r5, lr}
 803              	.LCFI7:
 804              		.cfi_def_cfa_offset 16
 805              		.cfi_offset 3, -16
 806              		.cfi_offset 4, -12
 807              		.cfi_offset 5, -8
 808              		.cfi_offset 14, -4
 277:STM32_WPAN/App/p2p_server_app.c ****   UTIL_SEQ_RegTask( 1<<CFG_TASK_DATA_TRANSFER_UPDATE_ID, UTIL_SEQ_RFU, P2P_Send_Data);
 809              		.loc 1 277 3 view .LVU172
 810 0002 084A     		ldr	r2, .L40
 811 0004 0021     		movs	r1, #0
 812 0006 0820     		movs	r0, #8
 813 0008 FFF7FEFF 		bl	UTIL_SEQ_RegTask
 814              	.LVL80:
 278:STM32_WPAN/App/p2p_server_app.c ****   /**
 815              		.loc 1 278 3 view .LVU173
 816 000c 064A     		ldr	r2, .L40+4
 817 000e 0021     		movs	r1, #0
 818 0010 8020     		movs	r0, #128
 819 0012 FFF7FEFF 		bl	UTIL_SEQ_RegTask
 820              	.LVL81:
 282:STM32_WPAN/App/p2p_server_app.c ****   P2PS_APP_LED_BUTTON_context_Init();
 821              		.loc 1 282 3 view .LVU174
 282:STM32_WPAN/App/p2p_server_app.c ****   P2PS_APP_LED_BUTTON_context_Init();
 822              		.loc 1 282 45 is_stmt 0 view .LVU175
 823 0016 054C     		ldr	r4, .L40+8
 824 0018 0025     		movs	r5, #0
 825 001a 2570     		strb	r5, [r4]
 283:STM32_WPAN/App/p2p_server_app.c ****   P2P_Server_App_Context.DTFlowStatus = DATA_TRANSFER_OFF;
 826              		.loc 1 283 3 is_stmt 1 view .LVU176
 827 001c FFF7FEFF 		bl	P2PS_APP_LED_BUTTON_context_Init
 828              	.LVL82:
 284:STM32_WPAN/App/p2p_server_app.c **** /* USER CODE END P2PS_APP_Init */
 829              		.loc 1 284 3 view .LVU177
 284:STM32_WPAN/App/p2p_server_app.c **** /* USER CODE END P2PS_APP_Init */
 830              		.loc 1 284 39 is_stmt 0 view .LVU178
 831 0020 A573     		strb	r5, [r4, #14]
 286:STM32_WPAN/App/p2p_server_app.c **** }
 832              		.loc 1 286 3 is_stmt 1 view .LVU179
 287:STM32_WPAN/App/p2p_server_app.c **** 
 833              		.loc 1 287 1 is_stmt 0 view .LVU180
 834 0022 38BD     		pop	{r3, r4, r5, pc}
 835              	.L41:
 836              		.align	2
 837              	.L40:
 838 0024 00000000 		.word	P2PS_Send_Notification
 839 0028 00000000 		.word	P2P_Send_Data
 840 002c 00000000 		.word	.LANCHOR0
 841              		.cfi_endproc
 842              	.LFE1263:
 844              		.section	.text.P2PS_APP_SW1_Button_Action,"ax",%progbits
 845              		.align	1
ARM GAS  /var/folders/lt/l_qrc8c54t93n_phsj7cf5tc0000gn/T//ccA3hYQE.s 			page 27


 846              		.global	P2PS_APP_SW1_Button_Action
 847              		.syntax unified
 848              		.thumb
 849              		.thumb_func
 850              		.fpu fpv4-sp-d16
 852              	P2PS_APP_SW1_Button_Action:
 853              	.LFB1265:
 333:STM32_WPAN/App/p2p_server_app.c ****   UTIL_SEQ_SetTask( 1<<CFG_TASK_SW1_BUTTON_PUSHED_ID, CFG_SCH_PRIO_0);
 854              		.loc 1 333 1 is_stmt 1 view -0
 855              		.cfi_startproc
 856              		@ args = 0, pretend = 0, frame = 0
 857              		@ frame_needed = 0, uses_anonymous_args = 0
 858 0000 08B5     		push	{r3, lr}
 859              	.LCFI8:
 860              		.cfi_def_cfa_offset 8
 861              		.cfi_offset 3, -8
 862              		.cfi_offset 14, -4
 334:STM32_WPAN/App/p2p_server_app.c **** 
 863              		.loc 1 334 3 view .LVU182
 864 0002 0021     		movs	r1, #0
 865 0004 0820     		movs	r0, #8
 866 0006 FFF7FEFF 		bl	UTIL_SEQ_SetTask
 867              	.LVL83:
 336:STM32_WPAN/App/p2p_server_app.c **** }
 868              		.loc 1 336 3 view .LVU183
 337:STM32_WPAN/App/p2p_server_app.c **** /* USER CODE END FD */
 869              		.loc 1 337 1 is_stmt 0 view .LVU184
 870 000a 08BD     		pop	{r3, pc}
 871              		.cfi_endproc
 872              	.LFE1265:
 874              		.global	count
 875              		.section	.bss.count,"aw",%nobits
 876              		.align	2
 879              	count:
 880 0000 00000000 		.space	4
 881              		.section	.rodata.__FUNCTION__.17940,"a"
 882              		.align	2
 883              		.set	.LANCHOR3,. + 0
 886              	__FUNCTION__.17940:
 887 0000 50325053 		.ascii	"P2PS_STM_App_Notification\000"
 887      5F53544D 
 887      5F417070 
 887      5F4E6F74 
 887      69666963 
 888              		.section	.rodata.__FUNCTION__.17965,"a"
 889              		.align	2
 890              		.set	.LANCHOR2,. + 0
 893              	__FUNCTION__.17965:
 894 0000 50325053 		.ascii	"P2PS_Send_Notification\000"
 894      5F53656E 
 894      645F4E6F 
 894      74696669 
 894      63617469 
 895              		.section	.rodata.__FUNCTION__.17972,"a"
 896              		.align	2
 897              		.set	.LANCHOR1,. + 0
 900              	__FUNCTION__.17972:
ARM GAS  /var/folders/lt/l_qrc8c54t93n_phsj7cf5tc0000gn/T//ccA3hYQE.s 			page 28


 901 0000 5032505F 		.ascii	"P2P_Send_Data\000"
 901      53656E64 
 901      5F446174 
 901      6100
 902              		.section	BLE_APP_CONTEXT,"aw"
 903              		.align	2
 904              		.set	.LANCHOR0,. + 0
 907              	P2P_Server_App_Context:
 908 0000 00000000 		.space	16
 908      00000000 
 908      00000000 
 908      00000000 
 909              		.text
 910              	.Letext0:
 911              		.file 2 "/usr/local/Cellar/arm-none-eabi-gcc/9-2019-q4-major/gcc/arm-none-eabi/include/machine/_de
 912              		.file 3 "/usr/local/Cellar/arm-none-eabi-gcc/9-2019-q4-major/gcc/arm-none-eabi/include/sys/_stdint
 913              		.file 4 "Drivers/CMSIS/Include/core_cm4.h"
 914              		.file 5 "Drivers/CMSIS/Device/ST/STM32WBxx/Include/system_stm32wbxx.h"
 915              		.file 6 "Drivers/STM32WBxx_HAL_Driver/Inc/stm32wbxx_hal_def.h"
 916              		.file 7 "Drivers/STM32WBxx_HAL_Driver/Inc/stm32wbxx_hal_flash.h"
 917              		.file 8 "Drivers/STM32WBxx_HAL_Driver/Inc/stm32wbxx_hal_uart.h"
 918              		.file 9 "Drivers/STM32WBxx_HAL_Driver/Inc/stm32wbxx_hal.h"
 919              		.file 10 "Drivers/BSP/P-NUCLEO-WB55.Nucleo/stm32wbxx_nucleo.h"
 920              		.file 11 "Core/Inc/app_conf.h"
 921              		.file 12 "/usr/local/Cellar/arm-none-eabi-gcc/9-2019-q4-major/gcc/arm-none-eabi/include/sys/lock.h
 922              		.file 13 "/usr/local/Cellar/arm-none-eabi-gcc/9-2019-q4-major/gcc/arm-none-eabi/include/sys/_types
 923              		.file 14 "/usr/local/Cellar/arm-none-eabi-gcc/9-2019-q4-major/gcc/lib/gcc/arm-none-eabi/9.2.1/incl
 924              		.file 15 "/usr/local/Cellar/arm-none-eabi-gcc/9-2019-q4-major/gcc/arm-none-eabi/include/sys/reent.
 925              		.file 16 "/usr/local/Cellar/arm-none-eabi-gcc/9-2019-q4-major/gcc/arm-none-eabi/include/stdlib.h"
 926              		.file 17 "Middlewares/ST/STM32_WPAN/ble/core/auto/ble_events.h"
 927              		.file 18 "Middlewares/ST/STM32_WPAN/ble/svc/Inc/p2p_stm.h"
 928              		.file 19 "STM32_WPAN/App/p2p_server_app.h"
 929              		.file 20 "Middlewares/ST/STM32_WPAN/utilities/dbg_trace.h"
 930              		.file 21 "/usr/local/Cellar/arm-none-eabi-gcc/9-2019-q4-major/gcc/arm-none-eabi/include/stdio.h"
 931              		.file 22 "Utilities/sequencer/stm32_seq.h"
 932              		.file 23 "/usr/local/Cellar/arm-none-eabi-gcc/9-2019-q4-major/gcc/arm-none-eabi/include/string.h"
 933              		.file 24 "<built-in>"
ARM GAS  /var/folders/lt/l_qrc8c54t93n_phsj7cf5tc0000gn/T//ccA3hYQE.s 			page 29

