ARM GAS  /var/folders/lt/l_qrc8c54t93n_phsj7cf5tc0000gn/T//cc5FK5RK.s 			page 1


   1              		.cpu cortex-m4
   2              		.eabi_attribute 27, 1
   3              		.eabi_attribute 28, 1
   4              		.eabi_attribute 20, 1
   5              		.eabi_attribute 21, 1
   6              		.eabi_attribute 23, 3
   7              		.eabi_attribute 24, 1
   8              		.eabi_attribute 25, 1
   9              		.eabi_attribute 26, 1
  10              		.eabi_attribute 30, 1
  11              		.eabi_attribute 34, 1
  12              		.eabi_attribute 18, 4
  13              		.file	"app_ble.c"
  14              		.text
  15              	.Ltext0:
  16              		.cfi_sections	.debug_frame
  17              		.section	.rodata.Adv_Cancel.str1.4,"aMS",%progbits,1
  18              		.align	2
  19              	.LC1:
  20 0000 53544D33 		.ascii	"STM32_WPAN/App/app_ble.c\000"
  20      325F5750 
  20      414E2F41 
  20      70702F61 
  20      70705F62 
  21 0019 000000   		.align	2
  22              	.LC2:
  23 001c 0D0A205B 		.ascii	"\015\012 [%s][%s][%d] \000"
  23      25735D5B 
  23      25735D5B 
  23      25645D20 
  23      00
  24 002d 000000   		.align	2
  25              	.LC3:
  26 0030 20200D0A 		.ascii	"  \015\012\015\000"
  26      0D00
  27 0036 0000     		.align	2
  28              	.LC4:
  29 0038 2A2A2053 		.ascii	"** STOP ADVERTISING **  \015\012\015\000"
  29      544F5020 
  29      41445645 
  29      52544953 
  29      494E4720 
  30              		.align	2
  31              	.LC5:
  32 0054 2A2A2053 		.ascii	"** STOP ADVERTISING **  Failed \015\012\015\000"
  32      544F5020 
  32      41445645 
  32      52544953 
  32      494E4720 
  33              		.section	.text.Adv_Cancel,"ax",%progbits
  34              		.align	1
  35              		.arch armv7e-m
  36              		.syntax unified
  37              		.thumb
  38              		.thumb_func
  39              		.fpu fpv4-sp-d16
  41              	Adv_Cancel:
ARM GAS  /var/folders/lt/l_qrc8c54t93n_phsj7cf5tc0000gn/T//cc5FK5RK.s 			page 2


  42              	.LFB1830:
  43              		.file 1 "STM32_WPAN/App/app_ble.c"
   1:STM32_WPAN/App/app_ble.c **** /* USER CODE BEGIN Header */
   2:STM32_WPAN/App/app_ble.c **** 
   3:STM32_WPAN/App/app_ble.c **** /**
   4:STM32_WPAN/App/app_ble.c ****   ******************************************************************************
   5:STM32_WPAN/App/app_ble.c ****   * @file    App/app_ble.c
   6:STM32_WPAN/App/app_ble.c ****   * @author  MCD Application Team
   7:STM32_WPAN/App/app_ble.c ****   * @brief   BLE Application
   8:STM32_WPAN/App/app_ble.c ****   *****************************************************************************
   9:STM32_WPAN/App/app_ble.c ****   * @attention
  10:STM32_WPAN/App/app_ble.c ****   *
  11:STM32_WPAN/App/app_ble.c ****   * Copyright (c) 2022 STMicroelectronics.
  12:STM32_WPAN/App/app_ble.c ****   * All rights reserved.
  13:STM32_WPAN/App/app_ble.c ****   *
  14:STM32_WPAN/App/app_ble.c ****   * This software is licensed under terms that can be found in the LICENSE file
  15:STM32_WPAN/App/app_ble.c ****   * in the root directory of this software component.
  16:STM32_WPAN/App/app_ble.c ****   * If no LICENSE file comes with this software, it is provided AS-IS.
  17:STM32_WPAN/App/app_ble.c ****   *
  18:STM32_WPAN/App/app_ble.c ****   ******************************************************************************
  19:STM32_WPAN/App/app_ble.c ****   */
  20:STM32_WPAN/App/app_ble.c **** /* USER CODE END Header */
  21:STM32_WPAN/App/app_ble.c **** 
  22:STM32_WPAN/App/app_ble.c **** /* Includes ------------------------------------------------------------------*/
  23:STM32_WPAN/App/app_ble.c **** #include "main.h"
  24:STM32_WPAN/App/app_ble.c **** 
  25:STM32_WPAN/App/app_ble.c **** #include "app_common.h"
  26:STM32_WPAN/App/app_ble.c **** 
  27:STM32_WPAN/App/app_ble.c **** #include "dbg_trace.h"
  28:STM32_WPAN/App/app_ble.c **** #include "ble.h"
  29:STM32_WPAN/App/app_ble.c **** #include "tl.h"
  30:STM32_WPAN/App/app_ble.c **** #include "app_ble.h"
  31:STM32_WPAN/App/app_ble.c **** 
  32:STM32_WPAN/App/app_ble.c **** #include "stm32_seq.h"
  33:STM32_WPAN/App/app_ble.c **** #include "shci.h"
  34:STM32_WPAN/App/app_ble.c **** #include "stm32_lpm.h"
  35:STM32_WPAN/App/app_ble.c **** #include "otp.h"
  36:STM32_WPAN/App/app_ble.c **** #include "custom_app.h"
  37:STM32_WPAN/App/app_ble.c **** 
  38:STM32_WPAN/App/app_ble.c **** /* Private includes ----------------------------------------------------------*/
  39:STM32_WPAN/App/app_ble.c **** /* USER CODE BEGIN Includes */
  40:STM32_WPAN/App/app_ble.c **** 
  41:STM32_WPAN/App/app_ble.c **** /* USER CODE END Includes */
  42:STM32_WPAN/App/app_ble.c **** 
  43:STM32_WPAN/App/app_ble.c **** /* Private typedef -----------------------------------------------------------*/
  44:STM32_WPAN/App/app_ble.c **** 
  45:STM32_WPAN/App/app_ble.c **** /**
  46:STM32_WPAN/App/app_ble.c ****  * security parameters structure
  47:STM32_WPAN/App/app_ble.c ****  */
  48:STM32_WPAN/App/app_ble.c **** typedef struct _tSecurityParams
  49:STM32_WPAN/App/app_ble.c **** {
  50:STM32_WPAN/App/app_ble.c ****   /**
  51:STM32_WPAN/App/app_ble.c ****    * IO capability of the device
  52:STM32_WPAN/App/app_ble.c ****    */
  53:STM32_WPAN/App/app_ble.c ****   uint8_t ioCapability;
  54:STM32_WPAN/App/app_ble.c **** 
  55:STM32_WPAN/App/app_ble.c ****   /**
ARM GAS  /var/folders/lt/l_qrc8c54t93n_phsj7cf5tc0000gn/T//cc5FK5RK.s 			page 3


  56:STM32_WPAN/App/app_ble.c ****    * Authentication requirement of the device
  57:STM32_WPAN/App/app_ble.c ****    * Man In the Middle protection required?
  58:STM32_WPAN/App/app_ble.c ****    */
  59:STM32_WPAN/App/app_ble.c ****   uint8_t mitm_mode;
  60:STM32_WPAN/App/app_ble.c **** 
  61:STM32_WPAN/App/app_ble.c ****   /**
  62:STM32_WPAN/App/app_ble.c ****    * bonding mode of the device
  63:STM32_WPAN/App/app_ble.c ****    */
  64:STM32_WPAN/App/app_ble.c ****   uint8_t bonding_mode;
  65:STM32_WPAN/App/app_ble.c **** 
  66:STM32_WPAN/App/app_ble.c ****   /**
  67:STM32_WPAN/App/app_ble.c ****    * this variable indicates whether to use a fixed pin
  68:STM32_WPAN/App/app_ble.c ****    * during the pairing process or a passkey has to be
  69:STM32_WPAN/App/app_ble.c ****    * requested to the application during the pairing process
  70:STM32_WPAN/App/app_ble.c ****    * 0 implies use fixed pin and 1 implies request for passkey
  71:STM32_WPAN/App/app_ble.c ****    */
  72:STM32_WPAN/App/app_ble.c ****   uint8_t Use_Fixed_Pin;
  73:STM32_WPAN/App/app_ble.c **** 
  74:STM32_WPAN/App/app_ble.c ****   /**
  75:STM32_WPAN/App/app_ble.c ****    * minimum encryption key size requirement
  76:STM32_WPAN/App/app_ble.c ****    */
  77:STM32_WPAN/App/app_ble.c ****   uint8_t encryptionKeySizeMin;
  78:STM32_WPAN/App/app_ble.c **** 
  79:STM32_WPAN/App/app_ble.c ****   /**
  80:STM32_WPAN/App/app_ble.c ****    * maximum encryption key size requirement
  81:STM32_WPAN/App/app_ble.c ****    */
  82:STM32_WPAN/App/app_ble.c ****   uint8_t encryptionKeySizeMax;
  83:STM32_WPAN/App/app_ble.c **** 
  84:STM32_WPAN/App/app_ble.c ****   /**
  85:STM32_WPAN/App/app_ble.c ****    * fixed pin to be used in the pairing process if
  86:STM32_WPAN/App/app_ble.c ****    * Use_Fixed_Pin is set to 1
  87:STM32_WPAN/App/app_ble.c ****    */
  88:STM32_WPAN/App/app_ble.c ****   uint32_t Fixed_Pin;
  89:STM32_WPAN/App/app_ble.c **** 
  90:STM32_WPAN/App/app_ble.c ****   /**
  91:STM32_WPAN/App/app_ble.c ****    * this flag indicates whether the host has to initiate
  92:STM32_WPAN/App/app_ble.c ****    * the security, wait for pairing or does not have any security
  93:STM32_WPAN/App/app_ble.c ****    * requirements.\n
  94:STM32_WPAN/App/app_ble.c ****    * 0x00 : no security required
  95:STM32_WPAN/App/app_ble.c ****    * 0x01 : host should initiate security by sending the slave security
  96:STM32_WPAN/App/app_ble.c ****    *        request command
  97:STM32_WPAN/App/app_ble.c ****    * 0x02 : host need not send the clave security request but it
  98:STM32_WPAN/App/app_ble.c ****    * has to wait for paiirng to complete before doing any other
  99:STM32_WPAN/App/app_ble.c ****    * processing
 100:STM32_WPAN/App/app_ble.c ****    */
 101:STM32_WPAN/App/app_ble.c ****   uint8_t initiateSecurity;
 102:STM32_WPAN/App/app_ble.c **** }tSecurityParams;
 103:STM32_WPAN/App/app_ble.c **** 
 104:STM32_WPAN/App/app_ble.c **** /**
 105:STM32_WPAN/App/app_ble.c ****  * global context
 106:STM32_WPAN/App/app_ble.c ****  * contains the variables common to all
 107:STM32_WPAN/App/app_ble.c ****  * services
 108:STM32_WPAN/App/app_ble.c ****  */
 109:STM32_WPAN/App/app_ble.c **** typedef struct _tBLEProfileGlobalContext
 110:STM32_WPAN/App/app_ble.c **** {
 111:STM32_WPAN/App/app_ble.c **** 
 112:STM32_WPAN/App/app_ble.c ****   /**
ARM GAS  /var/folders/lt/l_qrc8c54t93n_phsj7cf5tc0000gn/T//cc5FK5RK.s 			page 4


 113:STM32_WPAN/App/app_ble.c ****    * security requirements of the host
 114:STM32_WPAN/App/app_ble.c ****    */
 115:STM32_WPAN/App/app_ble.c ****   tSecurityParams bleSecurityParam;
 116:STM32_WPAN/App/app_ble.c **** 
 117:STM32_WPAN/App/app_ble.c ****   /**
 118:STM32_WPAN/App/app_ble.c ****    * gap service handle
 119:STM32_WPAN/App/app_ble.c ****    */
 120:STM32_WPAN/App/app_ble.c ****   uint16_t gapServiceHandle;
 121:STM32_WPAN/App/app_ble.c **** 
 122:STM32_WPAN/App/app_ble.c ****   /**
 123:STM32_WPAN/App/app_ble.c ****    * device name characteristic handle
 124:STM32_WPAN/App/app_ble.c ****    */
 125:STM32_WPAN/App/app_ble.c ****   uint16_t devNameCharHandle;
 126:STM32_WPAN/App/app_ble.c **** 
 127:STM32_WPAN/App/app_ble.c ****   /**
 128:STM32_WPAN/App/app_ble.c ****    * appearance characteristic handle
 129:STM32_WPAN/App/app_ble.c ****    */
 130:STM32_WPAN/App/app_ble.c ****   uint16_t appearanceCharHandle;
 131:STM32_WPAN/App/app_ble.c **** 
 132:STM32_WPAN/App/app_ble.c ****   /**
 133:STM32_WPAN/App/app_ble.c ****    * connection handle of the current active connection
 134:STM32_WPAN/App/app_ble.c ****    * When not in connection, the handle is set to 0xFFFF
 135:STM32_WPAN/App/app_ble.c ****    */
 136:STM32_WPAN/App/app_ble.c ****   uint16_t connectionHandle;
 137:STM32_WPAN/App/app_ble.c **** 
 138:STM32_WPAN/App/app_ble.c ****   /**
 139:STM32_WPAN/App/app_ble.c ****    * length of the UUID list to be used while advertising
 140:STM32_WPAN/App/app_ble.c ****    */
 141:STM32_WPAN/App/app_ble.c ****   uint8_t advtServUUIDlen;
 142:STM32_WPAN/App/app_ble.c **** 
 143:STM32_WPAN/App/app_ble.c ****   /**
 144:STM32_WPAN/App/app_ble.c ****    * the UUID list to be used while advertising
 145:STM32_WPAN/App/app_ble.c ****    */
 146:STM32_WPAN/App/app_ble.c ****   uint8_t advtServUUID[100];
 147:STM32_WPAN/App/app_ble.c **** 
 148:STM32_WPAN/App/app_ble.c **** }BleGlobalContext_t;
 149:STM32_WPAN/App/app_ble.c **** 
 150:STM32_WPAN/App/app_ble.c **** typedef struct
 151:STM32_WPAN/App/app_ble.c **** {
 152:STM32_WPAN/App/app_ble.c ****   BleGlobalContext_t BleApplicationContext_legacy;
 153:STM32_WPAN/App/app_ble.c ****   APP_BLE_ConnStatus_t Device_Connection_Status;
 154:STM32_WPAN/App/app_ble.c **** 
 155:STM32_WPAN/App/app_ble.c **** }BleApplicationContext_t;
 156:STM32_WPAN/App/app_ble.c **** /* USER CODE BEGIN PTD */
 157:STM32_WPAN/App/app_ble.c **** 
 158:STM32_WPAN/App/app_ble.c **** /* USER CODE END PTD */
 159:STM32_WPAN/App/app_ble.c **** 
 160:STM32_WPAN/App/app_ble.c **** /* Private defines -----------------------------------------------------------*/
 161:STM32_WPAN/App/app_ble.c **** #define FAST_ADV_TIMEOUT               (30*1000*1000/CFG_TS_TICK_VAL) /**< 30s */
 162:STM32_WPAN/App/app_ble.c **** #define INITIAL_ADV_TIMEOUT            (60*1000*1000/CFG_TS_TICK_VAL) /**< 60s */
 163:STM32_WPAN/App/app_ble.c **** 
 164:STM32_WPAN/App/app_ble.c **** #define BD_ADDR_SIZE_LOCAL    6
 165:STM32_WPAN/App/app_ble.c **** 
 166:STM32_WPAN/App/app_ble.c **** /* USER CODE BEGIN PD */
 167:STM32_WPAN/App/app_ble.c **** 
 168:STM32_WPAN/App/app_ble.c **** /* USER CODE END PD */
 169:STM32_WPAN/App/app_ble.c **** 
ARM GAS  /var/folders/lt/l_qrc8c54t93n_phsj7cf5tc0000gn/T//cc5FK5RK.s 			page 5


 170:STM32_WPAN/App/app_ble.c **** /* Private macro -------------------------------------------------------------*/
 171:STM32_WPAN/App/app_ble.c **** /* USER CODE BEGIN PM */
 172:STM32_WPAN/App/app_ble.c **** 
 173:STM32_WPAN/App/app_ble.c **** /* USER CODE END PM */
 174:STM32_WPAN/App/app_ble.c **** 
 175:STM32_WPAN/App/app_ble.c **** /* Private variables ---------------------------------------------------------*/
 176:STM32_WPAN/App/app_ble.c **** PLACE_IN_SECTION("MB_MEM1") ALIGN(4) static TL_CmdPacket_t BleCmdBuffer;
 177:STM32_WPAN/App/app_ble.c **** 
 178:STM32_WPAN/App/app_ble.c **** static const uint8_t M_bd_addr[BD_ADDR_SIZE_LOCAL] =
 179:STM32_WPAN/App/app_ble.c ****     {
 180:STM32_WPAN/App/app_ble.c ****         (uint8_t)((CFG_ADV_BD_ADDRESS & 0x0000000000FF)),
 181:STM32_WPAN/App/app_ble.c ****         (uint8_t)((CFG_ADV_BD_ADDRESS & 0x00000000FF00) >> 8),
 182:STM32_WPAN/App/app_ble.c ****         (uint8_t)((CFG_ADV_BD_ADDRESS & 0x000000FF0000) >> 16),
 183:STM32_WPAN/App/app_ble.c ****         (uint8_t)((CFG_ADV_BD_ADDRESS & 0x0000FF000000) >> 24),
 184:STM32_WPAN/App/app_ble.c ****         (uint8_t)((CFG_ADV_BD_ADDRESS & 0x00FF00000000) >> 32),
 185:STM32_WPAN/App/app_ble.c ****         (uint8_t)((CFG_ADV_BD_ADDRESS & 0xFF0000000000) >> 40)
 186:STM32_WPAN/App/app_ble.c ****     };
 187:STM32_WPAN/App/app_ble.c **** 
 188:STM32_WPAN/App/app_ble.c **** static uint8_t bd_addr_udn[BD_ADDR_SIZE_LOCAL];
 189:STM32_WPAN/App/app_ble.c **** 
 190:STM32_WPAN/App/app_ble.c **** /**
 191:STM32_WPAN/App/app_ble.c **** *   Identity root key used to derive LTK and CSRK
 192:STM32_WPAN/App/app_ble.c **** */
 193:STM32_WPAN/App/app_ble.c **** static const uint8_t BLE_CFG_IR_VALUE[16] = CFG_BLE_IRK;
 194:STM32_WPAN/App/app_ble.c **** 
 195:STM32_WPAN/App/app_ble.c **** /**
 196:STM32_WPAN/App/app_ble.c **** * Encryption root key used to derive LTK and CSRK
 197:STM32_WPAN/App/app_ble.c **** */
 198:STM32_WPAN/App/app_ble.c **** static const uint8_t BLE_CFG_ER_VALUE[16] = CFG_BLE_ERK;
 199:STM32_WPAN/App/app_ble.c **** 
 200:STM32_WPAN/App/app_ble.c **** /**
 201:STM32_WPAN/App/app_ble.c ****  * These are the two tags used to manage a power failure during OTA
 202:STM32_WPAN/App/app_ble.c ****  * The MagicKeywordAdress shall be mapped @0x140 from start of the binary image
 203:STM32_WPAN/App/app_ble.c ****  * The MagicKeywordvalue is checked in the ble_ota application
 204:STM32_WPAN/App/app_ble.c ****  */
 205:STM32_WPAN/App/app_ble.c **** PLACE_IN_SECTION("TAG_OTA_END") const uint32_t MagicKeywordValue = 0x94448A29 ;
 206:STM32_WPAN/App/app_ble.c **** PLACE_IN_SECTION("TAG_OTA_START") const uint32_t MagicKeywordAddress = (uint32_t)&MagicKeywordValue
 207:STM32_WPAN/App/app_ble.c **** 
 208:STM32_WPAN/App/app_ble.c **** PLACE_IN_SECTION("BLE_APP_CONTEXT") static BleApplicationContext_t BleApplicationContext;
 209:STM32_WPAN/App/app_ble.c **** 
 210:STM32_WPAN/App/app_ble.c **** Custom_App_ConnHandle_Not_evt_t handleNotification;
 211:STM32_WPAN/App/app_ble.c **** 
 212:STM32_WPAN/App/app_ble.c **** #if L2CAP_REQUEST_NEW_CONN_PARAM != 0
 213:STM32_WPAN/App/app_ble.c **** #define SIZE_TAB_CONN_INT            2
 214:STM32_WPAN/App/app_ble.c **** float tab_conn_interval[SIZE_TAB_CONN_INT] = {50, 1000} ; /* ms */
 215:STM32_WPAN/App/app_ble.c **** uint8_t index_con_int, mutex;
 216:STM32_WPAN/App/app_ble.c **** #endif
 217:STM32_WPAN/App/app_ble.c **** 
 218:STM32_WPAN/App/app_ble.c **** /**
 219:STM32_WPAN/App/app_ble.c ****  * Advertising Data
 220:STM32_WPAN/App/app_ble.c ****  */
 221:STM32_WPAN/App/app_ble.c **** uint8_t ad_data[10] = {
 222:STM32_WPAN/App/app_ble.c ****     9, AD_TYPE_COMPLETE_LOCAL_NAME, 'I', 'U', 'L', 'S', '_', 'B', 'L', 'E',  /* Complete name */
 223:STM32_WPAN/App/app_ble.c **** 
 224:STM32_WPAN/App/app_ble.c **** };
 225:STM32_WPAN/App/app_ble.c **** 
 226:STM32_WPAN/App/app_ble.c **** /* USER CODE BEGIN PV */
ARM GAS  /var/folders/lt/l_qrc8c54t93n_phsj7cf5tc0000gn/T//cc5FK5RK.s 			page 6


 227:STM32_WPAN/App/app_ble.c **** 
 228:STM32_WPAN/App/app_ble.c **** /* USER CODE END PV */
 229:STM32_WPAN/App/app_ble.c **** 
 230:STM32_WPAN/App/app_ble.c **** /* Private function prototypes -----------------------------------------------*/
 231:STM32_WPAN/App/app_ble.c **** static void BLE_UserEvtRx( void * pPayload );
 232:STM32_WPAN/App/app_ble.c **** static void BLE_StatusNot( HCI_TL_CmdStatus_t status );
 233:STM32_WPAN/App/app_ble.c **** static void Ble_Tl_Init( void );
 234:STM32_WPAN/App/app_ble.c **** static void Ble_Hci_Gap_Gatt_Init(void);
 235:STM32_WPAN/App/app_ble.c **** static const uint8_t* BleGetBdAddress( void );
 236:STM32_WPAN/App/app_ble.c **** static void Adv_Request( APP_BLE_ConnStatus_t New_Status );
 237:STM32_WPAN/App/app_ble.c **** static void Adv_Cancel( void );
 238:STM32_WPAN/App/app_ble.c **** #if(L2CAP_REQUEST_NEW_CONN_PARAM != 0)
 239:STM32_WPAN/App/app_ble.c **** static void BLE_SVC_L2CAP_Conn_Update(uint16_t Connection_Handle);
 240:STM32_WPAN/App/app_ble.c **** static void Connection_Interval_Update_Req( void );
 241:STM32_WPAN/App/app_ble.c **** #endif
 242:STM32_WPAN/App/app_ble.c **** 
 243:STM32_WPAN/App/app_ble.c **** /* USER CODE BEGIN PFP */
 244:STM32_WPAN/App/app_ble.c **** 
 245:STM32_WPAN/App/app_ble.c **** /* USER CODE END PFP */
 246:STM32_WPAN/App/app_ble.c **** 
 247:STM32_WPAN/App/app_ble.c **** /* External variables --------------------------------------------------------*/
 248:STM32_WPAN/App/app_ble.c **** 
 249:STM32_WPAN/App/app_ble.c **** /* USER CODE BEGIN EV */
 250:STM32_WPAN/App/app_ble.c **** 
 251:STM32_WPAN/App/app_ble.c **** /* USER CODE END EV */
 252:STM32_WPAN/App/app_ble.c **** 
 253:STM32_WPAN/App/app_ble.c **** /* Functions Definition ------------------------------------------------------*/
 254:STM32_WPAN/App/app_ble.c **** void APP_BLE_Init( void )
 255:STM32_WPAN/App/app_ble.c **** {
 256:STM32_WPAN/App/app_ble.c **** /* USER CODE BEGIN APP_BLE_Init_1 */
 257:STM32_WPAN/App/app_ble.c **** 
 258:STM32_WPAN/App/app_ble.c **** /* USER CODE END APP_BLE_Init_1 */
 259:STM32_WPAN/App/app_ble.c ****   SHCI_C2_Ble_Init_Cmd_Packet_t ble_init_cmd_packet =
 260:STM32_WPAN/App/app_ble.c ****   {
 261:STM32_WPAN/App/app_ble.c ****     {{0,0,0}},                          /**< Header unused */
 262:STM32_WPAN/App/app_ble.c ****     {0,                                 /** pBleBufferAddress not used */
 263:STM32_WPAN/App/app_ble.c ****      0,                                 /** BleBufferSize not used */
 264:STM32_WPAN/App/app_ble.c ****      CFG_BLE_NUM_GATT_ATTRIBUTES,
 265:STM32_WPAN/App/app_ble.c ****      CFG_BLE_NUM_GATT_SERVICES,
 266:STM32_WPAN/App/app_ble.c ****      CFG_BLE_ATT_VALUE_ARRAY_SIZE,
 267:STM32_WPAN/App/app_ble.c ****      CFG_BLE_NUM_LINK,
 268:STM32_WPAN/App/app_ble.c ****      CFG_BLE_DATA_LENGTH_EXTENSION,
 269:STM32_WPAN/App/app_ble.c ****      CFG_BLE_PREPARE_WRITE_LIST_SIZE,
 270:STM32_WPAN/App/app_ble.c ****      CFG_BLE_MBLOCK_COUNT,
 271:STM32_WPAN/App/app_ble.c ****      CFG_BLE_MAX_ATT_MTU,
 272:STM32_WPAN/App/app_ble.c ****      CFG_BLE_SLAVE_SCA,
 273:STM32_WPAN/App/app_ble.c ****      CFG_BLE_MASTER_SCA,
 274:STM32_WPAN/App/app_ble.c ****      CFG_BLE_LSE_SOURCE,
 275:STM32_WPAN/App/app_ble.c ****      CFG_BLE_MAX_CONN_EVENT_LENGTH,
 276:STM32_WPAN/App/app_ble.c ****      CFG_BLE_HSE_STARTUP_TIME,
 277:STM32_WPAN/App/app_ble.c ****      CFG_BLE_VITERBI_MODE,
 278:STM32_WPAN/App/app_ble.c ****      CFG_BLE_OPTIONS,
 279:STM32_WPAN/App/app_ble.c ****      0,
 280:STM32_WPAN/App/app_ble.c ****      CFG_BLE_MAX_COC_INITIATOR_NBR,
 281:STM32_WPAN/App/app_ble.c ****      CFG_BLE_MIN_TX_POWER,
 282:STM32_WPAN/App/app_ble.c ****      CFG_BLE_MAX_TX_POWER,
 283:STM32_WPAN/App/app_ble.c ****      CFG_BLE_RX_MODEL_CONFIG}
ARM GAS  /var/folders/lt/l_qrc8c54t93n_phsj7cf5tc0000gn/T//cc5FK5RK.s 			page 7


 284:STM32_WPAN/App/app_ble.c ****   };
 285:STM32_WPAN/App/app_ble.c **** 
 286:STM32_WPAN/App/app_ble.c ****   /**
 287:STM32_WPAN/App/app_ble.c ****    * Initialize Ble Transport Layer
 288:STM32_WPAN/App/app_ble.c ****    */
 289:STM32_WPAN/App/app_ble.c ****   Ble_Tl_Init( );
 290:STM32_WPAN/App/app_ble.c **** 
 291:STM32_WPAN/App/app_ble.c ****   /**
 292:STM32_WPAN/App/app_ble.c ****    * Do not allow standby in the application
 293:STM32_WPAN/App/app_ble.c ****    */
 294:STM32_WPAN/App/app_ble.c ****   UTIL_LPM_SetOffMode(1 << CFG_LPM_APP_BLE, UTIL_LPM_DISABLE);
 295:STM32_WPAN/App/app_ble.c **** 
 296:STM32_WPAN/App/app_ble.c ****   /**
 297:STM32_WPAN/App/app_ble.c ****    * Register the hci transport layer to handle BLE User Asynchronous Events
 298:STM32_WPAN/App/app_ble.c ****    */
 299:STM32_WPAN/App/app_ble.c ****   UTIL_SEQ_RegTask( 1<<CFG_TASK_HCI_ASYNCH_EVT_ID, UTIL_SEQ_RFU, hci_user_evt_proc);
 300:STM32_WPAN/App/app_ble.c **** 
 301:STM32_WPAN/App/app_ble.c ****   /**
 302:STM32_WPAN/App/app_ble.c ****    * Starts the BLE Stack on CPU2
 303:STM32_WPAN/App/app_ble.c ****    */
 304:STM32_WPAN/App/app_ble.c ****   if (SHCI_C2_BLE_Init( &ble_init_cmd_packet ) != SHCI_Success)
 305:STM32_WPAN/App/app_ble.c ****   {
 306:STM32_WPAN/App/app_ble.c ****     Error_Handler();
 307:STM32_WPAN/App/app_ble.c ****   }
 308:STM32_WPAN/App/app_ble.c **** 
 309:STM32_WPAN/App/app_ble.c ****   /**
 310:STM32_WPAN/App/app_ble.c ****    * Initialization of HCI & GATT & GAP layer
 311:STM32_WPAN/App/app_ble.c ****    */
 312:STM32_WPAN/App/app_ble.c ****   Ble_Hci_Gap_Gatt_Init();
 313:STM32_WPAN/App/app_ble.c **** 
 314:STM32_WPAN/App/app_ble.c ****   /**
 315:STM32_WPAN/App/app_ble.c ****    * Initialization of the BLE Services
 316:STM32_WPAN/App/app_ble.c ****    */
 317:STM32_WPAN/App/app_ble.c ****   SVCCTL_Init();
 318:STM32_WPAN/App/app_ble.c **** 
 319:STM32_WPAN/App/app_ble.c ****   /**
 320:STM32_WPAN/App/app_ble.c ****    * Initialization of the BLE App Context
 321:STM32_WPAN/App/app_ble.c ****    */
 322:STM32_WPAN/App/app_ble.c ****   BleApplicationContext.Device_Connection_Status = APP_BLE_IDLE;
 323:STM32_WPAN/App/app_ble.c ****   BleApplicationContext.BleApplicationContext_legacy.connectionHandle = 0xFFFF;
 324:STM32_WPAN/App/app_ble.c ****   /**
 325:STM32_WPAN/App/app_ble.c ****    * From here, all initialization are BLE application specific
 326:STM32_WPAN/App/app_ble.c ****    */
 327:STM32_WPAN/App/app_ble.c ****   UTIL_SEQ_RegTask( 1<<CFG_TASK_ADV_CANCEL_ID, UTIL_SEQ_RFU, Adv_Cancel);
 328:STM32_WPAN/App/app_ble.c ****   /**
 329:STM32_WPAN/App/app_ble.c ****    * Initialization of ADV - Ad Manufacturer Element - Support OTA Bit Mask
 330:STM32_WPAN/App/app_ble.c ****    */
 331:STM32_WPAN/App/app_ble.c **** #if(RADIO_ACTIVITY_EVENT != 0)
 332:STM32_WPAN/App/app_ble.c ****   aci_hal_set_radio_activity_mask(0x0006);
 333:STM32_WPAN/App/app_ble.c **** #endif
 334:STM32_WPAN/App/app_ble.c **** 
 335:STM32_WPAN/App/app_ble.c **** #if (L2CAP_REQUEST_NEW_CONN_PARAM != 0 )
 336:STM32_WPAN/App/app_ble.c ****   index_con_int = 0;
 337:STM32_WPAN/App/app_ble.c ****   mutex = 1;
 338:STM32_WPAN/App/app_ble.c **** #endif
 339:STM32_WPAN/App/app_ble.c ****   /**
 340:STM32_WPAN/App/app_ble.c ****    * Initialize Custom Template Application
ARM GAS  /var/folders/lt/l_qrc8c54t93n_phsj7cf5tc0000gn/T//cc5FK5RK.s 			page 8


 341:STM32_WPAN/App/app_ble.c ****    */
 342:STM32_WPAN/App/app_ble.c ****   Custom_APP_Init();
 343:STM32_WPAN/App/app_ble.c **** 
 344:STM32_WPAN/App/app_ble.c **** /* USER CODE BEGIN APP_BLE_Init_3 */
 345:STM32_WPAN/App/app_ble.c **** 
 346:STM32_WPAN/App/app_ble.c **** /* USER CODE END APP_BLE_Init_3 */
 347:STM32_WPAN/App/app_ble.c **** 
 348:STM32_WPAN/App/app_ble.c ****   /**
 349:STM32_WPAN/App/app_ble.c ****    * Make device discoverable
 350:STM32_WPAN/App/app_ble.c ****    */
 351:STM32_WPAN/App/app_ble.c ****   BleApplicationContext.BleApplicationContext_legacy.advtServUUID[0] = NULL;
 352:STM32_WPAN/App/app_ble.c ****   BleApplicationContext.BleApplicationContext_legacy.advtServUUIDlen = 0;
 353:STM32_WPAN/App/app_ble.c **** 
 354:STM32_WPAN/App/app_ble.c ****   /**
 355:STM32_WPAN/App/app_ble.c ****    * Start to Advertise to be connected by a Client
 356:STM32_WPAN/App/app_ble.c ****    */
 357:STM32_WPAN/App/app_ble.c ****    Adv_Request(APP_BLE_FAST_ADV);
 358:STM32_WPAN/App/app_ble.c **** 
 359:STM32_WPAN/App/app_ble.c **** /* USER CODE BEGIN APP_BLE_Init_2 */
 360:STM32_WPAN/App/app_ble.c **** 
 361:STM32_WPAN/App/app_ble.c **** /* USER CODE END APP_BLE_Init_2 */
 362:STM32_WPAN/App/app_ble.c ****   return;
 363:STM32_WPAN/App/app_ble.c **** }
 364:STM32_WPAN/App/app_ble.c **** 
 365:STM32_WPAN/App/app_ble.c **** SVCCTL_UserEvtFlowStatus_t SVCCTL_App_Notification( void *pckt )
 366:STM32_WPAN/App/app_ble.c **** {
 367:STM32_WPAN/App/app_ble.c ****   hci_event_pckt *event_pckt;
 368:STM32_WPAN/App/app_ble.c ****   evt_le_meta_event *meta_evt;
 369:STM32_WPAN/App/app_ble.c ****   evt_blecore_aci *blecore_evt;
 370:STM32_WPAN/App/app_ble.c **** 
 371:STM32_WPAN/App/app_ble.c ****   event_pckt = (hci_event_pckt*) ((hci_uart_pckt *) pckt)->data;
 372:STM32_WPAN/App/app_ble.c **** 
 373:STM32_WPAN/App/app_ble.c ****   /* PAIRING */
 374:STM32_WPAN/App/app_ble.c ****   aci_gap_numeric_comparison_value_event_rp0 *evt_numeric_value;
 375:STM32_WPAN/App/app_ble.c ****   aci_gap_pairing_complete_event_rp0 *pairing_complete;
 376:STM32_WPAN/App/app_ble.c ****   uint32_t numeric_value;
 377:STM32_WPAN/App/app_ble.c ****   /* PAIRING */
 378:STM32_WPAN/App/app_ble.c **** 
 379:STM32_WPAN/App/app_ble.c ****   /* USER CODE BEGIN SVCCTL_App_Notification */
 380:STM32_WPAN/App/app_ble.c **** 
 381:STM32_WPAN/App/app_ble.c ****   /* USER CODE END SVCCTL_App_Notification */
 382:STM32_WPAN/App/app_ble.c **** 
 383:STM32_WPAN/App/app_ble.c ****   switch (event_pckt->evt)
 384:STM32_WPAN/App/app_ble.c ****   {
 385:STM32_WPAN/App/app_ble.c ****     case HCI_DISCONNECTION_COMPLETE_EVT_CODE:
 386:STM32_WPAN/App/app_ble.c ****     {
 387:STM32_WPAN/App/app_ble.c ****       hci_disconnection_complete_event_rp0 *disconnection_complete_event;
 388:STM32_WPAN/App/app_ble.c ****       disconnection_complete_event = (hci_disconnection_complete_event_rp0 *) event_pckt->data;
 389:STM32_WPAN/App/app_ble.c **** 
 390:STM32_WPAN/App/app_ble.c ****       if (disconnection_complete_event->Connection_Handle == BleApplicationContext.BleApplicationCo
 391:STM32_WPAN/App/app_ble.c ****       {
 392:STM32_WPAN/App/app_ble.c ****         BleApplicationContext.BleApplicationContext_legacy.connectionHandle = 0;
 393:STM32_WPAN/App/app_ble.c ****         BleApplicationContext.Device_Connection_Status = APP_BLE_IDLE;
 394:STM32_WPAN/App/app_ble.c **** 
 395:STM32_WPAN/App/app_ble.c ****         APP_DBG_MSG("\r\n\r** DISCONNECTION EVENT WITH CLIENT \n");
 396:STM32_WPAN/App/app_ble.c ****       }
 397:STM32_WPAN/App/app_ble.c **** 
ARM GAS  /var/folders/lt/l_qrc8c54t93n_phsj7cf5tc0000gn/T//cc5FK5RK.s 			page 9


 398:STM32_WPAN/App/app_ble.c ****       /* restart advertising */
 399:STM32_WPAN/App/app_ble.c ****       Adv_Request(APP_BLE_FAST_ADV);
 400:STM32_WPAN/App/app_ble.c **** 
 401:STM32_WPAN/App/app_ble.c ****       /**
 402:STM32_WPAN/App/app_ble.c ****        * SPECIFIC to Custom Template APP
 403:STM32_WPAN/App/app_ble.c ****        */
 404:STM32_WPAN/App/app_ble.c ****       handleNotification.Custom_Evt_Opcode = CUSTOM_DISCON_HANDLE_EVT;
 405:STM32_WPAN/App/app_ble.c ****       handleNotification.ConnectionHandle = BleApplicationContext.BleApplicationContext_legacy.conn
 406:STM32_WPAN/App/app_ble.c ****       Custom_APP_Notification(&handleNotification);
 407:STM32_WPAN/App/app_ble.c ****       /* USER CODE BEGIN EVT_DISCONN_COMPLETE */
 408:STM32_WPAN/App/app_ble.c **** 
 409:STM32_WPAN/App/app_ble.c ****       /* USER CODE END EVT_DISCONN_COMPLETE */
 410:STM32_WPAN/App/app_ble.c ****     }
 411:STM32_WPAN/App/app_ble.c **** 
 412:STM32_WPAN/App/app_ble.c ****     break; /* HCI_DISCONNECTION_COMPLETE_EVT_CODE */
 413:STM32_WPAN/App/app_ble.c **** 
 414:STM32_WPAN/App/app_ble.c ****     case HCI_LE_META_EVT_CODE:
 415:STM32_WPAN/App/app_ble.c ****     {
 416:STM32_WPAN/App/app_ble.c ****       meta_evt = (evt_le_meta_event*) event_pckt->data;
 417:STM32_WPAN/App/app_ble.c ****       /* USER CODE BEGIN EVT_LE_META_EVENT */
 418:STM32_WPAN/App/app_ble.c **** 
 419:STM32_WPAN/App/app_ble.c ****       /* USER CODE END EVT_LE_META_EVENT */
 420:STM32_WPAN/App/app_ble.c ****       switch (meta_evt->subevent)
 421:STM32_WPAN/App/app_ble.c ****       {
 422:STM32_WPAN/App/app_ble.c ****         case HCI_LE_CONNECTION_UPDATE_COMPLETE_SUBEVT_CODE:
 423:STM32_WPAN/App/app_ble.c ****           APP_DBG_MSG("\r\n\r** CONNECTION UPDATE EVENT WITH CLIENT \n");
 424:STM32_WPAN/App/app_ble.c **** 
 425:STM32_WPAN/App/app_ble.c ****           /* USER CODE BEGIN EVT_LE_CONN_UPDATE_COMPLETE */
 426:STM32_WPAN/App/app_ble.c **** 
 427:STM32_WPAN/App/app_ble.c ****           /* USER CODE END EVT_LE_CONN_UPDATE_COMPLETE */
 428:STM32_WPAN/App/app_ble.c ****           break;
 429:STM32_WPAN/App/app_ble.c ****         case HCI_LE_CONNECTION_COMPLETE_SUBEVT_CODE:
 430:STM32_WPAN/App/app_ble.c ****         {
 431:STM32_WPAN/App/app_ble.c ****           hci_le_connection_complete_event_rp0 *connection_complete_event;
 432:STM32_WPAN/App/app_ble.c **** 
 433:STM32_WPAN/App/app_ble.c ****           /**
 434:STM32_WPAN/App/app_ble.c ****            * The connection is done, there is no need anymore to schedule the LP ADV
 435:STM32_WPAN/App/app_ble.c ****            */
 436:STM32_WPAN/App/app_ble.c ****           connection_complete_event = (hci_le_connection_complete_event_rp0 *) meta_evt->data;
 437:STM32_WPAN/App/app_ble.c **** 
 438:STM32_WPAN/App/app_ble.c ****           APP_DBG_MSG("HCI_LE_CONNECTION_COMPLETE_SUBEVT_CODE for connection handle 0x%x\n", connec
 439:STM32_WPAN/App/app_ble.c ****           if (BleApplicationContext.Device_Connection_Status == APP_BLE_LP_CONNECTING)
 440:STM32_WPAN/App/app_ble.c ****           {
 441:STM32_WPAN/App/app_ble.c ****             /* Connection as client */
 442:STM32_WPAN/App/app_ble.c ****             BleApplicationContext.Device_Connection_Status = APP_BLE_CONNECTED_CLIENT;
 443:STM32_WPAN/App/app_ble.c ****           }
 444:STM32_WPAN/App/app_ble.c ****           else
 445:STM32_WPAN/App/app_ble.c ****           {
 446:STM32_WPAN/App/app_ble.c ****             /* Connection as server */
 447:STM32_WPAN/App/app_ble.c ****             BleApplicationContext.Device_Connection_Status = APP_BLE_CONNECTED_SERVER;
 448:STM32_WPAN/App/app_ble.c ****           }
 449:STM32_WPAN/App/app_ble.c ****           BleApplicationContext.BleApplicationContext_legacy.connectionHandle = connection_complete
 450:STM32_WPAN/App/app_ble.c ****           /**
 451:STM32_WPAN/App/app_ble.c ****            * SPECIFIC to Custom Template APP
 452:STM32_WPAN/App/app_ble.c ****            */
 453:STM32_WPAN/App/app_ble.c ****           handleNotification.Custom_Evt_Opcode = CUSTOM_CONN_HANDLE_EVT;
 454:STM32_WPAN/App/app_ble.c ****           handleNotification.ConnectionHandle = BleApplicationContext.BleApplicationContext_legacy.
ARM GAS  /var/folders/lt/l_qrc8c54t93n_phsj7cf5tc0000gn/T//cc5FK5RK.s 			page 10


 455:STM32_WPAN/App/app_ble.c ****           Custom_APP_Notification(&handleNotification);
 456:STM32_WPAN/App/app_ble.c ****           /* USER CODE BEGIN HCI_EVT_LE_CONN_COMPLETE */
 457:STM32_WPAN/App/app_ble.c **** 
 458:STM32_WPAN/App/app_ble.c ****           /* USER CODE END HCI_EVT_LE_CONN_COMPLETE */
 459:STM32_WPAN/App/app_ble.c ****         }
 460:STM32_WPAN/App/app_ble.c ****         break; /* HCI_LE_CONNECTION_COMPLETE_SUBEVT_CODE */
 461:STM32_WPAN/App/app_ble.c **** 
 462:STM32_WPAN/App/app_ble.c ****         /* USER CODE BEGIN META_EVT */
 463:STM32_WPAN/App/app_ble.c **** 
 464:STM32_WPAN/App/app_ble.c ****         /* USER CODE END META_EVT */
 465:STM32_WPAN/App/app_ble.c **** 
 466:STM32_WPAN/App/app_ble.c ****         default:
 467:STM32_WPAN/App/app_ble.c ****           /* USER CODE BEGIN SUBEVENT_DEFAULT */
 468:STM32_WPAN/App/app_ble.c **** 
 469:STM32_WPAN/App/app_ble.c ****           /* USER CODE END SUBEVENT_DEFAULT */
 470:STM32_WPAN/App/app_ble.c ****           break;
 471:STM32_WPAN/App/app_ble.c ****       }
 472:STM32_WPAN/App/app_ble.c ****     }
 473:STM32_WPAN/App/app_ble.c ****     break; /* HCI_LE_META_EVT_CODE */
 474:STM32_WPAN/App/app_ble.c **** 
 475:STM32_WPAN/App/app_ble.c ****     case HCI_VENDOR_SPECIFIC_DEBUG_EVT_CODE:
 476:STM32_WPAN/App/app_ble.c ****       blecore_evt = (evt_blecore_aci*) event_pckt->data;
 477:STM32_WPAN/App/app_ble.c ****       /* USER CODE BEGIN EVT_VENDOR */
 478:STM32_WPAN/App/app_ble.c **** 
 479:STM32_WPAN/App/app_ble.c ****       /* USER CODE END EVT_VENDOR */
 480:STM32_WPAN/App/app_ble.c ****       switch (blecore_evt->ecode)
 481:STM32_WPAN/App/app_ble.c ****       {
 482:STM32_WPAN/App/app_ble.c ****       /* USER CODE BEGIN ecode */
 483:STM32_WPAN/App/app_ble.c **** 
 484:STM32_WPAN/App/app_ble.c ****       /* USER CODE END ecode */
 485:STM32_WPAN/App/app_ble.c ****       /**
 486:STM32_WPAN/App/app_ble.c ****        * SPECIFIC to Custom Template APP
 487:STM32_WPAN/App/app_ble.c ****        */
 488:STM32_WPAN/App/app_ble.c ****         case ACI_L2CAP_CONNECTION_UPDATE_RESP_VSEVT_CODE:
 489:STM32_WPAN/App/app_ble.c **** #if (L2CAP_REQUEST_NEW_CONN_PARAM != 0 )
 490:STM32_WPAN/App/app_ble.c ****           mutex = 1;
 491:STM32_WPAN/App/app_ble.c **** #endif
 492:STM32_WPAN/App/app_ble.c ****       /* USER CODE BEGIN EVT_BLUE_L2CAP_CONNECTION_UPDATE_RESP */
 493:STM32_WPAN/App/app_ble.c **** 
 494:STM32_WPAN/App/app_ble.c ****       /* USER CODE END EVT_BLUE_L2CAP_CONNECTION_UPDATE_RESP */
 495:STM32_WPAN/App/app_ble.c ****       break;
 496:STM32_WPAN/App/app_ble.c ****         case ACI_GAP_PROC_COMPLETE_VSEVT_CODE:
 497:STM32_WPAN/App/app_ble.c ****         APP_DBG_MSG("\r\n\r** ACI_GAP_PROC_COMPLETE_VSEVT_CODE \n");
 498:STM32_WPAN/App/app_ble.c ****         /* USER CODE BEGIN EVT_BLUE_GAP_PROCEDURE_COMPLETE */
 499:STM32_WPAN/App/app_ble.c **** 
 500:STM32_WPAN/App/app_ble.c ****         /* USER CODE END EVT_BLUE_GAP_PROCEDURE_COMPLETE */
 501:STM32_WPAN/App/app_ble.c ****           break; /* ACI_GAP_PROC_COMPLETE_VSEVT_CODE */
 502:STM32_WPAN/App/app_ble.c **** #if(RADIO_ACTIVITY_EVENT != 0)
 503:STM32_WPAN/App/app_ble.c ****         case ACI_HAL_END_OF_RADIO_ACTIVITY_VSEVT_CODE:
 504:STM32_WPAN/App/app_ble.c ****         /* USER CODE BEGIN RADIO_ACTIVITY_EVENT*/
 505:STM32_WPAN/App/app_ble.c **** 
 506:STM32_WPAN/App/app_ble.c ****         /* USER CODE END RADIO_ACTIVITY_EVENT*/
 507:STM32_WPAN/App/app_ble.c ****           break; /* ACI_HAL_END_OF_RADIO_ACTIVITY_VSEVT_CODE */
 508:STM32_WPAN/App/app_ble.c **** #endif
 509:STM32_WPAN/App/app_ble.c **** 
 510:STM32_WPAN/App/app_ble.c ****         /* PAIRING */
 511:STM32_WPAN/App/app_ble.c ****         case (ACI_GAP_KEYPRESS_NOTIFICATION_VSEVT_CODE):
ARM GAS  /var/folders/lt/l_qrc8c54t93n_phsj7cf5tc0000gn/T//cc5FK5RK.s 			page 11


 512:STM32_WPAN/App/app_ble.c ****          APP_DBG_MSG("\r\n\r** ACI_GAP_KEYPRESS_NOTIFICATION_VSEVT_CODE \n");
 513:STM32_WPAN/App/app_ble.c ****         break;
 514:STM32_WPAN/App/app_ble.c **** 
 515:STM32_WPAN/App/app_ble.c ****         case ACI_GAP_PASS_KEY_REQ_VSEVT_CODE:
 516:STM32_WPAN/App/app_ble.c ****             aci_gap_pass_key_resp(BleApplicationContext.BleApplicationContext_legacy.connectionHand
 517:STM32_WPAN/App/app_ble.c ****         break;
 518:STM32_WPAN/App/app_ble.c **** 
 519:STM32_WPAN/App/app_ble.c ****         case ACI_GAP_NUMERIC_COMPARISON_VALUE_VSEVT_CODE:
 520:STM32_WPAN/App/app_ble.c ****             evt_numeric_value = (aci_gap_numeric_comparison_value_event_rp0 *)blecore_evt->data;
 521:STM32_WPAN/App/app_ble.c ****             numeric_value = evt_numeric_value->Numeric_Value;
 522:STM32_WPAN/App/app_ble.c ****             APP_DBG_MSG("numeric_value = %ld\n", numeric_value);
 523:STM32_WPAN/App/app_ble.c ****             aci_gap_numeric_comparison_value_confirm_yesno(BleApplicationContext.BleApplicationCont
 524:STM32_WPAN/App/app_ble.c ****         break;
 525:STM32_WPAN/App/app_ble.c **** 
 526:STM32_WPAN/App/app_ble.c ****         case ACI_GAP_PAIRING_COMPLETE_VSEVT_CODE:
 527:STM32_WPAN/App/app_ble.c ****             pairing_complete = (aci_gap_pairing_complete_event_rp0*)blecore_evt->data;
 528:STM32_WPAN/App/app_ble.c ****             APP_DBG_MSG("BLE_CTRL_App_Notification: ACI_GAP_PAIRING_COMPLETE_VSEVT_CODE, pairing_co
 529:STM32_WPAN/App/app_ble.c ****         break;
 530:STM32_WPAN/App/app_ble.c ****         /* PAIRING */
 531:STM32_WPAN/App/app_ble.c **** 
 532:STM32_WPAN/App/app_ble.c ****       /* USER CODE BEGIN BLUE_EVT */
 533:STM32_WPAN/App/app_ble.c **** 
 534:STM32_WPAN/App/app_ble.c ****       /* USER CODE END BLUE_EVT */
 535:STM32_WPAN/App/app_ble.c ****       }
 536:STM32_WPAN/App/app_ble.c ****       break; /* HCI_VENDOR_SPECIFIC_DEBUG_EVT_CODE */
 537:STM32_WPAN/App/app_ble.c **** 
 538:STM32_WPAN/App/app_ble.c ****       /* USER CODE BEGIN EVENT_PCKT */
 539:STM32_WPAN/App/app_ble.c **** 
 540:STM32_WPAN/App/app_ble.c ****       /* USER CODE END EVENT_PCKT */
 541:STM32_WPAN/App/app_ble.c **** 
 542:STM32_WPAN/App/app_ble.c ****       default:
 543:STM32_WPAN/App/app_ble.c ****       /* USER CODE BEGIN ECODE_DEFAULT*/
 544:STM32_WPAN/App/app_ble.c **** 
 545:STM32_WPAN/App/app_ble.c ****       /* USER CODE END ECODE_DEFAULT*/
 546:STM32_WPAN/App/app_ble.c ****       break;
 547:STM32_WPAN/App/app_ble.c ****   }
 548:STM32_WPAN/App/app_ble.c **** 
 549:STM32_WPAN/App/app_ble.c ****   return (SVCCTL_UserEvtFlowEnable);
 550:STM32_WPAN/App/app_ble.c **** }
 551:STM32_WPAN/App/app_ble.c **** 
 552:STM32_WPAN/App/app_ble.c **** APP_BLE_ConnStatus_t APP_BLE_Get_Server_Connection_Status(void)
 553:STM32_WPAN/App/app_ble.c **** {
 554:STM32_WPAN/App/app_ble.c ****     return BleApplicationContext.Device_Connection_Status;
 555:STM32_WPAN/App/app_ble.c **** }
 556:STM32_WPAN/App/app_ble.c **** 
 557:STM32_WPAN/App/app_ble.c **** /* USER CODE BEGIN FD*/
 558:STM32_WPAN/App/app_ble.c **** 
 559:STM32_WPAN/App/app_ble.c **** /* USER CODE END FD*/
 560:STM32_WPAN/App/app_ble.c **** /*************************************************************
 561:STM32_WPAN/App/app_ble.c ****  *
 562:STM32_WPAN/App/app_ble.c ****  * LOCAL FUNCTIONS
 563:STM32_WPAN/App/app_ble.c ****  *
 564:STM32_WPAN/App/app_ble.c ****  *************************************************************/
 565:STM32_WPAN/App/app_ble.c **** static void Ble_Tl_Init( void )
 566:STM32_WPAN/App/app_ble.c **** {
 567:STM32_WPAN/App/app_ble.c ****   HCI_TL_HciInitConf_t Hci_Tl_Init_Conf;
 568:STM32_WPAN/App/app_ble.c **** 
ARM GAS  /var/folders/lt/l_qrc8c54t93n_phsj7cf5tc0000gn/T//cc5FK5RK.s 			page 12


 569:STM32_WPAN/App/app_ble.c ****   Hci_Tl_Init_Conf.p_cmdbuffer = (uint8_t*)&BleCmdBuffer;
 570:STM32_WPAN/App/app_ble.c ****   Hci_Tl_Init_Conf.StatusNotCallBack = BLE_StatusNot;
 571:STM32_WPAN/App/app_ble.c ****   hci_init(BLE_UserEvtRx, (void*) &Hci_Tl_Init_Conf);
 572:STM32_WPAN/App/app_ble.c **** 
 573:STM32_WPAN/App/app_ble.c ****   return;
 574:STM32_WPAN/App/app_ble.c **** }
 575:STM32_WPAN/App/app_ble.c **** 
 576:STM32_WPAN/App/app_ble.c **** static void Ble_Hci_Gap_Gatt_Init(void){
 577:STM32_WPAN/App/app_ble.c **** 
 578:STM32_WPAN/App/app_ble.c ****   uint8_t role;
 579:STM32_WPAN/App/app_ble.c ****   uint16_t gap_service_handle, gap_dev_name_char_handle, gap_appearance_char_handle;
 580:STM32_WPAN/App/app_ble.c ****   const uint8_t *bd_addr;
 581:STM32_WPAN/App/app_ble.c ****   uint16_t appearance[1] = { BLE_CFG_GAP_APPEARANCE };
 582:STM32_WPAN/App/app_ble.c **** 
 583:STM32_WPAN/App/app_ble.c ****   /**
 584:STM32_WPAN/App/app_ble.c ****    * Initialize HCI layer
 585:STM32_WPAN/App/app_ble.c ****    */
 586:STM32_WPAN/App/app_ble.c ****   /*HCI Reset to synchronise BLE Stack*/
 587:STM32_WPAN/App/app_ble.c ****   hci_reset();
 588:STM32_WPAN/App/app_ble.c **** 
 589:STM32_WPAN/App/app_ble.c ****   /**
 590:STM32_WPAN/App/app_ble.c ****    * Write the BD Address
 591:STM32_WPAN/App/app_ble.c ****    */
 592:STM32_WPAN/App/app_ble.c **** 
 593:STM32_WPAN/App/app_ble.c ****   bd_addr = BleGetBdAddress();
 594:STM32_WPAN/App/app_ble.c ****   aci_hal_write_config_data(CONFIG_DATA_PUBADDR_OFFSET,
 595:STM32_WPAN/App/app_ble.c ****                             CONFIG_DATA_PUBADDR_LEN,
 596:STM32_WPAN/App/app_ble.c ****                             (uint8_t*) bd_addr);
 597:STM32_WPAN/App/app_ble.c **** 
 598:STM32_WPAN/App/app_ble.c ****   /**
 599:STM32_WPAN/App/app_ble.c ****    * Static random Address
 600:STM32_WPAN/App/app_ble.c ****    * The two upper bits shall be set to 1
 601:STM32_WPAN/App/app_ble.c ****    * The lowest 32bits is read from the UDN to differentiate between devices
 602:STM32_WPAN/App/app_ble.c ****    * The RNG may be used to provide a random number on each power on
 603:STM32_WPAN/App/app_ble.c ****    */
 604:STM32_WPAN/App/app_ble.c **** #if defined(CFG_STATIC_RANDOM_ADDRESS)
 605:STM32_WPAN/App/app_ble.c ****   srd_bd_addr[0] = CFG_STATIC_RANDOM_ADDRESS & 0xFFFFFFFF;
 606:STM32_WPAN/App/app_ble.c ****   srd_bd_addr[1] = (uint32_t)((uint64_t)CFG_STATIC_RANDOM_ADDRESS >> 32);
 607:STM32_WPAN/App/app_ble.c ****   srd_bd_addr[1] |= 0xC000; /* The two upper bits shall be set to 1 */
 608:STM32_WPAN/App/app_ble.c **** #elif (CFG_BLE_ADDRESS_TYPE == RANDOM_ADDR)
 609:STM32_WPAN/App/app_ble.c ****   /* Get RNG semaphore */
 610:STM32_WPAN/App/app_ble.c ****   while( LL_HSEM_1StepLock( HSEM, CFG_HW_RNG_SEMID ) );
 611:STM32_WPAN/App/app_ble.c **** 
 612:STM32_WPAN/App/app_ble.c ****   /* Enable RNG */
 613:STM32_WPAN/App/app_ble.c ****   __HAL_RNG_ENABLE(&hrng);
 614:STM32_WPAN/App/app_ble.c **** 
 615:STM32_WPAN/App/app_ble.c ****   /* Enable HSI48 oscillator */
 616:STM32_WPAN/App/app_ble.c ****   LL_RCC_HSI48_Enable();
 617:STM32_WPAN/App/app_ble.c ****   /* Wait until HSI48 is ready */
 618:STM32_WPAN/App/app_ble.c ****   while( ! LL_RCC_HSI48_IsReady( ) );
 619:STM32_WPAN/App/app_ble.c **** 
 620:STM32_WPAN/App/app_ble.c ****   if (HAL_RNG_GenerateRandomNumber(&hrng, &srd_bd_addr[1]) != HAL_OK)
 621:STM32_WPAN/App/app_ble.c ****   {
 622:STM32_WPAN/App/app_ble.c ****     /* Random number generation error */
 623:STM32_WPAN/App/app_ble.c ****     Error_Handler();
 624:STM32_WPAN/App/app_ble.c ****   }
 625:STM32_WPAN/App/app_ble.c ****   if (HAL_RNG_GenerateRandomNumber(&hrng, &srd_bd_addr[0]) != HAL_OK)
ARM GAS  /var/folders/lt/l_qrc8c54t93n_phsj7cf5tc0000gn/T//cc5FK5RK.s 			page 13


 626:STM32_WPAN/App/app_ble.c ****   {
 627:STM32_WPAN/App/app_ble.c ****     /* Random number generation error */
 628:STM32_WPAN/App/app_ble.c ****     Error_Handler();
 629:STM32_WPAN/App/app_ble.c ****   }
 630:STM32_WPAN/App/app_ble.c ****   srd_bd_addr[1] |= 0xC000; /* The two upper bits shall be set to 1 */
 631:STM32_WPAN/App/app_ble.c **** 
 632:STM32_WPAN/App/app_ble.c ****   /* Disable HSI48 oscillator */
 633:STM32_WPAN/App/app_ble.c ****   LL_RCC_HSI48_Disable();
 634:STM32_WPAN/App/app_ble.c **** 
 635:STM32_WPAN/App/app_ble.c ****   /* Disable RNG */
 636:STM32_WPAN/App/app_ble.c ****   __HAL_RNG_DISABLE(&hrng);
 637:STM32_WPAN/App/app_ble.c **** 
 638:STM32_WPAN/App/app_ble.c ****   /* Release RNG semaphore */
 639:STM32_WPAN/App/app_ble.c ****   LL_HSEM_ReleaseLock( HSEM, CFG_HW_RNG_SEMID, 0 );
 640:STM32_WPAN/App/app_ble.c **** #endif
 641:STM32_WPAN/App/app_ble.c **** 
 642:STM32_WPAN/App/app_ble.c **** #if (CFG_BLE_ADDRESS_TYPE == STATIC_RANDOM_ADDR)
 643:STM32_WPAN/App/app_ble.c ****   aci_hal_write_config_data( CONFIG_DATA_RANDOM_ADDRESS_OFFSET, CONFIG_DATA_RANDOM_ADDRESS_LEN, (ui
 644:STM32_WPAN/App/app_ble.c **** #endif
 645:STM32_WPAN/App/app_ble.c **** 
 646:STM32_WPAN/App/app_ble.c ****   /**
 647:STM32_WPAN/App/app_ble.c ****    * Write Identity root key used to derive LTK and CSRK
 648:STM32_WPAN/App/app_ble.c ****    */
 649:STM32_WPAN/App/app_ble.c ****   aci_hal_write_config_data( CONFIG_DATA_IR_OFFSET, CONFIG_DATA_IR_LEN, (uint8_t*)BLE_CFG_IR_VALUE 
 650:STM32_WPAN/App/app_ble.c **** 
 651:STM32_WPAN/App/app_ble.c ****   /**
 652:STM32_WPAN/App/app_ble.c ****    * Write Encryption root key used to derive LTK and CSRK
 653:STM32_WPAN/App/app_ble.c ****    */
 654:STM32_WPAN/App/app_ble.c ****   aci_hal_write_config_data( CONFIG_DATA_ER_OFFSET, CONFIG_DATA_ER_LEN, (uint8_t*)BLE_CFG_ER_VALUE 
 655:STM32_WPAN/App/app_ble.c **** 
 656:STM32_WPAN/App/app_ble.c ****   /**
 657:STM32_WPAN/App/app_ble.c ****    * Set TX Power to 0dBm.
 658:STM32_WPAN/App/app_ble.c ****    */
 659:STM32_WPAN/App/app_ble.c ****   aci_hal_set_tx_power_level(1, CFG_TX_POWER);
 660:STM32_WPAN/App/app_ble.c **** 
 661:STM32_WPAN/App/app_ble.c ****   /**
 662:STM32_WPAN/App/app_ble.c ****    * Initialize GATT interface
 663:STM32_WPAN/App/app_ble.c ****    */
 664:STM32_WPAN/App/app_ble.c ****   aci_gatt_init();
 665:STM32_WPAN/App/app_ble.c **** 
 666:STM32_WPAN/App/app_ble.c ****   /**
 667:STM32_WPAN/App/app_ble.c ****    * Initialize GAP interface
 668:STM32_WPAN/App/app_ble.c ****    */
 669:STM32_WPAN/App/app_ble.c ****   role = 0;
 670:STM32_WPAN/App/app_ble.c **** 
 671:STM32_WPAN/App/app_ble.c **** #if (BLE_CFG_PERIPHERAL == 1)
 672:STM32_WPAN/App/app_ble.c ****   role |= GAP_PERIPHERAL_ROLE;
 673:STM32_WPAN/App/app_ble.c **** #endif
 674:STM32_WPAN/App/app_ble.c **** 
 675:STM32_WPAN/App/app_ble.c **** #if (BLE_CFG_CENTRAL == 1)
 676:STM32_WPAN/App/app_ble.c ****   role |= GAP_CENTRAL_ROLE;
 677:STM32_WPAN/App/app_ble.c **** #endif
 678:STM32_WPAN/App/app_ble.c **** 
 679:STM32_WPAN/App/app_ble.c ****   if (role > 0)
 680:STM32_WPAN/App/app_ble.c ****   {
 681:STM32_WPAN/App/app_ble.c ****     const char *name = CFG_GAP_DEVICE_NAME;
 682:STM32_WPAN/App/app_ble.c ****     aci_gap_init(role,
ARM GAS  /var/folders/lt/l_qrc8c54t93n_phsj7cf5tc0000gn/T//cc5FK5RK.s 			page 14


 683:STM32_WPAN/App/app_ble.c **** #if ((CFG_BLE_ADDRESS_TYPE == RESOLVABLE_PRIVATE_ADDR) || (CFG_BLE_ADDRESS_TYPE == NON_RESOLVABLE_P
 684:STM32_WPAN/App/app_ble.c ****                  2,
 685:STM32_WPAN/App/app_ble.c **** #else
 686:STM32_WPAN/App/app_ble.c ****                  0,
 687:STM32_WPAN/App/app_ble.c **** #endif
 688:STM32_WPAN/App/app_ble.c ****                  CFG_GAP_DEVICE_NAME_LENGTH,
 689:STM32_WPAN/App/app_ble.c ****                  &gap_service_handle,
 690:STM32_WPAN/App/app_ble.c ****                  &gap_dev_name_char_handle,
 691:STM32_WPAN/App/app_ble.c ****                  &gap_appearance_char_handle);
 692:STM32_WPAN/App/app_ble.c **** 
 693:STM32_WPAN/App/app_ble.c ****     if (aci_gatt_update_char_value(gap_service_handle, gap_dev_name_char_handle, 0, strlen(name), (
 694:STM32_WPAN/App/app_ble.c ****     {
 695:STM32_WPAN/App/app_ble.c ****       BLE_DBG_SVCCTL_MSG("Device Name aci_gatt_update_char_value failed.\n");
 696:STM32_WPAN/App/app_ble.c ****     }
 697:STM32_WPAN/App/app_ble.c ****   }
 698:STM32_WPAN/App/app_ble.c **** 
 699:STM32_WPAN/App/app_ble.c ****   if(aci_gatt_update_char_value(gap_service_handle,
 700:STM32_WPAN/App/app_ble.c ****                                 gap_appearance_char_handle,
 701:STM32_WPAN/App/app_ble.c ****                                 0,
 702:STM32_WPAN/App/app_ble.c ****                                 2,
 703:STM32_WPAN/App/app_ble.c ****                                 (uint8_t *)&appearance))
 704:STM32_WPAN/App/app_ble.c ****   {
 705:STM32_WPAN/App/app_ble.c ****     BLE_DBG_SVCCTL_MSG("Appearance aci_gatt_update_char_value failed.\n");
 706:STM32_WPAN/App/app_ble.c ****   }
 707:STM32_WPAN/App/app_ble.c ****   /**
 708:STM32_WPAN/App/app_ble.c ****    * Initialize Default PHY
 709:STM32_WPAN/App/app_ble.c ****    */
 710:STM32_WPAN/App/app_ble.c ****   hci_le_set_default_phy(ALL_PHYS_PREFERENCE,TX_2M_PREFERRED,RX_2M_PREFERRED);
 711:STM32_WPAN/App/app_ble.c **** 
 712:STM32_WPAN/App/app_ble.c ****   /**
 713:STM32_WPAN/App/app_ble.c ****    * Initialize IO capability
 714:STM32_WPAN/App/app_ble.c ****    */
 715:STM32_WPAN/App/app_ble.c ****   BleApplicationContext.BleApplicationContext_legacy.bleSecurityParam.ioCapability = CFG_IO_CAPABIL
 716:STM32_WPAN/App/app_ble.c ****   aci_gap_set_io_capability(BleApplicationContext.BleApplicationContext_legacy.bleSecurityParam.ioC
 717:STM32_WPAN/App/app_ble.c **** 
 718:STM32_WPAN/App/app_ble.c ****   /**
 719:STM32_WPAN/App/app_ble.c ****    * Initialize authentication
 720:STM32_WPAN/App/app_ble.c ****    */
 721:STM32_WPAN/App/app_ble.c ****   BleApplicationContext.BleApplicationContext_legacy.bleSecurityParam.mitm_mode = CFG_MITM_PROTECTI
 722:STM32_WPAN/App/app_ble.c ****   BleApplicationContext.BleApplicationContext_legacy.bleSecurityParam.encryptionKeySizeMin = CFG_EN
 723:STM32_WPAN/App/app_ble.c ****   BleApplicationContext.BleApplicationContext_legacy.bleSecurityParam.encryptionKeySizeMax = CFG_EN
 724:STM32_WPAN/App/app_ble.c ****   BleApplicationContext.BleApplicationContext_legacy.bleSecurityParam.Use_Fixed_Pin = CFG_USED_FIXE
 725:STM32_WPAN/App/app_ble.c ****   BleApplicationContext.BleApplicationContext_legacy.bleSecurityParam.Fixed_Pin = CFG_FIXED_PIN;
 726:STM32_WPAN/App/app_ble.c ****   BleApplicationContext.BleApplicationContext_legacy.bleSecurityParam.bonding_mode = CFG_BONDING_MO
 727:STM32_WPAN/App/app_ble.c **** 
 728:STM32_WPAN/App/app_ble.c ****   aci_gap_set_authentication_requirement(BleApplicationContext.BleApplicationContext_legacy.bleSecu
 729:STM32_WPAN/App/app_ble.c ****                                          BleApplicationContext.BleApplicationContext_legacy.bleSecu
 730:STM32_WPAN/App/app_ble.c ****                                          CFG_SC_SUPPORT,
 731:STM32_WPAN/App/app_ble.c ****                                          CFG_KEYPRESS_NOTIFICATION_SUPPORT,
 732:STM32_WPAN/App/app_ble.c ****                                          BleApplicationContext.BleApplicationContext_legacy.bleSecu
 733:STM32_WPAN/App/app_ble.c ****                                          BleApplicationContext.BleApplicationContext_legacy.bleSecu
 734:STM32_WPAN/App/app_ble.c ****                                          BleApplicationContext.BleApplicationContext_legacy.bleSecu
 735:STM32_WPAN/App/app_ble.c ****                                          BleApplicationContext.BleApplicationContext_legacy.bleSecu
 736:STM32_WPAN/App/app_ble.c ****                                          CFG_BLE_ADDRESS_TYPE
 737:STM32_WPAN/App/app_ble.c ****                                          );
 738:STM32_WPAN/App/app_ble.c **** 
 739:STM32_WPAN/App/app_ble.c ****   /**
ARM GAS  /var/folders/lt/l_qrc8c54t93n_phsj7cf5tc0000gn/T//cc5FK5RK.s 			page 15


 740:STM32_WPAN/App/app_ble.c ****    * Initialize whitelist
 741:STM32_WPAN/App/app_ble.c ****    */
 742:STM32_WPAN/App/app_ble.c ****    if (BleApplicationContext.BleApplicationContext_legacy.bleSecurityParam.bonding_mode)
 743:STM32_WPAN/App/app_ble.c ****    {
 744:STM32_WPAN/App/app_ble.c ****      aci_gap_configure_whitelist();
 745:STM32_WPAN/App/app_ble.c ****    }
 746:STM32_WPAN/App/app_ble.c **** }
 747:STM32_WPAN/App/app_ble.c **** 
 748:STM32_WPAN/App/app_ble.c **** static void Adv_Request(APP_BLE_ConnStatus_t New_Status)
 749:STM32_WPAN/App/app_ble.c **** {
 750:STM32_WPAN/App/app_ble.c ****   tBleStatus ret = BLE_STATUS_INVALID_PARAMS;
 751:STM32_WPAN/App/app_ble.c **** 
 752:STM32_WPAN/App/app_ble.c ****     BleApplicationContext.Device_Connection_Status = New_Status;
 753:STM32_WPAN/App/app_ble.c ****     /* Start Fast or Low Power Advertising */
 754:STM32_WPAN/App/app_ble.c ****     ret = aci_gap_set_discoverable(
 755:STM32_WPAN/App/app_ble.c ****         ADV_TYPE,
 756:STM32_WPAN/App/app_ble.c ****         CFG_FAST_CONN_ADV_INTERVAL_MIN,
 757:STM32_WPAN/App/app_ble.c ****         CFG_FAST_CONN_ADV_INTERVAL_MAX,
 758:STM32_WPAN/App/app_ble.c ****         CFG_BLE_ADDRESS_TYPE,
 759:STM32_WPAN/App/app_ble.c ****         ADV_FILTER,
 760:STM32_WPAN/App/app_ble.c ****         0,
 761:STM32_WPAN/App/app_ble.c ****         0,
 762:STM32_WPAN/App/app_ble.c ****         0,
 763:STM32_WPAN/App/app_ble.c ****         0,
 764:STM32_WPAN/App/app_ble.c ****         0,
 765:STM32_WPAN/App/app_ble.c ****         0);
 766:STM32_WPAN/App/app_ble.c **** 
 767:STM32_WPAN/App/app_ble.c ****     /* Update Advertising data */
 768:STM32_WPAN/App/app_ble.c ****     ret = aci_gap_update_adv_data(sizeof(ad_data), (uint8_t*) ad_data);
 769:STM32_WPAN/App/app_ble.c **** 
 770:STM32_WPAN/App/app_ble.c ****     if (ret == BLE_STATUS_SUCCESS)
 771:STM32_WPAN/App/app_ble.c ****     {
 772:STM32_WPAN/App/app_ble.c ****         APP_DBG_MSG("Successfully Start Fast Advertising \n" );
 773:STM32_WPAN/App/app_ble.c ****     }
 774:STM32_WPAN/App/app_ble.c ****     else
 775:STM32_WPAN/App/app_ble.c ****     {
 776:STM32_WPAN/App/app_ble.c ****         APP_DBG_MSG("Start Fast Advertising Failed , result: %d \n", ret);
 777:STM32_WPAN/App/app_ble.c ****     }
 778:STM32_WPAN/App/app_ble.c **** 
 779:STM32_WPAN/App/app_ble.c ****   return;
 780:STM32_WPAN/App/app_ble.c **** }
 781:STM32_WPAN/App/app_ble.c **** 
 782:STM32_WPAN/App/app_ble.c **** const uint8_t* BleGetBdAddress( void )
 783:STM32_WPAN/App/app_ble.c **** {
 784:STM32_WPAN/App/app_ble.c ****   uint8_t *otp_addr;
 785:STM32_WPAN/App/app_ble.c ****   const uint8_t *bd_addr;
 786:STM32_WPAN/App/app_ble.c ****   uint32_t udn;
 787:STM32_WPAN/App/app_ble.c ****   uint32_t company_id;
 788:STM32_WPAN/App/app_ble.c ****   uint32_t device_id;
 789:STM32_WPAN/App/app_ble.c **** 
 790:STM32_WPAN/App/app_ble.c ****   udn = LL_FLASH_GetUDN();
 791:STM32_WPAN/App/app_ble.c **** 
 792:STM32_WPAN/App/app_ble.c ****   if(udn != 0xFFFFFFFF)
 793:STM32_WPAN/App/app_ble.c ****   {
 794:STM32_WPAN/App/app_ble.c ****     company_id = LL_FLASH_GetSTCompanyID();
 795:STM32_WPAN/App/app_ble.c ****     device_id = LL_FLASH_GetDeviceID();
 796:STM32_WPAN/App/app_ble.c **** 
ARM GAS  /var/folders/lt/l_qrc8c54t93n_phsj7cf5tc0000gn/T//cc5FK5RK.s 			page 16


 797:STM32_WPAN/App/app_ble.c **** /**
 798:STM32_WPAN/App/app_ble.c ****  * Public Address with the ST company ID
 799:STM32_WPAN/App/app_ble.c ****  * bit[47:24] : 24bits (OUI) equal to the company ID
 800:STM32_WPAN/App/app_ble.c ****  * bit[23:16] : Device ID.
 801:STM32_WPAN/App/app_ble.c ****  * bit[15:0] : The last 16bits from the UDN
 802:STM32_WPAN/App/app_ble.c ****  * Note: In order to use the Public Address in a final product, a dedicated
 803:STM32_WPAN/App/app_ble.c ****  * 24bits company ID (OUI) shall be bought.
 804:STM32_WPAN/App/app_ble.c ****  */
 805:STM32_WPAN/App/app_ble.c ****     bd_addr_udn[0] = (uint8_t)(udn & 0x000000FF);
 806:STM32_WPAN/App/app_ble.c ****     bd_addr_udn[1] = (uint8_t)( (udn & 0x0000FF00) >> 8 );
 807:STM32_WPAN/App/app_ble.c ****     bd_addr_udn[2] = (uint8_t)device_id;
 808:STM32_WPAN/App/app_ble.c ****     bd_addr_udn[3] = (uint8_t)(company_id & 0x000000FF);
 809:STM32_WPAN/App/app_ble.c ****     bd_addr_udn[4] = (uint8_t)( (company_id & 0x0000FF00) >> 8 );
 810:STM32_WPAN/App/app_ble.c ****     bd_addr_udn[5] = (uint8_t)( (company_id & 0x00FF0000) >> 16 );
 811:STM32_WPAN/App/app_ble.c **** 
 812:STM32_WPAN/App/app_ble.c ****     bd_addr = (const uint8_t *)bd_addr_udn;
 813:STM32_WPAN/App/app_ble.c ****   }
 814:STM32_WPAN/App/app_ble.c ****   else
 815:STM32_WPAN/App/app_ble.c ****   {
 816:STM32_WPAN/App/app_ble.c ****     otp_addr = OTP_Read(0);
 817:STM32_WPAN/App/app_ble.c ****     if(otp_addr)
 818:STM32_WPAN/App/app_ble.c ****     {
 819:STM32_WPAN/App/app_ble.c ****       bd_addr = ((OTP_ID0_t*)otp_addr)->bd_address;
 820:STM32_WPAN/App/app_ble.c ****     }
 821:STM32_WPAN/App/app_ble.c ****     else
 822:STM32_WPAN/App/app_ble.c ****     {
 823:STM32_WPAN/App/app_ble.c ****       bd_addr = M_bd_addr;
 824:STM32_WPAN/App/app_ble.c ****     }
 825:STM32_WPAN/App/app_ble.c ****   }
 826:STM32_WPAN/App/app_ble.c **** 
 827:STM32_WPAN/App/app_ble.c ****   return bd_addr;
 828:STM32_WPAN/App/app_ble.c **** }
 829:STM32_WPAN/App/app_ble.c **** 
 830:STM32_WPAN/App/app_ble.c **** /* USER CODE BEGIN FD_LOCAL_FUNCTION */
 831:STM32_WPAN/App/app_ble.c **** 
 832:STM32_WPAN/App/app_ble.c **** /* USER CODE END FD_LOCAL_FUNCTION */
 833:STM32_WPAN/App/app_ble.c **** 
 834:STM32_WPAN/App/app_ble.c **** /*************************************************************
 835:STM32_WPAN/App/app_ble.c ****  *
 836:STM32_WPAN/App/app_ble.c ****  *SPECIFIC FUNCTIONS FOR CUSTOM
 837:STM32_WPAN/App/app_ble.c ****  *
 838:STM32_WPAN/App/app_ble.c ****  *************************************************************/
 839:STM32_WPAN/App/app_ble.c **** static void Adv_Cancel( void )
 840:STM32_WPAN/App/app_ble.c **** {
  44              		.loc 1 840 1 view -0
  45              		.cfi_startproc
  46              		@ args = 0, pretend = 0, frame = 0
  47              		@ frame_needed = 0, uses_anonymous_args = 0
 841:STM32_WPAN/App/app_ble.c **** /* USER CODE BEGIN Adv_Cancel_1 */
 842:STM32_WPAN/App/app_ble.c **** 
 843:STM32_WPAN/App/app_ble.c **** /* USER CODE END Adv_Cancel_1 */
 844:STM32_WPAN/App/app_ble.c **** 
 845:STM32_WPAN/App/app_ble.c ****   if (BleApplicationContext.Device_Connection_Status != APP_BLE_CONNECTED_SERVER)
  48              		.loc 1 845 3 view .LVU1
  49              		.loc 1 845 28 is_stmt 0 view .LVU2
  50 0000 1C4B     		ldr	r3, .L9
  51 0002 93F88030 		ldrb	r3, [r3, #128]	@ zero_extendqisi2
ARM GAS  /var/folders/lt/l_qrc8c54t93n_phsj7cf5tc0000gn/T//cc5FK5RK.s 			page 17


  52              		.loc 1 845 6 view .LVU3
  53 0006 052B     		cmp	r3, #5
  54 0008 00D1     		bne	.L8
  55 000a 7047     		bx	lr
  56              	.L8:
 840:STM32_WPAN/App/app_ble.c **** /* USER CODE BEGIN Adv_Cancel_1 */
  57              		.loc 1 840 1 view .LVU4
  58 000c 70B5     		push	{r4, r5, r6, lr}
  59              	.LCFI0:
  60              		.cfi_def_cfa_offset 16
  61              		.cfi_offset 4, -16
  62              		.cfi_offset 5, -12
  63              		.cfi_offset 6, -8
  64              		.cfi_offset 14, -4
  65              	.LBB8:
 846:STM32_WPAN/App/app_ble.c **** 
 847:STM32_WPAN/App/app_ble.c ****   {
 848:STM32_WPAN/App/app_ble.c **** 
 849:STM32_WPAN/App/app_ble.c ****     tBleStatus result = 0x00;
  66              		.loc 1 849 5 is_stmt 1 view .LVU5
  67              	.LVL0:
 850:STM32_WPAN/App/app_ble.c **** 
 851:STM32_WPAN/App/app_ble.c ****     result = aci_gap_set_non_discoverable();
  68              		.loc 1 851 5 view .LVU6
  69              		.loc 1 851 14 is_stmt 0 view .LVU7
  70 000e FFF7FEFF 		bl	aci_gap_set_non_discoverable
  71              	.LVL1:
 852:STM32_WPAN/App/app_ble.c **** 
 853:STM32_WPAN/App/app_ble.c ****     BleApplicationContext.Device_Connection_Status = APP_BLE_IDLE;
  72              		.loc 1 853 5 is_stmt 1 view .LVU8
  73              		.loc 1 853 52 is_stmt 0 view .LVU9
  74 0012 184B     		ldr	r3, .L9
  75 0014 0022     		movs	r2, #0
  76 0016 83F88020 		strb	r2, [r3, #128]
 854:STM32_WPAN/App/app_ble.c ****     if (result == BLE_STATUS_SUCCESS)
  77              		.loc 1 854 5 is_stmt 1 view .LVU10
  78              		.loc 1 854 8 is_stmt 0 view .LVU11
  79 001a E8B9     		cbnz	r0, .L3
 855:STM32_WPAN/App/app_ble.c ****     {
 856:STM32_WPAN/App/app_ble.c ****       APP_DBG_MSG("  \r\n\r");APP_DBG_MSG("** STOP ADVERTISING **  \r\n\r");
  80              		.loc 1 856 7 is_stmt 1 view .LVU12
  81              		.loc 1 856 7 view .LVU13
  82 001c 164E     		ldr	r6, .L9+4
  83 001e 3046     		mov	r0, r6
  84              	.LVL2:
  85              		.loc 1 856 7 is_stmt 0 view .LVU14
  86 0020 FFF7FEFF 		bl	DbgTraceGetFileName
  87              	.LVL3:
  88 0024 0146     		mov	r1, r0
  89 0026 154D     		ldr	r5, .L9+8
  90 0028 154C     		ldr	r4, .L9+12
  91 002a 4FF45673 		mov	r3, #856
  92 002e 2A46     		mov	r2, r5
  93 0030 2046     		mov	r0, r4
  94 0032 FFF7FEFF 		bl	printf
  95              	.LVL4:
  96              		.loc 1 856 7 is_stmt 1 view .LVU15
ARM GAS  /var/folders/lt/l_qrc8c54t93n_phsj7cf5tc0000gn/T//cc5FK5RK.s 			page 18


  97 0036 1348     		ldr	r0, .L9+16
  98 0038 FFF7FEFF 		bl	printf
  99              	.LVL5:
 100              		.loc 1 856 7 view .LVU16
 101              		.loc 1 856 30 view .LVU17
 102              		.loc 1 856 31 view .LVU18
 103              		.loc 1 856 31 view .LVU19
 104 003c 3046     		mov	r0, r6
 105 003e FFF7FEFF 		bl	DbgTraceGetFileName
 106              	.LVL6:
 107 0042 0146     		mov	r1, r0
 108 0044 4FF45673 		mov	r3, #856
 109 0048 2A46     		mov	r2, r5
 110 004a 2046     		mov	r0, r4
 111 004c FFF7FEFF 		bl	printf
 112              	.LVL7:
 113              		.loc 1 856 31 view .LVU20
 114 0050 0D48     		ldr	r0, .L9+20
 115 0052 FFF7FEFF 		bl	printf
 116              	.LVL8:
 117              		.loc 1 856 31 view .LVU21
 118              		.loc 1 856 76 view .LVU22
 119              	.L1:
 120              	.LBE8:
 857:STM32_WPAN/App/app_ble.c ****     }
 858:STM32_WPAN/App/app_ble.c ****     else
 859:STM32_WPAN/App/app_ble.c ****     {
 860:STM32_WPAN/App/app_ble.c ****       APP_DBG_MSG("** STOP ADVERTISING **  Failed \r\n\r");
 861:STM32_WPAN/App/app_ble.c ****     }
 862:STM32_WPAN/App/app_ble.c **** 
 863:STM32_WPAN/App/app_ble.c ****   }
 864:STM32_WPAN/App/app_ble.c **** 
 865:STM32_WPAN/App/app_ble.c **** /* USER CODE BEGIN Adv_Cancel_2 */
 866:STM32_WPAN/App/app_ble.c **** 
 867:STM32_WPAN/App/app_ble.c **** /* USER CODE END Adv_Cancel_2 */
 868:STM32_WPAN/App/app_ble.c ****   return;
 869:STM32_WPAN/App/app_ble.c **** }
 121              		.loc 1 869 1 is_stmt 0 view .LVU23
 122 0056 70BD     		pop	{r4, r5, r6, pc}
 123              	.LVL9:
 124              	.L3:
 125              	.LBB9:
 860:STM32_WPAN/App/app_ble.c ****     }
 126              		.loc 1 860 7 is_stmt 1 view .LVU24
 860:STM32_WPAN/App/app_ble.c ****     }
 127              		.loc 1 860 7 view .LVU25
 128 0058 0748     		ldr	r0, .L9+4
 129              	.LVL10:
 860:STM32_WPAN/App/app_ble.c ****     }
 130              		.loc 1 860 7 is_stmt 0 view .LVU26
 131 005a FFF7FEFF 		bl	DbgTraceGetFileName
 132              	.LVL11:
 133 005e 0146     		mov	r1, r0
 134 0060 4FF45773 		mov	r3, #860
 135 0064 054A     		ldr	r2, .L9+8
 136 0066 0648     		ldr	r0, .L9+12
 137 0068 FFF7FEFF 		bl	printf
ARM GAS  /var/folders/lt/l_qrc8c54t93n_phsj7cf5tc0000gn/T//cc5FK5RK.s 			page 19


 138              	.LVL12:
 860:STM32_WPAN/App/app_ble.c ****     }
 139              		.loc 1 860 7 is_stmt 1 view .LVU27
 140 006c 0748     		ldr	r0, .L9+24
 141 006e FFF7FEFF 		bl	printf
 142              	.LVL13:
 860:STM32_WPAN/App/app_ble.c ****     }
 143              		.loc 1 860 7 view .LVU28
 860:STM32_WPAN/App/app_ble.c ****     }
 144              		.loc 1 860 59 view .LVU29
 145              	.LBE9:
 868:STM32_WPAN/App/app_ble.c **** }
 146              		.loc 1 868 3 view .LVU30
 147 0072 F0E7     		b	.L1
 148              	.L10:
 149              		.align	2
 150              	.L9:
 151 0074 00000000 		.word	.LANCHOR0
 152 0078 00000000 		.word	.LC1
 153 007c 00000000 		.word	.LANCHOR1
 154 0080 1C000000 		.word	.LC2
 155 0084 30000000 		.word	.LC3
 156 0088 38000000 		.word	.LC4
 157 008c 54000000 		.word	.LC5
 158              		.cfi_endproc
 159              	.LFE1830:
 161              		.section	.text.Ble_Tl_Init,"ax",%progbits
 162              		.align	1
 163              		.syntax unified
 164              		.thumb
 165              		.thumb_func
 166              		.fpu fpv4-sp-d16
 168              	Ble_Tl_Init:
 169              	.LFB1826:
 566:STM32_WPAN/App/app_ble.c ****   HCI_TL_HciInitConf_t Hci_Tl_Init_Conf;
 170              		.loc 1 566 1 view -0
 171              		.cfi_startproc
 172              		@ args = 0, pretend = 0, frame = 8
 173              		@ frame_needed = 0, uses_anonymous_args = 0
 174 0000 00B5     		push	{lr}
 175              	.LCFI1:
 176              		.cfi_def_cfa_offset 4
 177              		.cfi_offset 14, -4
 178 0002 83B0     		sub	sp, sp, #12
 179              	.LCFI2:
 180              		.cfi_def_cfa_offset 16
 567:STM32_WPAN/App/app_ble.c **** 
 181              		.loc 1 567 3 view .LVU32
 569:STM32_WPAN/App/app_ble.c ****   Hci_Tl_Init_Conf.StatusNotCallBack = BLE_StatusNot;
 182              		.loc 1 569 3 view .LVU33
 569:STM32_WPAN/App/app_ble.c ****   Hci_Tl_Init_Conf.StatusNotCallBack = BLE_StatusNot;
 183              		.loc 1 569 32 is_stmt 0 view .LVU34
 184 0004 054B     		ldr	r3, .L13
 185 0006 0093     		str	r3, [sp]
 570:STM32_WPAN/App/app_ble.c ****   hci_init(BLE_UserEvtRx, (void*) &Hci_Tl_Init_Conf);
 186              		.loc 1 570 3 is_stmt 1 view .LVU35
 570:STM32_WPAN/App/app_ble.c ****   hci_init(BLE_UserEvtRx, (void*) &Hci_Tl_Init_Conf);
ARM GAS  /var/folders/lt/l_qrc8c54t93n_phsj7cf5tc0000gn/T//cc5FK5RK.s 			page 20


 187              		.loc 1 570 38 is_stmt 0 view .LVU36
 188 0008 054B     		ldr	r3, .L13+4
 189 000a 0193     		str	r3, [sp, #4]
 571:STM32_WPAN/App/app_ble.c **** 
 190              		.loc 1 571 3 is_stmt 1 view .LVU37
 191 000c 6946     		mov	r1, sp
 192 000e 0548     		ldr	r0, .L13+8
 193 0010 FFF7FEFF 		bl	hci_init
 194              	.LVL14:
 573:STM32_WPAN/App/app_ble.c **** }
 195              		.loc 1 573 3 view .LVU38
 574:STM32_WPAN/App/app_ble.c **** 
 196              		.loc 1 574 1 is_stmt 0 view .LVU39
 197 0014 03B0     		add	sp, sp, #12
 198              	.LCFI3:
 199              		.cfi_def_cfa_offset 4
 200              		@ sp needed
 201 0016 5DF804FB 		ldr	pc, [sp], #4
 202              	.L14:
 203 001a 00BF     		.align	2
 204              	.L13:
 205 001c 00000000 		.word	.LANCHOR2
 206 0020 00000000 		.word	BLE_StatusNot
 207 0024 00000000 		.word	BLE_UserEvtRx
 208              		.cfi_endproc
 209              	.LFE1826:
 211              		.section	.text.BLE_UserEvtRx,"ax",%progbits
 212              		.align	1
 213              		.syntax unified
 214              		.thumb
 215              		.thumb_func
 216              		.fpu fpv4-sp-d16
 218              	BLE_UserEvtRx:
 219              	.LVL15:
 220              	.LFB1834:
 870:STM32_WPAN/App/app_ble.c **** 
 871:STM32_WPAN/App/app_ble.c **** #if(L2CAP_REQUEST_NEW_CONN_PARAM != 0)
 872:STM32_WPAN/App/app_ble.c **** void BLE_SVC_L2CAP_Conn_Update(uint16_t Connection_Handle)
 873:STM32_WPAN/App/app_ble.c **** {
 874:STM32_WPAN/App/app_ble.c **** /* USER CODE BEGIN BLE_SVC_L2CAP_Conn_Update_1 */
 875:STM32_WPAN/App/app_ble.c **** 
 876:STM32_WPAN/App/app_ble.c **** /* USER CODE END BLE_SVC_L2CAP_Conn_Update_1 */
 877:STM32_WPAN/App/app_ble.c ****   if(mutex == 1) {
 878:STM32_WPAN/App/app_ble.c ****     mutex = 0;
 879:STM32_WPAN/App/app_ble.c ****     index_con_int = (index_con_int + 1)%SIZE_TAB_CONN_INT;
 880:STM32_WPAN/App/app_ble.c ****     uint16_t interval_min = CONN_P(tab_conn_interval[index_con_int]);
 881:STM32_WPAN/App/app_ble.c ****     uint16_t interval_max = CONN_P(tab_conn_interval[index_con_int]);
 882:STM32_WPAN/App/app_ble.c ****     uint16_t slave_latency = L2CAP_SLAVE_LATENCY;
 883:STM32_WPAN/App/app_ble.c ****     uint16_t timeout_multiplier = L2CAP_TIMEOUT_MULTIPLIER;
 884:STM32_WPAN/App/app_ble.c ****     tBleStatus result;
 885:STM32_WPAN/App/app_ble.c **** 
 886:STM32_WPAN/App/app_ble.c ****     result = aci_l2cap_connection_parameter_update_req(BleApplicationContext.BleApplicationContext_
 887:STM32_WPAN/App/app_ble.c ****                                                        interval_min, interval_max,
 888:STM32_WPAN/App/app_ble.c ****                                                        slave_latency, timeout_multiplier);
 889:STM32_WPAN/App/app_ble.c ****     if( result == BLE_STATUS_SUCCESS )
 890:STM32_WPAN/App/app_ble.c ****     {
 891:STM32_WPAN/App/app_ble.c ****       APP_DBG_MSG("BLE_SVC_L2CAP_Conn_Update(), Successfully \r\n\r");
ARM GAS  /var/folders/lt/l_qrc8c54t93n_phsj7cf5tc0000gn/T//cc5FK5RK.s 			page 21


 892:STM32_WPAN/App/app_ble.c ****     }
 893:STM32_WPAN/App/app_ble.c ****     else
 894:STM32_WPAN/App/app_ble.c ****     {
 895:STM32_WPAN/App/app_ble.c ****       APP_DBG_MSG("BLE_SVC_L2CAP_Conn_Update(), Failed \r\n\r");
 896:STM32_WPAN/App/app_ble.c ****     }
 897:STM32_WPAN/App/app_ble.c ****   }
 898:STM32_WPAN/App/app_ble.c **** /* USER CODE BEGIN BLE_SVC_L2CAP_Conn_Update_2 */
 899:STM32_WPAN/App/app_ble.c **** 
 900:STM32_WPAN/App/app_ble.c **** /* USER CODE END BLE_SVC_L2CAP_Conn_Update_2 */
 901:STM32_WPAN/App/app_ble.c ****   return;
 902:STM32_WPAN/App/app_ble.c **** }
 903:STM32_WPAN/App/app_ble.c **** #endif
 904:STM32_WPAN/App/app_ble.c **** 
 905:STM32_WPAN/App/app_ble.c **** #if (L2CAP_REQUEST_NEW_CONN_PARAM != 0 )
 906:STM32_WPAN/App/app_ble.c **** static void Connection_Interval_Update_Req( void )
 907:STM32_WPAN/App/app_ble.c **** {
 908:STM32_WPAN/App/app_ble.c ****   if (BleApplicationContext.Device_Connection_Status != APP_BLE_FAST_ADV && BleApplicationContext.D
 909:STM32_WPAN/App/app_ble.c ****   {
 910:STM32_WPAN/App/app_ble.c ****     BLE_SVC_L2CAP_Conn_Update(BleApplicationContext.BleApplicationContext_legacy.connectionHandle);
 911:STM32_WPAN/App/app_ble.c ****   }
 912:STM32_WPAN/App/app_ble.c ****   return;
 913:STM32_WPAN/App/app_ble.c **** }
 914:STM32_WPAN/App/app_ble.c **** #endif
 915:STM32_WPAN/App/app_ble.c **** 
 916:STM32_WPAN/App/app_ble.c **** /* USER CODE BEGIN FD_SPECIFIC_FUNCTIONS */
 917:STM32_WPAN/App/app_ble.c **** 
 918:STM32_WPAN/App/app_ble.c **** /* USER CODE END FD_SPECIFIC_FUNCTIONS */
 919:STM32_WPAN/App/app_ble.c **** /*************************************************************
 920:STM32_WPAN/App/app_ble.c ****  *
 921:STM32_WPAN/App/app_ble.c ****  * WRAP FUNCTIONS
 922:STM32_WPAN/App/app_ble.c ****  *
 923:STM32_WPAN/App/app_ble.c ****  *************************************************************/
 924:STM32_WPAN/App/app_ble.c **** void hci_notify_asynch_evt(void* pdata)
 925:STM32_WPAN/App/app_ble.c **** {
 926:STM32_WPAN/App/app_ble.c ****   UTIL_SEQ_SetTask(1 << CFG_TASK_HCI_ASYNCH_EVT_ID, CFG_SCH_PRIO_0);
 927:STM32_WPAN/App/app_ble.c ****   return;
 928:STM32_WPAN/App/app_ble.c **** }
 929:STM32_WPAN/App/app_ble.c **** 
 930:STM32_WPAN/App/app_ble.c **** void hci_cmd_resp_release(uint32_t flag)
 931:STM32_WPAN/App/app_ble.c **** {
 932:STM32_WPAN/App/app_ble.c ****   UTIL_SEQ_SetEvt(1 << CFG_IDLEEVT_HCI_CMD_EVT_RSP_ID);
 933:STM32_WPAN/App/app_ble.c ****   return;
 934:STM32_WPAN/App/app_ble.c **** }
 935:STM32_WPAN/App/app_ble.c **** 
 936:STM32_WPAN/App/app_ble.c **** void hci_cmd_resp_wait(uint32_t timeout)
 937:STM32_WPAN/App/app_ble.c **** {
 938:STM32_WPAN/App/app_ble.c ****   UTIL_SEQ_WaitEvt(1 << CFG_IDLEEVT_HCI_CMD_EVT_RSP_ID);
 939:STM32_WPAN/App/app_ble.c ****   return;
 940:STM32_WPAN/App/app_ble.c **** }
 941:STM32_WPAN/App/app_ble.c **** 
 942:STM32_WPAN/App/app_ble.c **** static void BLE_UserEvtRx( void * pPayload )
 943:STM32_WPAN/App/app_ble.c **** {
 221              		.loc 1 943 1 is_stmt 1 view -0
 222              		.cfi_startproc
 223              		@ args = 0, pretend = 0, frame = 0
 224              		@ frame_needed = 0, uses_anonymous_args = 0
 225              		.loc 1 943 1 is_stmt 0 view .LVU41
ARM GAS  /var/folders/lt/l_qrc8c54t93n_phsj7cf5tc0000gn/T//cc5FK5RK.s 			page 22


 226 0000 10B5     		push	{r4, lr}
 227              	.LCFI4:
 228              		.cfi_def_cfa_offset 8
 229              		.cfi_offset 4, -8
 230              		.cfi_offset 14, -4
 231 0002 0446     		mov	r4, r0
 944:STM32_WPAN/App/app_ble.c ****   SVCCTL_UserEvtFlowStatus_t svctl_return_status;
 232              		.loc 1 944 3 is_stmt 1 view .LVU42
 945:STM32_WPAN/App/app_ble.c ****   tHCI_UserEvtRxParam *pParam;
 233              		.loc 1 945 3 view .LVU43
 946:STM32_WPAN/App/app_ble.c **** 
 947:STM32_WPAN/App/app_ble.c ****   pParam = (tHCI_UserEvtRxParam *)pPayload;
 234              		.loc 1 947 3 view .LVU44
 235              	.LVL16:
 948:STM32_WPAN/App/app_ble.c **** 
 949:STM32_WPAN/App/app_ble.c ****   svctl_return_status = SVCCTL_UserEvtRx((void *)&(pParam->pckt->evtserial));
 236              		.loc 1 949 3 view .LVU45
 237              		.loc 1 949 58 is_stmt 0 view .LVU46
 238 0004 4068     		ldr	r0, [r0, #4]
 239              	.LVL17:
 240              		.loc 1 949 25 view .LVU47
 241 0006 0830     		adds	r0, r0, #8
 242 0008 FFF7FEFF 		bl	SVCCTL_UserEvtRx
 243              	.LVL18:
 950:STM32_WPAN/App/app_ble.c ****   if (svctl_return_status != SVCCTL_UserEvtFlowDisable)
 244              		.loc 1 950 3 is_stmt 1 view .LVU48
 245              		.loc 1 950 6 is_stmt 0 view .LVU49
 246 000c 10B1     		cbz	r0, .L16
 951:STM32_WPAN/App/app_ble.c ****   {
 952:STM32_WPAN/App/app_ble.c ****     pParam->status = HCI_TL_UserEventFlow_Enable;
 247              		.loc 1 952 5 is_stmt 1 view .LVU50
 248              		.loc 1 952 20 is_stmt 0 view .LVU51
 249 000e 0123     		movs	r3, #1
 250 0010 2370     		strb	r3, [r4]
 251              	.L15:
 953:STM32_WPAN/App/app_ble.c ****   }
 954:STM32_WPAN/App/app_ble.c ****   else
 955:STM32_WPAN/App/app_ble.c ****   {
 956:STM32_WPAN/App/app_ble.c ****     pParam->status = HCI_TL_UserEventFlow_Disable;
 957:STM32_WPAN/App/app_ble.c ****   }
 958:STM32_WPAN/App/app_ble.c **** 
 959:STM32_WPAN/App/app_ble.c ****   return;
 960:STM32_WPAN/App/app_ble.c **** }
 252              		.loc 1 960 1 view .LVU52
 253 0012 10BD     		pop	{r4, pc}
 254              	.LVL19:
 255              	.L16:
 956:STM32_WPAN/App/app_ble.c ****   }
 256              		.loc 1 956 5 is_stmt 1 view .LVU53
 956:STM32_WPAN/App/app_ble.c ****   }
 257              		.loc 1 956 20 is_stmt 0 view .LVU54
 258 0014 0023     		movs	r3, #0
 259 0016 2370     		strb	r3, [r4]
 959:STM32_WPAN/App/app_ble.c **** }
 260              		.loc 1 959 3 is_stmt 1 view .LVU55
 261 0018 FBE7     		b	.L15
 262              		.cfi_endproc
ARM GAS  /var/folders/lt/l_qrc8c54t93n_phsj7cf5tc0000gn/T//cc5FK5RK.s 			page 23


 263              	.LFE1834:
 265              		.section	.text.BLE_StatusNot,"ax",%progbits
 266              		.align	1
 267              		.syntax unified
 268              		.thumb
 269              		.thumb_func
 270              		.fpu fpv4-sp-d16
 272              	BLE_StatusNot:
 273              	.LVL20:
 274              	.LFB1835:
 961:STM32_WPAN/App/app_ble.c **** 
 962:STM32_WPAN/App/app_ble.c **** static void BLE_StatusNot( HCI_TL_CmdStatus_t status )
 963:STM32_WPAN/App/app_ble.c **** {
 275              		.loc 1 963 1 view -0
 276              		.cfi_startproc
 277              		@ args = 0, pretend = 0, frame = 0
 278              		@ frame_needed = 0, uses_anonymous_args = 0
 279              		.loc 1 963 1 is_stmt 0 view .LVU57
 280 0000 08B5     		push	{r3, lr}
 281              	.LCFI5:
 282              		.cfi_def_cfa_offset 8
 283              		.cfi_offset 3, -8
 284              		.cfi_offset 14, -4
 964:STM32_WPAN/App/app_ble.c ****   uint32_t task_id_list;
 285              		.loc 1 964 3 is_stmt 1 view .LVU58
 965:STM32_WPAN/App/app_ble.c ****   switch (status)
 286              		.loc 1 965 3 view .LVU59
 287 0002 10B1     		cbz	r0, .L20
 288 0004 0128     		cmp	r0, #1
 289 0006 04D0     		beq	.L21
 290              	.LVL21:
 291              	.L19:
 966:STM32_WPAN/App/app_ble.c ****   {
 967:STM32_WPAN/App/app_ble.c ****     case HCI_TL_CmdBusy:
 968:STM32_WPAN/App/app_ble.c ****       /**
 969:STM32_WPAN/App/app_ble.c ****        * All tasks that may send an aci/hci commands shall be listed here
 970:STM32_WPAN/App/app_ble.c ****        * This is to prevent a new command is sent while one is already pending
 971:STM32_WPAN/App/app_ble.c ****        */
 972:STM32_WPAN/App/app_ble.c ****       task_id_list = (1 << CFG_LAST_TASK_ID_WITH_HCICMD) - 1;
 973:STM32_WPAN/App/app_ble.c ****       UTIL_SEQ_PauseTask(task_id_list);
 974:STM32_WPAN/App/app_ble.c **** 
 975:STM32_WPAN/App/app_ble.c ****       break;
 976:STM32_WPAN/App/app_ble.c **** 
 977:STM32_WPAN/App/app_ble.c ****     case HCI_TL_CmdAvailable:
 978:STM32_WPAN/App/app_ble.c ****       /**
 979:STM32_WPAN/App/app_ble.c ****        * All tasks that may send an aci/hci commands shall be listed here
 980:STM32_WPAN/App/app_ble.c ****        * This is to prevent a new command is sent while one is already pending
 981:STM32_WPAN/App/app_ble.c ****        */
 982:STM32_WPAN/App/app_ble.c ****       task_id_list = (1 << CFG_LAST_TASK_ID_WITH_HCICMD) - 1;
 983:STM32_WPAN/App/app_ble.c ****       UTIL_SEQ_ResumeTask(task_id_list);
 984:STM32_WPAN/App/app_ble.c **** 
 985:STM32_WPAN/App/app_ble.c ****       break;
 986:STM32_WPAN/App/app_ble.c **** 
 987:STM32_WPAN/App/app_ble.c ****     default:
 988:STM32_WPAN/App/app_ble.c ****       break;
 989:STM32_WPAN/App/app_ble.c ****   }
 990:STM32_WPAN/App/app_ble.c ****   return;
ARM GAS  /var/folders/lt/l_qrc8c54t93n_phsj7cf5tc0000gn/T//cc5FK5RK.s 			page 24


 991:STM32_WPAN/App/app_ble.c **** }
 292              		.loc 1 991 1 is_stmt 0 view .LVU60
 293 0008 08BD     		pop	{r3, pc}
 294              	.LVL22:
 295              	.L20:
 972:STM32_WPAN/App/app_ble.c ****       UTIL_SEQ_PauseTask(task_id_list);
 296              		.loc 1 972 7 is_stmt 1 view .LVU61
 973:STM32_WPAN/App/app_ble.c **** 
 297              		.loc 1 973 7 view .LVU62
 298 000a 0320     		movs	r0, #3
 299              	.LVL23:
 973:STM32_WPAN/App/app_ble.c **** 
 300              		.loc 1 973 7 is_stmt 0 view .LVU63
 301 000c FFF7FEFF 		bl	UTIL_SEQ_PauseTask
 302              	.LVL24:
 975:STM32_WPAN/App/app_ble.c **** 
 303              		.loc 1 975 7 is_stmt 1 view .LVU64
 304 0010 FAE7     		b	.L19
 305              	.LVL25:
 306              	.L21:
 982:STM32_WPAN/App/app_ble.c ****       UTIL_SEQ_ResumeTask(task_id_list);
 307              		.loc 1 982 7 view .LVU65
 983:STM32_WPAN/App/app_ble.c **** 
 308              		.loc 1 983 7 view .LVU66
 309 0012 0320     		movs	r0, #3
 310              	.LVL26:
 983:STM32_WPAN/App/app_ble.c **** 
 311              		.loc 1 983 7 is_stmt 0 view .LVU67
 312 0014 FFF7FEFF 		bl	UTIL_SEQ_ResumeTask
 313              	.LVL27:
 985:STM32_WPAN/App/app_ble.c **** 
 314              		.loc 1 985 7 is_stmt 1 view .LVU68
 990:STM32_WPAN/App/app_ble.c **** }
 315              		.loc 1 990 3 view .LVU69
 316 0018 F6E7     		b	.L19
 317              		.cfi_endproc
 318              	.LFE1835:
 320              		.section	.text.BleGetBdAddress,"ax",%progbits
 321              		.align	1
 322              		.syntax unified
 323              		.thumb
 324              		.thumb_func
 325              		.fpu fpv4-sp-d16
 327              	BleGetBdAddress:
 328              	.LFB1829:
 783:STM32_WPAN/App/app_ble.c ****   uint8_t *otp_addr;
 329              		.loc 1 783 1 view -0
 330              		.cfi_startproc
 331              		@ args = 0, pretend = 0, frame = 0
 332              		@ frame_needed = 0, uses_anonymous_args = 0
 333 0000 08B5     		push	{r3, lr}
 334              	.LCFI6:
 335              		.cfi_def_cfa_offset 8
 336              		.cfi_offset 3, -8
 337              		.cfi_offset 14, -4
 784:STM32_WPAN/App/app_ble.c ****   const uint8_t *bd_addr;
 338              		.loc 1 784 3 view .LVU71
ARM GAS  /var/folders/lt/l_qrc8c54t93n_phsj7cf5tc0000gn/T//cc5FK5RK.s 			page 25


 785:STM32_WPAN/App/app_ble.c ****   uint32_t udn;
 339              		.loc 1 785 3 view .LVU72
 786:STM32_WPAN/App/app_ble.c ****   uint32_t company_id;
 340              		.loc 1 786 3 view .LVU73
 787:STM32_WPAN/App/app_ble.c ****   uint32_t device_id;
 341              		.loc 1 787 3 view .LVU74
 788:STM32_WPAN/App/app_ble.c **** 
 342              		.loc 1 788 3 view .LVU75
 790:STM32_WPAN/App/app_ble.c **** 
 343              		.loc 1 790 3 view .LVU76
 344              	.LBB10:
 345              	.LBI10:
 346              		.file 2 "Drivers/STM32WBxx_HAL_Driver/Inc/stm32wbxx_ll_system.h"
   1:Drivers/STM32WBxx_HAL_Driver/Inc/stm32wbxx_ll_system.h **** /**
   2:Drivers/STM32WBxx_HAL_Driver/Inc/stm32wbxx_ll_system.h ****   ******************************************************************************
   3:Drivers/STM32WBxx_HAL_Driver/Inc/stm32wbxx_ll_system.h ****   * @file    stm32wbxx_ll_system.h
   4:Drivers/STM32WBxx_HAL_Driver/Inc/stm32wbxx_ll_system.h ****   * @author  MCD Application Team
   5:Drivers/STM32WBxx_HAL_Driver/Inc/stm32wbxx_ll_system.h ****   * @brief   Header file of SYSTEM LL module.
   6:Drivers/STM32WBxx_HAL_Driver/Inc/stm32wbxx_ll_system.h ****   ******************************************************************************
   7:Drivers/STM32WBxx_HAL_Driver/Inc/stm32wbxx_ll_system.h ****   * @attention
   8:Drivers/STM32WBxx_HAL_Driver/Inc/stm32wbxx_ll_system.h ****   *
   9:Drivers/STM32WBxx_HAL_Driver/Inc/stm32wbxx_ll_system.h ****   * Copyright (c) 2019 STMicroelectronics.
  10:Drivers/STM32WBxx_HAL_Driver/Inc/stm32wbxx_ll_system.h ****   * All rights reserved.
  11:Drivers/STM32WBxx_HAL_Driver/Inc/stm32wbxx_ll_system.h ****   *
  12:Drivers/STM32WBxx_HAL_Driver/Inc/stm32wbxx_ll_system.h ****   * This software is licensed under terms that can be found in the LICENSE file
  13:Drivers/STM32WBxx_HAL_Driver/Inc/stm32wbxx_ll_system.h ****   * in the root directory of this software component.
  14:Drivers/STM32WBxx_HAL_Driver/Inc/stm32wbxx_ll_system.h ****   * If no LICENSE file comes with this software, it is provided AS-IS.
  15:Drivers/STM32WBxx_HAL_Driver/Inc/stm32wbxx_ll_system.h ****   *
  16:Drivers/STM32WBxx_HAL_Driver/Inc/stm32wbxx_ll_system.h ****   ******************************************************************************
  17:Drivers/STM32WBxx_HAL_Driver/Inc/stm32wbxx_ll_system.h ****   @verbatim
  18:Drivers/STM32WBxx_HAL_Driver/Inc/stm32wbxx_ll_system.h ****   ==============================================================================
  19:Drivers/STM32WBxx_HAL_Driver/Inc/stm32wbxx_ll_system.h ****                      ##### How to use this driver #####
  20:Drivers/STM32WBxx_HAL_Driver/Inc/stm32wbxx_ll_system.h ****   ==============================================================================
  21:Drivers/STM32WBxx_HAL_Driver/Inc/stm32wbxx_ll_system.h ****     [..]
  22:Drivers/STM32WBxx_HAL_Driver/Inc/stm32wbxx_ll_system.h ****     The LL SYSTEM driver contains a set of generic APIs that can be
  23:Drivers/STM32WBxx_HAL_Driver/Inc/stm32wbxx_ll_system.h ****     used by user:
  24:Drivers/STM32WBxx_HAL_Driver/Inc/stm32wbxx_ll_system.h ****       (+) Some of the FLASH features need to be handled in the SYSTEM file.
  25:Drivers/STM32WBxx_HAL_Driver/Inc/stm32wbxx_ll_system.h ****       (+) Access to DBGCMU registers
  26:Drivers/STM32WBxx_HAL_Driver/Inc/stm32wbxx_ll_system.h ****       (+) Access to SYSCFG registers
  27:Drivers/STM32WBxx_HAL_Driver/Inc/stm32wbxx_ll_system.h ****       (+) Access to VREFBUF registers
  28:Drivers/STM32WBxx_HAL_Driver/Inc/stm32wbxx_ll_system.h **** 
  29:Drivers/STM32WBxx_HAL_Driver/Inc/stm32wbxx_ll_system.h ****   @endverbatim
  30:Drivers/STM32WBxx_HAL_Driver/Inc/stm32wbxx_ll_system.h ****   ******************************************************************************
  31:Drivers/STM32WBxx_HAL_Driver/Inc/stm32wbxx_ll_system.h ****   */
  32:Drivers/STM32WBxx_HAL_Driver/Inc/stm32wbxx_ll_system.h **** 
  33:Drivers/STM32WBxx_HAL_Driver/Inc/stm32wbxx_ll_system.h **** /* Define to prevent recursive inclusion -------------------------------------*/
  34:Drivers/STM32WBxx_HAL_Driver/Inc/stm32wbxx_ll_system.h **** #ifndef STM32WBxx_LL_SYSTEM_H
  35:Drivers/STM32WBxx_HAL_Driver/Inc/stm32wbxx_ll_system.h **** #define STM32WBxx_LL_SYSTEM_H
  36:Drivers/STM32WBxx_HAL_Driver/Inc/stm32wbxx_ll_system.h **** 
  37:Drivers/STM32WBxx_HAL_Driver/Inc/stm32wbxx_ll_system.h **** #ifdef __cplusplus
  38:Drivers/STM32WBxx_HAL_Driver/Inc/stm32wbxx_ll_system.h **** extern "C" {
  39:Drivers/STM32WBxx_HAL_Driver/Inc/stm32wbxx_ll_system.h **** #endif
  40:Drivers/STM32WBxx_HAL_Driver/Inc/stm32wbxx_ll_system.h **** 
  41:Drivers/STM32WBxx_HAL_Driver/Inc/stm32wbxx_ll_system.h **** /* Includes ------------------------------------------------------------------*/
  42:Drivers/STM32WBxx_HAL_Driver/Inc/stm32wbxx_ll_system.h **** #include "stm32wbxx.h"
  43:Drivers/STM32WBxx_HAL_Driver/Inc/stm32wbxx_ll_system.h **** 
  44:Drivers/STM32WBxx_HAL_Driver/Inc/stm32wbxx_ll_system.h **** /** @addtogroup STM32WBxx_LL_Driver
ARM GAS  /var/folders/lt/l_qrc8c54t93n_phsj7cf5tc0000gn/T//cc5FK5RK.s 			page 26


  45:Drivers/STM32WBxx_HAL_Driver/Inc/stm32wbxx_ll_system.h ****   * @{
  46:Drivers/STM32WBxx_HAL_Driver/Inc/stm32wbxx_ll_system.h ****   */
  47:Drivers/STM32WBxx_HAL_Driver/Inc/stm32wbxx_ll_system.h **** 
  48:Drivers/STM32WBxx_HAL_Driver/Inc/stm32wbxx_ll_system.h **** #if defined (FLASH) || defined (SYSCFG) || defined (DBGMCU) || defined (VREFBUF)
  49:Drivers/STM32WBxx_HAL_Driver/Inc/stm32wbxx_ll_system.h **** 
  50:Drivers/STM32WBxx_HAL_Driver/Inc/stm32wbxx_ll_system.h **** /** @defgroup SYSTEM_LL SYSTEM
  51:Drivers/STM32WBxx_HAL_Driver/Inc/stm32wbxx_ll_system.h ****   * @{
  52:Drivers/STM32WBxx_HAL_Driver/Inc/stm32wbxx_ll_system.h ****   */
  53:Drivers/STM32WBxx_HAL_Driver/Inc/stm32wbxx_ll_system.h **** 
  54:Drivers/STM32WBxx_HAL_Driver/Inc/stm32wbxx_ll_system.h **** /* Private types -------------------------------------------------------------*/
  55:Drivers/STM32WBxx_HAL_Driver/Inc/stm32wbxx_ll_system.h **** /* Private variables ---------------------------------------------------------*/
  56:Drivers/STM32WBxx_HAL_Driver/Inc/stm32wbxx_ll_system.h **** 
  57:Drivers/STM32WBxx_HAL_Driver/Inc/stm32wbxx_ll_system.h **** /* Private constants ---------------------------------------------------------*/
  58:Drivers/STM32WBxx_HAL_Driver/Inc/stm32wbxx_ll_system.h **** /** @defgroup SYSTEM_LL_Private_Constants SYSTEM Private Constants
  59:Drivers/STM32WBxx_HAL_Driver/Inc/stm32wbxx_ll_system.h ****   * @{
  60:Drivers/STM32WBxx_HAL_Driver/Inc/stm32wbxx_ll_system.h ****   */
  61:Drivers/STM32WBxx_HAL_Driver/Inc/stm32wbxx_ll_system.h **** /**
  62:Drivers/STM32WBxx_HAL_Driver/Inc/stm32wbxx_ll_system.h ****  * @brief VREFBUF VREF_SC0 & VREF_SC1 calibration values 
  63:Drivers/STM32WBxx_HAL_Driver/Inc/stm32wbxx_ll_system.h ****  */
  64:Drivers/STM32WBxx_HAL_Driver/Inc/stm32wbxx_ll_system.h **** #define VREFBUF_SC0_CAL_ADDR   ((uint8_t*) (0x1FFF75F0UL)) /*!<  Address of VREFBUF trimming value 
  65:Drivers/STM32WBxx_HAL_Driver/Inc/stm32wbxx_ll_system.h ****                                                                  VREF_SC0 in STM32WB datasheet */
  66:Drivers/STM32WBxx_HAL_Driver/Inc/stm32wbxx_ll_system.h **** #define VREFBUF_SC1_CAL_ADDR   ((uint8_t*) (0x1FFF7530UL)) /*!<  Address of VREFBUF trimming value 
  67:Drivers/STM32WBxx_HAL_Driver/Inc/stm32wbxx_ll_system.h ****                                                                  VREF_SC1 in STM32WB datasheet */
  68:Drivers/STM32WBxx_HAL_Driver/Inc/stm32wbxx_ll_system.h **** /**
  69:Drivers/STM32WBxx_HAL_Driver/Inc/stm32wbxx_ll_system.h ****   * @}
  70:Drivers/STM32WBxx_HAL_Driver/Inc/stm32wbxx_ll_system.h ****   */
  71:Drivers/STM32WBxx_HAL_Driver/Inc/stm32wbxx_ll_system.h **** 
  72:Drivers/STM32WBxx_HAL_Driver/Inc/stm32wbxx_ll_system.h **** /* Private macros ------------------------------------------------------------*/
  73:Drivers/STM32WBxx_HAL_Driver/Inc/stm32wbxx_ll_system.h **** 
  74:Drivers/STM32WBxx_HAL_Driver/Inc/stm32wbxx_ll_system.h **** /* Exported types ------------------------------------------------------------*/
  75:Drivers/STM32WBxx_HAL_Driver/Inc/stm32wbxx_ll_system.h **** /* Exported constants --------------------------------------------------------*/
  76:Drivers/STM32WBxx_HAL_Driver/Inc/stm32wbxx_ll_system.h **** /** @defgroup SYSTEM_LL_Exported_Constants SYSTEM Exported Constants
  77:Drivers/STM32WBxx_HAL_Driver/Inc/stm32wbxx_ll_system.h ****   * @{
  78:Drivers/STM32WBxx_HAL_Driver/Inc/stm32wbxx_ll_system.h ****   */
  79:Drivers/STM32WBxx_HAL_Driver/Inc/stm32wbxx_ll_system.h **** 
  80:Drivers/STM32WBxx_HAL_Driver/Inc/stm32wbxx_ll_system.h **** /** @defgroup SYSTEM_LL_EC_REMAP SYSCFG REMAP
  81:Drivers/STM32WBxx_HAL_Driver/Inc/stm32wbxx_ll_system.h **** * @{
  82:Drivers/STM32WBxx_HAL_Driver/Inc/stm32wbxx_ll_system.h **** */
  83:Drivers/STM32WBxx_HAL_Driver/Inc/stm32wbxx_ll_system.h **** #define LL_SYSCFG_REMAP_FLASH                   0x00000000U                                        
  84:Drivers/STM32WBxx_HAL_Driver/Inc/stm32wbxx_ll_system.h **** #define LL_SYSCFG_REMAP_SYSTEMFLASH             SYSCFG_MEMRMP_MEM_MODE_0                           
  85:Drivers/STM32WBxx_HAL_Driver/Inc/stm32wbxx_ll_system.h **** #define LL_SYSCFG_REMAP_SRAM                    (SYSCFG_MEMRMP_MEM_MODE_1 | SYSCFG_MEMRMP_MEM_MODE_
  86:Drivers/STM32WBxx_HAL_Driver/Inc/stm32wbxx_ll_system.h **** #if defined(QUADSPI)
  87:Drivers/STM32WBxx_HAL_Driver/Inc/stm32wbxx_ll_system.h **** #define LL_SYSCFG_REMAP_QUADSPI                 (SYSCFG_MEMRMP_MEM_MODE_2 | SYSCFG_MEMRMP_MEM_MODE_
  88:Drivers/STM32WBxx_HAL_Driver/Inc/stm32wbxx_ll_system.h **** #endif
  89:Drivers/STM32WBxx_HAL_Driver/Inc/stm32wbxx_ll_system.h **** /**
  90:Drivers/STM32WBxx_HAL_Driver/Inc/stm32wbxx_ll_system.h ****   * @}
  91:Drivers/STM32WBxx_HAL_Driver/Inc/stm32wbxx_ll_system.h ****   */
  92:Drivers/STM32WBxx_HAL_Driver/Inc/stm32wbxx_ll_system.h **** 
  93:Drivers/STM32WBxx_HAL_Driver/Inc/stm32wbxx_ll_system.h **** /** @defgroup SYSTEM_LL_EC_I2C_FASTMODEPLUS SYSCFG I2C FASTMODEPLUS
  94:Drivers/STM32WBxx_HAL_Driver/Inc/stm32wbxx_ll_system.h ****   * @{
  95:Drivers/STM32WBxx_HAL_Driver/Inc/stm32wbxx_ll_system.h ****   */
  96:Drivers/STM32WBxx_HAL_Driver/Inc/stm32wbxx_ll_system.h **** #define LL_SYSCFG_I2C_FASTMODEPLUS_PB6          SYSCFG_CFGR1_I2C_PB6_FMP /*!< Enable Fast Mode Plus
  97:Drivers/STM32WBxx_HAL_Driver/Inc/stm32wbxx_ll_system.h **** #define LL_SYSCFG_I2C_FASTMODEPLUS_PB7          SYSCFG_CFGR1_I2C_PB7_FMP /*!< Enable Fast Mode Plus
  98:Drivers/STM32WBxx_HAL_Driver/Inc/stm32wbxx_ll_system.h **** #define LL_SYSCFG_I2C_FASTMODEPLUS_PB8          SYSCFG_CFGR1_I2C_PB8_FMP /*!< Enable Fast Mode Plus
  99:Drivers/STM32WBxx_HAL_Driver/Inc/stm32wbxx_ll_system.h **** #define LL_SYSCFG_I2C_FASTMODEPLUS_PB9          SYSCFG_CFGR1_I2C_PB9_FMP /*!< Enable Fast Mode Plus
 100:Drivers/STM32WBxx_HAL_Driver/Inc/stm32wbxx_ll_system.h **** #define LL_SYSCFG_I2C_FASTMODEPLUS_I2C1         SYSCFG_CFGR1_I2C1_FMP    /*!< Enable Fast Mode Plus
 101:Drivers/STM32WBxx_HAL_Driver/Inc/stm32wbxx_ll_system.h **** #if defined(I2C3)
ARM GAS  /var/folders/lt/l_qrc8c54t93n_phsj7cf5tc0000gn/T//cc5FK5RK.s 			page 27


 102:Drivers/STM32WBxx_HAL_Driver/Inc/stm32wbxx_ll_system.h **** #define LL_SYSCFG_I2C_FASTMODEPLUS_I2C3         SYSCFG_CFGR1_I2C3_FMP    /*!< Enable Fast Mode Plus
 103:Drivers/STM32WBxx_HAL_Driver/Inc/stm32wbxx_ll_system.h **** #endif
 104:Drivers/STM32WBxx_HAL_Driver/Inc/stm32wbxx_ll_system.h **** /**
 105:Drivers/STM32WBxx_HAL_Driver/Inc/stm32wbxx_ll_system.h ****   * @}
 106:Drivers/STM32WBxx_HAL_Driver/Inc/stm32wbxx_ll_system.h ****   */
 107:Drivers/STM32WBxx_HAL_Driver/Inc/stm32wbxx_ll_system.h **** 
 108:Drivers/STM32WBxx_HAL_Driver/Inc/stm32wbxx_ll_system.h **** /** @defgroup SYSTEM_LL_EC_EXTI_PORT SYSCFG EXTI PORT
 109:Drivers/STM32WBxx_HAL_Driver/Inc/stm32wbxx_ll_system.h ****   * @{
 110:Drivers/STM32WBxx_HAL_Driver/Inc/stm32wbxx_ll_system.h ****   */
 111:Drivers/STM32WBxx_HAL_Driver/Inc/stm32wbxx_ll_system.h **** #define LL_SYSCFG_EXTI_PORTA                    0U /*!< EXTI PORT A */
 112:Drivers/STM32WBxx_HAL_Driver/Inc/stm32wbxx_ll_system.h **** #define LL_SYSCFG_EXTI_PORTB                    1U /*!< EXTI PORT B */
 113:Drivers/STM32WBxx_HAL_Driver/Inc/stm32wbxx_ll_system.h **** #define LL_SYSCFG_EXTI_PORTC                    2U /*!< EXTI PORT C */
 114:Drivers/STM32WBxx_HAL_Driver/Inc/stm32wbxx_ll_system.h **** #define LL_SYSCFG_EXTI_PORTD                    3U /*!< EXTI PORT D */
 115:Drivers/STM32WBxx_HAL_Driver/Inc/stm32wbxx_ll_system.h **** #define LL_SYSCFG_EXTI_PORTE                    4U /*!< EXTI PORT E */
 116:Drivers/STM32WBxx_HAL_Driver/Inc/stm32wbxx_ll_system.h **** #define LL_SYSCFG_EXTI_PORTH                    7U /*!< EXTI PORT H */
 117:Drivers/STM32WBxx_HAL_Driver/Inc/stm32wbxx_ll_system.h **** /**
 118:Drivers/STM32WBxx_HAL_Driver/Inc/stm32wbxx_ll_system.h ****   * @}
 119:Drivers/STM32WBxx_HAL_Driver/Inc/stm32wbxx_ll_system.h ****   */
 120:Drivers/STM32WBxx_HAL_Driver/Inc/stm32wbxx_ll_system.h **** 
 121:Drivers/STM32WBxx_HAL_Driver/Inc/stm32wbxx_ll_system.h **** /** @defgroup SYSTEM_LL_EC_EXTI_LINE SYSCFG EXTI LINE
 122:Drivers/STM32WBxx_HAL_Driver/Inc/stm32wbxx_ll_system.h ****   * @{
 123:Drivers/STM32WBxx_HAL_Driver/Inc/stm32wbxx_ll_system.h ****   */
 124:Drivers/STM32WBxx_HAL_Driver/Inc/stm32wbxx_ll_system.h **** #define LL_SYSCFG_EXTI_LINE0                    (uint32_t)((0x000FU << 16U) | 0U) /*!< EXTI_POSITIO
 125:Drivers/STM32WBxx_HAL_Driver/Inc/stm32wbxx_ll_system.h **** #define LL_SYSCFG_EXTI_LINE1                    (uint32_t)((0x00F0U << 16U) | 0U) /*!< EXTI_POSITIO
 126:Drivers/STM32WBxx_HAL_Driver/Inc/stm32wbxx_ll_system.h **** #define LL_SYSCFG_EXTI_LINE2                    (uint32_t)((0x0F00U << 16U) | 0U) /*!< EXTI_POSITIO
 127:Drivers/STM32WBxx_HAL_Driver/Inc/stm32wbxx_ll_system.h **** #define LL_SYSCFG_EXTI_LINE3                    (uint32_t)((0xF000U << 16U) | 0U) /*!< EXTI_POSITIO
 128:Drivers/STM32WBxx_HAL_Driver/Inc/stm32wbxx_ll_system.h **** #define LL_SYSCFG_EXTI_LINE4                    (uint32_t)((0x000FU << 16U) | 1U) /*!< EXTI_POSITIO
 129:Drivers/STM32WBxx_HAL_Driver/Inc/stm32wbxx_ll_system.h **** #define LL_SYSCFG_EXTI_LINE5                    (uint32_t)((0x00F0U << 16U) | 1U) /*!< EXTI_POSITIO
 130:Drivers/STM32WBxx_HAL_Driver/Inc/stm32wbxx_ll_system.h **** #define LL_SYSCFG_EXTI_LINE6                    (uint32_t)((0x0F00U << 16U) | 1U) /*!< EXTI_POSITIO
 131:Drivers/STM32WBxx_HAL_Driver/Inc/stm32wbxx_ll_system.h **** #define LL_SYSCFG_EXTI_LINE7                    (uint32_t)((0xF000U << 16U) | 1U) /*!< EXTI_POSITIO
 132:Drivers/STM32WBxx_HAL_Driver/Inc/stm32wbxx_ll_system.h **** #define LL_SYSCFG_EXTI_LINE8                    (uint32_t)((0x000FU << 16U) | 2U) /*!< EXTI_POSITIO
 133:Drivers/STM32WBxx_HAL_Driver/Inc/stm32wbxx_ll_system.h **** #define LL_SYSCFG_EXTI_LINE9                    (uint32_t)((0x00F0U << 16U) | 2U) /*!< EXTI_POSITIO
 134:Drivers/STM32WBxx_HAL_Driver/Inc/stm32wbxx_ll_system.h **** #define LL_SYSCFG_EXTI_LINE10                   (uint32_t)((0x0F00U << 16U) | 2U) /*!< EXTI_POSITIO
 135:Drivers/STM32WBxx_HAL_Driver/Inc/stm32wbxx_ll_system.h **** #define LL_SYSCFG_EXTI_LINE11                   (uint32_t)((0xF000U << 16U) | 2U) /*!< EXTI_POSITIO
 136:Drivers/STM32WBxx_HAL_Driver/Inc/stm32wbxx_ll_system.h **** #define LL_SYSCFG_EXTI_LINE12                   (uint32_t)((0x000FU << 16U) | 3U) /*!< EXTI_POSITIO
 137:Drivers/STM32WBxx_HAL_Driver/Inc/stm32wbxx_ll_system.h **** #define LL_SYSCFG_EXTI_LINE13                   (uint32_t)((0x00F0U << 16U) | 3U) /*!< EXTI_POSITIO
 138:Drivers/STM32WBxx_HAL_Driver/Inc/stm32wbxx_ll_system.h **** #define LL_SYSCFG_EXTI_LINE14                   (uint32_t)((0x0F00U << 16U) | 3U) /*!< EXTI_POSITIO
 139:Drivers/STM32WBxx_HAL_Driver/Inc/stm32wbxx_ll_system.h **** #define LL_SYSCFG_EXTI_LINE15                   (uint32_t)((0xF000U << 16U) | 3U) /*!< EXTI_POSITIO
 140:Drivers/STM32WBxx_HAL_Driver/Inc/stm32wbxx_ll_system.h **** /**
 141:Drivers/STM32WBxx_HAL_Driver/Inc/stm32wbxx_ll_system.h ****   * @}
 142:Drivers/STM32WBxx_HAL_Driver/Inc/stm32wbxx_ll_system.h ****   */
 143:Drivers/STM32WBxx_HAL_Driver/Inc/stm32wbxx_ll_system.h **** 
 144:Drivers/STM32WBxx_HAL_Driver/Inc/stm32wbxx_ll_system.h **** /** @defgroup SYSTEM_LL_EC_TIMBREAK SYSCFG TIMER BREAK
 145:Drivers/STM32WBxx_HAL_Driver/Inc/stm32wbxx_ll_system.h ****   * @{
 146:Drivers/STM32WBxx_HAL_Driver/Inc/stm32wbxx_ll_system.h ****   */
 147:Drivers/STM32WBxx_HAL_Driver/Inc/stm32wbxx_ll_system.h **** #define LL_SYSCFG_TIMBREAK_ECC                  SYSCFG_CFGR2_ECCL       /*!< Enables and locks the 
 148:Drivers/STM32WBxx_HAL_Driver/Inc/stm32wbxx_ll_system.h ****                                                                               with Break Input of T
 149:Drivers/STM32WBxx_HAL_Driver/Inc/stm32wbxx_ll_system.h **** #define LL_SYSCFG_TIMBREAK_PVD                  SYSCFG_CFGR2_PVDL       /*!< Enables and locks the 
 150:Drivers/STM32WBxx_HAL_Driver/Inc/stm32wbxx_ll_system.h ****                                                                               with TIM1/16/17 Break
 151:Drivers/STM32WBxx_HAL_Driver/Inc/stm32wbxx_ll_system.h ****                                                                               and also the PVDE and
 152:Drivers/STM32WBxx_HAL_Driver/Inc/stm32wbxx_ll_system.h **** #define LL_SYSCFG_TIMBREAK_SRAM2_PARITY         SYSCFG_CFGR2_SPL        /*!< Enables and locks the 
 153:Drivers/STM32WBxx_HAL_Driver/Inc/stm32wbxx_ll_system.h ****                                                                               with Break Input of T
 154:Drivers/STM32WBxx_HAL_Driver/Inc/stm32wbxx_ll_system.h **** #define LL_SYSCFG_TIMBREAK_LOCKUP               SYSCFG_CFGR2_CLL        /*!< Enables and locks the 
 155:Drivers/STM32WBxx_HAL_Driver/Inc/stm32wbxx_ll_system.h ****                                                                               with Break Input of T
 156:Drivers/STM32WBxx_HAL_Driver/Inc/stm32wbxx_ll_system.h **** /**
 157:Drivers/STM32WBxx_HAL_Driver/Inc/stm32wbxx_ll_system.h ****   * @}
 158:Drivers/STM32WBxx_HAL_Driver/Inc/stm32wbxx_ll_system.h ****   */
ARM GAS  /var/folders/lt/l_qrc8c54t93n_phsj7cf5tc0000gn/T//cc5FK5RK.s 			page 28


 159:Drivers/STM32WBxx_HAL_Driver/Inc/stm32wbxx_ll_system.h **** 
 160:Drivers/STM32WBxx_HAL_Driver/Inc/stm32wbxx_ll_system.h **** /** @defgroup SYSTEM_LL_EC_SRAM2WRP SYSCFG SRAM2 WRITE PROTECTION
 161:Drivers/STM32WBxx_HAL_Driver/Inc/stm32wbxx_ll_system.h ****   * @{
 162:Drivers/STM32WBxx_HAL_Driver/Inc/stm32wbxx_ll_system.h ****   */
 163:Drivers/STM32WBxx_HAL_Driver/Inc/stm32wbxx_ll_system.h **** #define LL_SYSCFG_SRAM2WRP_PAGE0                SYSCFG_SWPR1_PAGE0       /*!< SRAM2A Write protecti
 164:Drivers/STM32WBxx_HAL_Driver/Inc/stm32wbxx_ll_system.h **** #define LL_SYSCFG_SRAM2WRP_PAGE1                SYSCFG_SWPR1_PAGE1       /*!< SRAM2A Write protecti
 165:Drivers/STM32WBxx_HAL_Driver/Inc/stm32wbxx_ll_system.h **** #define LL_SYSCFG_SRAM2WRP_PAGE2                SYSCFG_SWPR1_PAGE2       /*!< SRAM2A Write protecti
 166:Drivers/STM32WBxx_HAL_Driver/Inc/stm32wbxx_ll_system.h **** #define LL_SYSCFG_SRAM2WRP_PAGE3                SYSCFG_SWPR1_PAGE3       /*!< SRAM2A Write protecti
 167:Drivers/STM32WBxx_HAL_Driver/Inc/stm32wbxx_ll_system.h **** #define LL_SYSCFG_SRAM2WRP_PAGE4                SYSCFG_SWPR1_PAGE4       /*!< SRAM2A Write protecti
 168:Drivers/STM32WBxx_HAL_Driver/Inc/stm32wbxx_ll_system.h **** #define LL_SYSCFG_SRAM2WRP_PAGE5                SYSCFG_SWPR1_PAGE5       /*!< SRAM2A Write protecti
 169:Drivers/STM32WBxx_HAL_Driver/Inc/stm32wbxx_ll_system.h **** #define LL_SYSCFG_SRAM2WRP_PAGE6                SYSCFG_SWPR1_PAGE6       /*!< SRAM2A Write protecti
 170:Drivers/STM32WBxx_HAL_Driver/Inc/stm32wbxx_ll_system.h **** #define LL_SYSCFG_SRAM2WRP_PAGE7                SYSCFG_SWPR1_PAGE7       /*!< SRAM2A Write protecti
 171:Drivers/STM32WBxx_HAL_Driver/Inc/stm32wbxx_ll_system.h **** #define LL_SYSCFG_SRAM2WRP_PAGE8                SYSCFG_SWPR1_PAGE8       /*!< SRAM2A Write protecti
 172:Drivers/STM32WBxx_HAL_Driver/Inc/stm32wbxx_ll_system.h **** #define LL_SYSCFG_SRAM2WRP_PAGE9                SYSCFG_SWPR1_PAGE9       /*!< SRAM2A Write protecti
 173:Drivers/STM32WBxx_HAL_Driver/Inc/stm32wbxx_ll_system.h **** #define LL_SYSCFG_SRAM2WRP_PAGE10               SYSCFG_SWPR1_PAGE10      /*!< SRAM2A Write protecti
 174:Drivers/STM32WBxx_HAL_Driver/Inc/stm32wbxx_ll_system.h **** #define LL_SYSCFG_SRAM2WRP_PAGE11               SYSCFG_SWPR1_PAGE11      /*!< SRAM2A Write protecti
 175:Drivers/STM32WBxx_HAL_Driver/Inc/stm32wbxx_ll_system.h **** #define LL_SYSCFG_SRAM2WRP_PAGE12               SYSCFG_SWPR1_PAGE12      /*!< SRAM2A Write protecti
 176:Drivers/STM32WBxx_HAL_Driver/Inc/stm32wbxx_ll_system.h **** #define LL_SYSCFG_SRAM2WRP_PAGE13               SYSCFG_SWPR1_PAGE13      /*!< SRAM2A Write protecti
 177:Drivers/STM32WBxx_HAL_Driver/Inc/stm32wbxx_ll_system.h **** #define LL_SYSCFG_SRAM2WRP_PAGE14               SYSCFG_SWPR1_PAGE14      /*!< SRAM2A Write protecti
 178:Drivers/STM32WBxx_HAL_Driver/Inc/stm32wbxx_ll_system.h **** #define LL_SYSCFG_SRAM2WRP_PAGE15               SYSCFG_SWPR1_PAGE15      /*!< SRAM2A Write protecti
 179:Drivers/STM32WBxx_HAL_Driver/Inc/stm32wbxx_ll_system.h **** #define LL_SYSCFG_SRAM2WRP_PAGE16               SYSCFG_SWPR1_PAGE16      /*!< SRAM2A Write protecti
 180:Drivers/STM32WBxx_HAL_Driver/Inc/stm32wbxx_ll_system.h **** #define LL_SYSCFG_SRAM2WRP_PAGE17               SYSCFG_SWPR1_PAGE17      /*!< SRAM2A Write protecti
 181:Drivers/STM32WBxx_HAL_Driver/Inc/stm32wbxx_ll_system.h **** #define LL_SYSCFG_SRAM2WRP_PAGE18               SYSCFG_SWPR1_PAGE18      /*!< SRAM2A Write protecti
 182:Drivers/STM32WBxx_HAL_Driver/Inc/stm32wbxx_ll_system.h **** #define LL_SYSCFG_SRAM2WRP_PAGE19               SYSCFG_SWPR1_PAGE19      /*!< SRAM2A Write protecti
 183:Drivers/STM32WBxx_HAL_Driver/Inc/stm32wbxx_ll_system.h **** #define LL_SYSCFG_SRAM2WRP_PAGE20               SYSCFG_SWPR1_PAGE20      /*!< SRAM2A Write protecti
 184:Drivers/STM32WBxx_HAL_Driver/Inc/stm32wbxx_ll_system.h **** #define LL_SYSCFG_SRAM2WRP_PAGE21               SYSCFG_SWPR1_PAGE21      /*!< SRAM2A Write protecti
 185:Drivers/STM32WBxx_HAL_Driver/Inc/stm32wbxx_ll_system.h **** #define LL_SYSCFG_SRAM2WRP_PAGE22               SYSCFG_SWPR1_PAGE22      /*!< SRAM2A Write protecti
 186:Drivers/STM32WBxx_HAL_Driver/Inc/stm32wbxx_ll_system.h **** #define LL_SYSCFG_SRAM2WRP_PAGE23               SYSCFG_SWPR1_PAGE23      /*!< SRAM2A Write protecti
 187:Drivers/STM32WBxx_HAL_Driver/Inc/stm32wbxx_ll_system.h **** #define LL_SYSCFG_SRAM2WRP_PAGE24               SYSCFG_SWPR1_PAGE24      /*!< SRAM2A Write protecti
 188:Drivers/STM32WBxx_HAL_Driver/Inc/stm32wbxx_ll_system.h **** #define LL_SYSCFG_SRAM2WRP_PAGE25               SYSCFG_SWPR1_PAGE25      /*!< SRAM2A Write protecti
 189:Drivers/STM32WBxx_HAL_Driver/Inc/stm32wbxx_ll_system.h **** #define LL_SYSCFG_SRAM2WRP_PAGE26               SYSCFG_SWPR1_PAGE26      /*!< SRAM2A Write protecti
 190:Drivers/STM32WBxx_HAL_Driver/Inc/stm32wbxx_ll_system.h **** #define LL_SYSCFG_SRAM2WRP_PAGE27               SYSCFG_SWPR1_PAGE27      /*!< SRAM2A Write protecti
 191:Drivers/STM32WBxx_HAL_Driver/Inc/stm32wbxx_ll_system.h **** #define LL_SYSCFG_SRAM2WRP_PAGE28               SYSCFG_SWPR1_PAGE28      /*!< SRAM2A Write protecti
 192:Drivers/STM32WBxx_HAL_Driver/Inc/stm32wbxx_ll_system.h **** #define LL_SYSCFG_SRAM2WRP_PAGE29               SYSCFG_SWPR1_PAGE29      /*!< SRAM2A Write protecti
 193:Drivers/STM32WBxx_HAL_Driver/Inc/stm32wbxx_ll_system.h **** #define LL_SYSCFG_SRAM2WRP_PAGE30               SYSCFG_SWPR1_PAGE30      /*!< SRAM2A Write protecti
 194:Drivers/STM32WBxx_HAL_Driver/Inc/stm32wbxx_ll_system.h **** #define LL_SYSCFG_SRAM2WRP_PAGE31               SYSCFG_SWPR1_PAGE31      /*!< SRAM2A Write protecti
 195:Drivers/STM32WBxx_HAL_Driver/Inc/stm32wbxx_ll_system.h **** 
 196:Drivers/STM32WBxx_HAL_Driver/Inc/stm32wbxx_ll_system.h **** #define LL_SYSCFG_SRAM2WRP_PAGE32               SYSCFG_SWPR2_PAGE32      /*!< SRAM2B Write protecti
 197:Drivers/STM32WBxx_HAL_Driver/Inc/stm32wbxx_ll_system.h **** #define LL_SYSCFG_SRAM2WRP_PAGE33               SYSCFG_SWPR2_PAGE33      /*!< SRAM2B Write protecti
 198:Drivers/STM32WBxx_HAL_Driver/Inc/stm32wbxx_ll_system.h **** #define LL_SYSCFG_SRAM2WRP_PAGE34               SYSCFG_SWPR2_PAGE34      /*!< SRAM2B Write protecti
 199:Drivers/STM32WBxx_HAL_Driver/Inc/stm32wbxx_ll_system.h **** #define LL_SYSCFG_SRAM2WRP_PAGE35               SYSCFG_SWPR2_PAGE35      /*!< SRAM2B Write protecti
 200:Drivers/STM32WBxx_HAL_Driver/Inc/stm32wbxx_ll_system.h **** #if defined(SYSCFG_SWPR2_PAGE36)
 201:Drivers/STM32WBxx_HAL_Driver/Inc/stm32wbxx_ll_system.h **** #define LL_SYSCFG_SRAM2WRP_PAGE36               SYSCFG_SWPR2_PAGE36      /*!< SRAM2B Write protecti
 202:Drivers/STM32WBxx_HAL_Driver/Inc/stm32wbxx_ll_system.h **** #define LL_SYSCFG_SRAM2WRP_PAGE37               SYSCFG_SWPR2_PAGE37      /*!< SRAM2B Write protecti
 203:Drivers/STM32WBxx_HAL_Driver/Inc/stm32wbxx_ll_system.h **** #define LL_SYSCFG_SRAM2WRP_PAGE38               SYSCFG_SWPR2_PAGE38      /*!< SRAM2B Write protecti
 204:Drivers/STM32WBxx_HAL_Driver/Inc/stm32wbxx_ll_system.h **** #define LL_SYSCFG_SRAM2WRP_PAGE39               SYSCFG_SWPR2_PAGE39      /*!< SRAM2B Write protecti
 205:Drivers/STM32WBxx_HAL_Driver/Inc/stm32wbxx_ll_system.h **** #define LL_SYSCFG_SRAM2WRP_PAGE40               SYSCFG_SWPR2_PAGE40      /*!< SRAM2B Write protecti
 206:Drivers/STM32WBxx_HAL_Driver/Inc/stm32wbxx_ll_system.h **** #define LL_SYSCFG_SRAM2WRP_PAGE41               SYSCFG_SWPR2_PAGE41      /*!< SRAM2B Write protecti
 207:Drivers/STM32WBxx_HAL_Driver/Inc/stm32wbxx_ll_system.h **** #define LL_SYSCFG_SRAM2WRP_PAGE42               SYSCFG_SWPR2_PAGE42      /*!< SRAM2B Write protecti
 208:Drivers/STM32WBxx_HAL_Driver/Inc/stm32wbxx_ll_system.h **** #define LL_SYSCFG_SRAM2WRP_PAGE43               SYSCFG_SWPR2_PAGE43      /*!< SRAM2B Write protecti
 209:Drivers/STM32WBxx_HAL_Driver/Inc/stm32wbxx_ll_system.h **** #define LL_SYSCFG_SRAM2WRP_PAGE44               SYSCFG_SWPR2_PAGE44      /*!< SRAM2B Write protecti
 210:Drivers/STM32WBxx_HAL_Driver/Inc/stm32wbxx_ll_system.h **** #define LL_SYSCFG_SRAM2WRP_PAGE45               SYSCFG_SWPR2_PAGE45      /*!< SRAM2B Write protecti
 211:Drivers/STM32WBxx_HAL_Driver/Inc/stm32wbxx_ll_system.h **** #define LL_SYSCFG_SRAM2WRP_PAGE46               SYSCFG_SWPR2_PAGE46      /*!< SRAM2B Write protecti
 212:Drivers/STM32WBxx_HAL_Driver/Inc/stm32wbxx_ll_system.h **** #define LL_SYSCFG_SRAM2WRP_PAGE47               SYSCFG_SWPR2_PAGE47      /*!< SRAM2B Write protecti
 213:Drivers/STM32WBxx_HAL_Driver/Inc/stm32wbxx_ll_system.h **** #define LL_SYSCFG_SRAM2WRP_PAGE48               SYSCFG_SWPR2_PAGE48      /*!< SRAM2B Write protecti
 214:Drivers/STM32WBxx_HAL_Driver/Inc/stm32wbxx_ll_system.h **** #define LL_SYSCFG_SRAM2WRP_PAGE49               SYSCFG_SWPR2_PAGE49      /*!< SRAM2B Write protecti
 215:Drivers/STM32WBxx_HAL_Driver/Inc/stm32wbxx_ll_system.h **** #define LL_SYSCFG_SRAM2WRP_PAGE50               SYSCFG_SWPR2_PAGE50      /*!< SRAM2B Write protecti
ARM GAS  /var/folders/lt/l_qrc8c54t93n_phsj7cf5tc0000gn/T//cc5FK5RK.s 			page 29


 216:Drivers/STM32WBxx_HAL_Driver/Inc/stm32wbxx_ll_system.h **** #define LL_SYSCFG_SRAM2WRP_PAGE51               SYSCFG_SWPR2_PAGE51      /*!< SRAM2B Write protecti
 217:Drivers/STM32WBxx_HAL_Driver/Inc/stm32wbxx_ll_system.h **** #define LL_SYSCFG_SRAM2WRP_PAGE52               SYSCFG_SWPR2_PAGE52      /*!< SRAM2B Write protecti
 218:Drivers/STM32WBxx_HAL_Driver/Inc/stm32wbxx_ll_system.h **** #define LL_SYSCFG_SRAM2WRP_PAGE53               SYSCFG_SWPR2_PAGE53      /*!< SRAM2B Write protecti
 219:Drivers/STM32WBxx_HAL_Driver/Inc/stm32wbxx_ll_system.h **** #define LL_SYSCFG_SRAM2WRP_PAGE54               SYSCFG_SWPR2_PAGE54      /*!< SRAM2B Write protecti
 220:Drivers/STM32WBxx_HAL_Driver/Inc/stm32wbxx_ll_system.h **** #define LL_SYSCFG_SRAM2WRP_PAGE55               SYSCFG_SWPR2_PAGE55      /*!< SRAM2B Write protecti
 221:Drivers/STM32WBxx_HAL_Driver/Inc/stm32wbxx_ll_system.h **** #define LL_SYSCFG_SRAM2WRP_PAGE56               SYSCFG_SWPR2_PAGE56      /*!< SRAM2B Write protecti
 222:Drivers/STM32WBxx_HAL_Driver/Inc/stm32wbxx_ll_system.h **** #define LL_SYSCFG_SRAM2WRP_PAGE57               SYSCFG_SWPR2_PAGE57      /*!< SRAM2B Write protecti
 223:Drivers/STM32WBxx_HAL_Driver/Inc/stm32wbxx_ll_system.h **** #define LL_SYSCFG_SRAM2WRP_PAGE58               SYSCFG_SWPR2_PAGE58      /*!< SRAM2B Write protecti
 224:Drivers/STM32WBxx_HAL_Driver/Inc/stm32wbxx_ll_system.h **** #define LL_SYSCFG_SRAM2WRP_PAGE59               SYSCFG_SWPR2_PAGE59      /*!< SRAM2B Write protecti
 225:Drivers/STM32WBxx_HAL_Driver/Inc/stm32wbxx_ll_system.h **** #define LL_SYSCFG_SRAM2WRP_PAGE60               SYSCFG_SWPR2_PAGE60      /*!< SRAM2B Write protecti
 226:Drivers/STM32WBxx_HAL_Driver/Inc/stm32wbxx_ll_system.h **** #define LL_SYSCFG_SRAM2WRP_PAGE61               SYSCFG_SWPR2_PAGE61      /*!< SRAM2B Write protecti
 227:Drivers/STM32WBxx_HAL_Driver/Inc/stm32wbxx_ll_system.h **** #define LL_SYSCFG_SRAM2WRP_PAGE62               SYSCFG_SWPR2_PAGE62      /*!< SRAM2B Write protecti
 228:Drivers/STM32WBxx_HAL_Driver/Inc/stm32wbxx_ll_system.h **** #define LL_SYSCFG_SRAM2WRP_PAGE63               SYSCFG_SWPR2_PAGE63      /*!< SRAM2B Write protecti
 229:Drivers/STM32WBxx_HAL_Driver/Inc/stm32wbxx_ll_system.h **** #endif
 230:Drivers/STM32WBxx_HAL_Driver/Inc/stm32wbxx_ll_system.h **** /**
 231:Drivers/STM32WBxx_HAL_Driver/Inc/stm32wbxx_ll_system.h ****   * @}
 232:Drivers/STM32WBxx_HAL_Driver/Inc/stm32wbxx_ll_system.h ****   */
 233:Drivers/STM32WBxx_HAL_Driver/Inc/stm32wbxx_ll_system.h **** 
 234:Drivers/STM32WBxx_HAL_Driver/Inc/stm32wbxx_ll_system.h **** /** @defgroup SYSTEM_LL_EC_IM SYSCFG CPU1 INTERRUPT MASK
 235:Drivers/STM32WBxx_HAL_Driver/Inc/stm32wbxx_ll_system.h ****   * @{
 236:Drivers/STM32WBxx_HAL_Driver/Inc/stm32wbxx_ll_system.h ****   */
 237:Drivers/STM32WBxx_HAL_Driver/Inc/stm32wbxx_ll_system.h **** #define LL_SYSCFG_GRP1_TIM1                     SYSCFG_IMR1_TIM1IM     /*!< Enabling of interrupt f
 238:Drivers/STM32WBxx_HAL_Driver/Inc/stm32wbxx_ll_system.h **** #if defined(TIM16)
 239:Drivers/STM32WBxx_HAL_Driver/Inc/stm32wbxx_ll_system.h **** #define LL_SYSCFG_GRP1_TIM16                    SYSCFG_IMR1_TIM16IM    /*!< Enabling of interrupt f
 240:Drivers/STM32WBxx_HAL_Driver/Inc/stm32wbxx_ll_system.h **** #endif
 241:Drivers/STM32WBxx_HAL_Driver/Inc/stm32wbxx_ll_system.h **** #if defined(TIM17)
 242:Drivers/STM32WBxx_HAL_Driver/Inc/stm32wbxx_ll_system.h **** #define LL_SYSCFG_GRP1_TIM17                    SYSCFG_IMR1_TIM17IM    /*!< Enabling of interrupt f
 243:Drivers/STM32WBxx_HAL_Driver/Inc/stm32wbxx_ll_system.h **** #endif
 244:Drivers/STM32WBxx_HAL_Driver/Inc/stm32wbxx_ll_system.h **** 
 245:Drivers/STM32WBxx_HAL_Driver/Inc/stm32wbxx_ll_system.h **** #define LL_SYSCFG_GRP1_EXTI5                    SYSCFG_IMR1_EXTI5IM    /*!< Enabling of interrupt f
 246:Drivers/STM32WBxx_HAL_Driver/Inc/stm32wbxx_ll_system.h **** #define LL_SYSCFG_GRP1_EXTI6                    SYSCFG_IMR1_EXTI6IM    /*!< Enabling of interrupt f
 247:Drivers/STM32WBxx_HAL_Driver/Inc/stm32wbxx_ll_system.h **** #define LL_SYSCFG_GRP1_EXTI7                    SYSCFG_IMR1_EXTI7IM    /*!< Enabling of interrupt f
 248:Drivers/STM32WBxx_HAL_Driver/Inc/stm32wbxx_ll_system.h **** #define LL_SYSCFG_GRP1_EXTI8                    SYSCFG_IMR1_EXTI8IM    /*!< Enabling of interrupt f
 249:Drivers/STM32WBxx_HAL_Driver/Inc/stm32wbxx_ll_system.h **** #define LL_SYSCFG_GRP1_EXTI9                    SYSCFG_IMR1_EXTI9IM    /*!< Enabling of interrupt f
 250:Drivers/STM32WBxx_HAL_Driver/Inc/stm32wbxx_ll_system.h **** #define LL_SYSCFG_GRP1_EXTI10                   SYSCFG_IMR1_EXTI10IM   /*!< Enabling of interrupt f
 251:Drivers/STM32WBxx_HAL_Driver/Inc/stm32wbxx_ll_system.h **** #define LL_SYSCFG_GRP1_EXTI11                   SYSCFG_IMR1_EXTI11IM   /*!< Enabling of interrupt f
 252:Drivers/STM32WBxx_HAL_Driver/Inc/stm32wbxx_ll_system.h **** #define LL_SYSCFG_GRP1_EXTI12                   SYSCFG_IMR1_EXTI12IM   /*!< Enabling of interrupt f
 253:Drivers/STM32WBxx_HAL_Driver/Inc/stm32wbxx_ll_system.h **** #define LL_SYSCFG_GRP1_EXTI13                   SYSCFG_IMR1_EXTI13IM   /*!< Enabling of interrupt f
 254:Drivers/STM32WBxx_HAL_Driver/Inc/stm32wbxx_ll_system.h **** #define LL_SYSCFG_GRP1_EXTI14                   SYSCFG_IMR1_EXTI14IM   /*!< Enabling of interrupt f
 255:Drivers/STM32WBxx_HAL_Driver/Inc/stm32wbxx_ll_system.h **** #define LL_SYSCFG_GRP1_EXTI15                   SYSCFG_IMR1_EXTI15IM   /*!< Enabling of interrupt f
 256:Drivers/STM32WBxx_HAL_Driver/Inc/stm32wbxx_ll_system.h **** 
 257:Drivers/STM32WBxx_HAL_Driver/Inc/stm32wbxx_ll_system.h **** #if defined(SYSCFG_IMR2_PVM1IM)
 258:Drivers/STM32WBxx_HAL_Driver/Inc/stm32wbxx_ll_system.h **** #define LL_SYSCFG_GRP2_PVM1                     SYSCFG_IMR2_PVM1IM     /*!< Enabling of interrupt f
 259:Drivers/STM32WBxx_HAL_Driver/Inc/stm32wbxx_ll_system.h **** #endif
 260:Drivers/STM32WBxx_HAL_Driver/Inc/stm32wbxx_ll_system.h **** #define LL_SYSCFG_GRP2_PVM3                     SYSCFG_IMR2_PVM3IM     /*!< Enabling of interrupt f
 261:Drivers/STM32WBxx_HAL_Driver/Inc/stm32wbxx_ll_system.h **** #define LL_SYSCFG_GRP2_PVD                      SYSCFG_IMR2_PVDIM      /*!< Enabling of interrupt f
 262:Drivers/STM32WBxx_HAL_Driver/Inc/stm32wbxx_ll_system.h **** /**
 263:Drivers/STM32WBxx_HAL_Driver/Inc/stm32wbxx_ll_system.h ****   * @}
 264:Drivers/STM32WBxx_HAL_Driver/Inc/stm32wbxx_ll_system.h ****   */
 265:Drivers/STM32WBxx_HAL_Driver/Inc/stm32wbxx_ll_system.h **** 
 266:Drivers/STM32WBxx_HAL_Driver/Inc/stm32wbxx_ll_system.h **** /** @defgroup SYSTEM_LL_EC_C2_IM SYSCFG CPU2 INTERRUPT MASK
 267:Drivers/STM32WBxx_HAL_Driver/Inc/stm32wbxx_ll_system.h ****   * @{
 268:Drivers/STM32WBxx_HAL_Driver/Inc/stm32wbxx_ll_system.h ****   */
 269:Drivers/STM32WBxx_HAL_Driver/Inc/stm32wbxx_ll_system.h **** #define LL_C2_SYSCFG_GRP1_RTCSTAMP_RTCTAMP_LSECSS  SYSCFG_C2IMR1_RTCSTAMPTAMPLSECSSIM /*!< Enabling
 270:Drivers/STM32WBxx_HAL_Driver/Inc/stm32wbxx_ll_system.h ****                                                                                       and LSE Clock
 271:Drivers/STM32WBxx_HAL_Driver/Inc/stm32wbxx_ll_system.h **** #define LL_C2_SYSCFG_GRP1_RTCWKUP               SYSCFG_C2IMR1_RTCWKUPIM  /*!< Enabling of interrupt
 272:Drivers/STM32WBxx_HAL_Driver/Inc/stm32wbxx_ll_system.h **** #define LL_C2_SYSCFG_GRP1_RTCALARM              SYSCFG_C2IMR1_RTCALARMIM /*!< Enabling of interrupt
ARM GAS  /var/folders/lt/l_qrc8c54t93n_phsj7cf5tc0000gn/T//cc5FK5RK.s 			page 30


 273:Drivers/STM32WBxx_HAL_Driver/Inc/stm32wbxx_ll_system.h **** #define LL_C2_SYSCFG_GRP1_RCC                   SYSCFG_C2IMR1_RCCIM      /*!< Enabling of interrupt
 274:Drivers/STM32WBxx_HAL_Driver/Inc/stm32wbxx_ll_system.h **** #define LL_C2_SYSCFG_GRP1_FLASH                 SYSCFG_C2IMR1_FLASHIM    /*!< Enabling of interrupt
 275:Drivers/STM32WBxx_HAL_Driver/Inc/stm32wbxx_ll_system.h **** #define LL_C2_SYSCFG_GRP1_PKA                   SYSCFG_C2IMR1_PKAIM      /*!< Enabling of interrupt
 276:Drivers/STM32WBxx_HAL_Driver/Inc/stm32wbxx_ll_system.h **** #define LL_C2_SYSCFG_GRP1_RNG                   SYSCFG_C2IMR1_RNGIM      /*!< Enabling of interrupt
 277:Drivers/STM32WBxx_HAL_Driver/Inc/stm32wbxx_ll_system.h **** #if defined(AES1)
 278:Drivers/STM32WBxx_HAL_Driver/Inc/stm32wbxx_ll_system.h **** #define LL_C2_SYSCFG_GRP1_AES1                  SYSCFG_C2IMR1_AES1IM     /*!< Enabling of interrupt
 279:Drivers/STM32WBxx_HAL_Driver/Inc/stm32wbxx_ll_system.h **** #endif
 280:Drivers/STM32WBxx_HAL_Driver/Inc/stm32wbxx_ll_system.h **** #if defined(COMP1)
 281:Drivers/STM32WBxx_HAL_Driver/Inc/stm32wbxx_ll_system.h **** #define LL_C2_SYSCFG_GRP1_COMP                  SYSCFG_C2IMR1_COMPIM     /*!< Enabling of interrupt
 282:Drivers/STM32WBxx_HAL_Driver/Inc/stm32wbxx_ll_system.h **** #endif
 283:Drivers/STM32WBxx_HAL_Driver/Inc/stm32wbxx_ll_system.h **** #define LL_C2_SYSCFG_GRP1_ADC                   SYSCFG_C2IMR1_ADCIM      /*!< Enabling of interrupt
 284:Drivers/STM32WBxx_HAL_Driver/Inc/stm32wbxx_ll_system.h **** 
 285:Drivers/STM32WBxx_HAL_Driver/Inc/stm32wbxx_ll_system.h **** #define LL_C2_SYSCFG_GRP1_EXTI0                 SYSCFG_C2IMR1_EXTI0IM    /*!< Enabling of interrupt
 286:Drivers/STM32WBxx_HAL_Driver/Inc/stm32wbxx_ll_system.h **** #define LL_C2_SYSCFG_GRP1_EXTI1                 SYSCFG_C2IMR1_EXTI1IM    /*!< Enabling of interrupt
 287:Drivers/STM32WBxx_HAL_Driver/Inc/stm32wbxx_ll_system.h **** #define LL_C2_SYSCFG_GRP1_EXTI2                 SYSCFG_C2IMR1_EXTI2IM    /*!< Enabling of interrupt
 288:Drivers/STM32WBxx_HAL_Driver/Inc/stm32wbxx_ll_system.h **** #define LL_C2_SYSCFG_GRP1_EXTI3                 SYSCFG_C2IMR1_EXTI3IM    /*!< Enabling of interrupt
 289:Drivers/STM32WBxx_HAL_Driver/Inc/stm32wbxx_ll_system.h **** #define LL_C2_SYSCFG_GRP1_EXTI4                 SYSCFG_C2IMR1_EXTI4IM    /*!< Enabling of interrupt
 290:Drivers/STM32WBxx_HAL_Driver/Inc/stm32wbxx_ll_system.h **** #define LL_C2_SYSCFG_GRP1_EXTI5                 SYSCFG_C2IMR1_EXTI5IM    /*!< Enabling of interrupt
 291:Drivers/STM32WBxx_HAL_Driver/Inc/stm32wbxx_ll_system.h **** #define LL_C2_SYSCFG_GRP1_EXTI6                 SYSCFG_C2IMR1_EXTI6IM    /*!< Enabling of interrupt
 292:Drivers/STM32WBxx_HAL_Driver/Inc/stm32wbxx_ll_system.h **** #define LL_C2_SYSCFG_GRP1_EXTI7                 SYSCFG_C2IMR1_EXTI7IM    /*!< Enabling of interrupt
 293:Drivers/STM32WBxx_HAL_Driver/Inc/stm32wbxx_ll_system.h **** #define LL_C2_SYSCFG_GRP1_EXTI8                 SYSCFG_C2IMR1_EXTI8IM    /*!< Enabling of interrupt
 294:Drivers/STM32WBxx_HAL_Driver/Inc/stm32wbxx_ll_system.h **** #define LL_C2_SYSCFG_GRP1_EXTI9                 SYSCFG_C2IMR1_EXTI9IM    /*!< Enabling of interrupt
 295:Drivers/STM32WBxx_HAL_Driver/Inc/stm32wbxx_ll_system.h **** #define LL_C2_SYSCFG_GRP1_EXTI10                SYSCFG_C2IMR1_EXTI10IM   /*!< Enabling of interrupt
 296:Drivers/STM32WBxx_HAL_Driver/Inc/stm32wbxx_ll_system.h **** #define LL_C2_SYSCFG_GRP1_EXTI11                SYSCFG_C2IMR1_EXTI11IM   /*!< Enabling of interrupt
 297:Drivers/STM32WBxx_HAL_Driver/Inc/stm32wbxx_ll_system.h **** #define LL_C2_SYSCFG_GRP1_EXTI12                SYSCFG_C2IMR1_EXTI12IM   /*!< Enabling of interrupt
 298:Drivers/STM32WBxx_HAL_Driver/Inc/stm32wbxx_ll_system.h **** #define LL_C2_SYSCFG_GRP1_EXTI13                SYSCFG_C2IMR1_EXTI13IM   /*!< Enabling of interrupt
 299:Drivers/STM32WBxx_HAL_Driver/Inc/stm32wbxx_ll_system.h **** #define LL_C2_SYSCFG_GRP1_EXTI14                SYSCFG_C2IMR1_EXTI14IM   /*!< Enabling of interrupt
 300:Drivers/STM32WBxx_HAL_Driver/Inc/stm32wbxx_ll_system.h **** #define LL_C2_SYSCFG_GRP1_EXTI15                SYSCFG_C2IMR1_EXTI15IM   /*!< Enabling of interrupt
 301:Drivers/STM32WBxx_HAL_Driver/Inc/stm32wbxx_ll_system.h **** 
 302:Drivers/STM32WBxx_HAL_Driver/Inc/stm32wbxx_ll_system.h **** #define LL_C2_SYSCFG_GRP2_DMA1CH1               SYSCFG_C2IMR2_DMA1CH1IM  /*!< Enabling of interrupt
 303:Drivers/STM32WBxx_HAL_Driver/Inc/stm32wbxx_ll_system.h **** #define LL_C2_SYSCFG_GRP2_DMA1CH2               SYSCFG_C2IMR2_DMA1CH2IM  /*!< Enabling of interrupt
 304:Drivers/STM32WBxx_HAL_Driver/Inc/stm32wbxx_ll_system.h **** #define LL_C2_SYSCFG_GRP2_DMA1CH3               SYSCFG_C2IMR2_DMA1CH3IM  /*!< Enabling of interrupt
 305:Drivers/STM32WBxx_HAL_Driver/Inc/stm32wbxx_ll_system.h **** #define LL_C2_SYSCFG_GRP2_DMA1CH4               SYSCFG_C2IMR2_DMA1CH4IM  /*!< Enabling of interrupt
 306:Drivers/STM32WBxx_HAL_Driver/Inc/stm32wbxx_ll_system.h **** #define LL_C2_SYSCFG_GRP2_DMA1CH5               SYSCFG_C2IMR2_DMA1CH5IM  /*!< Enabling of interrupt
 307:Drivers/STM32WBxx_HAL_Driver/Inc/stm32wbxx_ll_system.h **** #define LL_C2_SYSCFG_GRP2_DMA1CH6               SYSCFG_C2IMR2_DMA1CH6IM  /*!< Enabling of interrupt
 308:Drivers/STM32WBxx_HAL_Driver/Inc/stm32wbxx_ll_system.h **** #define LL_C2_SYSCFG_GRP2_DMA1CH7               SYSCFG_C2IMR2_DMA1CH7IM  /*!< Enabling of interrupt
 309:Drivers/STM32WBxx_HAL_Driver/Inc/stm32wbxx_ll_system.h **** 
 310:Drivers/STM32WBxx_HAL_Driver/Inc/stm32wbxx_ll_system.h **** #if defined(DMA2)
 311:Drivers/STM32WBxx_HAL_Driver/Inc/stm32wbxx_ll_system.h **** #define LL_C2_SYSCFG_GRP2_DMA2CH1               SYSCFG_C2IMR2_DMA2CH1IM  /*!< Enabling of interrupt
 312:Drivers/STM32WBxx_HAL_Driver/Inc/stm32wbxx_ll_system.h **** #define LL_C2_SYSCFG_GRP2_DMA2CH2               SYSCFG_C2IMR2_DMA2CH2IM  /*!< Enabling of interrupt
 313:Drivers/STM32WBxx_HAL_Driver/Inc/stm32wbxx_ll_system.h **** #define LL_C2_SYSCFG_GRP2_DMA2CH3               SYSCFG_C2IMR2_DMA2CH3IM  /*!< Enabling of interrupt
 314:Drivers/STM32WBxx_HAL_Driver/Inc/stm32wbxx_ll_system.h **** #define LL_C2_SYSCFG_GRP2_DMA2CH4               SYSCFG_C2IMR2_DMA2CH4IM  /*!< Enabling of interrupt
 315:Drivers/STM32WBxx_HAL_Driver/Inc/stm32wbxx_ll_system.h **** #define LL_C2_SYSCFG_GRP2_DMA2CH5               SYSCFG_C2IMR2_DMA2CH5IM  /*!< Enabling of interrupt
 316:Drivers/STM32WBxx_HAL_Driver/Inc/stm32wbxx_ll_system.h **** #define LL_C2_SYSCFG_GRP2_DMA2CH6               SYSCFG_C2IMR2_DMA2CH6IM  /*!< Enabling of interrupt
 317:Drivers/STM32WBxx_HAL_Driver/Inc/stm32wbxx_ll_system.h **** #define LL_C2_SYSCFG_GRP2_DMA2CH7               SYSCFG_C2IMR2_DMA2CH7IM  /*!< Enabling of interrupt
 318:Drivers/STM32WBxx_HAL_Driver/Inc/stm32wbxx_ll_system.h **** #endif
 319:Drivers/STM32WBxx_HAL_Driver/Inc/stm32wbxx_ll_system.h **** 
 320:Drivers/STM32WBxx_HAL_Driver/Inc/stm32wbxx_ll_system.h **** #define LL_C2_SYSCFG_GRP2_DMAMUX1               SYSCFG_C2IMR2_DMAMUX1IM  /*!< Enabling of interrupt
 321:Drivers/STM32WBxx_HAL_Driver/Inc/stm32wbxx_ll_system.h **** #if defined(SYSCFG_C2IMR2_PVM1IM)
 322:Drivers/STM32WBxx_HAL_Driver/Inc/stm32wbxx_ll_system.h **** #define LL_C2_SYSCFG_GRP2_PVM1                  SYSCFG_C2IMR2_PVM1IM     /*!< Enabling of interrupt
 323:Drivers/STM32WBxx_HAL_Driver/Inc/stm32wbxx_ll_system.h **** #endif
 324:Drivers/STM32WBxx_HAL_Driver/Inc/stm32wbxx_ll_system.h **** #define LL_C2_SYSCFG_GRP2_PVM3                  SYSCFG_C2IMR2_PVM3IM     /*!< Enabling of interrupt
 325:Drivers/STM32WBxx_HAL_Driver/Inc/stm32wbxx_ll_system.h **** #define LL_C2_SYSCFG_GRP2_PVD                   SYSCFG_C2IMR2_PVDIM      /*!< Enabling of interrupt
 326:Drivers/STM32WBxx_HAL_Driver/Inc/stm32wbxx_ll_system.h **** #define LL_C2_SYSCFG_GRP2_TSC                   SYSCFG_C2IMR2_TSCIM      /*!< Enabling of interrupt
 327:Drivers/STM32WBxx_HAL_Driver/Inc/stm32wbxx_ll_system.h **** #if defined(LCD)
 328:Drivers/STM32WBxx_HAL_Driver/Inc/stm32wbxx_ll_system.h **** #define LL_C2_SYSCFG_GRP2_LCD                   SYSCFG_C2IMR2_LCDIM      /*!< Enabling of interrupt
 329:Drivers/STM32WBxx_HAL_Driver/Inc/stm32wbxx_ll_system.h **** #endif
ARM GAS  /var/folders/lt/l_qrc8c54t93n_phsj7cf5tc0000gn/T//cc5FK5RK.s 			page 31


 330:Drivers/STM32WBxx_HAL_Driver/Inc/stm32wbxx_ll_system.h **** /**
 331:Drivers/STM32WBxx_HAL_Driver/Inc/stm32wbxx_ll_system.h ****   * @}
 332:Drivers/STM32WBxx_HAL_Driver/Inc/stm32wbxx_ll_system.h ****   */
 333:Drivers/STM32WBxx_HAL_Driver/Inc/stm32wbxx_ll_system.h **** 
 334:Drivers/STM32WBxx_HAL_Driver/Inc/stm32wbxx_ll_system.h **** /** @defgroup SYSTEM_LL_EC_SECURE_IP_ACCESS SYSCFG SECURE IP ACCESS
 335:Drivers/STM32WBxx_HAL_Driver/Inc/stm32wbxx_ll_system.h ****   * @{
 336:Drivers/STM32WBxx_HAL_Driver/Inc/stm32wbxx_ll_system.h ****   */
 337:Drivers/STM32WBxx_HAL_Driver/Inc/stm32wbxx_ll_system.h **** #if defined(AES1)
 338:Drivers/STM32WBxx_HAL_Driver/Inc/stm32wbxx_ll_system.h **** #define LL_SYSCFG_SECURE_ACCESS_AES1            SYSCFG_SIPCR_SAES1       /*!< Enabling the security
 339:Drivers/STM32WBxx_HAL_Driver/Inc/stm32wbxx_ll_system.h **** #endif
 340:Drivers/STM32WBxx_HAL_Driver/Inc/stm32wbxx_ll_system.h **** #define LL_SYSCFG_SECURE_ACCESS_AES2            SYSCFG_SIPCR_SAES2       /*!< Enabling the security
 341:Drivers/STM32WBxx_HAL_Driver/Inc/stm32wbxx_ll_system.h **** #define LL_SYSCFG_SECURE_ACCESS_PKA             SYSCFG_SIPCR_SPKA        /*!< Enabling the security
 342:Drivers/STM32WBxx_HAL_Driver/Inc/stm32wbxx_ll_system.h **** #define LL_SYSCFG_SECURE_ACCESS_RNG             SYSCFG_SIPCR_SRNG        /*!< Enabling the security
 343:Drivers/STM32WBxx_HAL_Driver/Inc/stm32wbxx_ll_system.h **** /**
 344:Drivers/STM32WBxx_HAL_Driver/Inc/stm32wbxx_ll_system.h ****   * @}
 345:Drivers/STM32WBxx_HAL_Driver/Inc/stm32wbxx_ll_system.h ****   */
 346:Drivers/STM32WBxx_HAL_Driver/Inc/stm32wbxx_ll_system.h **** 
 347:Drivers/STM32WBxx_HAL_Driver/Inc/stm32wbxx_ll_system.h **** /** @defgroup SYSTEM_LL_EC_APB1_GRP1_STOP_IP DBGMCU CPU1 APB1 GRP1 STOP IP
 348:Drivers/STM32WBxx_HAL_Driver/Inc/stm32wbxx_ll_system.h ****   * @{
 349:Drivers/STM32WBxx_HAL_Driver/Inc/stm32wbxx_ll_system.h ****   */
 350:Drivers/STM32WBxx_HAL_Driver/Inc/stm32wbxx_ll_system.h **** #define LL_DBGMCU_APB1_GRP1_TIM2_STOP      DBGMCU_APB1FZR1_DBG_TIM2_STOP   /*!< The counter clock o
 351:Drivers/STM32WBxx_HAL_Driver/Inc/stm32wbxx_ll_system.h **** #define LL_DBGMCU_APB1_GRP1_RTC_STOP       DBGMCU_APB1FZR1_DBG_RTC_STOP    /*!< The clock of the RT
 352:Drivers/STM32WBxx_HAL_Driver/Inc/stm32wbxx_ll_system.h **** #define LL_DBGMCU_APB1_GRP1_WWDG_STOP      DBGMCU_APB1FZR1_DBG_WWDG_STOP   /*!< The window watchdog
 353:Drivers/STM32WBxx_HAL_Driver/Inc/stm32wbxx_ll_system.h **** #define LL_DBGMCU_APB1_GRP1_IWDG_STOP      DBGMCU_APB1FZR1_DBG_IWDG_STOP   /*!< The independent wat
 354:Drivers/STM32WBxx_HAL_Driver/Inc/stm32wbxx_ll_system.h **** #define LL_DBGMCU_APB1_GRP1_I2C1_STOP      DBGMCU_APB1FZR1_DBG_I2C1_STOP   /*!< The I2C1 SMBus time
 355:Drivers/STM32WBxx_HAL_Driver/Inc/stm32wbxx_ll_system.h **** #if defined(I2C3)
 356:Drivers/STM32WBxx_HAL_Driver/Inc/stm32wbxx_ll_system.h **** #define LL_DBGMCU_APB1_GRP1_I2C3_STOP      DBGMCU_APB1FZR1_DBG_I2C3_STOP   /*!< The I2C3 SMBus time
 357:Drivers/STM32WBxx_HAL_Driver/Inc/stm32wbxx_ll_system.h **** #endif
 358:Drivers/STM32WBxx_HAL_Driver/Inc/stm32wbxx_ll_system.h **** #define LL_DBGMCU_APB1_GRP1_LPTIM1_STOP    DBGMCU_APB1FZR1_DBG_LPTIM1_STOP /*!< The counter clock o
 359:Drivers/STM32WBxx_HAL_Driver/Inc/stm32wbxx_ll_system.h **** /**
 360:Drivers/STM32WBxx_HAL_Driver/Inc/stm32wbxx_ll_system.h ****   * @}
 361:Drivers/STM32WBxx_HAL_Driver/Inc/stm32wbxx_ll_system.h ****   */
 362:Drivers/STM32WBxx_HAL_Driver/Inc/stm32wbxx_ll_system.h **** 
 363:Drivers/STM32WBxx_HAL_Driver/Inc/stm32wbxx_ll_system.h **** /** @defgroup SYSTEM_LL_EC_C2_APB1_GRP1_STOP_IP DBGMCU CPU2 APB1 GRP1 STOP IP
 364:Drivers/STM32WBxx_HAL_Driver/Inc/stm32wbxx_ll_system.h ****   * @{
 365:Drivers/STM32WBxx_HAL_Driver/Inc/stm32wbxx_ll_system.h ****   */
 366:Drivers/STM32WBxx_HAL_Driver/Inc/stm32wbxx_ll_system.h **** #define LL_C2_DBGMCU_APB1_GRP1_TIM2_STOP   DBGMCU_C2APB1FZR1_DBG_TIM2_STOP   /*!< The counter clock
 367:Drivers/STM32WBxx_HAL_Driver/Inc/stm32wbxx_ll_system.h **** #define LL_C2_DBGMCU_APB1_GRP1_RTC_STOP    DBGMCU_C2APB1FZR1_DBG_RTC_STOP    /*!< The clock of the 
 368:Drivers/STM32WBxx_HAL_Driver/Inc/stm32wbxx_ll_system.h **** #define LL_C2_DBGMCU_APB1_GRP1_IWDG_STOP   DBGMCU_C2APB1FZR1_DBG_IWDG_STOP   /*!< The independent w
 369:Drivers/STM32WBxx_HAL_Driver/Inc/stm32wbxx_ll_system.h **** #define LL_C2_DBGMCU_APB1_GRP1_I2C1_STOP   DBGMCU_C2APB1FZR1_DBG_I2C1_STOP   /*!< The I2C1 SMBus ti
 370:Drivers/STM32WBxx_HAL_Driver/Inc/stm32wbxx_ll_system.h **** #if defined(I2C3)
 371:Drivers/STM32WBxx_HAL_Driver/Inc/stm32wbxx_ll_system.h **** #define LL_C2_DBGMCU_APB1_GRP1_I2C3_STOP   DBGMCU_C2APB1FZR1_DBG_I2C3_STOP   /*!< The I2C3 SMBus ti
 372:Drivers/STM32WBxx_HAL_Driver/Inc/stm32wbxx_ll_system.h **** #endif
 373:Drivers/STM32WBxx_HAL_Driver/Inc/stm32wbxx_ll_system.h **** #define LL_C2_DBGMCU_APB1_GRP1_LPTIM1_STOP DBGMCU_C2APB1FZR1_DBG_LPTIM1_STOP /*!< The counter clock
 374:Drivers/STM32WBxx_HAL_Driver/Inc/stm32wbxx_ll_system.h **** /**
 375:Drivers/STM32WBxx_HAL_Driver/Inc/stm32wbxx_ll_system.h ****   * @}
 376:Drivers/STM32WBxx_HAL_Driver/Inc/stm32wbxx_ll_system.h ****   */
 377:Drivers/STM32WBxx_HAL_Driver/Inc/stm32wbxx_ll_system.h **** 
 378:Drivers/STM32WBxx_HAL_Driver/Inc/stm32wbxx_ll_system.h **** /** @defgroup SYSTEM_LL_EC_APB1_GRP2_STOP_IP DBGMCU CPU1 APB1 GRP2 STOP IP
 379:Drivers/STM32WBxx_HAL_Driver/Inc/stm32wbxx_ll_system.h ****   * @{
 380:Drivers/STM32WBxx_HAL_Driver/Inc/stm32wbxx_ll_system.h ****   */
 381:Drivers/STM32WBxx_HAL_Driver/Inc/stm32wbxx_ll_system.h **** #define LL_DBGMCU_APB1_GRP2_LPTIM2_STOP    DBGMCU_APB1FZR2_DBG_LPTIM2_STOP /*!< The counter clock o
 382:Drivers/STM32WBxx_HAL_Driver/Inc/stm32wbxx_ll_system.h **** /**
 383:Drivers/STM32WBxx_HAL_Driver/Inc/stm32wbxx_ll_system.h ****   * @}
 384:Drivers/STM32WBxx_HAL_Driver/Inc/stm32wbxx_ll_system.h ****   */
 385:Drivers/STM32WBxx_HAL_Driver/Inc/stm32wbxx_ll_system.h **** 
 386:Drivers/STM32WBxx_HAL_Driver/Inc/stm32wbxx_ll_system.h **** /** @defgroup SYSTEM_LL_EC_C2_APB1_GRP2_STOP_IP DBGMCU CPU2 APB1 GRP2 STOP IP
ARM GAS  /var/folders/lt/l_qrc8c54t93n_phsj7cf5tc0000gn/T//cc5FK5RK.s 			page 32


 387:Drivers/STM32WBxx_HAL_Driver/Inc/stm32wbxx_ll_system.h ****   * @{
 388:Drivers/STM32WBxx_HAL_Driver/Inc/stm32wbxx_ll_system.h ****   */
 389:Drivers/STM32WBxx_HAL_Driver/Inc/stm32wbxx_ll_system.h **** #define LL_C2_DBGMCU_APB1_GRP2_LPTIM2_STOP DBGMCU_C2APB1FZR2_DBG_LPTIM2_STOP /*!< The counter clock
 390:Drivers/STM32WBxx_HAL_Driver/Inc/stm32wbxx_ll_system.h **** /**
 391:Drivers/STM32WBxx_HAL_Driver/Inc/stm32wbxx_ll_system.h ****   * @}
 392:Drivers/STM32WBxx_HAL_Driver/Inc/stm32wbxx_ll_system.h ****   */
 393:Drivers/STM32WBxx_HAL_Driver/Inc/stm32wbxx_ll_system.h **** 
 394:Drivers/STM32WBxx_HAL_Driver/Inc/stm32wbxx_ll_system.h **** /** @defgroup SYSTEM_LL_EC_APB2_GRP1_STOP_IP DBGMCU CPU1 APB2 GRP1 STOP IP
 395:Drivers/STM32WBxx_HAL_Driver/Inc/stm32wbxx_ll_system.h ****   * @{
 396:Drivers/STM32WBxx_HAL_Driver/Inc/stm32wbxx_ll_system.h ****   */
 397:Drivers/STM32WBxx_HAL_Driver/Inc/stm32wbxx_ll_system.h **** #define LL_DBGMCU_APB2_GRP1_TIM1_STOP      DBGMCU_APB2FZR_DBG_TIM1_STOP   /*!< The counter clock of
 398:Drivers/STM32WBxx_HAL_Driver/Inc/stm32wbxx_ll_system.h **** #if defined(TIM16)
 399:Drivers/STM32WBxx_HAL_Driver/Inc/stm32wbxx_ll_system.h **** #define LL_DBGMCU_APB2_GRP1_TIM16_STOP     DBGMCU_APB2FZR_DBG_TIM16_STOP  /*!< The counter clock of
 400:Drivers/STM32WBxx_HAL_Driver/Inc/stm32wbxx_ll_system.h **** #endif
 401:Drivers/STM32WBxx_HAL_Driver/Inc/stm32wbxx_ll_system.h **** #if defined(TIM17)
 402:Drivers/STM32WBxx_HAL_Driver/Inc/stm32wbxx_ll_system.h **** #define LL_DBGMCU_APB2_GRP1_TIM17_STOP     DBGMCU_APB2FZR_DBG_TIM17_STOP  /*!< The counter clock of
 403:Drivers/STM32WBxx_HAL_Driver/Inc/stm32wbxx_ll_system.h **** #endif
 404:Drivers/STM32WBxx_HAL_Driver/Inc/stm32wbxx_ll_system.h **** /**
 405:Drivers/STM32WBxx_HAL_Driver/Inc/stm32wbxx_ll_system.h ****   * @}
 406:Drivers/STM32WBxx_HAL_Driver/Inc/stm32wbxx_ll_system.h ****   */
 407:Drivers/STM32WBxx_HAL_Driver/Inc/stm32wbxx_ll_system.h **** 
 408:Drivers/STM32WBxx_HAL_Driver/Inc/stm32wbxx_ll_system.h **** /** @defgroup SYSTEM_LL_EC_C2_APB2_GRP1_STOP_IP DBGMCU CPU2 APB2 GRP1 STOP IP
 409:Drivers/STM32WBxx_HAL_Driver/Inc/stm32wbxx_ll_system.h ****   * @{
 410:Drivers/STM32WBxx_HAL_Driver/Inc/stm32wbxx_ll_system.h ****   */
 411:Drivers/STM32WBxx_HAL_Driver/Inc/stm32wbxx_ll_system.h **** #define LL_C2_DBGMCU_APB2_GRP1_TIM1_STOP   DBGMCU_C2APB2FZR_DBG_TIM1_STOP   /*!< The counter clock 
 412:Drivers/STM32WBxx_HAL_Driver/Inc/stm32wbxx_ll_system.h **** #if defined(TIM16)
 413:Drivers/STM32WBxx_HAL_Driver/Inc/stm32wbxx_ll_system.h **** #define LL_C2_DBGMCU_APB2_GRP1_TIM16_STOP  DBGMCU_C2APB2FZR_DBG_TIM16_STOP  /*!< The counter clock 
 414:Drivers/STM32WBxx_HAL_Driver/Inc/stm32wbxx_ll_system.h **** #endif
 415:Drivers/STM32WBxx_HAL_Driver/Inc/stm32wbxx_ll_system.h **** #if defined(TIM17)
 416:Drivers/STM32WBxx_HAL_Driver/Inc/stm32wbxx_ll_system.h **** #define LL_C2_DBGMCU_APB2_GRP1_TIM17_STOP  DBGMCU_C2APB2FZR_DBG_TIM17_STOP  /*!< The counter clock 
 417:Drivers/STM32WBxx_HAL_Driver/Inc/stm32wbxx_ll_system.h **** #endif
 418:Drivers/STM32WBxx_HAL_Driver/Inc/stm32wbxx_ll_system.h **** /**
 419:Drivers/STM32WBxx_HAL_Driver/Inc/stm32wbxx_ll_system.h ****   * @}
 420:Drivers/STM32WBxx_HAL_Driver/Inc/stm32wbxx_ll_system.h ****   */
 421:Drivers/STM32WBxx_HAL_Driver/Inc/stm32wbxx_ll_system.h **** 
 422:Drivers/STM32WBxx_HAL_Driver/Inc/stm32wbxx_ll_system.h **** #if defined(VREFBUF)
 423:Drivers/STM32WBxx_HAL_Driver/Inc/stm32wbxx_ll_system.h **** /** @defgroup SYSTEM_LL_EC_VOLTAGE VREFBUF VOLTAGE
 424:Drivers/STM32WBxx_HAL_Driver/Inc/stm32wbxx_ll_system.h ****   * @{
 425:Drivers/STM32WBxx_HAL_Driver/Inc/stm32wbxx_ll_system.h ****   */
 426:Drivers/STM32WBxx_HAL_Driver/Inc/stm32wbxx_ll_system.h **** #define LL_VREFBUF_VOLTAGE_SCALE0          0x00000000U     /*!< Voltage reference scale 0 (VREF_OUT
 427:Drivers/STM32WBxx_HAL_Driver/Inc/stm32wbxx_ll_system.h **** #define LL_VREFBUF_VOLTAGE_SCALE1          VREFBUF_CSR_VRS /*!< Voltage reference scale 1 (VREF_OUT
 428:Drivers/STM32WBxx_HAL_Driver/Inc/stm32wbxx_ll_system.h **** /**
 429:Drivers/STM32WBxx_HAL_Driver/Inc/stm32wbxx_ll_system.h ****   * @}
 430:Drivers/STM32WBxx_HAL_Driver/Inc/stm32wbxx_ll_system.h ****   */
 431:Drivers/STM32WBxx_HAL_Driver/Inc/stm32wbxx_ll_system.h **** #endif /* VREFBUF */
 432:Drivers/STM32WBxx_HAL_Driver/Inc/stm32wbxx_ll_system.h **** 
 433:Drivers/STM32WBxx_HAL_Driver/Inc/stm32wbxx_ll_system.h **** /** @defgroup SYSTEM_LL_EC_LATENCY FLASH LATENCY
 434:Drivers/STM32WBxx_HAL_Driver/Inc/stm32wbxx_ll_system.h ****   * @{
 435:Drivers/STM32WBxx_HAL_Driver/Inc/stm32wbxx_ll_system.h ****   */
 436:Drivers/STM32WBxx_HAL_Driver/Inc/stm32wbxx_ll_system.h **** #define LL_FLASH_LATENCY_0                 FLASH_ACR_LATENCY_0WS   /*!< FLASH Zero wait state   */
 437:Drivers/STM32WBxx_HAL_Driver/Inc/stm32wbxx_ll_system.h **** #define LL_FLASH_LATENCY_1                 FLASH_ACR_LATENCY_1WS   /*!< FLASH One wait state    */
 438:Drivers/STM32WBxx_HAL_Driver/Inc/stm32wbxx_ll_system.h **** #define LL_FLASH_LATENCY_2                 FLASH_ACR_LATENCY_2WS   /*!< FLASH Two wait states   */
 439:Drivers/STM32WBxx_HAL_Driver/Inc/stm32wbxx_ll_system.h **** #define LL_FLASH_LATENCY_3                 FLASH_ACR_LATENCY_3WS   /*!< FLASH Three wait states */
 440:Drivers/STM32WBxx_HAL_Driver/Inc/stm32wbxx_ll_system.h **** 
 441:Drivers/STM32WBxx_HAL_Driver/Inc/stm32wbxx_ll_system.h **** /**
 442:Drivers/STM32WBxx_HAL_Driver/Inc/stm32wbxx_ll_system.h ****   * @}
 443:Drivers/STM32WBxx_HAL_Driver/Inc/stm32wbxx_ll_system.h ****   */
ARM GAS  /var/folders/lt/l_qrc8c54t93n_phsj7cf5tc0000gn/T//cc5FK5RK.s 			page 33


 444:Drivers/STM32WBxx_HAL_Driver/Inc/stm32wbxx_ll_system.h **** 
 445:Drivers/STM32WBxx_HAL_Driver/Inc/stm32wbxx_ll_system.h **** /**
 446:Drivers/STM32WBxx_HAL_Driver/Inc/stm32wbxx_ll_system.h ****   * @}
 447:Drivers/STM32WBxx_HAL_Driver/Inc/stm32wbxx_ll_system.h ****   */
 448:Drivers/STM32WBxx_HAL_Driver/Inc/stm32wbxx_ll_system.h **** 
 449:Drivers/STM32WBxx_HAL_Driver/Inc/stm32wbxx_ll_system.h **** /* Exported macro ------------------------------------------------------------*/
 450:Drivers/STM32WBxx_HAL_Driver/Inc/stm32wbxx_ll_system.h **** 
 451:Drivers/STM32WBxx_HAL_Driver/Inc/stm32wbxx_ll_system.h **** /* Exported functions --------------------------------------------------------*/
 452:Drivers/STM32WBxx_HAL_Driver/Inc/stm32wbxx_ll_system.h **** /** @defgroup SYSTEM_LL_Exported_Functions SYSTEM Exported Functions
 453:Drivers/STM32WBxx_HAL_Driver/Inc/stm32wbxx_ll_system.h ****   * @{
 454:Drivers/STM32WBxx_HAL_Driver/Inc/stm32wbxx_ll_system.h ****   */
 455:Drivers/STM32WBxx_HAL_Driver/Inc/stm32wbxx_ll_system.h **** 
 456:Drivers/STM32WBxx_HAL_Driver/Inc/stm32wbxx_ll_system.h **** /** @defgroup SYSTEM_LL_EF_SYSCFG SYSCFG
 457:Drivers/STM32WBxx_HAL_Driver/Inc/stm32wbxx_ll_system.h ****   * @{
 458:Drivers/STM32WBxx_HAL_Driver/Inc/stm32wbxx_ll_system.h ****   */
 459:Drivers/STM32WBxx_HAL_Driver/Inc/stm32wbxx_ll_system.h **** 
 460:Drivers/STM32WBxx_HAL_Driver/Inc/stm32wbxx_ll_system.h **** /**
 461:Drivers/STM32WBxx_HAL_Driver/Inc/stm32wbxx_ll_system.h ****   * @brief  Set memory mapping at address 0x00000000
 462:Drivers/STM32WBxx_HAL_Driver/Inc/stm32wbxx_ll_system.h ****   * @rmtoll SYSCFG_MEMRMP MEM_MODE      LL_SYSCFG_SetRemapMemory
 463:Drivers/STM32WBxx_HAL_Driver/Inc/stm32wbxx_ll_system.h ****   * @param  Memory This parameter can be one of the following values:
 464:Drivers/STM32WBxx_HAL_Driver/Inc/stm32wbxx_ll_system.h ****   *         @arg @ref LL_SYSCFG_REMAP_FLASH
 465:Drivers/STM32WBxx_HAL_Driver/Inc/stm32wbxx_ll_system.h ****   *         @arg @ref LL_SYSCFG_REMAP_SYSTEMFLASH
 466:Drivers/STM32WBxx_HAL_Driver/Inc/stm32wbxx_ll_system.h ****   *         @arg @ref LL_SYSCFG_REMAP_SRAM
 467:Drivers/STM32WBxx_HAL_Driver/Inc/stm32wbxx_ll_system.h ****   *         @arg @ref LL_SYSCFG_REMAP_QUADSPI
 468:Drivers/STM32WBxx_HAL_Driver/Inc/stm32wbxx_ll_system.h ****   * @retval None
 469:Drivers/STM32WBxx_HAL_Driver/Inc/stm32wbxx_ll_system.h ****   */
 470:Drivers/STM32WBxx_HAL_Driver/Inc/stm32wbxx_ll_system.h **** __STATIC_INLINE void LL_SYSCFG_SetRemapMemory(uint32_t Memory)
 471:Drivers/STM32WBxx_HAL_Driver/Inc/stm32wbxx_ll_system.h **** {
 472:Drivers/STM32WBxx_HAL_Driver/Inc/stm32wbxx_ll_system.h ****   MODIFY_REG(SYSCFG->MEMRMP, SYSCFG_MEMRMP_MEM_MODE, Memory);
 473:Drivers/STM32WBxx_HAL_Driver/Inc/stm32wbxx_ll_system.h **** }
 474:Drivers/STM32WBxx_HAL_Driver/Inc/stm32wbxx_ll_system.h **** 
 475:Drivers/STM32WBxx_HAL_Driver/Inc/stm32wbxx_ll_system.h **** /**
 476:Drivers/STM32WBxx_HAL_Driver/Inc/stm32wbxx_ll_system.h ****   * @brief  Get memory mapping at address 0x00000000
 477:Drivers/STM32WBxx_HAL_Driver/Inc/stm32wbxx_ll_system.h ****   * @rmtoll SYSCFG_MEMRMP MEM_MODE      LL_SYSCFG_GetRemapMemory
 478:Drivers/STM32WBxx_HAL_Driver/Inc/stm32wbxx_ll_system.h ****   * @retval Returned value can be one of the following values:
 479:Drivers/STM32WBxx_HAL_Driver/Inc/stm32wbxx_ll_system.h ****   *         @arg @ref LL_SYSCFG_REMAP_FLASH
 480:Drivers/STM32WBxx_HAL_Driver/Inc/stm32wbxx_ll_system.h ****   *         @arg @ref LL_SYSCFG_REMAP_SYSTEMFLASH
 481:Drivers/STM32WBxx_HAL_Driver/Inc/stm32wbxx_ll_system.h ****   *         @arg @ref LL_SYSCFG_REMAP_SRAM
 482:Drivers/STM32WBxx_HAL_Driver/Inc/stm32wbxx_ll_system.h ****   *         @arg @ref LL_SYSCFG_REMAP_QUADSPI
 483:Drivers/STM32WBxx_HAL_Driver/Inc/stm32wbxx_ll_system.h ****   */
 484:Drivers/STM32WBxx_HAL_Driver/Inc/stm32wbxx_ll_system.h **** __STATIC_INLINE uint32_t LL_SYSCFG_GetRemapMemory(void)
 485:Drivers/STM32WBxx_HAL_Driver/Inc/stm32wbxx_ll_system.h **** {
 486:Drivers/STM32WBxx_HAL_Driver/Inc/stm32wbxx_ll_system.h ****   return (uint32_t)(READ_BIT(SYSCFG->MEMRMP, SYSCFG_MEMRMP_MEM_MODE));
 487:Drivers/STM32WBxx_HAL_Driver/Inc/stm32wbxx_ll_system.h **** }
 488:Drivers/STM32WBxx_HAL_Driver/Inc/stm32wbxx_ll_system.h **** 
 489:Drivers/STM32WBxx_HAL_Driver/Inc/stm32wbxx_ll_system.h **** /**
 490:Drivers/STM32WBxx_HAL_Driver/Inc/stm32wbxx_ll_system.h ****   * @brief  Enable I/O analog switch voltage booster.
 491:Drivers/STM32WBxx_HAL_Driver/Inc/stm32wbxx_ll_system.h ****   * @note   When voltage booster is enabled, I/O analog switches are supplied
 492:Drivers/STM32WBxx_HAL_Driver/Inc/stm32wbxx_ll_system.h ****   *         by a dedicated voltage booster, from VDD power domain. This is
 493:Drivers/STM32WBxx_HAL_Driver/Inc/stm32wbxx_ll_system.h ****   *         the recommended configuration with low VDDA voltage operation.
 494:Drivers/STM32WBxx_HAL_Driver/Inc/stm32wbxx_ll_system.h ****   * @note   The I/O analog switch voltage booster is relevant for peripherals
 495:Drivers/STM32WBxx_HAL_Driver/Inc/stm32wbxx_ll_system.h ****   *         using I/O in analog input: ADC and COMP.
 496:Drivers/STM32WBxx_HAL_Driver/Inc/stm32wbxx_ll_system.h ****   *         However, COMP inputs have a high impedance and
 497:Drivers/STM32WBxx_HAL_Driver/Inc/stm32wbxx_ll_system.h ****   *         voltage booster do not impact performance significantly.
 498:Drivers/STM32WBxx_HAL_Driver/Inc/stm32wbxx_ll_system.h ****   *         Therefore, the voltage booster is mainly intended for
 499:Drivers/STM32WBxx_HAL_Driver/Inc/stm32wbxx_ll_system.h ****   *         usage with ADC.
 500:Drivers/STM32WBxx_HAL_Driver/Inc/stm32wbxx_ll_system.h ****   * @rmtoll SYSCFG_CFGR1 BOOSTEN       LL_SYSCFG_EnableAnalogBooster
ARM GAS  /var/folders/lt/l_qrc8c54t93n_phsj7cf5tc0000gn/T//cc5FK5RK.s 			page 34


 501:Drivers/STM32WBxx_HAL_Driver/Inc/stm32wbxx_ll_system.h ****   * @retval None
 502:Drivers/STM32WBxx_HAL_Driver/Inc/stm32wbxx_ll_system.h ****   */
 503:Drivers/STM32WBxx_HAL_Driver/Inc/stm32wbxx_ll_system.h **** __STATIC_INLINE void LL_SYSCFG_EnableAnalogBooster(void)
 504:Drivers/STM32WBxx_HAL_Driver/Inc/stm32wbxx_ll_system.h **** {
 505:Drivers/STM32WBxx_HAL_Driver/Inc/stm32wbxx_ll_system.h ****   SET_BIT(SYSCFG->CFGR1, SYSCFG_CFGR1_BOOSTEN);
 506:Drivers/STM32WBxx_HAL_Driver/Inc/stm32wbxx_ll_system.h **** }
 507:Drivers/STM32WBxx_HAL_Driver/Inc/stm32wbxx_ll_system.h **** 
 508:Drivers/STM32WBxx_HAL_Driver/Inc/stm32wbxx_ll_system.h **** /**
 509:Drivers/STM32WBxx_HAL_Driver/Inc/stm32wbxx_ll_system.h ****   * @brief  Disable I/O analog switch voltage booster.
 510:Drivers/STM32WBxx_HAL_Driver/Inc/stm32wbxx_ll_system.h ****   * @note   When voltage booster is enabled, I/O analog switches are supplied
 511:Drivers/STM32WBxx_HAL_Driver/Inc/stm32wbxx_ll_system.h ****   *         by a dedicated voltage booster, from VDD power domain. This is
 512:Drivers/STM32WBxx_HAL_Driver/Inc/stm32wbxx_ll_system.h ****   *         the recommended configuration with low VDDA voltage operation.
 513:Drivers/STM32WBxx_HAL_Driver/Inc/stm32wbxx_ll_system.h ****   * @note   The I/O analog switch voltage booster is relevant for peripherals
 514:Drivers/STM32WBxx_HAL_Driver/Inc/stm32wbxx_ll_system.h ****   *         using I/O in analog input: ADC and COMP.
 515:Drivers/STM32WBxx_HAL_Driver/Inc/stm32wbxx_ll_system.h ****   *         However, COMP inputs have a high impedance and
 516:Drivers/STM32WBxx_HAL_Driver/Inc/stm32wbxx_ll_system.h ****   *         voltage booster do not impact performance significantly.
 517:Drivers/STM32WBxx_HAL_Driver/Inc/stm32wbxx_ll_system.h ****   *         Therefore, the voltage booster is mainly intended for
 518:Drivers/STM32WBxx_HAL_Driver/Inc/stm32wbxx_ll_system.h ****   *         usage with ADC.
 519:Drivers/STM32WBxx_HAL_Driver/Inc/stm32wbxx_ll_system.h ****   * @rmtoll SYSCFG_CFGR1 BOOSTEN       LL_SYSCFG_DisableAnalogBooster
 520:Drivers/STM32WBxx_HAL_Driver/Inc/stm32wbxx_ll_system.h ****   * @retval None
 521:Drivers/STM32WBxx_HAL_Driver/Inc/stm32wbxx_ll_system.h ****   */
 522:Drivers/STM32WBxx_HAL_Driver/Inc/stm32wbxx_ll_system.h **** __STATIC_INLINE void LL_SYSCFG_DisableAnalogBooster(void)
 523:Drivers/STM32WBxx_HAL_Driver/Inc/stm32wbxx_ll_system.h **** {
 524:Drivers/STM32WBxx_HAL_Driver/Inc/stm32wbxx_ll_system.h ****   CLEAR_BIT(SYSCFG->CFGR1, SYSCFG_CFGR1_BOOSTEN);
 525:Drivers/STM32WBxx_HAL_Driver/Inc/stm32wbxx_ll_system.h **** }
 526:Drivers/STM32WBxx_HAL_Driver/Inc/stm32wbxx_ll_system.h **** 
 527:Drivers/STM32WBxx_HAL_Driver/Inc/stm32wbxx_ll_system.h **** #if defined(SYSCFG_CFGR1_ANASWVDD)
 528:Drivers/STM32WBxx_HAL_Driver/Inc/stm32wbxx_ll_system.h **** /**
 529:Drivers/STM32WBxx_HAL_Driver/Inc/stm32wbxx_ll_system.h ****   * @brief  Enable the Analog GPIO switch to control voltage selection
 530:Drivers/STM32WBxx_HAL_Driver/Inc/stm32wbxx_ll_system.h ****   *         when the supply voltage is supplied by VDDA
 531:Drivers/STM32WBxx_HAL_Driver/Inc/stm32wbxx_ll_system.h ****   * @rmtoll SYSCFG_CFGR1   ANASWVDD   LL_SYSCFG_EnableAnalogGpioSwitch
 532:Drivers/STM32WBxx_HAL_Driver/Inc/stm32wbxx_ll_system.h ****   * @note   Activating the gpio switch enable IOs analog switches supplied by VDDA
 533:Drivers/STM32WBxx_HAL_Driver/Inc/stm32wbxx_ll_system.h ****   * @retval None
 534:Drivers/STM32WBxx_HAL_Driver/Inc/stm32wbxx_ll_system.h ****   */
 535:Drivers/STM32WBxx_HAL_Driver/Inc/stm32wbxx_ll_system.h **** __STATIC_INLINE void LL_SYSCFG_EnableAnalogGpioSwitch(void)
 536:Drivers/STM32WBxx_HAL_Driver/Inc/stm32wbxx_ll_system.h **** {
 537:Drivers/STM32WBxx_HAL_Driver/Inc/stm32wbxx_ll_system.h ****   SET_BIT(SYSCFG->CFGR1, SYSCFG_CFGR1_ANASWVDD);
 538:Drivers/STM32WBxx_HAL_Driver/Inc/stm32wbxx_ll_system.h **** }
 539:Drivers/STM32WBxx_HAL_Driver/Inc/stm32wbxx_ll_system.h **** 
 540:Drivers/STM32WBxx_HAL_Driver/Inc/stm32wbxx_ll_system.h **** /**
 541:Drivers/STM32WBxx_HAL_Driver/Inc/stm32wbxx_ll_system.h ****   * @brief  Disable the Analog GPIO switch to control voltage selection
 542:Drivers/STM32WBxx_HAL_Driver/Inc/stm32wbxx_ll_system.h ****   *         when the supply voltage is supplied by VDDA
 543:Drivers/STM32WBxx_HAL_Driver/Inc/stm32wbxx_ll_system.h ****   * @rmtoll SYSCFG_CFGR1   ANASWVDD   LL_SYSCFG_DisableAnalogGpioSwitch
 544:Drivers/STM32WBxx_HAL_Driver/Inc/stm32wbxx_ll_system.h ****   * @note   Activating the gpio switch enable IOs analog switches supplied by VDDA
 545:Drivers/STM32WBxx_HAL_Driver/Inc/stm32wbxx_ll_system.h ****   * @retval None
 546:Drivers/STM32WBxx_HAL_Driver/Inc/stm32wbxx_ll_system.h ****   */
 547:Drivers/STM32WBxx_HAL_Driver/Inc/stm32wbxx_ll_system.h **** __STATIC_INLINE void LL_SYSCFG_DisableAnalogGpioSwitch(void)
 548:Drivers/STM32WBxx_HAL_Driver/Inc/stm32wbxx_ll_system.h **** {
 549:Drivers/STM32WBxx_HAL_Driver/Inc/stm32wbxx_ll_system.h ****   CLEAR_BIT(SYSCFG->CFGR1, SYSCFG_CFGR1_ANASWVDD);
 550:Drivers/STM32WBxx_HAL_Driver/Inc/stm32wbxx_ll_system.h **** }
 551:Drivers/STM32WBxx_HAL_Driver/Inc/stm32wbxx_ll_system.h **** #endif
 552:Drivers/STM32WBxx_HAL_Driver/Inc/stm32wbxx_ll_system.h **** 
 553:Drivers/STM32WBxx_HAL_Driver/Inc/stm32wbxx_ll_system.h **** /**
 554:Drivers/STM32WBxx_HAL_Driver/Inc/stm32wbxx_ll_system.h ****   * @brief  Enable the I2C fast mode plus driving capability.
 555:Drivers/STM32WBxx_HAL_Driver/Inc/stm32wbxx_ll_system.h ****   * @rmtoll SYSCFG_CFGR1 I2C_PBx_FMP   LL_SYSCFG_EnableFastModePlus\n
 556:Drivers/STM32WBxx_HAL_Driver/Inc/stm32wbxx_ll_system.h ****   *         SYSCFG_CFGR1 I2Cx_FMP      LL_SYSCFG_EnableFastModePlus
 557:Drivers/STM32WBxx_HAL_Driver/Inc/stm32wbxx_ll_system.h ****   * @param  ConfigFastModePlus This parameter can be a combination of the following values:
ARM GAS  /var/folders/lt/l_qrc8c54t93n_phsj7cf5tc0000gn/T//cc5FK5RK.s 			page 35


 558:Drivers/STM32WBxx_HAL_Driver/Inc/stm32wbxx_ll_system.h ****   *         @arg @ref LL_SYSCFG_I2C_FASTMODEPLUS_PB6
 559:Drivers/STM32WBxx_HAL_Driver/Inc/stm32wbxx_ll_system.h ****   *         @arg @ref LL_SYSCFG_I2C_FASTMODEPLUS_PB7
 560:Drivers/STM32WBxx_HAL_Driver/Inc/stm32wbxx_ll_system.h ****   *         @arg @ref LL_SYSCFG_I2C_FASTMODEPLUS_PB8
 561:Drivers/STM32WBxx_HAL_Driver/Inc/stm32wbxx_ll_system.h ****   *         @arg @ref LL_SYSCFG_I2C_FASTMODEPLUS_PB9
 562:Drivers/STM32WBxx_HAL_Driver/Inc/stm32wbxx_ll_system.h ****   *         @arg @ref LL_SYSCFG_I2C_FASTMODEPLUS_I2C1
 563:Drivers/STM32WBxx_HAL_Driver/Inc/stm32wbxx_ll_system.h ****   *         @arg @ref LL_SYSCFG_I2C_FASTMODEPLUS_I2C3
 564:Drivers/STM32WBxx_HAL_Driver/Inc/stm32wbxx_ll_system.h ****   * @retval None
 565:Drivers/STM32WBxx_HAL_Driver/Inc/stm32wbxx_ll_system.h ****   */
 566:Drivers/STM32WBxx_HAL_Driver/Inc/stm32wbxx_ll_system.h **** __STATIC_INLINE void LL_SYSCFG_EnableFastModePlus(uint32_t ConfigFastModePlus)
 567:Drivers/STM32WBxx_HAL_Driver/Inc/stm32wbxx_ll_system.h **** {
 568:Drivers/STM32WBxx_HAL_Driver/Inc/stm32wbxx_ll_system.h ****   SET_BIT(SYSCFG->CFGR1, ConfigFastModePlus);
 569:Drivers/STM32WBxx_HAL_Driver/Inc/stm32wbxx_ll_system.h **** }
 570:Drivers/STM32WBxx_HAL_Driver/Inc/stm32wbxx_ll_system.h **** 
 571:Drivers/STM32WBxx_HAL_Driver/Inc/stm32wbxx_ll_system.h **** /**
 572:Drivers/STM32WBxx_HAL_Driver/Inc/stm32wbxx_ll_system.h ****   * @brief  Disable the I2C fast mode plus driving capability.
 573:Drivers/STM32WBxx_HAL_Driver/Inc/stm32wbxx_ll_system.h ****   * @rmtoll SYSCFG_CFGR1 I2C_PBx_FMP   LL_SYSCFG_DisableFastModePlus\n
 574:Drivers/STM32WBxx_HAL_Driver/Inc/stm32wbxx_ll_system.h ****   *         SYSCFG_CFGR1 I2Cx_FMP      LL_SYSCFG_DisableFastModePlus
 575:Drivers/STM32WBxx_HAL_Driver/Inc/stm32wbxx_ll_system.h ****   * @param  ConfigFastModePlus This parameter can be a combination of the following values:
 576:Drivers/STM32WBxx_HAL_Driver/Inc/stm32wbxx_ll_system.h ****   *         @arg @ref LL_SYSCFG_I2C_FASTMODEPLUS_PB6
 577:Drivers/STM32WBxx_HAL_Driver/Inc/stm32wbxx_ll_system.h ****   *         @arg @ref LL_SYSCFG_I2C_FASTMODEPLUS_PB7
 578:Drivers/STM32WBxx_HAL_Driver/Inc/stm32wbxx_ll_system.h ****   *         @arg @ref LL_SYSCFG_I2C_FASTMODEPLUS_PB8
 579:Drivers/STM32WBxx_HAL_Driver/Inc/stm32wbxx_ll_system.h ****   *         @arg @ref LL_SYSCFG_I2C_FASTMODEPLUS_PB9
 580:Drivers/STM32WBxx_HAL_Driver/Inc/stm32wbxx_ll_system.h ****   *         @arg @ref LL_SYSCFG_I2C_FASTMODEPLUS_I2C1
 581:Drivers/STM32WBxx_HAL_Driver/Inc/stm32wbxx_ll_system.h ****   *         @arg @ref LL_SYSCFG_I2C_FASTMODEPLUS_I2C3
 582:Drivers/STM32WBxx_HAL_Driver/Inc/stm32wbxx_ll_system.h ****   * @retval None
 583:Drivers/STM32WBxx_HAL_Driver/Inc/stm32wbxx_ll_system.h ****   */
 584:Drivers/STM32WBxx_HAL_Driver/Inc/stm32wbxx_ll_system.h **** __STATIC_INLINE void LL_SYSCFG_DisableFastModePlus(uint32_t ConfigFastModePlus)
 585:Drivers/STM32WBxx_HAL_Driver/Inc/stm32wbxx_ll_system.h **** {
 586:Drivers/STM32WBxx_HAL_Driver/Inc/stm32wbxx_ll_system.h ****   CLEAR_BIT(SYSCFG->CFGR1, ConfigFastModePlus);
 587:Drivers/STM32WBxx_HAL_Driver/Inc/stm32wbxx_ll_system.h **** }
 588:Drivers/STM32WBxx_HAL_Driver/Inc/stm32wbxx_ll_system.h **** 
 589:Drivers/STM32WBxx_HAL_Driver/Inc/stm32wbxx_ll_system.h **** /**
 590:Drivers/STM32WBxx_HAL_Driver/Inc/stm32wbxx_ll_system.h ****   * @brief  Enable Floating Point Unit Invalid operation Interrupt
 591:Drivers/STM32WBxx_HAL_Driver/Inc/stm32wbxx_ll_system.h ****   * @rmtoll SYSCFG_CFGR1 FPU_IE_0      LL_SYSCFG_EnableIT_FPU_IOC
 592:Drivers/STM32WBxx_HAL_Driver/Inc/stm32wbxx_ll_system.h ****   * @retval None
 593:Drivers/STM32WBxx_HAL_Driver/Inc/stm32wbxx_ll_system.h ****   */
 594:Drivers/STM32WBxx_HAL_Driver/Inc/stm32wbxx_ll_system.h **** __STATIC_INLINE void LL_SYSCFG_EnableIT_FPU_IOC(void)
 595:Drivers/STM32WBxx_HAL_Driver/Inc/stm32wbxx_ll_system.h **** {
 596:Drivers/STM32WBxx_HAL_Driver/Inc/stm32wbxx_ll_system.h ****   SET_BIT(SYSCFG->CFGR1, SYSCFG_CFGR1_FPU_IE_0);
 597:Drivers/STM32WBxx_HAL_Driver/Inc/stm32wbxx_ll_system.h **** }
 598:Drivers/STM32WBxx_HAL_Driver/Inc/stm32wbxx_ll_system.h **** 
 599:Drivers/STM32WBxx_HAL_Driver/Inc/stm32wbxx_ll_system.h **** /**
 600:Drivers/STM32WBxx_HAL_Driver/Inc/stm32wbxx_ll_system.h ****   * @brief  Enable Floating Point Unit Divide-by-zero Interrupt
 601:Drivers/STM32WBxx_HAL_Driver/Inc/stm32wbxx_ll_system.h ****   * @rmtoll SYSCFG_CFGR1 FPU_IE_1      LL_SYSCFG_EnableIT_FPU_DZC
 602:Drivers/STM32WBxx_HAL_Driver/Inc/stm32wbxx_ll_system.h ****   * @retval None
 603:Drivers/STM32WBxx_HAL_Driver/Inc/stm32wbxx_ll_system.h ****   */
 604:Drivers/STM32WBxx_HAL_Driver/Inc/stm32wbxx_ll_system.h **** __STATIC_INLINE void LL_SYSCFG_EnableIT_FPU_DZC(void)
 605:Drivers/STM32WBxx_HAL_Driver/Inc/stm32wbxx_ll_system.h **** {
 606:Drivers/STM32WBxx_HAL_Driver/Inc/stm32wbxx_ll_system.h ****   SET_BIT(SYSCFG->CFGR1, SYSCFG_CFGR1_FPU_IE_1);
 607:Drivers/STM32WBxx_HAL_Driver/Inc/stm32wbxx_ll_system.h **** }
 608:Drivers/STM32WBxx_HAL_Driver/Inc/stm32wbxx_ll_system.h **** 
 609:Drivers/STM32WBxx_HAL_Driver/Inc/stm32wbxx_ll_system.h **** /**
 610:Drivers/STM32WBxx_HAL_Driver/Inc/stm32wbxx_ll_system.h ****   * @brief  Enable Floating Point Unit Underflow Interrupt
 611:Drivers/STM32WBxx_HAL_Driver/Inc/stm32wbxx_ll_system.h ****   * @rmtoll SYSCFG_CFGR1 FPU_IE_2      LL_SYSCFG_EnableIT_FPU_UFC
 612:Drivers/STM32WBxx_HAL_Driver/Inc/stm32wbxx_ll_system.h ****   * @retval None
 613:Drivers/STM32WBxx_HAL_Driver/Inc/stm32wbxx_ll_system.h ****   */
 614:Drivers/STM32WBxx_HAL_Driver/Inc/stm32wbxx_ll_system.h **** __STATIC_INLINE void LL_SYSCFG_EnableIT_FPU_UFC(void)
ARM GAS  /var/folders/lt/l_qrc8c54t93n_phsj7cf5tc0000gn/T//cc5FK5RK.s 			page 36


 615:Drivers/STM32WBxx_HAL_Driver/Inc/stm32wbxx_ll_system.h **** {
 616:Drivers/STM32WBxx_HAL_Driver/Inc/stm32wbxx_ll_system.h ****   SET_BIT(SYSCFG->CFGR1, SYSCFG_CFGR1_FPU_IE_2);
 617:Drivers/STM32WBxx_HAL_Driver/Inc/stm32wbxx_ll_system.h **** }
 618:Drivers/STM32WBxx_HAL_Driver/Inc/stm32wbxx_ll_system.h **** 
 619:Drivers/STM32WBxx_HAL_Driver/Inc/stm32wbxx_ll_system.h **** /**
 620:Drivers/STM32WBxx_HAL_Driver/Inc/stm32wbxx_ll_system.h ****   * @brief  Enable Floating Point Unit Overflow Interrupt
 621:Drivers/STM32WBxx_HAL_Driver/Inc/stm32wbxx_ll_system.h ****   * @rmtoll SYSCFG_CFGR1 FPU_IE_3      LL_SYSCFG_EnableIT_FPU_OFC
 622:Drivers/STM32WBxx_HAL_Driver/Inc/stm32wbxx_ll_system.h ****   * @retval None
 623:Drivers/STM32WBxx_HAL_Driver/Inc/stm32wbxx_ll_system.h ****   */
 624:Drivers/STM32WBxx_HAL_Driver/Inc/stm32wbxx_ll_system.h **** __STATIC_INLINE void LL_SYSCFG_EnableIT_FPU_OFC(void)
 625:Drivers/STM32WBxx_HAL_Driver/Inc/stm32wbxx_ll_system.h **** {
 626:Drivers/STM32WBxx_HAL_Driver/Inc/stm32wbxx_ll_system.h ****   SET_BIT(SYSCFG->CFGR1, SYSCFG_CFGR1_FPU_IE_3);
 627:Drivers/STM32WBxx_HAL_Driver/Inc/stm32wbxx_ll_system.h **** }
 628:Drivers/STM32WBxx_HAL_Driver/Inc/stm32wbxx_ll_system.h **** 
 629:Drivers/STM32WBxx_HAL_Driver/Inc/stm32wbxx_ll_system.h **** /**
 630:Drivers/STM32WBxx_HAL_Driver/Inc/stm32wbxx_ll_system.h ****   * @brief  Enable Floating Point Unit Input denormal Interrupt
 631:Drivers/STM32WBxx_HAL_Driver/Inc/stm32wbxx_ll_system.h ****   * @rmtoll SYSCFG_CFGR1 FPU_IE_4      LL_SYSCFG_EnableIT_FPU_IDC
 632:Drivers/STM32WBxx_HAL_Driver/Inc/stm32wbxx_ll_system.h ****   * @retval None
 633:Drivers/STM32WBxx_HAL_Driver/Inc/stm32wbxx_ll_system.h ****   */
 634:Drivers/STM32WBxx_HAL_Driver/Inc/stm32wbxx_ll_system.h **** __STATIC_INLINE void LL_SYSCFG_EnableIT_FPU_IDC(void)
 635:Drivers/STM32WBxx_HAL_Driver/Inc/stm32wbxx_ll_system.h **** {
 636:Drivers/STM32WBxx_HAL_Driver/Inc/stm32wbxx_ll_system.h ****   SET_BIT(SYSCFG->CFGR1, SYSCFG_CFGR1_FPU_IE_4);
 637:Drivers/STM32WBxx_HAL_Driver/Inc/stm32wbxx_ll_system.h **** }
 638:Drivers/STM32WBxx_HAL_Driver/Inc/stm32wbxx_ll_system.h **** 
 639:Drivers/STM32WBxx_HAL_Driver/Inc/stm32wbxx_ll_system.h **** /**
 640:Drivers/STM32WBxx_HAL_Driver/Inc/stm32wbxx_ll_system.h ****   * @brief  Enable Floating Point Unit Inexact Interrupt
 641:Drivers/STM32WBxx_HAL_Driver/Inc/stm32wbxx_ll_system.h ****   * @rmtoll SYSCFG_CFGR1 FPU_IE_5      LL_SYSCFG_EnableIT_FPU_IXC
 642:Drivers/STM32WBxx_HAL_Driver/Inc/stm32wbxx_ll_system.h ****   * @retval None
 643:Drivers/STM32WBxx_HAL_Driver/Inc/stm32wbxx_ll_system.h ****   */
 644:Drivers/STM32WBxx_HAL_Driver/Inc/stm32wbxx_ll_system.h **** __STATIC_INLINE void LL_SYSCFG_EnableIT_FPU_IXC(void)
 645:Drivers/STM32WBxx_HAL_Driver/Inc/stm32wbxx_ll_system.h **** {
 646:Drivers/STM32WBxx_HAL_Driver/Inc/stm32wbxx_ll_system.h ****   SET_BIT(SYSCFG->CFGR1, SYSCFG_CFGR1_FPU_IE_5);
 647:Drivers/STM32WBxx_HAL_Driver/Inc/stm32wbxx_ll_system.h **** }
 648:Drivers/STM32WBxx_HAL_Driver/Inc/stm32wbxx_ll_system.h **** 
 649:Drivers/STM32WBxx_HAL_Driver/Inc/stm32wbxx_ll_system.h **** /**
 650:Drivers/STM32WBxx_HAL_Driver/Inc/stm32wbxx_ll_system.h ****   * @brief  Disable Floating Point Unit Invalid operation Interrupt
 651:Drivers/STM32WBxx_HAL_Driver/Inc/stm32wbxx_ll_system.h ****   * @rmtoll SYSCFG_CFGR1 FPU_IE_0      LL_SYSCFG_DisableIT_FPU_IOC
 652:Drivers/STM32WBxx_HAL_Driver/Inc/stm32wbxx_ll_system.h ****   * @retval None
 653:Drivers/STM32WBxx_HAL_Driver/Inc/stm32wbxx_ll_system.h ****   */
 654:Drivers/STM32WBxx_HAL_Driver/Inc/stm32wbxx_ll_system.h **** __STATIC_INLINE void LL_SYSCFG_DisableIT_FPU_IOC(void)
 655:Drivers/STM32WBxx_HAL_Driver/Inc/stm32wbxx_ll_system.h **** {
 656:Drivers/STM32WBxx_HAL_Driver/Inc/stm32wbxx_ll_system.h ****   CLEAR_BIT(SYSCFG->CFGR1, SYSCFG_CFGR1_FPU_IE_0);
 657:Drivers/STM32WBxx_HAL_Driver/Inc/stm32wbxx_ll_system.h **** }
 658:Drivers/STM32WBxx_HAL_Driver/Inc/stm32wbxx_ll_system.h **** 
 659:Drivers/STM32WBxx_HAL_Driver/Inc/stm32wbxx_ll_system.h **** /**
 660:Drivers/STM32WBxx_HAL_Driver/Inc/stm32wbxx_ll_system.h ****   * @brief  Disable Floating Point Unit Divide-by-zero Interrupt
 661:Drivers/STM32WBxx_HAL_Driver/Inc/stm32wbxx_ll_system.h ****   * @rmtoll SYSCFG_CFGR1 FPU_IE_1      LL_SYSCFG_DisableIT_FPU_DZC
 662:Drivers/STM32WBxx_HAL_Driver/Inc/stm32wbxx_ll_system.h ****   * @retval None
 663:Drivers/STM32WBxx_HAL_Driver/Inc/stm32wbxx_ll_system.h ****   */
 664:Drivers/STM32WBxx_HAL_Driver/Inc/stm32wbxx_ll_system.h **** __STATIC_INLINE void LL_SYSCFG_DisableIT_FPU_DZC(void)
 665:Drivers/STM32WBxx_HAL_Driver/Inc/stm32wbxx_ll_system.h **** {
 666:Drivers/STM32WBxx_HAL_Driver/Inc/stm32wbxx_ll_system.h ****   CLEAR_BIT(SYSCFG->CFGR1, SYSCFG_CFGR1_FPU_IE_1);
 667:Drivers/STM32WBxx_HAL_Driver/Inc/stm32wbxx_ll_system.h **** }
 668:Drivers/STM32WBxx_HAL_Driver/Inc/stm32wbxx_ll_system.h **** 
 669:Drivers/STM32WBxx_HAL_Driver/Inc/stm32wbxx_ll_system.h **** /**
 670:Drivers/STM32WBxx_HAL_Driver/Inc/stm32wbxx_ll_system.h ****   * @brief  Disable Floating Point Unit Underflow Interrupt
 671:Drivers/STM32WBxx_HAL_Driver/Inc/stm32wbxx_ll_system.h ****   * @rmtoll SYSCFG_CFGR1 FPU_IE_2      LL_SYSCFG_DisableIT_FPU_UFC
ARM GAS  /var/folders/lt/l_qrc8c54t93n_phsj7cf5tc0000gn/T//cc5FK5RK.s 			page 37


 672:Drivers/STM32WBxx_HAL_Driver/Inc/stm32wbxx_ll_system.h ****   * @retval None
 673:Drivers/STM32WBxx_HAL_Driver/Inc/stm32wbxx_ll_system.h ****   */
 674:Drivers/STM32WBxx_HAL_Driver/Inc/stm32wbxx_ll_system.h **** __STATIC_INLINE void LL_SYSCFG_DisableIT_FPU_UFC(void)
 675:Drivers/STM32WBxx_HAL_Driver/Inc/stm32wbxx_ll_system.h **** {
 676:Drivers/STM32WBxx_HAL_Driver/Inc/stm32wbxx_ll_system.h ****   CLEAR_BIT(SYSCFG->CFGR1, SYSCFG_CFGR1_FPU_IE_2);
 677:Drivers/STM32WBxx_HAL_Driver/Inc/stm32wbxx_ll_system.h **** }
 678:Drivers/STM32WBxx_HAL_Driver/Inc/stm32wbxx_ll_system.h **** 
 679:Drivers/STM32WBxx_HAL_Driver/Inc/stm32wbxx_ll_system.h **** /**
 680:Drivers/STM32WBxx_HAL_Driver/Inc/stm32wbxx_ll_system.h ****   * @brief  Disable Floating Point Unit Overflow Interrupt
 681:Drivers/STM32WBxx_HAL_Driver/Inc/stm32wbxx_ll_system.h ****   * @rmtoll SYSCFG_CFGR1 FPU_IE_3      LL_SYSCFG_DisableIT_FPU_OFC
 682:Drivers/STM32WBxx_HAL_Driver/Inc/stm32wbxx_ll_system.h ****   * @retval None
 683:Drivers/STM32WBxx_HAL_Driver/Inc/stm32wbxx_ll_system.h ****   */
 684:Drivers/STM32WBxx_HAL_Driver/Inc/stm32wbxx_ll_system.h **** __STATIC_INLINE void LL_SYSCFG_DisableIT_FPU_OFC(void)
 685:Drivers/STM32WBxx_HAL_Driver/Inc/stm32wbxx_ll_system.h **** {
 686:Drivers/STM32WBxx_HAL_Driver/Inc/stm32wbxx_ll_system.h ****   CLEAR_BIT(SYSCFG->CFGR1, SYSCFG_CFGR1_FPU_IE_3);
 687:Drivers/STM32WBxx_HAL_Driver/Inc/stm32wbxx_ll_system.h **** }
 688:Drivers/STM32WBxx_HAL_Driver/Inc/stm32wbxx_ll_system.h **** 
 689:Drivers/STM32WBxx_HAL_Driver/Inc/stm32wbxx_ll_system.h **** /**
 690:Drivers/STM32WBxx_HAL_Driver/Inc/stm32wbxx_ll_system.h ****   * @brief  Disable Floating Point Unit Input denormal Interrupt
 691:Drivers/STM32WBxx_HAL_Driver/Inc/stm32wbxx_ll_system.h ****   * @rmtoll SYSCFG_CFGR1 FPU_IE_4      LL_SYSCFG_DisableIT_FPU_IDC
 692:Drivers/STM32WBxx_HAL_Driver/Inc/stm32wbxx_ll_system.h ****   * @retval None
 693:Drivers/STM32WBxx_HAL_Driver/Inc/stm32wbxx_ll_system.h ****   */
 694:Drivers/STM32WBxx_HAL_Driver/Inc/stm32wbxx_ll_system.h **** __STATIC_INLINE void LL_SYSCFG_DisableIT_FPU_IDC(void)
 695:Drivers/STM32WBxx_HAL_Driver/Inc/stm32wbxx_ll_system.h **** {
 696:Drivers/STM32WBxx_HAL_Driver/Inc/stm32wbxx_ll_system.h ****   CLEAR_BIT(SYSCFG->CFGR1, SYSCFG_CFGR1_FPU_IE_4);
 697:Drivers/STM32WBxx_HAL_Driver/Inc/stm32wbxx_ll_system.h **** }
 698:Drivers/STM32WBxx_HAL_Driver/Inc/stm32wbxx_ll_system.h **** 
 699:Drivers/STM32WBxx_HAL_Driver/Inc/stm32wbxx_ll_system.h **** /**
 700:Drivers/STM32WBxx_HAL_Driver/Inc/stm32wbxx_ll_system.h ****   * @brief  Disable Floating Point Unit Inexact Interrupt
 701:Drivers/STM32WBxx_HAL_Driver/Inc/stm32wbxx_ll_system.h ****   * @rmtoll SYSCFG_CFGR1 FPU_IE_5      LL_SYSCFG_DisableIT_FPU_IXC
 702:Drivers/STM32WBxx_HAL_Driver/Inc/stm32wbxx_ll_system.h ****   * @retval None
 703:Drivers/STM32WBxx_HAL_Driver/Inc/stm32wbxx_ll_system.h ****   */
 704:Drivers/STM32WBxx_HAL_Driver/Inc/stm32wbxx_ll_system.h **** __STATIC_INLINE void LL_SYSCFG_DisableIT_FPU_IXC(void)
 705:Drivers/STM32WBxx_HAL_Driver/Inc/stm32wbxx_ll_system.h **** {
 706:Drivers/STM32WBxx_HAL_Driver/Inc/stm32wbxx_ll_system.h ****   CLEAR_BIT(SYSCFG->CFGR1, SYSCFG_CFGR1_FPU_IE_5);
 707:Drivers/STM32WBxx_HAL_Driver/Inc/stm32wbxx_ll_system.h **** }
 708:Drivers/STM32WBxx_HAL_Driver/Inc/stm32wbxx_ll_system.h **** 
 709:Drivers/STM32WBxx_HAL_Driver/Inc/stm32wbxx_ll_system.h **** /**
 710:Drivers/STM32WBxx_HAL_Driver/Inc/stm32wbxx_ll_system.h ****   * @brief  Check if Floating Point Unit Invalid operation Interrupt source is enabled or disabled.
 711:Drivers/STM32WBxx_HAL_Driver/Inc/stm32wbxx_ll_system.h ****   * @rmtoll SYSCFG_CFGR1 FPU_IE_0      LL_SYSCFG_IsEnabledIT_FPU_IOC
 712:Drivers/STM32WBxx_HAL_Driver/Inc/stm32wbxx_ll_system.h ****   * @retval State of bit (1 or 0).
 713:Drivers/STM32WBxx_HAL_Driver/Inc/stm32wbxx_ll_system.h ****   */
 714:Drivers/STM32WBxx_HAL_Driver/Inc/stm32wbxx_ll_system.h **** __STATIC_INLINE uint32_t LL_SYSCFG_IsEnabledIT_FPU_IOC(void)
 715:Drivers/STM32WBxx_HAL_Driver/Inc/stm32wbxx_ll_system.h **** {
 716:Drivers/STM32WBxx_HAL_Driver/Inc/stm32wbxx_ll_system.h ****   return ((READ_BIT(SYSCFG->CFGR1, SYSCFG_CFGR1_FPU_IE_0) == (SYSCFG_CFGR1_FPU_IE_0)) ? 1UL : 0UL);
 717:Drivers/STM32WBxx_HAL_Driver/Inc/stm32wbxx_ll_system.h **** }
 718:Drivers/STM32WBxx_HAL_Driver/Inc/stm32wbxx_ll_system.h **** 
 719:Drivers/STM32WBxx_HAL_Driver/Inc/stm32wbxx_ll_system.h **** /**
 720:Drivers/STM32WBxx_HAL_Driver/Inc/stm32wbxx_ll_system.h ****   * @brief  Check if Floating Point Unit Divide-by-zero Interrupt source is enabled or disabled.
 721:Drivers/STM32WBxx_HAL_Driver/Inc/stm32wbxx_ll_system.h ****   * @rmtoll SYSCFG_CFGR1 FPU_IE_1      LL_SYSCFG_IsEnabledIT_FPU_DZC
 722:Drivers/STM32WBxx_HAL_Driver/Inc/stm32wbxx_ll_system.h ****   * @retval State of bit (1 or 0).
 723:Drivers/STM32WBxx_HAL_Driver/Inc/stm32wbxx_ll_system.h ****   */
 724:Drivers/STM32WBxx_HAL_Driver/Inc/stm32wbxx_ll_system.h **** __STATIC_INLINE uint32_t LL_SYSCFG_IsEnabledIT_FPU_DZC(void)
 725:Drivers/STM32WBxx_HAL_Driver/Inc/stm32wbxx_ll_system.h **** {
 726:Drivers/STM32WBxx_HAL_Driver/Inc/stm32wbxx_ll_system.h ****   return ((READ_BIT(SYSCFG->CFGR1, SYSCFG_CFGR1_FPU_IE_1) == (SYSCFG_CFGR1_FPU_IE_1)) ? 1UL : 0UL);
 727:Drivers/STM32WBxx_HAL_Driver/Inc/stm32wbxx_ll_system.h **** }
 728:Drivers/STM32WBxx_HAL_Driver/Inc/stm32wbxx_ll_system.h **** 
ARM GAS  /var/folders/lt/l_qrc8c54t93n_phsj7cf5tc0000gn/T//cc5FK5RK.s 			page 38


 729:Drivers/STM32WBxx_HAL_Driver/Inc/stm32wbxx_ll_system.h **** /**
 730:Drivers/STM32WBxx_HAL_Driver/Inc/stm32wbxx_ll_system.h ****   * @brief  Check if Floating Point Unit Underflow Interrupt source is enabled or disabled.
 731:Drivers/STM32WBxx_HAL_Driver/Inc/stm32wbxx_ll_system.h ****   * @rmtoll SYSCFG_CFGR1 FPU_IE_2      LL_SYSCFG_IsEnabledIT_FPU_UFC
 732:Drivers/STM32WBxx_HAL_Driver/Inc/stm32wbxx_ll_system.h ****   * @retval State of bit (1 or 0).
 733:Drivers/STM32WBxx_HAL_Driver/Inc/stm32wbxx_ll_system.h ****   */
 734:Drivers/STM32WBxx_HAL_Driver/Inc/stm32wbxx_ll_system.h **** __STATIC_INLINE uint32_t LL_SYSCFG_IsEnabledIT_FPU_UFC(void)
 735:Drivers/STM32WBxx_HAL_Driver/Inc/stm32wbxx_ll_system.h **** {
 736:Drivers/STM32WBxx_HAL_Driver/Inc/stm32wbxx_ll_system.h ****   return ((READ_BIT(SYSCFG->CFGR1, SYSCFG_CFGR1_FPU_IE_2) == (SYSCFG_CFGR1_FPU_IE_2)) ? 1UL : 0UL);
 737:Drivers/STM32WBxx_HAL_Driver/Inc/stm32wbxx_ll_system.h **** }
 738:Drivers/STM32WBxx_HAL_Driver/Inc/stm32wbxx_ll_system.h **** 
 739:Drivers/STM32WBxx_HAL_Driver/Inc/stm32wbxx_ll_system.h **** /**
 740:Drivers/STM32WBxx_HAL_Driver/Inc/stm32wbxx_ll_system.h ****   * @brief  Check if Floating Point Unit Overflow Interrupt source is enabled or disabled.
 741:Drivers/STM32WBxx_HAL_Driver/Inc/stm32wbxx_ll_system.h ****   * @rmtoll SYSCFG_CFGR1 FPU_IE_3      LL_SYSCFG_IsEnabledIT_FPU_OFC
 742:Drivers/STM32WBxx_HAL_Driver/Inc/stm32wbxx_ll_system.h ****   * @retval State of bit (1 or 0).
 743:Drivers/STM32WBxx_HAL_Driver/Inc/stm32wbxx_ll_system.h ****   */
 744:Drivers/STM32WBxx_HAL_Driver/Inc/stm32wbxx_ll_system.h **** __STATIC_INLINE uint32_t LL_SYSCFG_IsEnabledIT_FPU_OFC(void)
 745:Drivers/STM32WBxx_HAL_Driver/Inc/stm32wbxx_ll_system.h **** {
 746:Drivers/STM32WBxx_HAL_Driver/Inc/stm32wbxx_ll_system.h ****   return ((READ_BIT(SYSCFG->CFGR1, SYSCFG_CFGR1_FPU_IE_3) == (SYSCFG_CFGR1_FPU_IE_3)) ? 1UL : 0UL);
 747:Drivers/STM32WBxx_HAL_Driver/Inc/stm32wbxx_ll_system.h **** }
 748:Drivers/STM32WBxx_HAL_Driver/Inc/stm32wbxx_ll_system.h **** 
 749:Drivers/STM32WBxx_HAL_Driver/Inc/stm32wbxx_ll_system.h **** /**
 750:Drivers/STM32WBxx_HAL_Driver/Inc/stm32wbxx_ll_system.h ****   * @brief  Check if Floating Point Unit Input denormal Interrupt source is enabled or disabled.
 751:Drivers/STM32WBxx_HAL_Driver/Inc/stm32wbxx_ll_system.h ****   * @rmtoll SYSCFG_CFGR1 FPU_IE_4      LL_SYSCFG_IsEnabledIT_FPU_IDC
 752:Drivers/STM32WBxx_HAL_Driver/Inc/stm32wbxx_ll_system.h ****   * @retval State of bit (1 or 0).
 753:Drivers/STM32WBxx_HAL_Driver/Inc/stm32wbxx_ll_system.h ****   */
 754:Drivers/STM32WBxx_HAL_Driver/Inc/stm32wbxx_ll_system.h **** __STATIC_INLINE uint32_t LL_SYSCFG_IsEnabledIT_FPU_IDC(void)
 755:Drivers/STM32WBxx_HAL_Driver/Inc/stm32wbxx_ll_system.h **** {
 756:Drivers/STM32WBxx_HAL_Driver/Inc/stm32wbxx_ll_system.h ****   return ((READ_BIT(SYSCFG->CFGR1, SYSCFG_CFGR1_FPU_IE_4) == (SYSCFG_CFGR1_FPU_IE_4)) ? 1UL : 0UL);
 757:Drivers/STM32WBxx_HAL_Driver/Inc/stm32wbxx_ll_system.h **** }
 758:Drivers/STM32WBxx_HAL_Driver/Inc/stm32wbxx_ll_system.h **** 
 759:Drivers/STM32WBxx_HAL_Driver/Inc/stm32wbxx_ll_system.h **** /**
 760:Drivers/STM32WBxx_HAL_Driver/Inc/stm32wbxx_ll_system.h ****   * @brief  Check if Floating Point Unit Inexact Interrupt source is enabled or disabled.
 761:Drivers/STM32WBxx_HAL_Driver/Inc/stm32wbxx_ll_system.h ****   * @rmtoll SYSCFG_CFGR1 FPU_IE_5      LL_SYSCFG_IsEnabledIT_FPU_IXC
 762:Drivers/STM32WBxx_HAL_Driver/Inc/stm32wbxx_ll_system.h ****   * @retval State of bit (1 or 0).
 763:Drivers/STM32WBxx_HAL_Driver/Inc/stm32wbxx_ll_system.h ****   */
 764:Drivers/STM32WBxx_HAL_Driver/Inc/stm32wbxx_ll_system.h **** __STATIC_INLINE uint32_t LL_SYSCFG_IsEnabledIT_FPU_IXC(void)
 765:Drivers/STM32WBxx_HAL_Driver/Inc/stm32wbxx_ll_system.h **** {
 766:Drivers/STM32WBxx_HAL_Driver/Inc/stm32wbxx_ll_system.h ****   return ((READ_BIT(SYSCFG->CFGR1, SYSCFG_CFGR1_FPU_IE_5) == (SYSCFG_CFGR1_FPU_IE_5)) ? 1UL : 0UL);
 767:Drivers/STM32WBxx_HAL_Driver/Inc/stm32wbxx_ll_system.h **** }
 768:Drivers/STM32WBxx_HAL_Driver/Inc/stm32wbxx_ll_system.h **** 
 769:Drivers/STM32WBxx_HAL_Driver/Inc/stm32wbxx_ll_system.h **** /**
 770:Drivers/STM32WBxx_HAL_Driver/Inc/stm32wbxx_ll_system.h ****   * @brief  Configure source input for the EXTI external interrupt.
 771:Drivers/STM32WBxx_HAL_Driver/Inc/stm32wbxx_ll_system.h ****   * @rmtoll SYSCFG_EXTICR1 EXTIx         LL_SYSCFG_SetEXTISource\n
 772:Drivers/STM32WBxx_HAL_Driver/Inc/stm32wbxx_ll_system.h ****   *         SYSCFG_EXTICR2 EXTIx         LL_SYSCFG_SetEXTISource\n
 773:Drivers/STM32WBxx_HAL_Driver/Inc/stm32wbxx_ll_system.h ****   *         SYSCFG_EXTICR3 EXTIx         LL_SYSCFG_SetEXTISource\n
 774:Drivers/STM32WBxx_HAL_Driver/Inc/stm32wbxx_ll_system.h ****   *         SYSCFG_EXTICR4 EXTIx         LL_SYSCFG_SetEXTISource
 775:Drivers/STM32WBxx_HAL_Driver/Inc/stm32wbxx_ll_system.h ****   * @param  Port This parameter can be one of the following values:
 776:Drivers/STM32WBxx_HAL_Driver/Inc/stm32wbxx_ll_system.h ****   *         @arg @ref LL_SYSCFG_EXTI_PORTA
 777:Drivers/STM32WBxx_HAL_Driver/Inc/stm32wbxx_ll_system.h ****   *         @arg @ref LL_SYSCFG_EXTI_PORTB
 778:Drivers/STM32WBxx_HAL_Driver/Inc/stm32wbxx_ll_system.h ****   *         @arg @ref LL_SYSCFG_EXTI_PORTC
 779:Drivers/STM32WBxx_HAL_Driver/Inc/stm32wbxx_ll_system.h ****   *         @arg @ref LL_SYSCFG_EXTI_PORTD
 780:Drivers/STM32WBxx_HAL_Driver/Inc/stm32wbxx_ll_system.h ****   *         @arg @ref LL_SYSCFG_EXTI_PORTE
 781:Drivers/STM32WBxx_HAL_Driver/Inc/stm32wbxx_ll_system.h ****   *         @arg @ref LL_SYSCFG_EXTI_PORTH
 782:Drivers/STM32WBxx_HAL_Driver/Inc/stm32wbxx_ll_system.h ****   *
 783:Drivers/STM32WBxx_HAL_Driver/Inc/stm32wbxx_ll_system.h ****   * @param  Line This parameter can be one of the following values:
 784:Drivers/STM32WBxx_HAL_Driver/Inc/stm32wbxx_ll_system.h ****   *         @arg @ref LL_SYSCFG_EXTI_LINE0
 785:Drivers/STM32WBxx_HAL_Driver/Inc/stm32wbxx_ll_system.h ****   *         @arg @ref LL_SYSCFG_EXTI_LINE1
ARM GAS  /var/folders/lt/l_qrc8c54t93n_phsj7cf5tc0000gn/T//cc5FK5RK.s 			page 39


 786:Drivers/STM32WBxx_HAL_Driver/Inc/stm32wbxx_ll_system.h ****   *         @arg @ref LL_SYSCFG_EXTI_LINE2
 787:Drivers/STM32WBxx_HAL_Driver/Inc/stm32wbxx_ll_system.h ****   *         @arg @ref LL_SYSCFG_EXTI_LINE3
 788:Drivers/STM32WBxx_HAL_Driver/Inc/stm32wbxx_ll_system.h ****   *         @arg @ref LL_SYSCFG_EXTI_LINE4
 789:Drivers/STM32WBxx_HAL_Driver/Inc/stm32wbxx_ll_system.h ****   *         @arg @ref LL_SYSCFG_EXTI_LINE5
 790:Drivers/STM32WBxx_HAL_Driver/Inc/stm32wbxx_ll_system.h ****   *         @arg @ref LL_SYSCFG_EXTI_LINE6
 791:Drivers/STM32WBxx_HAL_Driver/Inc/stm32wbxx_ll_system.h ****   *         @arg @ref LL_SYSCFG_EXTI_LINE7
 792:Drivers/STM32WBxx_HAL_Driver/Inc/stm32wbxx_ll_system.h ****   *         @arg @ref LL_SYSCFG_EXTI_LINE8
 793:Drivers/STM32WBxx_HAL_Driver/Inc/stm32wbxx_ll_system.h ****   *         @arg @ref LL_SYSCFG_EXTI_LINE9
 794:Drivers/STM32WBxx_HAL_Driver/Inc/stm32wbxx_ll_system.h ****   *         @arg @ref LL_SYSCFG_EXTI_LINE10
 795:Drivers/STM32WBxx_HAL_Driver/Inc/stm32wbxx_ll_system.h ****   *         @arg @ref LL_SYSCFG_EXTI_LINE11
 796:Drivers/STM32WBxx_HAL_Driver/Inc/stm32wbxx_ll_system.h ****   *         @arg @ref LL_SYSCFG_EXTI_LINE12
 797:Drivers/STM32WBxx_HAL_Driver/Inc/stm32wbxx_ll_system.h ****   *         @arg @ref LL_SYSCFG_EXTI_LINE13
 798:Drivers/STM32WBxx_HAL_Driver/Inc/stm32wbxx_ll_system.h ****   *         @arg @ref LL_SYSCFG_EXTI_LINE14
 799:Drivers/STM32WBxx_HAL_Driver/Inc/stm32wbxx_ll_system.h ****   *         @arg @ref LL_SYSCFG_EXTI_LINE15
 800:Drivers/STM32WBxx_HAL_Driver/Inc/stm32wbxx_ll_system.h ****   * @retval None
 801:Drivers/STM32WBxx_HAL_Driver/Inc/stm32wbxx_ll_system.h ****   */
 802:Drivers/STM32WBxx_HAL_Driver/Inc/stm32wbxx_ll_system.h **** __STATIC_INLINE void LL_SYSCFG_SetEXTISource(uint32_t Port, uint32_t Line)
 803:Drivers/STM32WBxx_HAL_Driver/Inc/stm32wbxx_ll_system.h **** {
 804:Drivers/STM32WBxx_HAL_Driver/Inc/stm32wbxx_ll_system.h ****   MODIFY_REG(SYSCFG->EXTICR[Line & 0x03U], (Line >> 16U), (Port << ((POSITION_VAL((Line >> 16U))) &
 805:Drivers/STM32WBxx_HAL_Driver/Inc/stm32wbxx_ll_system.h **** }
 806:Drivers/STM32WBxx_HAL_Driver/Inc/stm32wbxx_ll_system.h **** 
 807:Drivers/STM32WBxx_HAL_Driver/Inc/stm32wbxx_ll_system.h **** /**
 808:Drivers/STM32WBxx_HAL_Driver/Inc/stm32wbxx_ll_system.h ****   * @brief  Get the configured defined for specific EXTI Line
 809:Drivers/STM32WBxx_HAL_Driver/Inc/stm32wbxx_ll_system.h ****   * @rmtoll SYSCFG_EXTICR1 EXTIx         LL_SYSCFG_GetEXTISource\n
 810:Drivers/STM32WBxx_HAL_Driver/Inc/stm32wbxx_ll_system.h ****   *         SYSCFG_EXTICR2 EXTIx         LL_SYSCFG_GetEXTISource\n
 811:Drivers/STM32WBxx_HAL_Driver/Inc/stm32wbxx_ll_system.h ****   *         SYSCFG_EXTICR3 EXTIx         LL_SYSCFG_GetEXTISource\n
 812:Drivers/STM32WBxx_HAL_Driver/Inc/stm32wbxx_ll_system.h ****   *         SYSCFG_EXTICR4 EXTIx         LL_SYSCFG_GetEXTISource
 813:Drivers/STM32WBxx_HAL_Driver/Inc/stm32wbxx_ll_system.h ****   * @param  Line This parameter can be one of the following values:
 814:Drivers/STM32WBxx_HAL_Driver/Inc/stm32wbxx_ll_system.h ****   *         @arg @ref LL_SYSCFG_EXTI_LINE0
 815:Drivers/STM32WBxx_HAL_Driver/Inc/stm32wbxx_ll_system.h ****   *         @arg @ref LL_SYSCFG_EXTI_LINE1
 816:Drivers/STM32WBxx_HAL_Driver/Inc/stm32wbxx_ll_system.h ****   *         @arg @ref LL_SYSCFG_EXTI_LINE2
 817:Drivers/STM32WBxx_HAL_Driver/Inc/stm32wbxx_ll_system.h ****   *         @arg @ref LL_SYSCFG_EXTI_LINE3
 818:Drivers/STM32WBxx_HAL_Driver/Inc/stm32wbxx_ll_system.h ****   *         @arg @ref LL_SYSCFG_EXTI_LINE4
 819:Drivers/STM32WBxx_HAL_Driver/Inc/stm32wbxx_ll_system.h ****   *         @arg @ref LL_SYSCFG_EXTI_LINE5
 820:Drivers/STM32WBxx_HAL_Driver/Inc/stm32wbxx_ll_system.h ****   *         @arg @ref LL_SYSCFG_EXTI_LINE6
 821:Drivers/STM32WBxx_HAL_Driver/Inc/stm32wbxx_ll_system.h ****   *         @arg @ref LL_SYSCFG_EXTI_LINE7
 822:Drivers/STM32WBxx_HAL_Driver/Inc/stm32wbxx_ll_system.h ****   *         @arg @ref LL_SYSCFG_EXTI_LINE8
 823:Drivers/STM32WBxx_HAL_Driver/Inc/stm32wbxx_ll_system.h ****   *         @arg @ref LL_SYSCFG_EXTI_LINE9
 824:Drivers/STM32WBxx_HAL_Driver/Inc/stm32wbxx_ll_system.h ****   *         @arg @ref LL_SYSCFG_EXTI_LINE10
 825:Drivers/STM32WBxx_HAL_Driver/Inc/stm32wbxx_ll_system.h ****   *         @arg @ref LL_SYSCFG_EXTI_LINE11
 826:Drivers/STM32WBxx_HAL_Driver/Inc/stm32wbxx_ll_system.h ****   *         @arg @ref LL_SYSCFG_EXTI_LINE12
 827:Drivers/STM32WBxx_HAL_Driver/Inc/stm32wbxx_ll_system.h ****   *         @arg @ref LL_SYSCFG_EXTI_LINE13
 828:Drivers/STM32WBxx_HAL_Driver/Inc/stm32wbxx_ll_system.h ****   *         @arg @ref LL_SYSCFG_EXTI_LINE14
 829:Drivers/STM32WBxx_HAL_Driver/Inc/stm32wbxx_ll_system.h ****   *         @arg @ref LL_SYSCFG_EXTI_LINE15
 830:Drivers/STM32WBxx_HAL_Driver/Inc/stm32wbxx_ll_system.h ****   * @retval Returned value can be one of the following values:
 831:Drivers/STM32WBxx_HAL_Driver/Inc/stm32wbxx_ll_system.h ****   *         @arg @ref LL_SYSCFG_EXTI_PORTA
 832:Drivers/STM32WBxx_HAL_Driver/Inc/stm32wbxx_ll_system.h ****   *         @arg @ref LL_SYSCFG_EXTI_PORTB
 833:Drivers/STM32WBxx_HAL_Driver/Inc/stm32wbxx_ll_system.h ****   *         @arg @ref LL_SYSCFG_EXTI_PORTC
 834:Drivers/STM32WBxx_HAL_Driver/Inc/stm32wbxx_ll_system.h ****   *         @arg @ref LL_SYSCFG_EXTI_PORTD
 835:Drivers/STM32WBxx_HAL_Driver/Inc/stm32wbxx_ll_system.h ****   *         @arg @ref LL_SYSCFG_EXTI_PORTE
 836:Drivers/STM32WBxx_HAL_Driver/Inc/stm32wbxx_ll_system.h ****   *         @arg @ref LL_SYSCFG_EXTI_PORTH
 837:Drivers/STM32WBxx_HAL_Driver/Inc/stm32wbxx_ll_system.h ****   */
 838:Drivers/STM32WBxx_HAL_Driver/Inc/stm32wbxx_ll_system.h **** __STATIC_INLINE uint32_t LL_SYSCFG_GetEXTISource(uint32_t Line)
 839:Drivers/STM32WBxx_HAL_Driver/Inc/stm32wbxx_ll_system.h **** {
 840:Drivers/STM32WBxx_HAL_Driver/Inc/stm32wbxx_ll_system.h ****   return (uint32_t)(READ_BIT(SYSCFG->EXTICR[Line & 0x03U], (Line >> 16U)) >> (POSITION_VAL(Line >> 
 841:Drivers/STM32WBxx_HAL_Driver/Inc/stm32wbxx_ll_system.h **** }
 842:Drivers/STM32WBxx_HAL_Driver/Inc/stm32wbxx_ll_system.h **** 
ARM GAS  /var/folders/lt/l_qrc8c54t93n_phsj7cf5tc0000gn/T//cc5FK5RK.s 			page 40


 843:Drivers/STM32WBxx_HAL_Driver/Inc/stm32wbxx_ll_system.h **** /**
 844:Drivers/STM32WBxx_HAL_Driver/Inc/stm32wbxx_ll_system.h ****   * @brief  Enable SRAM2 Erase (starts a hardware SRAM2 erase operation. This bit is
 845:Drivers/STM32WBxx_HAL_Driver/Inc/stm32wbxx_ll_system.h ****   * automatically cleared at the end of the SRAM2 erase operation.)
 846:Drivers/STM32WBxx_HAL_Driver/Inc/stm32wbxx_ll_system.h ****   * @note This bit is write-protected: setting this bit is possible only after the
 847:Drivers/STM32WBxx_HAL_Driver/Inc/stm32wbxx_ll_system.h ****   *       correct key sequence is written in the SYSCFG_SKR register.
 848:Drivers/STM32WBxx_HAL_Driver/Inc/stm32wbxx_ll_system.h ****   * @rmtoll SYSCFG_SCSR  SRAM2ER       LL_SYSCFG_EnableSRAM2Erase
 849:Drivers/STM32WBxx_HAL_Driver/Inc/stm32wbxx_ll_system.h ****   * @retval None
 850:Drivers/STM32WBxx_HAL_Driver/Inc/stm32wbxx_ll_system.h ****   */
 851:Drivers/STM32WBxx_HAL_Driver/Inc/stm32wbxx_ll_system.h **** __STATIC_INLINE void LL_SYSCFG_EnableSRAM2Erase(void)
 852:Drivers/STM32WBxx_HAL_Driver/Inc/stm32wbxx_ll_system.h **** {
 853:Drivers/STM32WBxx_HAL_Driver/Inc/stm32wbxx_ll_system.h ****   SET_BIT(SYSCFG->SCSR, SYSCFG_SCSR_SRAM2ER);
 854:Drivers/STM32WBxx_HAL_Driver/Inc/stm32wbxx_ll_system.h **** }
 855:Drivers/STM32WBxx_HAL_Driver/Inc/stm32wbxx_ll_system.h **** 
 856:Drivers/STM32WBxx_HAL_Driver/Inc/stm32wbxx_ll_system.h **** /**
 857:Drivers/STM32WBxx_HAL_Driver/Inc/stm32wbxx_ll_system.h ****   * @brief  Check if SRAM2 erase operation is on going
 858:Drivers/STM32WBxx_HAL_Driver/Inc/stm32wbxx_ll_system.h ****   * @rmtoll SYSCFG_SCSR  SRAM2BSY      LL_SYSCFG_IsSRAM2EraseOngoing
 859:Drivers/STM32WBxx_HAL_Driver/Inc/stm32wbxx_ll_system.h ****   * @retval State of bit (1 or 0).
 860:Drivers/STM32WBxx_HAL_Driver/Inc/stm32wbxx_ll_system.h ****   */
 861:Drivers/STM32WBxx_HAL_Driver/Inc/stm32wbxx_ll_system.h **** __STATIC_INLINE uint32_t LL_SYSCFG_IsSRAM2EraseOngoing(void)
 862:Drivers/STM32WBxx_HAL_Driver/Inc/stm32wbxx_ll_system.h **** {
 863:Drivers/STM32WBxx_HAL_Driver/Inc/stm32wbxx_ll_system.h ****   return ((READ_BIT(SYSCFG->SCSR, SYSCFG_SCSR_SRAM2BSY) == (SYSCFG_SCSR_SRAM2BSY)) ? 1UL : 0UL);
 864:Drivers/STM32WBxx_HAL_Driver/Inc/stm32wbxx_ll_system.h **** }
 865:Drivers/STM32WBxx_HAL_Driver/Inc/stm32wbxx_ll_system.h **** 
 866:Drivers/STM32WBxx_HAL_Driver/Inc/stm32wbxx_ll_system.h **** /**
 867:Drivers/STM32WBxx_HAL_Driver/Inc/stm32wbxx_ll_system.h ****   * @brief  Disable CPU2 SRAM fetch (execution) (This bit can be set by Firmware
 868:Drivers/STM32WBxx_HAL_Driver/Inc/stm32wbxx_ll_system.h ****   *         and will only be reset by a Hardware reset, including a reset after Standby.)
 869:Drivers/STM32WBxx_HAL_Driver/Inc/stm32wbxx_ll_system.h ****   * @note Firmware writing 0 has no effect.
 870:Drivers/STM32WBxx_HAL_Driver/Inc/stm32wbxx_ll_system.h ****   * @rmtoll SYSCFG_SCSR  C2RFD         LL_SYSCFG_DisableSRAMFetch
 871:Drivers/STM32WBxx_HAL_Driver/Inc/stm32wbxx_ll_system.h ****   * @retval None
 872:Drivers/STM32WBxx_HAL_Driver/Inc/stm32wbxx_ll_system.h ****   */
 873:Drivers/STM32WBxx_HAL_Driver/Inc/stm32wbxx_ll_system.h **** __STATIC_INLINE void LL_SYSCFG_DisableSRAMFetch(void)
 874:Drivers/STM32WBxx_HAL_Driver/Inc/stm32wbxx_ll_system.h **** {
 875:Drivers/STM32WBxx_HAL_Driver/Inc/stm32wbxx_ll_system.h ****   SET_BIT(SYSCFG->SCSR, SYSCFG_SCSR_C2RFD);
 876:Drivers/STM32WBxx_HAL_Driver/Inc/stm32wbxx_ll_system.h **** }
 877:Drivers/STM32WBxx_HAL_Driver/Inc/stm32wbxx_ll_system.h **** 
 878:Drivers/STM32WBxx_HAL_Driver/Inc/stm32wbxx_ll_system.h **** /**
 879:Drivers/STM32WBxx_HAL_Driver/Inc/stm32wbxx_ll_system.h ****   * @brief  Check if CPU2 SRAM fetch is enabled
 880:Drivers/STM32WBxx_HAL_Driver/Inc/stm32wbxx_ll_system.h ****   * @rmtoll SYSCFG_SCSR  C2RFD         LL_SYSCFG_IsEnabledSRAMFetch
 881:Drivers/STM32WBxx_HAL_Driver/Inc/stm32wbxx_ll_system.h ****   * @retval State of bit (1 or 0).
 882:Drivers/STM32WBxx_HAL_Driver/Inc/stm32wbxx_ll_system.h ****   */
 883:Drivers/STM32WBxx_HAL_Driver/Inc/stm32wbxx_ll_system.h **** __STATIC_INLINE uint32_t LL_SYSCFG_IsEnabledSRAMFetch(void)
 884:Drivers/STM32WBxx_HAL_Driver/Inc/stm32wbxx_ll_system.h **** {
 885:Drivers/STM32WBxx_HAL_Driver/Inc/stm32wbxx_ll_system.h ****   return ((READ_BIT(SYSCFG->SCSR, SYSCFG_SCSR_C2RFD) != (SYSCFG_SCSR_C2RFD)) ? 1UL : 0UL);
 886:Drivers/STM32WBxx_HAL_Driver/Inc/stm32wbxx_ll_system.h **** }
 887:Drivers/STM32WBxx_HAL_Driver/Inc/stm32wbxx_ll_system.h **** 
 888:Drivers/STM32WBxx_HAL_Driver/Inc/stm32wbxx_ll_system.h **** /**
 889:Drivers/STM32WBxx_HAL_Driver/Inc/stm32wbxx_ll_system.h ****   * @brief  Set connections to TIM1/16/17 Break inputs
 890:Drivers/STM32WBxx_HAL_Driver/Inc/stm32wbxx_ll_system.h ****   * @rmtoll SYSCFG_CFGR2 CLL           LL_SYSCFG_SetTIMBreakInputs\n
 891:Drivers/STM32WBxx_HAL_Driver/Inc/stm32wbxx_ll_system.h ****   *         SYSCFG_CFGR2 SPL           LL_SYSCFG_SetTIMBreakInputs\n
 892:Drivers/STM32WBxx_HAL_Driver/Inc/stm32wbxx_ll_system.h ****   *         SYSCFG_CFGR2 PVDL          LL_SYSCFG_SetTIMBreakInputs\n
 893:Drivers/STM32WBxx_HAL_Driver/Inc/stm32wbxx_ll_system.h ****   *         SYSCFG_CFGR2 ECCL          LL_SYSCFG_SetTIMBreakInputs
 894:Drivers/STM32WBxx_HAL_Driver/Inc/stm32wbxx_ll_system.h ****   * @param  Break This parameter can be a combination of the following values:
 895:Drivers/STM32WBxx_HAL_Driver/Inc/stm32wbxx_ll_system.h ****   *         @arg @ref LL_SYSCFG_TIMBREAK_ECC
 896:Drivers/STM32WBxx_HAL_Driver/Inc/stm32wbxx_ll_system.h ****   *         @arg @ref LL_SYSCFG_TIMBREAK_PVD
 897:Drivers/STM32WBxx_HAL_Driver/Inc/stm32wbxx_ll_system.h ****   *         @arg @ref LL_SYSCFG_TIMBREAK_SRAM2_PARITY
 898:Drivers/STM32WBxx_HAL_Driver/Inc/stm32wbxx_ll_system.h ****   *         @arg @ref LL_SYSCFG_TIMBREAK_LOCKUP
 899:Drivers/STM32WBxx_HAL_Driver/Inc/stm32wbxx_ll_system.h ****   * @retval None
ARM GAS  /var/folders/lt/l_qrc8c54t93n_phsj7cf5tc0000gn/T//cc5FK5RK.s 			page 41


 900:Drivers/STM32WBxx_HAL_Driver/Inc/stm32wbxx_ll_system.h ****   */
 901:Drivers/STM32WBxx_HAL_Driver/Inc/stm32wbxx_ll_system.h **** __STATIC_INLINE void LL_SYSCFG_SetTIMBreakInputs(uint32_t Break)
 902:Drivers/STM32WBxx_HAL_Driver/Inc/stm32wbxx_ll_system.h **** {
 903:Drivers/STM32WBxx_HAL_Driver/Inc/stm32wbxx_ll_system.h ****   MODIFY_REG(SYSCFG->CFGR2, SYSCFG_CFGR2_CLL | SYSCFG_CFGR2_SPL | SYSCFG_CFGR2_PVDL | SYSCFG_CFGR2_
 904:Drivers/STM32WBxx_HAL_Driver/Inc/stm32wbxx_ll_system.h **** }
 905:Drivers/STM32WBxx_HAL_Driver/Inc/stm32wbxx_ll_system.h **** 
 906:Drivers/STM32WBxx_HAL_Driver/Inc/stm32wbxx_ll_system.h **** /**
 907:Drivers/STM32WBxx_HAL_Driver/Inc/stm32wbxx_ll_system.h ****   * @brief  Get connections to TIM1/16/17 Break inputs
 908:Drivers/STM32WBxx_HAL_Driver/Inc/stm32wbxx_ll_system.h ****   * @rmtoll SYSCFG_CFGR2 CLL           LL_SYSCFG_GetTIMBreakInputs\n
 909:Drivers/STM32WBxx_HAL_Driver/Inc/stm32wbxx_ll_system.h ****   *         SYSCFG_CFGR2 SPL           LL_SYSCFG_GetTIMBreakInputs\n
 910:Drivers/STM32WBxx_HAL_Driver/Inc/stm32wbxx_ll_system.h ****   *         SYSCFG_CFGR2 PVDL          LL_SYSCFG_GetTIMBreakInputs\n
 911:Drivers/STM32WBxx_HAL_Driver/Inc/stm32wbxx_ll_system.h ****   *         SYSCFG_CFGR2 ECCL          LL_SYSCFG_GetTIMBreakInputs
 912:Drivers/STM32WBxx_HAL_Driver/Inc/stm32wbxx_ll_system.h ****   * @retval Returned value can be can be a combination of the following values:
 913:Drivers/STM32WBxx_HAL_Driver/Inc/stm32wbxx_ll_system.h ****   *         @arg @ref LL_SYSCFG_TIMBREAK_ECC
 914:Drivers/STM32WBxx_HAL_Driver/Inc/stm32wbxx_ll_system.h ****   *         @arg @ref LL_SYSCFG_TIMBREAK_PVD
 915:Drivers/STM32WBxx_HAL_Driver/Inc/stm32wbxx_ll_system.h ****   *         @arg @ref LL_SYSCFG_TIMBREAK_SRAM2_PARITY
 916:Drivers/STM32WBxx_HAL_Driver/Inc/stm32wbxx_ll_system.h ****   *         @arg @ref LL_SYSCFG_TIMBREAK_LOCKUP
 917:Drivers/STM32WBxx_HAL_Driver/Inc/stm32wbxx_ll_system.h ****   */
 918:Drivers/STM32WBxx_HAL_Driver/Inc/stm32wbxx_ll_system.h **** __STATIC_INLINE uint32_t LL_SYSCFG_GetTIMBreakInputs(void)
 919:Drivers/STM32WBxx_HAL_Driver/Inc/stm32wbxx_ll_system.h **** {
 920:Drivers/STM32WBxx_HAL_Driver/Inc/stm32wbxx_ll_system.h ****   return (uint32_t)(READ_BIT(SYSCFG->CFGR2, SYSCFG_CFGR2_CLL | SYSCFG_CFGR2_SPL | SYSCFG_CFGR2_PVDL
 921:Drivers/STM32WBxx_HAL_Driver/Inc/stm32wbxx_ll_system.h **** }
 922:Drivers/STM32WBxx_HAL_Driver/Inc/stm32wbxx_ll_system.h **** 
 923:Drivers/STM32WBxx_HAL_Driver/Inc/stm32wbxx_ll_system.h **** /**
 924:Drivers/STM32WBxx_HAL_Driver/Inc/stm32wbxx_ll_system.h ****   * @brief  Check if SRAM2 parity error detected
 925:Drivers/STM32WBxx_HAL_Driver/Inc/stm32wbxx_ll_system.h ****   * @rmtoll SYSCFG_CFGR2 SPF           LL_SYSCFG_IsActiveFlag_SP
 926:Drivers/STM32WBxx_HAL_Driver/Inc/stm32wbxx_ll_system.h ****   * @retval State of bit (1 or 0).
 927:Drivers/STM32WBxx_HAL_Driver/Inc/stm32wbxx_ll_system.h ****   */
 928:Drivers/STM32WBxx_HAL_Driver/Inc/stm32wbxx_ll_system.h **** __STATIC_INLINE uint32_t LL_SYSCFG_IsActiveFlag_SP(void)
 929:Drivers/STM32WBxx_HAL_Driver/Inc/stm32wbxx_ll_system.h **** {
 930:Drivers/STM32WBxx_HAL_Driver/Inc/stm32wbxx_ll_system.h ****   return ((READ_BIT(SYSCFG->CFGR2, SYSCFG_CFGR2_SPF) == (SYSCFG_CFGR2_SPF)) ? 1UL : 0UL);
 931:Drivers/STM32WBxx_HAL_Driver/Inc/stm32wbxx_ll_system.h **** }
 932:Drivers/STM32WBxx_HAL_Driver/Inc/stm32wbxx_ll_system.h **** 
 933:Drivers/STM32WBxx_HAL_Driver/Inc/stm32wbxx_ll_system.h **** /**
 934:Drivers/STM32WBxx_HAL_Driver/Inc/stm32wbxx_ll_system.h ****   * @brief  Clear SRAM2 parity error flag
 935:Drivers/STM32WBxx_HAL_Driver/Inc/stm32wbxx_ll_system.h ****   * @rmtoll SYSCFG_CFGR2 SPF           LL_SYSCFG_ClearFlag_SP
 936:Drivers/STM32WBxx_HAL_Driver/Inc/stm32wbxx_ll_system.h ****   * @retval None
 937:Drivers/STM32WBxx_HAL_Driver/Inc/stm32wbxx_ll_system.h ****   */
 938:Drivers/STM32WBxx_HAL_Driver/Inc/stm32wbxx_ll_system.h **** __STATIC_INLINE void LL_SYSCFG_ClearFlag_SP(void)
 939:Drivers/STM32WBxx_HAL_Driver/Inc/stm32wbxx_ll_system.h **** {
 940:Drivers/STM32WBxx_HAL_Driver/Inc/stm32wbxx_ll_system.h ****   SET_BIT(SYSCFG->CFGR2, SYSCFG_CFGR2_SPF);
 941:Drivers/STM32WBxx_HAL_Driver/Inc/stm32wbxx_ll_system.h **** }
 942:Drivers/STM32WBxx_HAL_Driver/Inc/stm32wbxx_ll_system.h **** 
 943:Drivers/STM32WBxx_HAL_Driver/Inc/stm32wbxx_ll_system.h **** /**
 944:Drivers/STM32WBxx_HAL_Driver/Inc/stm32wbxx_ll_system.h ****   * @brief  Enable SRAM2 page write protection for Pages in range 0 to 31
 945:Drivers/STM32WBxx_HAL_Driver/Inc/stm32wbxx_ll_system.h ****   * @note Write protection is cleared only by a system reset
 946:Drivers/STM32WBxx_HAL_Driver/Inc/stm32wbxx_ll_system.h ****   * @rmtoll SYSCFG_SWPR1 PxWP          LL_SYSCFG_EnableSRAM2PageWRP_0_31
 947:Drivers/STM32WBxx_HAL_Driver/Inc/stm32wbxx_ll_system.h ****   * @param  SRAM2WRP This parameter can be a combination of the following values:
 948:Drivers/STM32WBxx_HAL_Driver/Inc/stm32wbxx_ll_system.h ****   *         @arg @ref LL_SYSCFG_SRAM2WRP_PAGE0
 949:Drivers/STM32WBxx_HAL_Driver/Inc/stm32wbxx_ll_system.h ****   *         @arg @ref LL_SYSCFG_SRAM2WRP_PAGE1
 950:Drivers/STM32WBxx_HAL_Driver/Inc/stm32wbxx_ll_system.h ****   *         @arg @ref LL_SYSCFG_SRAM2WRP_PAGE2
 951:Drivers/STM32WBxx_HAL_Driver/Inc/stm32wbxx_ll_system.h ****   *         @arg @ref LL_SYSCFG_SRAM2WRP_PAGE3
 952:Drivers/STM32WBxx_HAL_Driver/Inc/stm32wbxx_ll_system.h ****   *         @arg @ref LL_SYSCFG_SRAM2WRP_PAGE4
 953:Drivers/STM32WBxx_HAL_Driver/Inc/stm32wbxx_ll_system.h ****   *         @arg @ref LL_SYSCFG_SRAM2WRP_PAGE5
 954:Drivers/STM32WBxx_HAL_Driver/Inc/stm32wbxx_ll_system.h ****   *         @arg @ref LL_SYSCFG_SRAM2WRP_PAGE6
 955:Drivers/STM32WBxx_HAL_Driver/Inc/stm32wbxx_ll_system.h ****   *         @arg @ref LL_SYSCFG_SRAM2WRP_PAGE7
 956:Drivers/STM32WBxx_HAL_Driver/Inc/stm32wbxx_ll_system.h ****   *         @arg @ref LL_SYSCFG_SRAM2WRP_PAGE8
ARM GAS  /var/folders/lt/l_qrc8c54t93n_phsj7cf5tc0000gn/T//cc5FK5RK.s 			page 42


 957:Drivers/STM32WBxx_HAL_Driver/Inc/stm32wbxx_ll_system.h ****   *         @arg @ref LL_SYSCFG_SRAM2WRP_PAGE9
 958:Drivers/STM32WBxx_HAL_Driver/Inc/stm32wbxx_ll_system.h ****   *         @arg @ref LL_SYSCFG_SRAM2WRP_PAGE10
 959:Drivers/STM32WBxx_HAL_Driver/Inc/stm32wbxx_ll_system.h ****   *         @arg @ref LL_SYSCFG_SRAM2WRP_PAGE11
 960:Drivers/STM32WBxx_HAL_Driver/Inc/stm32wbxx_ll_system.h ****   *         @arg @ref LL_SYSCFG_SRAM2WRP_PAGE12
 961:Drivers/STM32WBxx_HAL_Driver/Inc/stm32wbxx_ll_system.h ****   *         @arg @ref LL_SYSCFG_SRAM2WRP_PAGE13
 962:Drivers/STM32WBxx_HAL_Driver/Inc/stm32wbxx_ll_system.h ****   *         @arg @ref LL_SYSCFG_SRAM2WRP_PAGE14
 963:Drivers/STM32WBxx_HAL_Driver/Inc/stm32wbxx_ll_system.h ****   *         @arg @ref LL_SYSCFG_SRAM2WRP_PAGE15
 964:Drivers/STM32WBxx_HAL_Driver/Inc/stm32wbxx_ll_system.h ****   *         @arg @ref LL_SYSCFG_SRAM2WRP_PAGE16
 965:Drivers/STM32WBxx_HAL_Driver/Inc/stm32wbxx_ll_system.h ****   *         @arg @ref LL_SYSCFG_SRAM2WRP_PAGE17
 966:Drivers/STM32WBxx_HAL_Driver/Inc/stm32wbxx_ll_system.h ****   *         @arg @ref LL_SYSCFG_SRAM2WRP_PAGE18
 967:Drivers/STM32WBxx_HAL_Driver/Inc/stm32wbxx_ll_system.h ****   *         @arg @ref LL_SYSCFG_SRAM2WRP_PAGE19
 968:Drivers/STM32WBxx_HAL_Driver/Inc/stm32wbxx_ll_system.h ****   *         @arg @ref LL_SYSCFG_SRAM2WRP_PAGE20
 969:Drivers/STM32WBxx_HAL_Driver/Inc/stm32wbxx_ll_system.h ****   *         @arg @ref LL_SYSCFG_SRAM2WRP_PAGE21
 970:Drivers/STM32WBxx_HAL_Driver/Inc/stm32wbxx_ll_system.h ****   *         @arg @ref LL_SYSCFG_SRAM2WRP_PAGE22
 971:Drivers/STM32WBxx_HAL_Driver/Inc/stm32wbxx_ll_system.h ****   *         @arg @ref LL_SYSCFG_SRAM2WRP_PAGE23
 972:Drivers/STM32WBxx_HAL_Driver/Inc/stm32wbxx_ll_system.h ****   *         @arg @ref LL_SYSCFG_SRAM2WRP_PAGE24
 973:Drivers/STM32WBxx_HAL_Driver/Inc/stm32wbxx_ll_system.h ****   *         @arg @ref LL_SYSCFG_SRAM2WRP_PAGE25
 974:Drivers/STM32WBxx_HAL_Driver/Inc/stm32wbxx_ll_system.h ****   *         @arg @ref LL_SYSCFG_SRAM2WRP_PAGE26
 975:Drivers/STM32WBxx_HAL_Driver/Inc/stm32wbxx_ll_system.h ****   *         @arg @ref LL_SYSCFG_SRAM2WRP_PAGE27
 976:Drivers/STM32WBxx_HAL_Driver/Inc/stm32wbxx_ll_system.h ****   *         @arg @ref LL_SYSCFG_SRAM2WRP_PAGE28
 977:Drivers/STM32WBxx_HAL_Driver/Inc/stm32wbxx_ll_system.h ****   *         @arg @ref LL_SYSCFG_SRAM2WRP_PAGE29
 978:Drivers/STM32WBxx_HAL_Driver/Inc/stm32wbxx_ll_system.h ****   *         @arg @ref LL_SYSCFG_SRAM2WRP_PAGE30
 979:Drivers/STM32WBxx_HAL_Driver/Inc/stm32wbxx_ll_system.h ****   *         @arg @ref LL_SYSCFG_SRAM2WRP_PAGE31
 980:Drivers/STM32WBxx_HAL_Driver/Inc/stm32wbxx_ll_system.h ****   * @retval None
 981:Drivers/STM32WBxx_HAL_Driver/Inc/stm32wbxx_ll_system.h ****   */
 982:Drivers/STM32WBxx_HAL_Driver/Inc/stm32wbxx_ll_system.h **** /* Legacy define */
 983:Drivers/STM32WBxx_HAL_Driver/Inc/stm32wbxx_ll_system.h **** #define LL_SYSCFG_EnableSRAM2PageWRP    LL_SYSCFG_EnableSRAM2PageWRP_0_31
 984:Drivers/STM32WBxx_HAL_Driver/Inc/stm32wbxx_ll_system.h **** __STATIC_INLINE void LL_SYSCFG_EnableSRAM2PageWRP_0_31(uint32_t SRAM2WRP)
 985:Drivers/STM32WBxx_HAL_Driver/Inc/stm32wbxx_ll_system.h **** {
 986:Drivers/STM32WBxx_HAL_Driver/Inc/stm32wbxx_ll_system.h ****   SET_BIT(SYSCFG->SWPR1, SRAM2WRP);
 987:Drivers/STM32WBxx_HAL_Driver/Inc/stm32wbxx_ll_system.h **** }
 988:Drivers/STM32WBxx_HAL_Driver/Inc/stm32wbxx_ll_system.h **** 
 989:Drivers/STM32WBxx_HAL_Driver/Inc/stm32wbxx_ll_system.h **** /**
 990:Drivers/STM32WBxx_HAL_Driver/Inc/stm32wbxx_ll_system.h ****   * @brief  Enable SRAM2 page write protection for Pages in range 32 to 63
 991:Drivers/STM32WBxx_HAL_Driver/Inc/stm32wbxx_ll_system.h ****   * @note Write protection is cleared only by a system reset
 992:Drivers/STM32WBxx_HAL_Driver/Inc/stm32wbxx_ll_system.h ****   * @rmtoll SYSCFG_SWPR2 PxWP          LL_SYSCFG_EnableSRAM2PageWRP_32_63
 993:Drivers/STM32WBxx_HAL_Driver/Inc/stm32wbxx_ll_system.h ****   * @param  SRAM2WRP This parameter can be a combination of the following values:
 994:Drivers/STM32WBxx_HAL_Driver/Inc/stm32wbxx_ll_system.h ****   *         @arg @ref LL_SYSCFG_SRAM2WRP_PAGE32
 995:Drivers/STM32WBxx_HAL_Driver/Inc/stm32wbxx_ll_system.h ****   *         @arg @ref LL_SYSCFG_SRAM2WRP_PAGE33
 996:Drivers/STM32WBxx_HAL_Driver/Inc/stm32wbxx_ll_system.h ****   *         @arg @ref LL_SYSCFG_SRAM2WRP_PAGE34
 997:Drivers/STM32WBxx_HAL_Driver/Inc/stm32wbxx_ll_system.h ****   *         @arg @ref LL_SYSCFG_SRAM2WRP_PAGE35
 998:Drivers/STM32WBxx_HAL_Driver/Inc/stm32wbxx_ll_system.h ****   *         @arg @ref LL_SYSCFG_SRAM2WRP_PAGE36
 999:Drivers/STM32WBxx_HAL_Driver/Inc/stm32wbxx_ll_system.h ****   *         @arg @ref LL_SYSCFG_SRAM2WRP_PAGE37
1000:Drivers/STM32WBxx_HAL_Driver/Inc/stm32wbxx_ll_system.h ****   *         @arg @ref LL_SYSCFG_SRAM2WRP_PAGE38
1001:Drivers/STM32WBxx_HAL_Driver/Inc/stm32wbxx_ll_system.h ****   *         @arg @ref LL_SYSCFG_SRAM2WRP_PAGE39
1002:Drivers/STM32WBxx_HAL_Driver/Inc/stm32wbxx_ll_system.h ****   *         @arg @ref LL_SYSCFG_SRAM2WRP_PAGE40
1003:Drivers/STM32WBxx_HAL_Driver/Inc/stm32wbxx_ll_system.h ****   *         @arg @ref LL_SYSCFG_SRAM2WRP_PAGE41
1004:Drivers/STM32WBxx_HAL_Driver/Inc/stm32wbxx_ll_system.h ****   *         @arg @ref LL_SYSCFG_SRAM2WRP_PAGE42
1005:Drivers/STM32WBxx_HAL_Driver/Inc/stm32wbxx_ll_system.h ****   *         @arg @ref LL_SYSCFG_SRAM2WRP_PAGE43
1006:Drivers/STM32WBxx_HAL_Driver/Inc/stm32wbxx_ll_system.h ****   *         @arg @ref LL_SYSCFG_SRAM2WRP_PAGE44
1007:Drivers/STM32WBxx_HAL_Driver/Inc/stm32wbxx_ll_system.h ****   *         @arg @ref LL_SYSCFG_SRAM2WRP_PAGE45
1008:Drivers/STM32WBxx_HAL_Driver/Inc/stm32wbxx_ll_system.h ****   *         @arg @ref LL_SYSCFG_SRAM2WRP_PAGE46
1009:Drivers/STM32WBxx_HAL_Driver/Inc/stm32wbxx_ll_system.h ****   *         @arg @ref LL_SYSCFG_SRAM2WRP_PAGE47
1010:Drivers/STM32WBxx_HAL_Driver/Inc/stm32wbxx_ll_system.h ****   *         @arg @ref LL_SYSCFG_SRAM2WRP_PAGE48
1011:Drivers/STM32WBxx_HAL_Driver/Inc/stm32wbxx_ll_system.h ****   *         @arg @ref LL_SYSCFG_SRAM2WRP_PAGE49
1012:Drivers/STM32WBxx_HAL_Driver/Inc/stm32wbxx_ll_system.h ****   *         @arg @ref LL_SYSCFG_SRAM2WRP_PAGE50
1013:Drivers/STM32WBxx_HAL_Driver/Inc/stm32wbxx_ll_system.h ****   *         @arg @ref LL_SYSCFG_SRAM2WRP_PAGE51
ARM GAS  /var/folders/lt/l_qrc8c54t93n_phsj7cf5tc0000gn/T//cc5FK5RK.s 			page 43


1014:Drivers/STM32WBxx_HAL_Driver/Inc/stm32wbxx_ll_system.h ****   *         @arg @ref LL_SYSCFG_SRAM2WRP_PAGE52
1015:Drivers/STM32WBxx_HAL_Driver/Inc/stm32wbxx_ll_system.h ****   *         @arg @ref LL_SYSCFG_SRAM2WRP_PAGE53
1016:Drivers/STM32WBxx_HAL_Driver/Inc/stm32wbxx_ll_system.h ****   *         @arg @ref LL_SYSCFG_SRAM2WRP_PAGE54
1017:Drivers/STM32WBxx_HAL_Driver/Inc/stm32wbxx_ll_system.h ****   *         @arg @ref LL_SYSCFG_SRAM2WRP_PAGE55
1018:Drivers/STM32WBxx_HAL_Driver/Inc/stm32wbxx_ll_system.h ****   *         @arg @ref LL_SYSCFG_SRAM2WRP_PAGE56
1019:Drivers/STM32WBxx_HAL_Driver/Inc/stm32wbxx_ll_system.h ****   *         @arg @ref LL_SYSCFG_SRAM2WRP_PAGE57
1020:Drivers/STM32WBxx_HAL_Driver/Inc/stm32wbxx_ll_system.h ****   *         @arg @ref LL_SYSCFG_SRAM2WRP_PAGE58
1021:Drivers/STM32WBxx_HAL_Driver/Inc/stm32wbxx_ll_system.h ****   *         @arg @ref LL_SYSCFG_SRAM2WRP_PAGE59
1022:Drivers/STM32WBxx_HAL_Driver/Inc/stm32wbxx_ll_system.h ****   *         @arg @ref LL_SYSCFG_SRAM2WRP_PAGE60
1023:Drivers/STM32WBxx_HAL_Driver/Inc/stm32wbxx_ll_system.h ****   *         @arg @ref LL_SYSCFG_SRAM2WRP_PAGE61
1024:Drivers/STM32WBxx_HAL_Driver/Inc/stm32wbxx_ll_system.h ****   *         @arg @ref LL_SYSCFG_SRAM2WRP_PAGE62
1025:Drivers/STM32WBxx_HAL_Driver/Inc/stm32wbxx_ll_system.h ****   *         @arg @ref LL_SYSCFG_SRAM2WRP_PAGE63
1026:Drivers/STM32WBxx_HAL_Driver/Inc/stm32wbxx_ll_system.h ****   * @retval None
1027:Drivers/STM32WBxx_HAL_Driver/Inc/stm32wbxx_ll_system.h ****   */
1028:Drivers/STM32WBxx_HAL_Driver/Inc/stm32wbxx_ll_system.h **** __STATIC_INLINE void LL_SYSCFG_EnableSRAM2PageWRP_32_63(uint32_t SRAM2WRP)
1029:Drivers/STM32WBxx_HAL_Driver/Inc/stm32wbxx_ll_system.h **** {
1030:Drivers/STM32WBxx_HAL_Driver/Inc/stm32wbxx_ll_system.h ****   SET_BIT(SYSCFG->SWPR2, SRAM2WRP);
1031:Drivers/STM32WBxx_HAL_Driver/Inc/stm32wbxx_ll_system.h **** }
1032:Drivers/STM32WBxx_HAL_Driver/Inc/stm32wbxx_ll_system.h **** 
1033:Drivers/STM32WBxx_HAL_Driver/Inc/stm32wbxx_ll_system.h **** /**
1034:Drivers/STM32WBxx_HAL_Driver/Inc/stm32wbxx_ll_system.h ****   * @brief  SRAM2 page write protection lock prior to erase
1035:Drivers/STM32WBxx_HAL_Driver/Inc/stm32wbxx_ll_system.h ****   * @rmtoll SYSCFG_SKR   KEY           LL_SYSCFG_LockSRAM2WRP
1036:Drivers/STM32WBxx_HAL_Driver/Inc/stm32wbxx_ll_system.h ****   * @retval None
1037:Drivers/STM32WBxx_HAL_Driver/Inc/stm32wbxx_ll_system.h ****   */
1038:Drivers/STM32WBxx_HAL_Driver/Inc/stm32wbxx_ll_system.h **** __STATIC_INLINE void LL_SYSCFG_LockSRAM2WRP(void)
1039:Drivers/STM32WBxx_HAL_Driver/Inc/stm32wbxx_ll_system.h **** {
1040:Drivers/STM32WBxx_HAL_Driver/Inc/stm32wbxx_ll_system.h ****   /* Writing a wrong key reactivates the write protection */
1041:Drivers/STM32WBxx_HAL_Driver/Inc/stm32wbxx_ll_system.h ****   WRITE_REG(SYSCFG->SKR, 0x00U);
1042:Drivers/STM32WBxx_HAL_Driver/Inc/stm32wbxx_ll_system.h **** }
1043:Drivers/STM32WBxx_HAL_Driver/Inc/stm32wbxx_ll_system.h **** 
1044:Drivers/STM32WBxx_HAL_Driver/Inc/stm32wbxx_ll_system.h **** /**
1045:Drivers/STM32WBxx_HAL_Driver/Inc/stm32wbxx_ll_system.h ****   * @brief  SRAM2 page write protection unlock prior to erase
1046:Drivers/STM32WBxx_HAL_Driver/Inc/stm32wbxx_ll_system.h ****   * @rmtoll SYSCFG_SKR   KEY           LL_SYSCFG_UnlockSRAM2WRP
1047:Drivers/STM32WBxx_HAL_Driver/Inc/stm32wbxx_ll_system.h ****   * @retval None
1048:Drivers/STM32WBxx_HAL_Driver/Inc/stm32wbxx_ll_system.h ****   */
1049:Drivers/STM32WBxx_HAL_Driver/Inc/stm32wbxx_ll_system.h **** __STATIC_INLINE void LL_SYSCFG_UnlockSRAM2WRP(void)
1050:Drivers/STM32WBxx_HAL_Driver/Inc/stm32wbxx_ll_system.h **** {
1051:Drivers/STM32WBxx_HAL_Driver/Inc/stm32wbxx_ll_system.h ****   /* unlock the write protection of the SRAM2ER bit */
1052:Drivers/STM32WBxx_HAL_Driver/Inc/stm32wbxx_ll_system.h ****   WRITE_REG(SYSCFG->SKR, 0xCAU);
1053:Drivers/STM32WBxx_HAL_Driver/Inc/stm32wbxx_ll_system.h ****   WRITE_REG(SYSCFG->SKR, 0x53U);
1054:Drivers/STM32WBxx_HAL_Driver/Inc/stm32wbxx_ll_system.h **** }
1055:Drivers/STM32WBxx_HAL_Driver/Inc/stm32wbxx_ll_system.h **** 
1056:Drivers/STM32WBxx_HAL_Driver/Inc/stm32wbxx_ll_system.h **** /**
1057:Drivers/STM32WBxx_HAL_Driver/Inc/stm32wbxx_ll_system.h ****   * @brief  Enable CPU1 Interrupt Mask
1058:Drivers/STM32WBxx_HAL_Driver/Inc/stm32wbxx_ll_system.h ****   * @rmtoll SYSCFG_IMR1  TIM1IM      LL_SYSCFG_GRP1_EnableIT\n
1059:Drivers/STM32WBxx_HAL_Driver/Inc/stm32wbxx_ll_system.h ****   *         SYSCFG_IMR1  TIM16IM     LL_SYSCFG_GRP1_EnableIT\n
1060:Drivers/STM32WBxx_HAL_Driver/Inc/stm32wbxx_ll_system.h ****   *         SYSCFG_IMR1  TIM17IM     LL_SYSCFG_GRP1_EnableIT\n
1061:Drivers/STM32WBxx_HAL_Driver/Inc/stm32wbxx_ll_system.h ****   *         SYSCFG_IMR1  EXTIxIM     LL_SYSCFG_GRP1_EnableIT
1062:Drivers/STM32WBxx_HAL_Driver/Inc/stm32wbxx_ll_system.h ****   * @param  Interrupt This parameter can be a combination of the following values:
1063:Drivers/STM32WBxx_HAL_Driver/Inc/stm32wbxx_ll_system.h ****   *         @arg @ref LL_SYSCFG_GRP1_TIM1
1064:Drivers/STM32WBxx_HAL_Driver/Inc/stm32wbxx_ll_system.h ****   *         @arg @ref LL_SYSCFG_GRP1_TIM16
1065:Drivers/STM32WBxx_HAL_Driver/Inc/stm32wbxx_ll_system.h ****   *         @arg @ref LL_SYSCFG_GRP1_TIM17
1066:Drivers/STM32WBxx_HAL_Driver/Inc/stm32wbxx_ll_system.h ****   *         @arg @ref LL_SYSCFG_GRP1_EXTI5
1067:Drivers/STM32WBxx_HAL_Driver/Inc/stm32wbxx_ll_system.h ****   *         @arg @ref LL_SYSCFG_GRP1_EXTI6
1068:Drivers/STM32WBxx_HAL_Driver/Inc/stm32wbxx_ll_system.h ****   *         @arg @ref LL_SYSCFG_GRP1_EXTI7
1069:Drivers/STM32WBxx_HAL_Driver/Inc/stm32wbxx_ll_system.h ****   *         @arg @ref LL_SYSCFG_GRP1_EXTI8
1070:Drivers/STM32WBxx_HAL_Driver/Inc/stm32wbxx_ll_system.h ****   *         @arg @ref LL_SYSCFG_GRP1_EXTI9
ARM GAS  /var/folders/lt/l_qrc8c54t93n_phsj7cf5tc0000gn/T//cc5FK5RK.s 			page 44


1071:Drivers/STM32WBxx_HAL_Driver/Inc/stm32wbxx_ll_system.h ****   *         @arg @ref LL_SYSCFG_GRP1_EXTI10
1072:Drivers/STM32WBxx_HAL_Driver/Inc/stm32wbxx_ll_system.h ****   *         @arg @ref LL_SYSCFG_GRP1_EXTI11
1073:Drivers/STM32WBxx_HAL_Driver/Inc/stm32wbxx_ll_system.h ****   *         @arg @ref LL_SYSCFG_GRP1_EXTI12
1074:Drivers/STM32WBxx_HAL_Driver/Inc/stm32wbxx_ll_system.h ****   *         @arg @ref LL_SYSCFG_GRP1_EXTI13
1075:Drivers/STM32WBxx_HAL_Driver/Inc/stm32wbxx_ll_system.h ****   *         @arg @ref LL_SYSCFG_GRP1_EXTI14
1076:Drivers/STM32WBxx_HAL_Driver/Inc/stm32wbxx_ll_system.h ****   *         @arg @ref LL_SYSCFG_GRP1_EXTI15
1077:Drivers/STM32WBxx_HAL_Driver/Inc/stm32wbxx_ll_system.h ****   * @retval None
1078:Drivers/STM32WBxx_HAL_Driver/Inc/stm32wbxx_ll_system.h ****   */
1079:Drivers/STM32WBxx_HAL_Driver/Inc/stm32wbxx_ll_system.h **** __STATIC_INLINE void LL_SYSCFG_GRP1_EnableIT(uint32_t Interrupt)
1080:Drivers/STM32WBxx_HAL_Driver/Inc/stm32wbxx_ll_system.h **** {
1081:Drivers/STM32WBxx_HAL_Driver/Inc/stm32wbxx_ll_system.h ****   CLEAR_BIT(SYSCFG->IMR1, Interrupt);
1082:Drivers/STM32WBxx_HAL_Driver/Inc/stm32wbxx_ll_system.h **** }
1083:Drivers/STM32WBxx_HAL_Driver/Inc/stm32wbxx_ll_system.h **** 
1084:Drivers/STM32WBxx_HAL_Driver/Inc/stm32wbxx_ll_system.h **** /**
1085:Drivers/STM32WBxx_HAL_Driver/Inc/stm32wbxx_ll_system.h ****   * @brief  Enable CPU1 Interrupt Mask
1086:Drivers/STM32WBxx_HAL_Driver/Inc/stm32wbxx_ll_system.h ****   * @rmtoll SYSCFG_IMR1  PVM1IM      LL_SYSCFG_GRP2_EnableIT\n
1087:Drivers/STM32WBxx_HAL_Driver/Inc/stm32wbxx_ll_system.h ****   *         SYSCFG_IMR1  PVM3IM      LL_SYSCFG_GRP2_EnableIT\n
1088:Drivers/STM32WBxx_HAL_Driver/Inc/stm32wbxx_ll_system.h ****   *         SYSCFG_IMR1  PVDIM       LL_SYSCFG_GRP2_EnableIT
1089:Drivers/STM32WBxx_HAL_Driver/Inc/stm32wbxx_ll_system.h ****   * @param  Interrupt This parameter can be a combination of the following values:
1090:Drivers/STM32WBxx_HAL_Driver/Inc/stm32wbxx_ll_system.h ****   *         @arg @ref LL_SYSCFG_GRP2_PVM1
1091:Drivers/STM32WBxx_HAL_Driver/Inc/stm32wbxx_ll_system.h ****   *         @arg @ref LL_SYSCFG_GRP2_PVM3
1092:Drivers/STM32WBxx_HAL_Driver/Inc/stm32wbxx_ll_system.h ****   *         @arg @ref LL_SYSCFG_GRP2_PVD
1093:Drivers/STM32WBxx_HAL_Driver/Inc/stm32wbxx_ll_system.h ****   * @retval None
1094:Drivers/STM32WBxx_HAL_Driver/Inc/stm32wbxx_ll_system.h ****   */
1095:Drivers/STM32WBxx_HAL_Driver/Inc/stm32wbxx_ll_system.h **** __STATIC_INLINE void LL_SYSCFG_GRP2_EnableIT(uint32_t Interrupt)
1096:Drivers/STM32WBxx_HAL_Driver/Inc/stm32wbxx_ll_system.h **** {
1097:Drivers/STM32WBxx_HAL_Driver/Inc/stm32wbxx_ll_system.h ****   CLEAR_BIT(SYSCFG->IMR2, Interrupt);
1098:Drivers/STM32WBxx_HAL_Driver/Inc/stm32wbxx_ll_system.h **** }
1099:Drivers/STM32WBxx_HAL_Driver/Inc/stm32wbxx_ll_system.h **** 
1100:Drivers/STM32WBxx_HAL_Driver/Inc/stm32wbxx_ll_system.h **** /**
1101:Drivers/STM32WBxx_HAL_Driver/Inc/stm32wbxx_ll_system.h ****   * @brief  Disable CPU1 Interrupt Mask
1102:Drivers/STM32WBxx_HAL_Driver/Inc/stm32wbxx_ll_system.h ****   * @rmtoll SYSCFG_IMR1  TIM1IM      LL_SYSCFG_GRP1_DisableIT\n
1103:Drivers/STM32WBxx_HAL_Driver/Inc/stm32wbxx_ll_system.h ****   *         SYSCFG_IMR1  TIM16IM     LL_SYSCFG_GRP1_DisableIT\n
1104:Drivers/STM32WBxx_HAL_Driver/Inc/stm32wbxx_ll_system.h ****   *         SYSCFG_IMR1  TIM17IM     LL_SYSCFG_GRP1_DisableIT\n
1105:Drivers/STM32WBxx_HAL_Driver/Inc/stm32wbxx_ll_system.h ****   *         SYSCFG_IMR1  EXTIxIM     LL_SYSCFG_GRP1_DisableIT
1106:Drivers/STM32WBxx_HAL_Driver/Inc/stm32wbxx_ll_system.h ****   * @param  Interrupt This parameter can be a combination of the following values:
1107:Drivers/STM32WBxx_HAL_Driver/Inc/stm32wbxx_ll_system.h ****   *         @arg @ref LL_SYSCFG_GRP1_TIM1
1108:Drivers/STM32WBxx_HAL_Driver/Inc/stm32wbxx_ll_system.h ****   *         @arg @ref LL_SYSCFG_GRP1_TIM16
1109:Drivers/STM32WBxx_HAL_Driver/Inc/stm32wbxx_ll_system.h ****   *         @arg @ref LL_SYSCFG_GRP1_TIM17
1110:Drivers/STM32WBxx_HAL_Driver/Inc/stm32wbxx_ll_system.h ****   *         @arg @ref LL_SYSCFG_GRP1_EXTI5
1111:Drivers/STM32WBxx_HAL_Driver/Inc/stm32wbxx_ll_system.h ****   *         @arg @ref LL_SYSCFG_GRP1_EXTI6
1112:Drivers/STM32WBxx_HAL_Driver/Inc/stm32wbxx_ll_system.h ****   *         @arg @ref LL_SYSCFG_GRP1_EXTI7
1113:Drivers/STM32WBxx_HAL_Driver/Inc/stm32wbxx_ll_system.h ****   *         @arg @ref LL_SYSCFG_GRP1_EXTI8
1114:Drivers/STM32WBxx_HAL_Driver/Inc/stm32wbxx_ll_system.h ****   *         @arg @ref LL_SYSCFG_GRP1_EXTI9
1115:Drivers/STM32WBxx_HAL_Driver/Inc/stm32wbxx_ll_system.h ****   *         @arg @ref LL_SYSCFG_GRP1_EXTI10
1116:Drivers/STM32WBxx_HAL_Driver/Inc/stm32wbxx_ll_system.h ****   *         @arg @ref LL_SYSCFG_GRP1_EXTI11
1117:Drivers/STM32WBxx_HAL_Driver/Inc/stm32wbxx_ll_system.h ****   *         @arg @ref LL_SYSCFG_GRP1_EXTI12
1118:Drivers/STM32WBxx_HAL_Driver/Inc/stm32wbxx_ll_system.h ****   *         @arg @ref LL_SYSCFG_GRP1_EXTI13
1119:Drivers/STM32WBxx_HAL_Driver/Inc/stm32wbxx_ll_system.h ****   *         @arg @ref LL_SYSCFG_GRP1_EXTI14
1120:Drivers/STM32WBxx_HAL_Driver/Inc/stm32wbxx_ll_system.h ****   *         @arg @ref LL_SYSCFG_GRP1_EXTI15
1121:Drivers/STM32WBxx_HAL_Driver/Inc/stm32wbxx_ll_system.h ****   * @retval None
1122:Drivers/STM32WBxx_HAL_Driver/Inc/stm32wbxx_ll_system.h ****   */
1123:Drivers/STM32WBxx_HAL_Driver/Inc/stm32wbxx_ll_system.h **** __STATIC_INLINE void LL_SYSCFG_GRP1_DisableIT(uint32_t Interrupt)
1124:Drivers/STM32WBxx_HAL_Driver/Inc/stm32wbxx_ll_system.h **** {
1125:Drivers/STM32WBxx_HAL_Driver/Inc/stm32wbxx_ll_system.h ****   SET_BIT(SYSCFG->IMR1, Interrupt);
1126:Drivers/STM32WBxx_HAL_Driver/Inc/stm32wbxx_ll_system.h **** }
1127:Drivers/STM32WBxx_HAL_Driver/Inc/stm32wbxx_ll_system.h **** 
ARM GAS  /var/folders/lt/l_qrc8c54t93n_phsj7cf5tc0000gn/T//cc5FK5RK.s 			page 45


1128:Drivers/STM32WBxx_HAL_Driver/Inc/stm32wbxx_ll_system.h **** /**
1129:Drivers/STM32WBxx_HAL_Driver/Inc/stm32wbxx_ll_system.h ****   * @brief  Disable CPU1 Interrupt Mask
1130:Drivers/STM32WBxx_HAL_Driver/Inc/stm32wbxx_ll_system.h ****   * @rmtoll SYSCFG_IMR2  PVM1IM      LL_SYSCFG_GRP2_DisableIT\n
1131:Drivers/STM32WBxx_HAL_Driver/Inc/stm32wbxx_ll_system.h ****   *         SYSCFG_IMR2  PVM3IM      LL_SYSCFG_GRP2_DisableIT\n
1132:Drivers/STM32WBxx_HAL_Driver/Inc/stm32wbxx_ll_system.h ****   *         SYSCFG_IMR2  PVDIM       LL_SYSCFG_GRP2_DisableIT
1133:Drivers/STM32WBxx_HAL_Driver/Inc/stm32wbxx_ll_system.h ****   * @param  Interrupt This parameter can be a combination of the following values:
1134:Drivers/STM32WBxx_HAL_Driver/Inc/stm32wbxx_ll_system.h ****   *         @arg @ref LL_SYSCFG_GRP2_PVM1
1135:Drivers/STM32WBxx_HAL_Driver/Inc/stm32wbxx_ll_system.h ****   *         @arg @ref LL_SYSCFG_GRP2_PVM3
1136:Drivers/STM32WBxx_HAL_Driver/Inc/stm32wbxx_ll_system.h ****   *         @arg @ref LL_SYSCFG_GRP2_PVD
1137:Drivers/STM32WBxx_HAL_Driver/Inc/stm32wbxx_ll_system.h ****   * @retval None
1138:Drivers/STM32WBxx_HAL_Driver/Inc/stm32wbxx_ll_system.h ****   */
1139:Drivers/STM32WBxx_HAL_Driver/Inc/stm32wbxx_ll_system.h **** __STATIC_INLINE void LL_SYSCFG_GRP2_DisableIT(uint32_t Interrupt)
1140:Drivers/STM32WBxx_HAL_Driver/Inc/stm32wbxx_ll_system.h **** {
1141:Drivers/STM32WBxx_HAL_Driver/Inc/stm32wbxx_ll_system.h ****   SET_BIT(SYSCFG->IMR2, Interrupt);
1142:Drivers/STM32WBxx_HAL_Driver/Inc/stm32wbxx_ll_system.h **** }
1143:Drivers/STM32WBxx_HAL_Driver/Inc/stm32wbxx_ll_system.h **** 
1144:Drivers/STM32WBxx_HAL_Driver/Inc/stm32wbxx_ll_system.h **** /**
1145:Drivers/STM32WBxx_HAL_Driver/Inc/stm32wbxx_ll_system.h ****   * @brief  Indicate if CPU1 Interrupt Mask is enabled
1146:Drivers/STM32WBxx_HAL_Driver/Inc/stm32wbxx_ll_system.h ****   * @rmtoll SYSCFG_IMR1  TIM1IM      LL_SYSCFG_GRP1_IsEnabledIT\n
1147:Drivers/STM32WBxx_HAL_Driver/Inc/stm32wbxx_ll_system.h ****   *         SYSCFG_IMR1  TIM16IM     LL_SYSCFG_GRP1_IsEnabledIT\n
1148:Drivers/STM32WBxx_HAL_Driver/Inc/stm32wbxx_ll_system.h ****   *         SYSCFG_IMR1  TIM17IM     LL_SYSCFG_GRP1_IsEnabledIT\n
1149:Drivers/STM32WBxx_HAL_Driver/Inc/stm32wbxx_ll_system.h ****   *         SYSCFG_IMR1  EXTIxIM     LL_SYSCFG_GRP1_IsEnabledIT
1150:Drivers/STM32WBxx_HAL_Driver/Inc/stm32wbxx_ll_system.h ****   * @param  Interrupt This parameter can be one of the following values:
1151:Drivers/STM32WBxx_HAL_Driver/Inc/stm32wbxx_ll_system.h ****   *         @arg @ref LL_SYSCFG_GRP1_TIM1
1152:Drivers/STM32WBxx_HAL_Driver/Inc/stm32wbxx_ll_system.h ****   *         @arg @ref LL_SYSCFG_GRP1_TIM16
1153:Drivers/STM32WBxx_HAL_Driver/Inc/stm32wbxx_ll_system.h ****   *         @arg @ref LL_SYSCFG_GRP1_TIM17
1154:Drivers/STM32WBxx_HAL_Driver/Inc/stm32wbxx_ll_system.h ****   *         @arg @ref LL_SYSCFG_GRP1_EXTI5
1155:Drivers/STM32WBxx_HAL_Driver/Inc/stm32wbxx_ll_system.h ****   *         @arg @ref LL_SYSCFG_GRP1_EXTI6
1156:Drivers/STM32WBxx_HAL_Driver/Inc/stm32wbxx_ll_system.h ****   *         @arg @ref LL_SYSCFG_GRP1_EXTI7
1157:Drivers/STM32WBxx_HAL_Driver/Inc/stm32wbxx_ll_system.h ****   *         @arg @ref LL_SYSCFG_GRP1_EXTI8
1158:Drivers/STM32WBxx_HAL_Driver/Inc/stm32wbxx_ll_system.h ****   *         @arg @ref LL_SYSCFG_GRP1_EXTI9
1159:Drivers/STM32WBxx_HAL_Driver/Inc/stm32wbxx_ll_system.h ****   *         @arg @ref LL_SYSCFG_GRP1_EXTI10
1160:Drivers/STM32WBxx_HAL_Driver/Inc/stm32wbxx_ll_system.h ****   *         @arg @ref LL_SYSCFG_GRP1_EXTI11
1161:Drivers/STM32WBxx_HAL_Driver/Inc/stm32wbxx_ll_system.h ****   *         @arg @ref LL_SYSCFG_GRP1_EXTI12
1162:Drivers/STM32WBxx_HAL_Driver/Inc/stm32wbxx_ll_system.h ****   *         @arg @ref LL_SYSCFG_GRP1_EXTI13
1163:Drivers/STM32WBxx_HAL_Driver/Inc/stm32wbxx_ll_system.h ****   *         @arg @ref LL_SYSCFG_GRP1_EXTI14
1164:Drivers/STM32WBxx_HAL_Driver/Inc/stm32wbxx_ll_system.h ****   *         @arg @ref LL_SYSCFG_GRP1_EXTI15
1165:Drivers/STM32WBxx_HAL_Driver/Inc/stm32wbxx_ll_system.h ****   * @retval State of bit (1 or 0).
1166:Drivers/STM32WBxx_HAL_Driver/Inc/stm32wbxx_ll_system.h ****   */
1167:Drivers/STM32WBxx_HAL_Driver/Inc/stm32wbxx_ll_system.h **** __STATIC_INLINE uint32_t LL_SYSCFG_GRP1_IsEnabledIT(uint32_t Interrupt)
1168:Drivers/STM32WBxx_HAL_Driver/Inc/stm32wbxx_ll_system.h **** {
1169:Drivers/STM32WBxx_HAL_Driver/Inc/stm32wbxx_ll_system.h ****   return ((READ_BIT(SYSCFG->IMR1, Interrupt) != (Interrupt)) ? 1UL : 0UL);
1170:Drivers/STM32WBxx_HAL_Driver/Inc/stm32wbxx_ll_system.h **** }
1171:Drivers/STM32WBxx_HAL_Driver/Inc/stm32wbxx_ll_system.h **** 
1172:Drivers/STM32WBxx_HAL_Driver/Inc/stm32wbxx_ll_system.h **** /**
1173:Drivers/STM32WBxx_HAL_Driver/Inc/stm32wbxx_ll_system.h ****   * @brief  Indicate if CPU1 Interrupt Mask is enabled
1174:Drivers/STM32WBxx_HAL_Driver/Inc/stm32wbxx_ll_system.h ****   * @rmtoll SYSCFG_IMR2  PVM1IM      LL_SYSCFG_GRP2_IsEnabledIT\n
1175:Drivers/STM32WBxx_HAL_Driver/Inc/stm32wbxx_ll_system.h ****   *         SYSCFG_IMR2  PVM3IM      LL_SYSCFG_GRP2_IsEnabledIT\n
1176:Drivers/STM32WBxx_HAL_Driver/Inc/stm32wbxx_ll_system.h ****   *         SYSCFG_IMR2  PVDIM       LL_SYSCFG_GRP2_IsEnabledIT
1177:Drivers/STM32WBxx_HAL_Driver/Inc/stm32wbxx_ll_system.h ****   * @param  Interrupt This parameter can be one of the following values:
1178:Drivers/STM32WBxx_HAL_Driver/Inc/stm32wbxx_ll_system.h ****   *         @arg @ref LL_SYSCFG_GRP2_PVM1
1179:Drivers/STM32WBxx_HAL_Driver/Inc/stm32wbxx_ll_system.h ****   *         @arg @ref LL_SYSCFG_GRP2_PVM3
1180:Drivers/STM32WBxx_HAL_Driver/Inc/stm32wbxx_ll_system.h ****   *         @arg @ref LL_SYSCFG_GRP2_PVD
1181:Drivers/STM32WBxx_HAL_Driver/Inc/stm32wbxx_ll_system.h ****   * @retval State of bit (1 or 0).
1182:Drivers/STM32WBxx_HAL_Driver/Inc/stm32wbxx_ll_system.h ****   */
1183:Drivers/STM32WBxx_HAL_Driver/Inc/stm32wbxx_ll_system.h **** __STATIC_INLINE uint32_t LL_SYSCFG_GRP2_IsEnabledIT(uint32_t Interrupt)
1184:Drivers/STM32WBxx_HAL_Driver/Inc/stm32wbxx_ll_system.h **** {
ARM GAS  /var/folders/lt/l_qrc8c54t93n_phsj7cf5tc0000gn/T//cc5FK5RK.s 			page 46


1185:Drivers/STM32WBxx_HAL_Driver/Inc/stm32wbxx_ll_system.h ****   return ((READ_BIT(SYSCFG->IMR2, Interrupt) != (Interrupt)) ? 1UL : 0UL);
1186:Drivers/STM32WBxx_HAL_Driver/Inc/stm32wbxx_ll_system.h **** }
1187:Drivers/STM32WBxx_HAL_Driver/Inc/stm32wbxx_ll_system.h **** 
1188:Drivers/STM32WBxx_HAL_Driver/Inc/stm32wbxx_ll_system.h **** /**
1189:Drivers/STM32WBxx_HAL_Driver/Inc/stm32wbxx_ll_system.h ****   * @brief  Enable CPU2 Interrupt Mask
1190:Drivers/STM32WBxx_HAL_Driver/Inc/stm32wbxx_ll_system.h ****   * @rmtoll SYSCFG_C2IMR1  RTCSTAMPTAMPLSECSSIM      LL_C2_SYSCFG_GRP1_EnableIT\n
1191:Drivers/STM32WBxx_HAL_Driver/Inc/stm32wbxx_ll_system.h ****   *         SYSCFG_C2IMR1  RTCWKUPIM   LL_C2_SYSCFG_GRP1_EnableIT\n
1192:Drivers/STM32WBxx_HAL_Driver/Inc/stm32wbxx_ll_system.h ****   *         SYSCFG_C2IMR1  RTCALARMIM  LL_C2_SYSCFG_GRP1_EnableIT\n
1193:Drivers/STM32WBxx_HAL_Driver/Inc/stm32wbxx_ll_system.h ****   *         SYSCFG_C2IMR1  RCCIM       LL_C2_SYSCFG_GRP1_EnableIT\n
1194:Drivers/STM32WBxx_HAL_Driver/Inc/stm32wbxx_ll_system.h ****   *         SYSCFG_C2IMR1  FLASHIM     LL_C2_SYSCFG_GRP1_EnableIT\n
1195:Drivers/STM32WBxx_HAL_Driver/Inc/stm32wbxx_ll_system.h ****   *         SYSCFG_C2IMR1  PKAIM       LL_C2_SYSCFG_GRP1_EnableIT\n
1196:Drivers/STM32WBxx_HAL_Driver/Inc/stm32wbxx_ll_system.h ****   *         SYSCFG_C2IMR1  RNGIM       LL_C2_SYSCFG_GRP1_EnableIT\n
1197:Drivers/STM32WBxx_HAL_Driver/Inc/stm32wbxx_ll_system.h ****   *         SYSCFG_C2IMR1  AES1IM      LL_C2_SYSCFG_GRP1_EnableIT\n
1198:Drivers/STM32WBxx_HAL_Driver/Inc/stm32wbxx_ll_system.h ****   *         SYSCFG_C2IMR1  COMPIM      LL_C2_SYSCFG_GRP1_EnableIT\n
1199:Drivers/STM32WBxx_HAL_Driver/Inc/stm32wbxx_ll_system.h ****   *         SYSCFG_C2IMR1  ADCIM       LL_C2_SYSCFG_GRP1_EnableIT\n
1200:Drivers/STM32WBxx_HAL_Driver/Inc/stm32wbxx_ll_system.h ****   *         SYSCFG_C2IMR1  EXTIxIM     LL_C2_SYSCFG_GRP1_EnableIT
1201:Drivers/STM32WBxx_HAL_Driver/Inc/stm32wbxx_ll_system.h ****   * @param  Interrupt This parameter can be a combination of the following values:
1202:Drivers/STM32WBxx_HAL_Driver/Inc/stm32wbxx_ll_system.h ****   *         @arg @ref LL_C2_SYSCFG_GRP1_RTCSTAMP_RTCTAMP_LSECSS
1203:Drivers/STM32WBxx_HAL_Driver/Inc/stm32wbxx_ll_system.h ****   *         @arg @ref LL_C2_SYSCFG_GRP1_RTCWKUP
1204:Drivers/STM32WBxx_HAL_Driver/Inc/stm32wbxx_ll_system.h ****   *         @arg @ref LL_C2_SYSCFG_GRP1_RTCALARM
1205:Drivers/STM32WBxx_HAL_Driver/Inc/stm32wbxx_ll_system.h ****   *         @arg @ref LL_C2_SYSCFG_GRP1_RCC
1206:Drivers/STM32WBxx_HAL_Driver/Inc/stm32wbxx_ll_system.h ****   *         @arg @ref LL_C2_SYSCFG_GRP1_FLASH
1207:Drivers/STM32WBxx_HAL_Driver/Inc/stm32wbxx_ll_system.h ****   *         @arg @ref LL_C2_SYSCFG_GRP1_PKA
1208:Drivers/STM32WBxx_HAL_Driver/Inc/stm32wbxx_ll_system.h ****   *         @arg @ref LL_C2_SYSCFG_GRP1_RNG
1209:Drivers/STM32WBxx_HAL_Driver/Inc/stm32wbxx_ll_system.h ****   *         @arg @ref LL_C2_SYSCFG_GRP1_AES1
1210:Drivers/STM32WBxx_HAL_Driver/Inc/stm32wbxx_ll_system.h ****   *         @arg @ref LL_C2_SYSCFG_GRP1_COMP
1211:Drivers/STM32WBxx_HAL_Driver/Inc/stm32wbxx_ll_system.h ****   *         @arg @ref LL_C2_SYSCFG_GRP1_ADC
1212:Drivers/STM32WBxx_HAL_Driver/Inc/stm32wbxx_ll_system.h ****   *         @arg @ref LL_C2_SYSCFG_GRP1_EXTI0
1213:Drivers/STM32WBxx_HAL_Driver/Inc/stm32wbxx_ll_system.h ****   *         @arg @ref LL_C2_SYSCFG_GRP1_EXTI1
1214:Drivers/STM32WBxx_HAL_Driver/Inc/stm32wbxx_ll_system.h ****   *         @arg @ref LL_C2_SYSCFG_GRP1_EXTI2
1215:Drivers/STM32WBxx_HAL_Driver/Inc/stm32wbxx_ll_system.h ****   *         @arg @ref LL_C2_SYSCFG_GRP1_EXTI3
1216:Drivers/STM32WBxx_HAL_Driver/Inc/stm32wbxx_ll_system.h ****   *         @arg @ref LL_C2_SYSCFG_GRP1_EXTI4
1217:Drivers/STM32WBxx_HAL_Driver/Inc/stm32wbxx_ll_system.h ****   *         @arg @ref LL_C2_SYSCFG_GRP1_EXTI5
1218:Drivers/STM32WBxx_HAL_Driver/Inc/stm32wbxx_ll_system.h ****   *         @arg @ref LL_C2_SYSCFG_GRP1_EXTI6
1219:Drivers/STM32WBxx_HAL_Driver/Inc/stm32wbxx_ll_system.h ****   *         @arg @ref LL_C2_SYSCFG_GRP1_EXTI7
1220:Drivers/STM32WBxx_HAL_Driver/Inc/stm32wbxx_ll_system.h ****   *         @arg @ref LL_C2_SYSCFG_GRP1_EXTI8
1221:Drivers/STM32WBxx_HAL_Driver/Inc/stm32wbxx_ll_system.h ****   *         @arg @ref LL_C2_SYSCFG_GRP1_EXTI9
1222:Drivers/STM32WBxx_HAL_Driver/Inc/stm32wbxx_ll_system.h ****   *         @arg @ref LL_C2_SYSCFG_GRP1_EXTI10
1223:Drivers/STM32WBxx_HAL_Driver/Inc/stm32wbxx_ll_system.h ****   *         @arg @ref LL_C2_SYSCFG_GRP1_EXTI11
1224:Drivers/STM32WBxx_HAL_Driver/Inc/stm32wbxx_ll_system.h ****   *         @arg @ref LL_C2_SYSCFG_GRP1_EXTI12
1225:Drivers/STM32WBxx_HAL_Driver/Inc/stm32wbxx_ll_system.h ****   *         @arg @ref LL_C2_SYSCFG_GRP1_EXTI13
1226:Drivers/STM32WBxx_HAL_Driver/Inc/stm32wbxx_ll_system.h ****   *         @arg @ref LL_C2_SYSCFG_GRP1_EXTI14
1227:Drivers/STM32WBxx_HAL_Driver/Inc/stm32wbxx_ll_system.h ****   *         @arg @ref LL_C2_SYSCFG_GRP1_EXTI15
1228:Drivers/STM32WBxx_HAL_Driver/Inc/stm32wbxx_ll_system.h ****   * @retval None
1229:Drivers/STM32WBxx_HAL_Driver/Inc/stm32wbxx_ll_system.h ****   */
1230:Drivers/STM32WBxx_HAL_Driver/Inc/stm32wbxx_ll_system.h **** __STATIC_INLINE void LL_C2_SYSCFG_GRP1_EnableIT(uint32_t Interrupt)
1231:Drivers/STM32WBxx_HAL_Driver/Inc/stm32wbxx_ll_system.h **** {
1232:Drivers/STM32WBxx_HAL_Driver/Inc/stm32wbxx_ll_system.h ****   CLEAR_BIT(SYSCFG->C2IMR1, Interrupt);
1233:Drivers/STM32WBxx_HAL_Driver/Inc/stm32wbxx_ll_system.h **** }
1234:Drivers/STM32WBxx_HAL_Driver/Inc/stm32wbxx_ll_system.h **** 
1235:Drivers/STM32WBxx_HAL_Driver/Inc/stm32wbxx_ll_system.h **** /**
1236:Drivers/STM32WBxx_HAL_Driver/Inc/stm32wbxx_ll_system.h ****   * @brief  Enable CPU2 Interrupt Mask
1237:Drivers/STM32WBxx_HAL_Driver/Inc/stm32wbxx_ll_system.h ****   * @rmtoll SYSCFG_C2IMR2  DMA1CHxIM   LL_C2_SYSCFG_GRP2_EnableIT\n
1238:Drivers/STM32WBxx_HAL_Driver/Inc/stm32wbxx_ll_system.h ****   *         SYSCFG_C2IMR2  DMA2CHxIM   LL_C2_SYSCFG_GRP2_EnableIT\n
1239:Drivers/STM32WBxx_HAL_Driver/Inc/stm32wbxx_ll_system.h ****   *         SYSCFG_C2IMR2  PVM1IM      LL_C2_SYSCFG_GRP2_EnableIT\n
1240:Drivers/STM32WBxx_HAL_Driver/Inc/stm32wbxx_ll_system.h ****   *         SYSCFG_C2IMR2  PVM3IM      LL_C2_SYSCFG_GRP2_EnableIT\n
1241:Drivers/STM32WBxx_HAL_Driver/Inc/stm32wbxx_ll_system.h ****   *         SYSCFG_C2IMR2  PVDIM       LL_C2_SYSCFG_GRP2_EnableIT\n
ARM GAS  /var/folders/lt/l_qrc8c54t93n_phsj7cf5tc0000gn/T//cc5FK5RK.s 			page 47


1242:Drivers/STM32WBxx_HAL_Driver/Inc/stm32wbxx_ll_system.h ****   *         SYSCFG_C2IMR2  TSCIM       LL_C2_SYSCFG_GRP2_EnableIT\n
1243:Drivers/STM32WBxx_HAL_Driver/Inc/stm32wbxx_ll_system.h ****   *         SYSCFG_C2IMR2  LCDIM       LL_C2_SYSCFG_GRP2_EnableIT
1244:Drivers/STM32WBxx_HAL_Driver/Inc/stm32wbxx_ll_system.h ****   * @param  Interrupt This parameter can be a combination of the following values:
1245:Drivers/STM32WBxx_HAL_Driver/Inc/stm32wbxx_ll_system.h ****   *         @arg @ref LL_C2_SYSCFG_GRP2_DMA1CH1
1246:Drivers/STM32WBxx_HAL_Driver/Inc/stm32wbxx_ll_system.h ****   *         @arg @ref LL_C2_SYSCFG_GRP2_DMA1CH2
1247:Drivers/STM32WBxx_HAL_Driver/Inc/stm32wbxx_ll_system.h ****   *         @arg @ref LL_C2_SYSCFG_GRP2_DMA1CH3
1248:Drivers/STM32WBxx_HAL_Driver/Inc/stm32wbxx_ll_system.h ****   *         @arg @ref LL_C2_SYSCFG_GRP2_DMA1CH4
1249:Drivers/STM32WBxx_HAL_Driver/Inc/stm32wbxx_ll_system.h ****   *         @arg @ref LL_C2_SYSCFG_GRP2_DMA1CH5
1250:Drivers/STM32WBxx_HAL_Driver/Inc/stm32wbxx_ll_system.h ****   *         @arg @ref LL_C2_SYSCFG_GRP2_DMA1CH6
1251:Drivers/STM32WBxx_HAL_Driver/Inc/stm32wbxx_ll_system.h ****   *         @arg @ref LL_C2_SYSCFG_GRP2_DMA1CH7
1252:Drivers/STM32WBxx_HAL_Driver/Inc/stm32wbxx_ll_system.h ****   *         @arg @ref LL_C2_SYSCFG_GRP2_DMA2CH1
1253:Drivers/STM32WBxx_HAL_Driver/Inc/stm32wbxx_ll_system.h ****   *         @arg @ref LL_C2_SYSCFG_GRP2_DMA2CH2
1254:Drivers/STM32WBxx_HAL_Driver/Inc/stm32wbxx_ll_system.h ****   *         @arg @ref LL_C2_SYSCFG_GRP2_DMA2CH3
1255:Drivers/STM32WBxx_HAL_Driver/Inc/stm32wbxx_ll_system.h ****   *         @arg @ref LL_C2_SYSCFG_GRP2_DMA2CH4
1256:Drivers/STM32WBxx_HAL_Driver/Inc/stm32wbxx_ll_system.h ****   *         @arg @ref LL_C2_SYSCFG_GRP2_DMA2CH5
1257:Drivers/STM32WBxx_HAL_Driver/Inc/stm32wbxx_ll_system.h ****   *         @arg @ref LL_C2_SYSCFG_GRP2_DMA2CH6
1258:Drivers/STM32WBxx_HAL_Driver/Inc/stm32wbxx_ll_system.h ****   *         @arg @ref LL_C2_SYSCFG_GRP2_DMA2CH7
1259:Drivers/STM32WBxx_HAL_Driver/Inc/stm32wbxx_ll_system.h ****   *         @arg @ref LL_C2_SYSCFG_GRP2_DMAMUX1
1260:Drivers/STM32WBxx_HAL_Driver/Inc/stm32wbxx_ll_system.h ****   *         @arg @ref LL_C2_SYSCFG_GRP2_PVM1
1261:Drivers/STM32WBxx_HAL_Driver/Inc/stm32wbxx_ll_system.h ****   *         @arg @ref LL_C2_SYSCFG_GRP2_PVM3
1262:Drivers/STM32WBxx_HAL_Driver/Inc/stm32wbxx_ll_system.h ****   *         @arg @ref LL_C2_SYSCFG_GRP2_PVD
1263:Drivers/STM32WBxx_HAL_Driver/Inc/stm32wbxx_ll_system.h ****   *         @arg @ref LL_C2_SYSCFG_GRP2_TSC
1264:Drivers/STM32WBxx_HAL_Driver/Inc/stm32wbxx_ll_system.h ****   *         @arg @ref LL_C2_SYSCFG_GRP2_LCD
1265:Drivers/STM32WBxx_HAL_Driver/Inc/stm32wbxx_ll_system.h ****   * @retval None
1266:Drivers/STM32WBxx_HAL_Driver/Inc/stm32wbxx_ll_system.h ****   */
1267:Drivers/STM32WBxx_HAL_Driver/Inc/stm32wbxx_ll_system.h **** __STATIC_INLINE void LL_C2_SYSCFG_GRP2_EnableIT(uint32_t Interrupt)
1268:Drivers/STM32WBxx_HAL_Driver/Inc/stm32wbxx_ll_system.h **** {
1269:Drivers/STM32WBxx_HAL_Driver/Inc/stm32wbxx_ll_system.h ****   CLEAR_BIT(SYSCFG->C2IMR2, Interrupt);
1270:Drivers/STM32WBxx_HAL_Driver/Inc/stm32wbxx_ll_system.h **** }
1271:Drivers/STM32WBxx_HAL_Driver/Inc/stm32wbxx_ll_system.h **** 
1272:Drivers/STM32WBxx_HAL_Driver/Inc/stm32wbxx_ll_system.h **** /**
1273:Drivers/STM32WBxx_HAL_Driver/Inc/stm32wbxx_ll_system.h ****   * @brief  Disable CPU2 Interrupt Mask
1274:Drivers/STM32WBxx_HAL_Driver/Inc/stm32wbxx_ll_system.h ****   * @rmtoll SYSCFG_C2IMR1  RTCSTAMPTAMPLSECSSIM      LL_C2_SYSCFG_GRP1_DisableIT\n
1275:Drivers/STM32WBxx_HAL_Driver/Inc/stm32wbxx_ll_system.h ****   *         SYSCFG_C2IMR1  RTCWKUPIM   LL_C2_SYSCFG_GRP1_DisableIT\n
1276:Drivers/STM32WBxx_HAL_Driver/Inc/stm32wbxx_ll_system.h ****   *         SYSCFG_C2IMR1  RTCALARMIM  LL_C2_SYSCFG_GRP1_DisableIT\n
1277:Drivers/STM32WBxx_HAL_Driver/Inc/stm32wbxx_ll_system.h ****   *         SYSCFG_C2IMR1  RCCIM       LL_C2_SYSCFG_GRP1_DisableIT\n
1278:Drivers/STM32WBxx_HAL_Driver/Inc/stm32wbxx_ll_system.h ****   *         SYSCFG_C2IMR1  FLASHIM     LL_C2_SYSCFG_GRP1_DisableIT\n
1279:Drivers/STM32WBxx_HAL_Driver/Inc/stm32wbxx_ll_system.h ****   *         SYSCFG_C2IMR1  PKAIM       LL_C2_SYSCFG_GRP1_DisableIT\n
1280:Drivers/STM32WBxx_HAL_Driver/Inc/stm32wbxx_ll_system.h ****   *         SYSCFG_C2IMR1  RNGIM       LL_C2_SYSCFG_GRP1_DisableIT\n
1281:Drivers/STM32WBxx_HAL_Driver/Inc/stm32wbxx_ll_system.h ****   *         SYSCFG_C2IMR1  AES1IM      LL_C2_SYSCFG_GRP1_DisableIT\n
1282:Drivers/STM32WBxx_HAL_Driver/Inc/stm32wbxx_ll_system.h ****   *         SYSCFG_C2IMR1  COMPIM      LL_C2_SYSCFG_GRP1_DisableIT\n
1283:Drivers/STM32WBxx_HAL_Driver/Inc/stm32wbxx_ll_system.h ****   *         SYSCFG_C2IMR1  ADCIM       LL_C2_SYSCFG_GRP1_DisableIT\n
1284:Drivers/STM32WBxx_HAL_Driver/Inc/stm32wbxx_ll_system.h ****   *         SYSCFG_C2IMR1  EXTIxIM     LL_C2_SYSCFG_GRP1_DisableIT
1285:Drivers/STM32WBxx_HAL_Driver/Inc/stm32wbxx_ll_system.h ****   * @param  Interrupt This parameter can be a combination of the following values:
1286:Drivers/STM32WBxx_HAL_Driver/Inc/stm32wbxx_ll_system.h ****   *         @arg @ref LL_C2_SYSCFG_GRP1_RTCSTAMP_RTCTAMP_LSECSS
1287:Drivers/STM32WBxx_HAL_Driver/Inc/stm32wbxx_ll_system.h ****   *         @arg @ref LL_C2_SYSCFG_GRP1_RTCWKUP
1288:Drivers/STM32WBxx_HAL_Driver/Inc/stm32wbxx_ll_system.h ****   *         @arg @ref LL_C2_SYSCFG_GRP1_RTCALARM
1289:Drivers/STM32WBxx_HAL_Driver/Inc/stm32wbxx_ll_system.h ****   *         @arg @ref LL_C2_SYSCFG_GRP1_RCC
1290:Drivers/STM32WBxx_HAL_Driver/Inc/stm32wbxx_ll_system.h ****   *         @arg @ref LL_C2_SYSCFG_GRP1_FLASH
1291:Drivers/STM32WBxx_HAL_Driver/Inc/stm32wbxx_ll_system.h ****   *         @arg @ref LL_C2_SYSCFG_GRP1_PKA
1292:Drivers/STM32WBxx_HAL_Driver/Inc/stm32wbxx_ll_system.h ****   *         @arg @ref LL_C2_SYSCFG_GRP1_RNG
1293:Drivers/STM32WBxx_HAL_Driver/Inc/stm32wbxx_ll_system.h ****   *         @arg @ref LL_C2_SYSCFG_GRP1_AES1
1294:Drivers/STM32WBxx_HAL_Driver/Inc/stm32wbxx_ll_system.h ****   *         @arg @ref LL_C2_SYSCFG_GRP1_COMP
1295:Drivers/STM32WBxx_HAL_Driver/Inc/stm32wbxx_ll_system.h ****   *         @arg @ref LL_C2_SYSCFG_GRP1_ADC
1296:Drivers/STM32WBxx_HAL_Driver/Inc/stm32wbxx_ll_system.h ****   *         @arg @ref LL_C2_SYSCFG_GRP1_EXTI0
1297:Drivers/STM32WBxx_HAL_Driver/Inc/stm32wbxx_ll_system.h ****   *         @arg @ref LL_C2_SYSCFG_GRP1_EXTI1
1298:Drivers/STM32WBxx_HAL_Driver/Inc/stm32wbxx_ll_system.h ****   *         @arg @ref LL_C2_SYSCFG_GRP1_EXTI2
ARM GAS  /var/folders/lt/l_qrc8c54t93n_phsj7cf5tc0000gn/T//cc5FK5RK.s 			page 48


1299:Drivers/STM32WBxx_HAL_Driver/Inc/stm32wbxx_ll_system.h ****   *         @arg @ref LL_C2_SYSCFG_GRP1_EXTI3
1300:Drivers/STM32WBxx_HAL_Driver/Inc/stm32wbxx_ll_system.h ****   *         @arg @ref LL_C2_SYSCFG_GRP1_EXTI4
1301:Drivers/STM32WBxx_HAL_Driver/Inc/stm32wbxx_ll_system.h ****   *         @arg @ref LL_C2_SYSCFG_GRP1_EXTI5
1302:Drivers/STM32WBxx_HAL_Driver/Inc/stm32wbxx_ll_system.h ****   *         @arg @ref LL_C2_SYSCFG_GRP1_EXTI6
1303:Drivers/STM32WBxx_HAL_Driver/Inc/stm32wbxx_ll_system.h ****   *         @arg @ref LL_C2_SYSCFG_GRP1_EXTI7
1304:Drivers/STM32WBxx_HAL_Driver/Inc/stm32wbxx_ll_system.h ****   *         @arg @ref LL_C2_SYSCFG_GRP1_EXTI8
1305:Drivers/STM32WBxx_HAL_Driver/Inc/stm32wbxx_ll_system.h ****   *         @arg @ref LL_C2_SYSCFG_GRP1_EXTI9
1306:Drivers/STM32WBxx_HAL_Driver/Inc/stm32wbxx_ll_system.h ****   *         @arg @ref LL_C2_SYSCFG_GRP1_EXTI10
1307:Drivers/STM32WBxx_HAL_Driver/Inc/stm32wbxx_ll_system.h ****   *         @arg @ref LL_C2_SYSCFG_GRP1_EXTI11
1308:Drivers/STM32WBxx_HAL_Driver/Inc/stm32wbxx_ll_system.h ****   *         @arg @ref LL_C2_SYSCFG_GRP1_EXTI12
1309:Drivers/STM32WBxx_HAL_Driver/Inc/stm32wbxx_ll_system.h ****   *         @arg @ref LL_C2_SYSCFG_GRP1_EXTI13
1310:Drivers/STM32WBxx_HAL_Driver/Inc/stm32wbxx_ll_system.h ****   *         @arg @ref LL_C2_SYSCFG_GRP1_EXTI14
1311:Drivers/STM32WBxx_HAL_Driver/Inc/stm32wbxx_ll_system.h ****   *         @arg @ref LL_C2_SYSCFG_GRP1_EXTI15
1312:Drivers/STM32WBxx_HAL_Driver/Inc/stm32wbxx_ll_system.h ****   * @retval None
1313:Drivers/STM32WBxx_HAL_Driver/Inc/stm32wbxx_ll_system.h ****   */
1314:Drivers/STM32WBxx_HAL_Driver/Inc/stm32wbxx_ll_system.h **** __STATIC_INLINE void LL_C2_SYSCFG_GRP1_DisableIT(uint32_t Interrupt)
1315:Drivers/STM32WBxx_HAL_Driver/Inc/stm32wbxx_ll_system.h **** {
1316:Drivers/STM32WBxx_HAL_Driver/Inc/stm32wbxx_ll_system.h ****   SET_BIT(SYSCFG->C2IMR1, Interrupt);
1317:Drivers/STM32WBxx_HAL_Driver/Inc/stm32wbxx_ll_system.h **** }
1318:Drivers/STM32WBxx_HAL_Driver/Inc/stm32wbxx_ll_system.h **** 
1319:Drivers/STM32WBxx_HAL_Driver/Inc/stm32wbxx_ll_system.h **** /**
1320:Drivers/STM32WBxx_HAL_Driver/Inc/stm32wbxx_ll_system.h ****   * @brief  Disable CPU2 Interrupt Mask
1321:Drivers/STM32WBxx_HAL_Driver/Inc/stm32wbxx_ll_system.h ****   * @rmtoll SYSCFG_C2IMR2  DMA1CHxIM   LL_C2_SYSCFG_GRP2_DisableIT\n
1322:Drivers/STM32WBxx_HAL_Driver/Inc/stm32wbxx_ll_system.h ****   *         SYSCFG_C2IMR2  DMA2CHxIM   LL_C2_SYSCFG_GRP2_DisableIT\n
1323:Drivers/STM32WBxx_HAL_Driver/Inc/stm32wbxx_ll_system.h ****   *         SYSCFG_C2IMR2  PVM1IM      LL_C2_SYSCFG_GRP2_DisableIT\n
1324:Drivers/STM32WBxx_HAL_Driver/Inc/stm32wbxx_ll_system.h ****   *         SYSCFG_C2IMR2  PVM3IM      LL_C2_SYSCFG_GRP2_DisableIT\n
1325:Drivers/STM32WBxx_HAL_Driver/Inc/stm32wbxx_ll_system.h ****   *         SYSCFG_C2IMR2  PVDIM       LL_C2_SYSCFG_GRP2_DisableIT\n
1326:Drivers/STM32WBxx_HAL_Driver/Inc/stm32wbxx_ll_system.h ****   *         SYSCFG_C2IMR2  TSCIM       LL_C2_SYSCFG_GRP2_DisableIT\n
1327:Drivers/STM32WBxx_HAL_Driver/Inc/stm32wbxx_ll_system.h ****   *         SYSCFG_C2IMR2  LCDIM       LL_C2_SYSCFG_GRP2_DisableIT
1328:Drivers/STM32WBxx_HAL_Driver/Inc/stm32wbxx_ll_system.h ****   * @param  Interrupt This parameter can be a combination of the following values:
1329:Drivers/STM32WBxx_HAL_Driver/Inc/stm32wbxx_ll_system.h ****   *         @arg @ref LL_C2_SYSCFG_GRP2_DMA1CH1
1330:Drivers/STM32WBxx_HAL_Driver/Inc/stm32wbxx_ll_system.h ****   *         @arg @ref LL_C2_SYSCFG_GRP2_DMA1CH2
1331:Drivers/STM32WBxx_HAL_Driver/Inc/stm32wbxx_ll_system.h ****   *         @arg @ref LL_C2_SYSCFG_GRP2_DMA1CH3
1332:Drivers/STM32WBxx_HAL_Driver/Inc/stm32wbxx_ll_system.h ****   *         @arg @ref LL_C2_SYSCFG_GRP2_DMA1CH4
1333:Drivers/STM32WBxx_HAL_Driver/Inc/stm32wbxx_ll_system.h ****   *         @arg @ref LL_C2_SYSCFG_GRP2_DMA1CH5
1334:Drivers/STM32WBxx_HAL_Driver/Inc/stm32wbxx_ll_system.h ****   *         @arg @ref LL_C2_SYSCFG_GRP2_DMA1CH6
1335:Drivers/STM32WBxx_HAL_Driver/Inc/stm32wbxx_ll_system.h ****   *         @arg @ref LL_C2_SYSCFG_GRP2_DMA1CH7
1336:Drivers/STM32WBxx_HAL_Driver/Inc/stm32wbxx_ll_system.h ****   *         @arg @ref LL_C2_SYSCFG_GRP2_DMA2CH1
1337:Drivers/STM32WBxx_HAL_Driver/Inc/stm32wbxx_ll_system.h ****   *         @arg @ref LL_C2_SYSCFG_GRP2_DMA2CH2
1338:Drivers/STM32WBxx_HAL_Driver/Inc/stm32wbxx_ll_system.h ****   *         @arg @ref LL_C2_SYSCFG_GRP2_DMA2CH3
1339:Drivers/STM32WBxx_HAL_Driver/Inc/stm32wbxx_ll_system.h ****   *         @arg @ref LL_C2_SYSCFG_GRP2_DMA2CH4
1340:Drivers/STM32WBxx_HAL_Driver/Inc/stm32wbxx_ll_system.h ****   *         @arg @ref LL_C2_SYSCFG_GRP2_DMA2CH5
1341:Drivers/STM32WBxx_HAL_Driver/Inc/stm32wbxx_ll_system.h ****   *         @arg @ref LL_C2_SYSCFG_GRP2_DMA2CH6
1342:Drivers/STM32WBxx_HAL_Driver/Inc/stm32wbxx_ll_system.h ****   *         @arg @ref LL_C2_SYSCFG_GRP2_DMA2CH7
1343:Drivers/STM32WBxx_HAL_Driver/Inc/stm32wbxx_ll_system.h ****   *         @arg @ref LL_C2_SYSCFG_GRP2_DMAMUX1
1344:Drivers/STM32WBxx_HAL_Driver/Inc/stm32wbxx_ll_system.h ****   *         @arg @ref LL_C2_SYSCFG_GRP2_PVM1
1345:Drivers/STM32WBxx_HAL_Driver/Inc/stm32wbxx_ll_system.h ****   *         @arg @ref LL_C2_SYSCFG_GRP2_PVM3
1346:Drivers/STM32WBxx_HAL_Driver/Inc/stm32wbxx_ll_system.h ****   *         @arg @ref LL_C2_SYSCFG_GRP2_PVD
1347:Drivers/STM32WBxx_HAL_Driver/Inc/stm32wbxx_ll_system.h ****   *         @arg @ref LL_C2_SYSCFG_GRP2_TSC
1348:Drivers/STM32WBxx_HAL_Driver/Inc/stm32wbxx_ll_system.h ****   *         @arg @ref LL_C2_SYSCFG_GRP2_LCD
1349:Drivers/STM32WBxx_HAL_Driver/Inc/stm32wbxx_ll_system.h ****   * @retval None
1350:Drivers/STM32WBxx_HAL_Driver/Inc/stm32wbxx_ll_system.h ****   */
1351:Drivers/STM32WBxx_HAL_Driver/Inc/stm32wbxx_ll_system.h **** __STATIC_INLINE void LL_C2_SYSCFG_GRP2_DisableIT(uint32_t Interrupt)
1352:Drivers/STM32WBxx_HAL_Driver/Inc/stm32wbxx_ll_system.h **** {
1353:Drivers/STM32WBxx_HAL_Driver/Inc/stm32wbxx_ll_system.h ****   SET_BIT(SYSCFG->C2IMR2, Interrupt);
1354:Drivers/STM32WBxx_HAL_Driver/Inc/stm32wbxx_ll_system.h **** }
1355:Drivers/STM32WBxx_HAL_Driver/Inc/stm32wbxx_ll_system.h **** 
ARM GAS  /var/folders/lt/l_qrc8c54t93n_phsj7cf5tc0000gn/T//cc5FK5RK.s 			page 49


1356:Drivers/STM32WBxx_HAL_Driver/Inc/stm32wbxx_ll_system.h **** /**
1357:Drivers/STM32WBxx_HAL_Driver/Inc/stm32wbxx_ll_system.h ****   * @brief  Indicate if CPU2 Interrupt Mask is enabled
1358:Drivers/STM32WBxx_HAL_Driver/Inc/stm32wbxx_ll_system.h ****   * @rmtoll SYSCFG_C2IMR1  RTCSTAMPTAMPLSECSSIM      LL_C2_SYSCFG_GRP1_EnableIT\n
1359:Drivers/STM32WBxx_HAL_Driver/Inc/stm32wbxx_ll_system.h ****   *         SYSCFG_C2IMR1  RTCWKUPIM   LL_C2_SYSCFG_GRP1_IsEnabledIT\n
1360:Drivers/STM32WBxx_HAL_Driver/Inc/stm32wbxx_ll_system.h ****   *         SYSCFG_C2IMR1  RTCALARMIM  LL_C2_SYSCFG_GRP1_IsEnabledIT\n
1361:Drivers/STM32WBxx_HAL_Driver/Inc/stm32wbxx_ll_system.h ****   *         SYSCFG_C2IMR1  RCCIM       LL_C2_SYSCFG_GRP1_IsEnabledIT\n
1362:Drivers/STM32WBxx_HAL_Driver/Inc/stm32wbxx_ll_system.h ****   *         SYSCFG_C2IMR1  FLASHIM     LL_C2_SYSCFG_GRP1_IsEnabledIT\n
1363:Drivers/STM32WBxx_HAL_Driver/Inc/stm32wbxx_ll_system.h ****   *         SYSCFG_C2IMR1  PKAIM       LL_C2_SYSCFG_GRP1_IsEnabledIT\n
1364:Drivers/STM32WBxx_HAL_Driver/Inc/stm32wbxx_ll_system.h ****   *         SYSCFG_C2IMR1  RNGIM       LL_C2_SYSCFG_GRP1_IsEnabledIT\n
1365:Drivers/STM32WBxx_HAL_Driver/Inc/stm32wbxx_ll_system.h ****   *         SYSCFG_C2IMR1  AES1IM      LL_C2_SYSCFG_GRP1_IsEnabledIT\n
1366:Drivers/STM32WBxx_HAL_Driver/Inc/stm32wbxx_ll_system.h ****   *         SYSCFG_C2IMR1  COMPIM      LL_C2_SYSCFG_GRP1_IsEnabledIT\n
1367:Drivers/STM32WBxx_HAL_Driver/Inc/stm32wbxx_ll_system.h ****   *         SYSCFG_C2IMR1  ADCIM       LL_C2_SYSCFG_GRP1_IsEnabledIT\n
1368:Drivers/STM32WBxx_HAL_Driver/Inc/stm32wbxx_ll_system.h ****   *         SYSCFG_C2IMR1  EXTIxIM     LL_C2_SYSCFG_GRP1_IsEnabledIT
1369:Drivers/STM32WBxx_HAL_Driver/Inc/stm32wbxx_ll_system.h ****   * @param  Interrupt This parameter can be one of the following values:
1370:Drivers/STM32WBxx_HAL_Driver/Inc/stm32wbxx_ll_system.h ****   *         @arg @ref LL_C2_SYSCFG_GRP1_RTCSTAMP_RTCTAMP_LSECSS
1371:Drivers/STM32WBxx_HAL_Driver/Inc/stm32wbxx_ll_system.h ****   *         @arg @ref LL_C2_SYSCFG_GRP1_RTCWKUP
1372:Drivers/STM32WBxx_HAL_Driver/Inc/stm32wbxx_ll_system.h ****   *         @arg @ref LL_C2_SYSCFG_GRP1_RTCALARM
1373:Drivers/STM32WBxx_HAL_Driver/Inc/stm32wbxx_ll_system.h ****   *         @arg @ref LL_C2_SYSCFG_GRP1_RCC
1374:Drivers/STM32WBxx_HAL_Driver/Inc/stm32wbxx_ll_system.h ****   *         @arg @ref LL_C2_SYSCFG_GRP1_FLASH
1375:Drivers/STM32WBxx_HAL_Driver/Inc/stm32wbxx_ll_system.h ****   *         @arg @ref LL_C2_SYSCFG_GRP1_PKA
1376:Drivers/STM32WBxx_HAL_Driver/Inc/stm32wbxx_ll_system.h ****   *         @arg @ref LL_C2_SYSCFG_GRP1_RNG
1377:Drivers/STM32WBxx_HAL_Driver/Inc/stm32wbxx_ll_system.h ****   *         @arg @ref LL_C2_SYSCFG_GRP1_AES1
1378:Drivers/STM32WBxx_HAL_Driver/Inc/stm32wbxx_ll_system.h ****   *         @arg @ref LL_C2_SYSCFG_GRP1_COMP
1379:Drivers/STM32WBxx_HAL_Driver/Inc/stm32wbxx_ll_system.h ****   *         @arg @ref LL_C2_SYSCFG_GRP1_ADC
1380:Drivers/STM32WBxx_HAL_Driver/Inc/stm32wbxx_ll_system.h ****   *         @arg @ref LL_C2_SYSCFG_GRP1_EXTI0
1381:Drivers/STM32WBxx_HAL_Driver/Inc/stm32wbxx_ll_system.h ****   *         @arg @ref LL_C2_SYSCFG_GRP1_EXTI1
1382:Drivers/STM32WBxx_HAL_Driver/Inc/stm32wbxx_ll_system.h ****   *         @arg @ref LL_C2_SYSCFG_GRP1_EXTI2
1383:Drivers/STM32WBxx_HAL_Driver/Inc/stm32wbxx_ll_system.h ****   *         @arg @ref LL_C2_SYSCFG_GRP1_EXTI3
1384:Drivers/STM32WBxx_HAL_Driver/Inc/stm32wbxx_ll_system.h ****   *         @arg @ref LL_C2_SYSCFG_GRP1_EXTI4
1385:Drivers/STM32WBxx_HAL_Driver/Inc/stm32wbxx_ll_system.h ****   *         @arg @ref LL_C2_SYSCFG_GRP1_EXTI5
1386:Drivers/STM32WBxx_HAL_Driver/Inc/stm32wbxx_ll_system.h ****   *         @arg @ref LL_C2_SYSCFG_GRP1_EXTI6
1387:Drivers/STM32WBxx_HAL_Driver/Inc/stm32wbxx_ll_system.h ****   *         @arg @ref LL_C2_SYSCFG_GRP1_EXTI7
1388:Drivers/STM32WBxx_HAL_Driver/Inc/stm32wbxx_ll_system.h ****   *         @arg @ref LL_C2_SYSCFG_GRP1_EXTI8
1389:Drivers/STM32WBxx_HAL_Driver/Inc/stm32wbxx_ll_system.h ****   *         @arg @ref LL_C2_SYSCFG_GRP1_EXTI9
1390:Drivers/STM32WBxx_HAL_Driver/Inc/stm32wbxx_ll_system.h ****   *         @arg @ref LL_C2_SYSCFG_GRP1_EXTI10
1391:Drivers/STM32WBxx_HAL_Driver/Inc/stm32wbxx_ll_system.h ****   *         @arg @ref LL_C2_SYSCFG_GRP1_EXTI11
1392:Drivers/STM32WBxx_HAL_Driver/Inc/stm32wbxx_ll_system.h ****   *         @arg @ref LL_C2_SYSCFG_GRP1_EXTI12
1393:Drivers/STM32WBxx_HAL_Driver/Inc/stm32wbxx_ll_system.h ****   *         @arg @ref LL_C2_SYSCFG_GRP1_EXTI13
1394:Drivers/STM32WBxx_HAL_Driver/Inc/stm32wbxx_ll_system.h ****   *         @arg @ref LL_C2_SYSCFG_GRP1_EXTI14
1395:Drivers/STM32WBxx_HAL_Driver/Inc/stm32wbxx_ll_system.h ****   *         @arg @ref LL_C2_SYSCFG_GRP1_EXTI15
1396:Drivers/STM32WBxx_HAL_Driver/Inc/stm32wbxx_ll_system.h ****   * @retval State of bit (1 or 0).
1397:Drivers/STM32WBxx_HAL_Driver/Inc/stm32wbxx_ll_system.h ****   */
1398:Drivers/STM32WBxx_HAL_Driver/Inc/stm32wbxx_ll_system.h **** __STATIC_INLINE uint32_t LL_C2_SYSCFG_GRP1_IsEnabledIT(uint32_t Interrupt)
1399:Drivers/STM32WBxx_HAL_Driver/Inc/stm32wbxx_ll_system.h **** {
1400:Drivers/STM32WBxx_HAL_Driver/Inc/stm32wbxx_ll_system.h ****   return ((READ_BIT(SYSCFG->C2IMR1, Interrupt) != (Interrupt)) ? 1UL : 0UL);
1401:Drivers/STM32WBxx_HAL_Driver/Inc/stm32wbxx_ll_system.h **** }
1402:Drivers/STM32WBxx_HAL_Driver/Inc/stm32wbxx_ll_system.h **** 
1403:Drivers/STM32WBxx_HAL_Driver/Inc/stm32wbxx_ll_system.h **** /**
1404:Drivers/STM32WBxx_HAL_Driver/Inc/stm32wbxx_ll_system.h ****   * @brief  Indicate if CPU2 Interrupt Mask is enabled
1405:Drivers/STM32WBxx_HAL_Driver/Inc/stm32wbxx_ll_system.h ****   * @rmtoll SYSCFG_C2IMR2  DMA1CHxIM   LL_C2_SYSCFG_GRP2_IsEnabledIT\n
1406:Drivers/STM32WBxx_HAL_Driver/Inc/stm32wbxx_ll_system.h ****   *         SYSCFG_C2IMR2  DMA2CHxIM   LL_C2_SYSCFG_GRP2_IsEnabledIT\n
1407:Drivers/STM32WBxx_HAL_Driver/Inc/stm32wbxx_ll_system.h ****   *         SYSCFG_C2IMR2  PVM1IM      LL_C2_SYSCFG_GRP2_IsEnabledIT\n
1408:Drivers/STM32WBxx_HAL_Driver/Inc/stm32wbxx_ll_system.h ****   *         SYSCFG_C2IMR2  PVM3IM      LL_C2_SYSCFG_GRP2_IsEnabledIT\n
1409:Drivers/STM32WBxx_HAL_Driver/Inc/stm32wbxx_ll_system.h ****   *         SYSCFG_C2IMR2  PVDIM       LL_C2_SYSCFG_GRP2_IsEnabledIT\n
1410:Drivers/STM32WBxx_HAL_Driver/Inc/stm32wbxx_ll_system.h ****   *         SYSCFG_C2IMR2  TSCIM       LL_C2_SYSCFG_GRP2_IsEnabledIT\n
1411:Drivers/STM32WBxx_HAL_Driver/Inc/stm32wbxx_ll_system.h ****   *         SYSCFG_C2IMR2  LCDIM       LL_C2_SYSCFG_GRP2_IsEnabledIT
1412:Drivers/STM32WBxx_HAL_Driver/Inc/stm32wbxx_ll_system.h ****   * @param  Interrupt This parameter can be one of the following values:
ARM GAS  /var/folders/lt/l_qrc8c54t93n_phsj7cf5tc0000gn/T//cc5FK5RK.s 			page 50


1413:Drivers/STM32WBxx_HAL_Driver/Inc/stm32wbxx_ll_system.h ****   *         @arg @ref LL_C2_SYSCFG_GRP2_DMA1CH1
1414:Drivers/STM32WBxx_HAL_Driver/Inc/stm32wbxx_ll_system.h ****   *         @arg @ref LL_C2_SYSCFG_GRP2_DMA1CH2
1415:Drivers/STM32WBxx_HAL_Driver/Inc/stm32wbxx_ll_system.h ****   *         @arg @ref LL_C2_SYSCFG_GRP2_DMA1CH3
1416:Drivers/STM32WBxx_HAL_Driver/Inc/stm32wbxx_ll_system.h ****   *         @arg @ref LL_C2_SYSCFG_GRP2_DMA1CH4
1417:Drivers/STM32WBxx_HAL_Driver/Inc/stm32wbxx_ll_system.h ****   *         @arg @ref LL_C2_SYSCFG_GRP2_DMA1CH5
1418:Drivers/STM32WBxx_HAL_Driver/Inc/stm32wbxx_ll_system.h ****   *         @arg @ref LL_C2_SYSCFG_GRP2_DMA1CH6
1419:Drivers/STM32WBxx_HAL_Driver/Inc/stm32wbxx_ll_system.h ****   *         @arg @ref LL_C2_SYSCFG_GRP2_DMA1CH7
1420:Drivers/STM32WBxx_HAL_Driver/Inc/stm32wbxx_ll_system.h ****   *         @arg @ref LL_C2_SYSCFG_GRP2_DMA2CH1
1421:Drivers/STM32WBxx_HAL_Driver/Inc/stm32wbxx_ll_system.h ****   *         @arg @ref LL_C2_SYSCFG_GRP2_DMA2CH2
1422:Drivers/STM32WBxx_HAL_Driver/Inc/stm32wbxx_ll_system.h ****   *         @arg @ref LL_C2_SYSCFG_GRP2_DMA2CH3
1423:Drivers/STM32WBxx_HAL_Driver/Inc/stm32wbxx_ll_system.h ****   *         @arg @ref LL_C2_SYSCFG_GRP2_DMA2CH4
1424:Drivers/STM32WBxx_HAL_Driver/Inc/stm32wbxx_ll_system.h ****   *         @arg @ref LL_C2_SYSCFG_GRP2_DMA2CH5
1425:Drivers/STM32WBxx_HAL_Driver/Inc/stm32wbxx_ll_system.h ****   *         @arg @ref LL_C2_SYSCFG_GRP2_DMA2CH6
1426:Drivers/STM32WBxx_HAL_Driver/Inc/stm32wbxx_ll_system.h ****   *         @arg @ref LL_C2_SYSCFG_GRP2_DMA2CH7
1427:Drivers/STM32WBxx_HAL_Driver/Inc/stm32wbxx_ll_system.h ****   *         @arg @ref LL_C2_SYSCFG_GRP2_DMAMUX1
1428:Drivers/STM32WBxx_HAL_Driver/Inc/stm32wbxx_ll_system.h ****   *         @arg @ref LL_C2_SYSCFG_GRP2_PVM1
1429:Drivers/STM32WBxx_HAL_Driver/Inc/stm32wbxx_ll_system.h ****   *         @arg @ref LL_C2_SYSCFG_GRP2_PVM3
1430:Drivers/STM32WBxx_HAL_Driver/Inc/stm32wbxx_ll_system.h ****   *         @arg @ref LL_C2_SYSCFG_GRP2_PVD
1431:Drivers/STM32WBxx_HAL_Driver/Inc/stm32wbxx_ll_system.h ****   *         @arg @ref LL_C2_SYSCFG_GRP2_TSC
1432:Drivers/STM32WBxx_HAL_Driver/Inc/stm32wbxx_ll_system.h ****   *         @arg @ref LL_C2_SYSCFG_GRP2_LCD
1433:Drivers/STM32WBxx_HAL_Driver/Inc/stm32wbxx_ll_system.h ****   * @retval State of bit (1 or 0).
1434:Drivers/STM32WBxx_HAL_Driver/Inc/stm32wbxx_ll_system.h ****   */
1435:Drivers/STM32WBxx_HAL_Driver/Inc/stm32wbxx_ll_system.h **** __STATIC_INLINE uint32_t LL_C2_SYSCFG_GRP2_IsEnabledIT(uint32_t Interrupt)
1436:Drivers/STM32WBxx_HAL_Driver/Inc/stm32wbxx_ll_system.h **** {
1437:Drivers/STM32WBxx_HAL_Driver/Inc/stm32wbxx_ll_system.h ****   return ((READ_BIT(SYSCFG->C2IMR2, Interrupt) != (Interrupt)) ? 1UL : 0UL);
1438:Drivers/STM32WBxx_HAL_Driver/Inc/stm32wbxx_ll_system.h **** }
1439:Drivers/STM32WBxx_HAL_Driver/Inc/stm32wbxx_ll_system.h **** 
1440:Drivers/STM32WBxx_HAL_Driver/Inc/stm32wbxx_ll_system.h **** /**
1441:Drivers/STM32WBxx_HAL_Driver/Inc/stm32wbxx_ll_system.h ****   * @brief  Enable the access for security IP
1442:Drivers/STM32WBxx_HAL_Driver/Inc/stm32wbxx_ll_system.h ****   * @rmtoll SYSCFG_SIPCR SAES1         LL_SYSCFG_EnableSecurityAccess\n
1443:Drivers/STM32WBxx_HAL_Driver/Inc/stm32wbxx_ll_system.h ****   *         SYSCFG_CFGR1 SAES2         LL_SYSCFG_EnableSecurityAccess\n
1444:Drivers/STM32WBxx_HAL_Driver/Inc/stm32wbxx_ll_system.h ****   *         SYSCFG_CFGR1 SPKA          LL_SYSCFG_EnableSecurityAccess\n
1445:Drivers/STM32WBxx_HAL_Driver/Inc/stm32wbxx_ll_system.h ****   *         SYSCFG_CFGR1 SRNG          LL_SYSCFG_EnableSecurityAccess
1446:Drivers/STM32WBxx_HAL_Driver/Inc/stm32wbxx_ll_system.h ****   * @param  SecurityAccess This parameter can be a combination of the following values:
1447:Drivers/STM32WBxx_HAL_Driver/Inc/stm32wbxx_ll_system.h ****   *         @arg @ref LL_SYSCFG_SECURE_ACCESS_AES1
1448:Drivers/STM32WBxx_HAL_Driver/Inc/stm32wbxx_ll_system.h ****   *         @arg @ref LL_SYSCFG_SECURE_ACCESS_AES2
1449:Drivers/STM32WBxx_HAL_Driver/Inc/stm32wbxx_ll_system.h ****   *         @arg @ref LL_SYSCFG_SECURE_ACCESS_PKA
1450:Drivers/STM32WBxx_HAL_Driver/Inc/stm32wbxx_ll_system.h ****   *         @arg @ref LL_SYSCFG_SECURE_ACCESS_RNG
1451:Drivers/STM32WBxx_HAL_Driver/Inc/stm32wbxx_ll_system.h ****   * @retval None
1452:Drivers/STM32WBxx_HAL_Driver/Inc/stm32wbxx_ll_system.h ****   */
1453:Drivers/STM32WBxx_HAL_Driver/Inc/stm32wbxx_ll_system.h **** __STATIC_INLINE void LL_SYSCFG_EnableSecurityAccess(uint32_t SecurityAccess)
1454:Drivers/STM32WBxx_HAL_Driver/Inc/stm32wbxx_ll_system.h **** {
1455:Drivers/STM32WBxx_HAL_Driver/Inc/stm32wbxx_ll_system.h ****   SET_BIT(SYSCFG->SIPCR, SecurityAccess);
1456:Drivers/STM32WBxx_HAL_Driver/Inc/stm32wbxx_ll_system.h **** }
1457:Drivers/STM32WBxx_HAL_Driver/Inc/stm32wbxx_ll_system.h **** 
1458:Drivers/STM32WBxx_HAL_Driver/Inc/stm32wbxx_ll_system.h **** /**
1459:Drivers/STM32WBxx_HAL_Driver/Inc/stm32wbxx_ll_system.h ****   * @brief  Disable the access for security IP
1460:Drivers/STM32WBxx_HAL_Driver/Inc/stm32wbxx_ll_system.h ****   * @rmtoll SYSCFG_SIPCR SAES1         LL_SYSCFG_DisableSecurityAccess\n
1461:Drivers/STM32WBxx_HAL_Driver/Inc/stm32wbxx_ll_system.h ****   *         SYSCFG_CFGR1 SAES2         LL_SYSCFG_DisableSecurityAccess\n
1462:Drivers/STM32WBxx_HAL_Driver/Inc/stm32wbxx_ll_system.h ****   *         SYSCFG_CFGR1 SPKA          LL_SYSCFG_DisableSecurityAccess\n
1463:Drivers/STM32WBxx_HAL_Driver/Inc/stm32wbxx_ll_system.h ****   *         SYSCFG_CFGR1 SRNG          LL_SYSCFG_DisableSecurityAccess
1464:Drivers/STM32WBxx_HAL_Driver/Inc/stm32wbxx_ll_system.h ****   * @param  SecurityAccess This parameter can be a combination of the following values:
1465:Drivers/STM32WBxx_HAL_Driver/Inc/stm32wbxx_ll_system.h ****   *         @arg @ref LL_SYSCFG_SECURE_ACCESS_AES1
1466:Drivers/STM32WBxx_HAL_Driver/Inc/stm32wbxx_ll_system.h ****   *         @arg @ref LL_SYSCFG_SECURE_ACCESS_AES2
1467:Drivers/STM32WBxx_HAL_Driver/Inc/stm32wbxx_ll_system.h ****   *         @arg @ref LL_SYSCFG_SECURE_ACCESS_PKA
1468:Drivers/STM32WBxx_HAL_Driver/Inc/stm32wbxx_ll_system.h ****   *         @arg @ref LL_SYSCFG_SECURE_ACCESS_RNG
1469:Drivers/STM32WBxx_HAL_Driver/Inc/stm32wbxx_ll_system.h ****   * @retval None
ARM GAS  /var/folders/lt/l_qrc8c54t93n_phsj7cf5tc0000gn/T//cc5FK5RK.s 			page 51


1470:Drivers/STM32WBxx_HAL_Driver/Inc/stm32wbxx_ll_system.h ****   */
1471:Drivers/STM32WBxx_HAL_Driver/Inc/stm32wbxx_ll_system.h **** __STATIC_INLINE void LL_SYSCFG_DisableSecurityAccess(uint32_t SecurityAccess)
1472:Drivers/STM32WBxx_HAL_Driver/Inc/stm32wbxx_ll_system.h **** {
1473:Drivers/STM32WBxx_HAL_Driver/Inc/stm32wbxx_ll_system.h ****   CLEAR_BIT(SYSCFG->SIPCR, SecurityAccess);
1474:Drivers/STM32WBxx_HAL_Driver/Inc/stm32wbxx_ll_system.h **** }
1475:Drivers/STM32WBxx_HAL_Driver/Inc/stm32wbxx_ll_system.h **** 
1476:Drivers/STM32WBxx_HAL_Driver/Inc/stm32wbxx_ll_system.h **** /**
1477:Drivers/STM32WBxx_HAL_Driver/Inc/stm32wbxx_ll_system.h ****   * @brief  Indicate if access for security IP is enabled
1478:Drivers/STM32WBxx_HAL_Driver/Inc/stm32wbxx_ll_system.h ****   * @rmtoll SYSCFG_SIPCR SAES1         LL_SYSCFG_IsEnabledSecurityAccess\n
1479:Drivers/STM32WBxx_HAL_Driver/Inc/stm32wbxx_ll_system.h ****   *         SYSCFG_CFGR1 SAES2         LL_SYSCFG_IsEnabledSecurityAccess\n
1480:Drivers/STM32WBxx_HAL_Driver/Inc/stm32wbxx_ll_system.h ****   *         SYSCFG_CFGR1 SPKA          LL_SYSCFG_IsEnabledSecurityAccess\n
1481:Drivers/STM32WBxx_HAL_Driver/Inc/stm32wbxx_ll_system.h ****   *         SYSCFG_CFGR1 SRNG          LL_SYSCFG_IsEnabledSecurityAccess
1482:Drivers/STM32WBxx_HAL_Driver/Inc/stm32wbxx_ll_system.h ****   * @param  SecurityAccess This parameter can be one of the following values:
1483:Drivers/STM32WBxx_HAL_Driver/Inc/stm32wbxx_ll_system.h ****   *         @arg @ref LL_SYSCFG_SECURE_ACCESS_AES1
1484:Drivers/STM32WBxx_HAL_Driver/Inc/stm32wbxx_ll_system.h ****   *         @arg @ref LL_SYSCFG_SECURE_ACCESS_AES2
1485:Drivers/STM32WBxx_HAL_Driver/Inc/stm32wbxx_ll_system.h ****   *         @arg @ref LL_SYSCFG_SECURE_ACCESS_PKA
1486:Drivers/STM32WBxx_HAL_Driver/Inc/stm32wbxx_ll_system.h ****   *         @arg @ref LL_SYSCFG_SECURE_ACCESS_RNG
1487:Drivers/STM32WBxx_HAL_Driver/Inc/stm32wbxx_ll_system.h ****   * @retval State of bit (1 or 0).
1488:Drivers/STM32WBxx_HAL_Driver/Inc/stm32wbxx_ll_system.h ****   */
1489:Drivers/STM32WBxx_HAL_Driver/Inc/stm32wbxx_ll_system.h **** __STATIC_INLINE uint32_t LL_SYSCFG_IsEnabledSecurityAccess(uint32_t SecurityAccess)
1490:Drivers/STM32WBxx_HAL_Driver/Inc/stm32wbxx_ll_system.h **** {
1491:Drivers/STM32WBxx_HAL_Driver/Inc/stm32wbxx_ll_system.h ****   return ((READ_BIT(SYSCFG->SIPCR, SecurityAccess) == (SecurityAccess)) ? 1UL : 0UL);
1492:Drivers/STM32WBxx_HAL_Driver/Inc/stm32wbxx_ll_system.h **** }
1493:Drivers/STM32WBxx_HAL_Driver/Inc/stm32wbxx_ll_system.h **** 
1494:Drivers/STM32WBxx_HAL_Driver/Inc/stm32wbxx_ll_system.h **** /**
1495:Drivers/STM32WBxx_HAL_Driver/Inc/stm32wbxx_ll_system.h ****   * @}
1496:Drivers/STM32WBxx_HAL_Driver/Inc/stm32wbxx_ll_system.h ****   */
1497:Drivers/STM32WBxx_HAL_Driver/Inc/stm32wbxx_ll_system.h **** 
1498:Drivers/STM32WBxx_HAL_Driver/Inc/stm32wbxx_ll_system.h **** /** @defgroup SYSTEM_LL_EF_DBGMCU DBGMCU
1499:Drivers/STM32WBxx_HAL_Driver/Inc/stm32wbxx_ll_system.h ****   * @note  DBGMCU is only accessible by Cortex M4
1500:Drivers/STM32WBxx_HAL_Driver/Inc/stm32wbxx_ll_system.h ****   *        To access on DBGMCU, Cortex M0+ need to request to the Cortex M4
1501:Drivers/STM32WBxx_HAL_Driver/Inc/stm32wbxx_ll_system.h ****   *        the action.
1502:Drivers/STM32WBxx_HAL_Driver/Inc/stm32wbxx_ll_system.h ****   * @{
1503:Drivers/STM32WBxx_HAL_Driver/Inc/stm32wbxx_ll_system.h ****   */
1504:Drivers/STM32WBxx_HAL_Driver/Inc/stm32wbxx_ll_system.h **** 
1505:Drivers/STM32WBxx_HAL_Driver/Inc/stm32wbxx_ll_system.h **** /**
1506:Drivers/STM32WBxx_HAL_Driver/Inc/stm32wbxx_ll_system.h ****   * @brief  Return the device identifier
1507:Drivers/STM32WBxx_HAL_Driver/Inc/stm32wbxx_ll_system.h ****   * @note   For STM32WBxxxx devices, the device ID is 0x495
1508:Drivers/STM32WBxx_HAL_Driver/Inc/stm32wbxx_ll_system.h ****   * @rmtoll DBGMCU_IDCODE DEV_ID        LL_DBGMCU_GetDeviceID
1509:Drivers/STM32WBxx_HAL_Driver/Inc/stm32wbxx_ll_system.h ****   * @retval Values between Min_Data=0x00 and Max_Data=0xFFF (ex: device ID is 0x495)
1510:Drivers/STM32WBxx_HAL_Driver/Inc/stm32wbxx_ll_system.h ****   */
1511:Drivers/STM32WBxx_HAL_Driver/Inc/stm32wbxx_ll_system.h **** __STATIC_INLINE uint32_t LL_DBGMCU_GetDeviceID(void)
1512:Drivers/STM32WBxx_HAL_Driver/Inc/stm32wbxx_ll_system.h **** {
1513:Drivers/STM32WBxx_HAL_Driver/Inc/stm32wbxx_ll_system.h ****   return (uint32_t)(READ_BIT(DBGMCU->IDCODE, DBGMCU_IDCODE_DEV_ID));
1514:Drivers/STM32WBxx_HAL_Driver/Inc/stm32wbxx_ll_system.h **** }
1515:Drivers/STM32WBxx_HAL_Driver/Inc/stm32wbxx_ll_system.h **** 
1516:Drivers/STM32WBxx_HAL_Driver/Inc/stm32wbxx_ll_system.h **** /**
1517:Drivers/STM32WBxx_HAL_Driver/Inc/stm32wbxx_ll_system.h ****   * @brief  Return the device revision identifier
1518:Drivers/STM32WBxx_HAL_Driver/Inc/stm32wbxx_ll_system.h ****   * @note   This field indicates the revision of the device.
1519:Drivers/STM32WBxx_HAL_Driver/Inc/stm32wbxx_ll_system.h ****   * @rmtoll DBGMCU_IDCODE REV_ID        LL_DBGMCU_GetRevisionID
1520:Drivers/STM32WBxx_HAL_Driver/Inc/stm32wbxx_ll_system.h ****   * @retval Values between Min_Data=0x00 and Max_Data=0xFFFF
1521:Drivers/STM32WBxx_HAL_Driver/Inc/stm32wbxx_ll_system.h ****   */
1522:Drivers/STM32WBxx_HAL_Driver/Inc/stm32wbxx_ll_system.h **** __STATIC_INLINE uint32_t LL_DBGMCU_GetRevisionID(void)
1523:Drivers/STM32WBxx_HAL_Driver/Inc/stm32wbxx_ll_system.h **** {
1524:Drivers/STM32WBxx_HAL_Driver/Inc/stm32wbxx_ll_system.h ****   return (uint32_t)(READ_BIT(DBGMCU->IDCODE, DBGMCU_IDCODE_REV_ID) >> DBGMCU_IDCODE_REV_ID_Pos);
1525:Drivers/STM32WBxx_HAL_Driver/Inc/stm32wbxx_ll_system.h **** }
1526:Drivers/STM32WBxx_HAL_Driver/Inc/stm32wbxx_ll_system.h **** 
ARM GAS  /var/folders/lt/l_qrc8c54t93n_phsj7cf5tc0000gn/T//cc5FK5RK.s 			page 52


1527:Drivers/STM32WBxx_HAL_Driver/Inc/stm32wbxx_ll_system.h **** /**
1528:Drivers/STM32WBxx_HAL_Driver/Inc/stm32wbxx_ll_system.h ****   * @brief  Enable the Debug Module during SLEEP mode
1529:Drivers/STM32WBxx_HAL_Driver/Inc/stm32wbxx_ll_system.h ****   * @rmtoll DBGMCU_CR    DBG_SLEEP     LL_DBGMCU_EnableDBGSleepMode
1530:Drivers/STM32WBxx_HAL_Driver/Inc/stm32wbxx_ll_system.h ****   * @retval None
1531:Drivers/STM32WBxx_HAL_Driver/Inc/stm32wbxx_ll_system.h ****   */
1532:Drivers/STM32WBxx_HAL_Driver/Inc/stm32wbxx_ll_system.h **** __STATIC_INLINE void LL_DBGMCU_EnableDBGSleepMode(void)
