ARM GAS  /var/folders/lt/l_qrc8c54t93n_phsj7cf5tc0000gn/T//ccXAGWAV.s 			page 1


   1              		.cpu cortex-m4
   2              		.eabi_attribute 27, 1
   3              		.eabi_attribute 28, 1
   4              		.eabi_attribute 20, 1
   5              		.eabi_attribute 21, 1
   6              		.eabi_attribute 23, 3
   7              		.eabi_attribute 24, 1
   8              		.eabi_attribute 25, 1
   9              		.eabi_attribute 26, 1
  10              		.eabi_attribute 30, 1
  11              		.eabi_attribute 34, 1
  12              		.eabi_attribute 18, 4
  13              		.file	"command.c"
  14              		.text
  15              	.Ltext0:
  16              		.cfi_sections	.debug_frame
  17              		.section	.rodata.help_command.str1.4,"aMS",%progbits,1
  18              		.align	2
  19              	.LC0:
  20 0000 41766169 		.ascii	"Available Commands:\012\015\000"
  20      6C61626C 
  20      6520436F 
  20      6D6D616E 
  20      64733A0A 
  21 0016 0000     		.align	2
  22              	.LC1:
  23 0018 25730A0D 		.ascii	"%s\012\015\000"
  23      00
  24 001d 000000   		.align	2
  25              	.LC2:
  26 0020 4F4B0A0D 		.ascii	"OK\012\015\000"
  26      00
  27              		.section	.text.help_command,"ax",%progbits
  28              		.align	1
  29              		.weak	help_command
  30              		.arch armv7e-m
  31              		.syntax unified
  32              		.thumb
  33              		.thumb_func
  34              		.fpu fpv4-sp-d16
  36              	help_command:
  37              	.LVL0:
  38              	.LFB1824:
  39              		.file 1 "Core/Src/command.c"
   1:Core/Src/command.c **** /* command.c
   2:Core/Src/command.c ****  * Description: 
   3:Core/Src/command.c ****  *
   4:Core/Src/command.c ****  * Author: Bryce Himebaugh 
   5:Core/Src/command.c ****  * Contact: bhimebau@indiana.edu
   6:Core/Src/command.c ****  * Date: 04.25.2019
   7:Core/Src/command.c ****  * Copyright (C) 2019
   8:Core/Src/command.c ****  *
   9:Core/Src/command.c ****  */
  10:Core/Src/command.c **** 
  11:Core/Src/command.c **** #include "main.h"
  12:Core/Src/command.c **** #include <stdio.h>
  13:Core/Src/command.c **** #include <stdlib.h>
ARM GAS  /var/folders/lt/l_qrc8c54t93n_phsj7cf5tc0000gn/T//ccXAGWAV.s 			page 2


  14:Core/Src/command.c **** #include <ctype.h>
  15:Core/Src/command.c **** #include <string.h>
  16:Core/Src/command.c **** #include "command.h"
  17:Core/Src/command.c **** #include "queue.h"
  18:Core/Src/command.c **** #include "interrupt.h"
  19:Core/Src/command.c **** #include "dbg_trace.h"
  20:Core/Src/command.c **** #include "sample.h"
  21:Core/Src/command.c **** #include "date_time_set.h"
  22:Core/Src/command.c **** 
  23:Core/Src/command.c **** /* extern UART_HandleTypeDef huart1; */
  24:Core/Src/command.c **** /* extern RTC_HandleTypeDef hrtc; */
  25:Core/Src/command.c **** extern queue_t rx_queue;
  26:Core/Src/command.c **** extern RTC_HandleTypeDef hrtc;
  27:Core/Src/command.c **** 
  28:Core/Src/command.c **** void prompt(void) {
  29:Core/Src/command.c ****   RTC_TimeTypeDef current_time = {0};
  30:Core/Src/command.c ****   RTC_DateTypeDef current_date = {0};
  31:Core/Src/command.c ****   HAL_RTC_GetTime(&hrtc,&current_time,RTC_FORMAT_BIN);
  32:Core/Src/command.c ****   HAL_RTC_GetDate(&hrtc,&current_date,RTC_FORMAT_BIN);
  33:Core/Src/command.c ****   printf("\r\n\r\n%02d/%02d/20%02d ",current_date.Month,current_date.Date,current_date.Year);
  34:Core/Src/command.c ****   printf("%02d:%02d:%02d ",current_time.Hours,current_time.Minutes, current_time.Seconds);
  35:Core/Src/command.c ****   printf("IULS> ");
  36:Core/Src/command.c **** }
  37:Core/Src/command.c **** void help_command(char *);
  38:Core/Src/command.c **** void lof_command(char *);
  39:Core/Src/command.c **** void lon_command(char *);
  40:Core/Src/command.c **** void uid_command(char *);
  41:Core/Src/command.c **** void test_command(char *);
  42:Core/Src/command.c **** void ts_command(char *);
  43:Core/Src/command.c **** void ds_command(char *);
  44:Core/Src/command.c **** 
  45:Core/Src/command.c **** void temp_command(char *);
  46:Core/Src/command.c **** void batt_command(char *);
  47:Core/Src/command.c **** void tsl237_command(char *);
  48:Core/Src/command.c **** void ef_command(char *);
  49:Core/Src/command.c **** void sample_command(char *);
  50:Core/Src/command.c **** void log_command(char *);
  51:Core/Src/command.c **** void data_command(char *);
  52:Core/Src/command.c **** void time_command(char *);
  53:Core/Src/command.c **** void flash_info_command(char *arguments);
  54:Core/Src/command.c **** 
  55:Core/Src/command.c **** 
  56:Core/Src/command.c **** command_t commands[] = {
  57:Core/Src/command.c ****   {"help",help_command},
  58:Core/Src/command.c ****   {"lof",lof_command},
  59:Core/Src/command.c ****   {"lon",lon_command},
  60:Core/Src/command.c ****   {"uid",uid_command},
  61:Core/Src/command.c ****   {"test",test_command},
  62:Core/Src/command.c ****   {"ts",ts_command},
  63:Core/Src/command.c ****   {"ds",ds_command},
  64:Core/Src/command.c ****   // {"ls",help_command},
  65:Core/Src/command.c ****   {"temp",temp_command},
  66:Core/Src/command.c ****   {"batt",batt_command},
  67:Core/Src/command.c ****   {"tsl237",tsl237_command},
  68:Core/Src/command.c ****   {"ef",ef_command},
  69:Core/Src/command.c ****   {"sample",sample_command},
  70:Core/Src/command.c ****   {"log",log_command},
ARM GAS  /var/folders/lt/l_qrc8c54t93n_phsj7cf5tc0000gn/T//ccXAGWAV.s 			page 3


  71:Core/Src/command.c ****   {"data",data_command},
  72:Core/Src/command.c ****   {"print_log",print_log_command},
  73:Core/Src/command.c ****   {"time",time_command},
  74:Core/Src/command.c ****   {"flash_info",flash_info_command},
  75:Core/Src/command.c ****   {"st", create_sample_time},
  76:Core/Src/command.c ****   {0,0}
  77:Core/Src/command.c **** };
  78:Core/Src/command.c **** 
  79:Core/Src/command.c **** void __attribute__((weak)) help_command(char *arguments) {
  40              		.loc 1 79 58 view -0
  41              		.cfi_startproc
  42              		@ args = 0, pretend = 0, frame = 0
  43              		@ frame_needed = 0, uses_anonymous_args = 0
  44              		.loc 1 79 58 is_stmt 0 view .LVU1
  45 0000 10B5     		push	{r4, lr}
  46              	.LCFI0:
  47              		.cfi_def_cfa_offset 8
  48              		.cfi_offset 4, -8
  49              		.cfi_offset 14, -4
  80:Core/Src/command.c ****   command_t * p = commands;
  50              		.loc 1 80 3 is_stmt 1 view .LVU2
  51              	.LVL1:
  81:Core/Src/command.c ****   printf("Available Commands:\n\r");
  52              		.loc 1 81 3 view .LVU3
  53 0002 0748     		ldr	r0, .L6
  54              	.LVL2:
  55              		.loc 1 81 3 is_stmt 0 view .LVU4
  56 0004 FFF7FEFF 		bl	printf
  57              	.LVL3:
  82:Core/Src/command.c ****   while (p->cmd_string) {
  58              		.loc 1 82 3 is_stmt 1 view .LVU5
  80:Core/Src/command.c ****   command_t * p = commands;
  59              		.loc 1 80 15 is_stmt 0 view .LVU6
  60 0008 064C     		ldr	r4, .L6+4
  61              	.LVL4:
  62              	.L2:
  63              		.loc 1 82 9 is_stmt 1 view .LVU7
  64              		.loc 1 82 11 is_stmt 0 view .LVU8
  65 000a 2168     		ldr	r1, [r4]
  66              		.loc 1 82 9 view .LVU9
  67 000c 21B1     		cbz	r1, .L5
  83:Core/Src/command.c ****     printf("%s\n\r",p->cmd_string);
  68              		.loc 1 83 5 is_stmt 1 view .LVU10
  69 000e 0648     		ldr	r0, .L6+8
  70 0010 FFF7FEFF 		bl	printf
  71              	.LVL5:
  84:Core/Src/command.c ****     p++;
  72              		.loc 1 84 5 view .LVU11
  73              		.loc 1 84 6 is_stmt 0 view .LVU12
  74 0014 0834     		adds	r4, r4, #8
  75              	.LVL6:
  76              		.loc 1 84 6 view .LVU13
  77 0016 F8E7     		b	.L2
  78              	.L5:
  85:Core/Src/command.c ****   }
  86:Core/Src/command.c ****   printf("OK\n\r");
  79              		.loc 1 86 3 is_stmt 1 view .LVU14
ARM GAS  /var/folders/lt/l_qrc8c54t93n_phsj7cf5tc0000gn/T//ccXAGWAV.s 			page 4


  80 0018 0448     		ldr	r0, .L6+12
  81 001a FFF7FEFF 		bl	printf
  82              	.LVL7:
  87:Core/Src/command.c **** }
  83              		.loc 1 87 1 is_stmt 0 view .LVU15
  84 001e 10BD     		pop	{r4, pc}
  85              	.LVL8:
  86              	.L7:
  87              		.loc 1 87 1 view .LVU16
  88              		.align	2
  89              	.L6:
  90 0020 00000000 		.word	.LC0
  91 0024 00000000 		.word	.LANCHOR0
  92 0028 18000000 		.word	.LC1
  93 002c 20000000 		.word	.LC2
  94              		.cfi_endproc
  95              	.LFE1824:
  97              		.section	.rodata.flash_info_command.str1.4,"aMS",%progbits,1
  98              		.align	2
  99              	.LC3:
 100 0000 466C6173 		.ascii	"Flash Information command\012\015\000"
 100      6820496E 
 100      666F726D 
 100      6174696F 
 100      6E20636F 
 101              		.section	.text.flash_info_command,"ax",%progbits
 102              		.align	1
 103              		.weak	flash_info_command
 104              		.syntax unified
 105              		.thumb
 106              		.thumb_func
 107              		.fpu fpv4-sp-d16
 109              	flash_info_command:
 110              	.LVL9:
 111              	.LFB1825:
  88:Core/Src/command.c **** 
  89:Core/Src/command.c **** void __attribute__((weak)) flash_info_command(char *arguments) {
 112              		.loc 1 89 64 is_stmt 1 view -0
 113              		.cfi_startproc
 114              		@ args = 0, pretend = 0, frame = 0
 115              		@ frame_needed = 0, uses_anonymous_args = 0
 116              		.loc 1 89 64 is_stmt 0 view .LVU18
 117 0000 08B5     		push	{r3, lr}
 118              	.LCFI1:
 119              		.cfi_def_cfa_offset 8
 120              		.cfi_offset 3, -8
 121              		.cfi_offset 14, -4
  90:Core/Src/command.c ****   printf("Flash Information command\n\r");
 122              		.loc 1 90 3 is_stmt 1 view .LVU19
 123 0002 0348     		ldr	r0, .L10
 124              	.LVL10:
 125              		.loc 1 90 3 is_stmt 0 view .LVU20
 126 0004 FFF7FEFF 		bl	printf
 127              	.LVL11:
  91:Core/Src/command.c ****   printf("OK\n\r");
 128              		.loc 1 91 3 is_stmt 1 view .LVU21
 129 0008 0248     		ldr	r0, .L10+4
ARM GAS  /var/folders/lt/l_qrc8c54t93n_phsj7cf5tc0000gn/T//ccXAGWAV.s 			page 5


 130 000a FFF7FEFF 		bl	printf
 131              	.LVL12:
  92:Core/Src/command.c **** }
 132              		.loc 1 92 1 is_stmt 0 view .LVU22
 133 000e 08BD     		pop	{r3, pc}
 134              	.L11:
 135              		.align	2
 136              	.L10:
 137 0010 00000000 		.word	.LC3
 138 0014 20000000 		.word	.LC2
 139              		.cfi_endproc
 140              	.LFE1825:
 142              		.section	.rodata.time_command.str1.4,"aMS",%progbits,1
 143              		.align	2
 144              	.LC4:
 145 0000 54696D65 		.ascii	"Time Weak command\012\015\000"
 145      20576561 
 145      6B20636F 
 145      6D6D616E 
 145      640A0D00 
 146              		.section	.text.time_command,"ax",%progbits
 147              		.align	1
 148              		.weak	time_command
 149              		.syntax unified
 150              		.thumb
 151              		.thumb_func
 152              		.fpu fpv4-sp-d16
 154              	time_command:
 155              	.LVL13:
 156              	.LFB1826:
  93:Core/Src/command.c **** 
  94:Core/Src/command.c **** 
  95:Core/Src/command.c **** void __attribute__((weak)) time_command(char *arguments) {
 157              		.loc 1 95 58 is_stmt 1 view -0
 158              		.cfi_startproc
 159              		@ args = 0, pretend = 0, frame = 0
 160              		@ frame_needed = 0, uses_anonymous_args = 0
 161              		.loc 1 95 58 is_stmt 0 view .LVU24
 162 0000 08B5     		push	{r3, lr}
 163              	.LCFI2:
 164              		.cfi_def_cfa_offset 8
 165              		.cfi_offset 3, -8
 166              		.cfi_offset 14, -4
  96:Core/Src/command.c ****   printf("Time Weak command\n\r");
 167              		.loc 1 96 3 is_stmt 1 view .LVU25
 168 0002 0348     		ldr	r0, .L14
 169              	.LVL14:
 170              		.loc 1 96 3 is_stmt 0 view .LVU26
 171 0004 FFF7FEFF 		bl	printf
 172              	.LVL15:
  97:Core/Src/command.c ****   printf("OK\n\r");
 173              		.loc 1 97 3 is_stmt 1 view .LVU27
 174 0008 0248     		ldr	r0, .L14+4
 175 000a FFF7FEFF 		bl	printf
 176              	.LVL16:
  98:Core/Src/command.c **** }
 177              		.loc 1 98 1 is_stmt 0 view .LVU28
ARM GAS  /var/folders/lt/l_qrc8c54t93n_phsj7cf5tc0000gn/T//ccXAGWAV.s 			page 6


 178 000e 08BD     		pop	{r3, pc}
 179              	.L15:
 180              		.align	2
 181              	.L14:
 182 0010 00000000 		.word	.LC4
 183 0014 20000000 		.word	.LC2
 184              		.cfi_endproc
 185              	.LFE1826:
 187              		.section	.rodata.data_command.str1.4,"aMS",%progbits,1
 188              		.align	2
 189              	.LC5:
 190 0000 44617461 		.ascii	"Data Weak command\012\015\000"
 190      20576561 
 190      6B20636F 
 190      6D6D616E 
 190      640A0D00 
 191              		.section	.text.data_command,"ax",%progbits
 192              		.align	1
 193              		.weak	data_command
 194              		.syntax unified
 195              		.thumb
 196              		.thumb_func
 197              		.fpu fpv4-sp-d16
 199              	data_command:
 200              	.LVL17:
 201              	.LFB1827:
  99:Core/Src/command.c **** 
 100:Core/Src/command.c **** void __attribute__((weak)) data_command(char *arguments) {
 202              		.loc 1 100 58 is_stmt 1 view -0
 203              		.cfi_startproc
 204              		@ args = 0, pretend = 0, frame = 0
 205              		@ frame_needed = 0, uses_anonymous_args = 0
 206              		.loc 1 100 58 is_stmt 0 view .LVU30
 207 0000 08B5     		push	{r3, lr}
 208              	.LCFI3:
 209              		.cfi_def_cfa_offset 8
 210              		.cfi_offset 3, -8
 211              		.cfi_offset 14, -4
 101:Core/Src/command.c ****   printf("Data Weak command\n\r");
 212              		.loc 1 101 3 is_stmt 1 view .LVU31
 213 0002 0348     		ldr	r0, .L18
 214              	.LVL18:
 215              		.loc 1 101 3 is_stmt 0 view .LVU32
 216 0004 FFF7FEFF 		bl	printf
 217              	.LVL19:
 102:Core/Src/command.c ****   printf("OK\n\r");
 218              		.loc 1 102 3 is_stmt 1 view .LVU33
 219 0008 0248     		ldr	r0, .L18+4
 220 000a FFF7FEFF 		bl	printf
 221              	.LVL20:
 103:Core/Src/command.c **** }
 222              		.loc 1 103 1 is_stmt 0 view .LVU34
 223 000e 08BD     		pop	{r3, pc}
 224              	.L19:
 225              		.align	2
 226              	.L18:
 227 0010 00000000 		.word	.LC5
ARM GAS  /var/folders/lt/l_qrc8c54t93n_phsj7cf5tc0000gn/T//ccXAGWAV.s 			page 7


 228 0014 20000000 		.word	.LC2
 229              		.cfi_endproc
 230              	.LFE1827:
 232              		.section	.rodata.sample_command.str1.4,"aMS",%progbits,1
 233              		.align	2
 234              	.LC6:
 235 0000 53616D70 		.ascii	"Sample Weak command\012\015\000"
 235      6C652057 
 235      65616B20 
 235      636F6D6D 
 235      616E640A 
 236              		.section	.text.sample_command,"ax",%progbits
 237              		.align	1
 238              		.weak	sample_command
 239              		.syntax unified
 240              		.thumb
 241              		.thumb_func
 242              		.fpu fpv4-sp-d16
 244              	sample_command:
 245              	.LVL21:
 246              	.LFB1828:
 104:Core/Src/command.c **** 
 105:Core/Src/command.c **** void __attribute__((weak)) sample_command(char *arguments) {
 247              		.loc 1 105 60 is_stmt 1 view -0
 248              		.cfi_startproc
 249              		@ args = 0, pretend = 0, frame = 0
 250              		@ frame_needed = 0, uses_anonymous_args = 0
 251              		.loc 1 105 60 is_stmt 0 view .LVU36
 252 0000 08B5     		push	{r3, lr}
 253              	.LCFI4:
 254              		.cfi_def_cfa_offset 8
 255              		.cfi_offset 3, -8
 256              		.cfi_offset 14, -4
 106:Core/Src/command.c ****   printf("Sample Weak command\n\r");
 257              		.loc 1 106 3 is_stmt 1 view .LVU37
 258 0002 0348     		ldr	r0, .L22
 259              	.LVL22:
 260              		.loc 1 106 3 is_stmt 0 view .LVU38
 261 0004 FFF7FEFF 		bl	printf
 262              	.LVL23:
 107:Core/Src/command.c ****   printf("OK\n\r");
 263              		.loc 1 107 3 is_stmt 1 view .LVU39
 264 0008 0248     		ldr	r0, .L22+4
 265 000a FFF7FEFF 		bl	printf
 266              	.LVL24:
 108:Core/Src/command.c **** }
 267              		.loc 1 108 1 is_stmt 0 view .LVU40
 268 000e 08BD     		pop	{r3, pc}
 269              	.L23:
 270              		.align	2
 271              	.L22:
 272 0010 00000000 		.word	.LC6
 273 0014 20000000 		.word	.LC2
 274              		.cfi_endproc
 275              	.LFE1828:
 277              		.section	.rodata.log_command.str1.4,"aMS",%progbits,1
 278              		.align	2
ARM GAS  /var/folders/lt/l_qrc8c54t93n_phsj7cf5tc0000gn/T//ccXAGWAV.s 			page 8


 279              	.LC7:
 280 0000 4C6F6720 		.ascii	"Log Weak command\012\015\000"
 280      5765616B 
 280      20636F6D 
 280      6D616E64 
 280      0A0D00
 281              		.section	.text.log_command,"ax",%progbits
 282              		.align	1
 283              		.weak	log_command
 284              		.syntax unified
 285              		.thumb
 286              		.thumb_func
 287              		.fpu fpv4-sp-d16
 289              	log_command:
 290              	.LVL25:
 291              	.LFB1829:
 109:Core/Src/command.c **** 
 110:Core/Src/command.c **** void __attribute__((weak)) log_command(char *arguments) {
 292              		.loc 1 110 57 is_stmt 1 view -0
 293              		.cfi_startproc
 294              		@ args = 0, pretend = 0, frame = 0
 295              		@ frame_needed = 0, uses_anonymous_args = 0
 296              		.loc 1 110 57 is_stmt 0 view .LVU42
 297 0000 08B5     		push	{r3, lr}
 298              	.LCFI5:
 299              		.cfi_def_cfa_offset 8
 300              		.cfi_offset 3, -8
 301              		.cfi_offset 14, -4
 111:Core/Src/command.c ****   printf("Log Weak command\n\r");
 302              		.loc 1 111 3 is_stmt 1 view .LVU43
 303 0002 0348     		ldr	r0, .L26
 304              	.LVL26:
 305              		.loc 1 111 3 is_stmt 0 view .LVU44
 306 0004 FFF7FEFF 		bl	printf
 307              	.LVL27:
 112:Core/Src/command.c ****   printf("OK\n\r");
 308              		.loc 1 112 3 is_stmt 1 view .LVU45
 309 0008 0248     		ldr	r0, .L26+4
 310 000a FFF7FEFF 		bl	printf
 311              	.LVL28:
 113:Core/Src/command.c **** }
 312              		.loc 1 113 1 is_stmt 0 view .LVU46
 313 000e 08BD     		pop	{r3, pc}
 314              	.L27:
 315              		.align	2
 316              	.L26:
 317 0010 00000000 		.word	.LC7
 318 0014 20000000 		.word	.LC2
 319              		.cfi_endproc
 320              	.LFE1829:
 322              		.section	.rodata.ef_command.str1.4,"aMS",%progbits,1
 323              		.align	2
 324              	.LC8:
 325 0000 45726173 		.ascii	"Erase Flash Weak command\012\015\000"
 325      6520466C 
 325      61736820 
 325      5765616B 
ARM GAS  /var/folders/lt/l_qrc8c54t93n_phsj7cf5tc0000gn/T//ccXAGWAV.s 			page 9


 325      20636F6D 
 326              		.section	.text.ef_command,"ax",%progbits
 327              		.align	1
 328              		.weak	ef_command
 329              		.syntax unified
 330              		.thumb
 331              		.thumb_func
 332              		.fpu fpv4-sp-d16
 334              	ef_command:
 335              	.LVL29:
 336              	.LFB1830:
 114:Core/Src/command.c **** 
 115:Core/Src/command.c **** void __attribute__((weak)) ef_command(char *arguments) {
 337              		.loc 1 115 56 is_stmt 1 view -0
 338              		.cfi_startproc
 339              		@ args = 0, pretend = 0, frame = 0
 340              		@ frame_needed = 0, uses_anonymous_args = 0
 341              		.loc 1 115 56 is_stmt 0 view .LVU48
 342 0000 08B5     		push	{r3, lr}
 343              	.LCFI6:
 344              		.cfi_def_cfa_offset 8
 345              		.cfi_offset 3, -8
 346              		.cfi_offset 14, -4
 116:Core/Src/command.c ****   printf("Erase Flash Weak command\n\r");
 347              		.loc 1 116 3 is_stmt 1 view .LVU49
 348 0002 0348     		ldr	r0, .L30
 349              	.LVL30:
 350              		.loc 1 116 3 is_stmt 0 view .LVU50
 351 0004 FFF7FEFF 		bl	printf
 352              	.LVL31:
 117:Core/Src/command.c ****   printf("OK\n\r");
 353              		.loc 1 117 3 is_stmt 1 view .LVU51
 354 0008 0248     		ldr	r0, .L30+4
 355 000a FFF7FEFF 		bl	printf
 356              	.LVL32:
 118:Core/Src/command.c **** }
 357              		.loc 1 118 1 is_stmt 0 view .LVU52
 358 000e 08BD     		pop	{r3, pc}
 359              	.L31:
 360              		.align	2
 361              	.L30:
 362 0010 00000000 		.word	.LC8
 363 0014 20000000 		.word	.LC2
 364              		.cfi_endproc
 365              	.LFE1830:
 367              		.section	.rodata.temp_command.str1.4,"aMS",%progbits,1
 368              		.align	2
 369              	.LC9:
 370 0000 496E2077 		.ascii	"In weak temp command\012\015\000"
 370      65616B20 
 370      74656D70 
 370      20636F6D 
 370      6D616E64 
 371              		.section	.text.temp_command,"ax",%progbits
 372              		.align	1
 373              		.weak	temp_command
 374              		.syntax unified
ARM GAS  /var/folders/lt/l_qrc8c54t93n_phsj7cf5tc0000gn/T//ccXAGWAV.s 			page 10


 375              		.thumb
 376              		.thumb_func
 377              		.fpu fpv4-sp-d16
 379              	temp_command:
 380              	.LVL33:
 381              	.LFB1831:
 119:Core/Src/command.c **** 
 120:Core/Src/command.c **** void __attribute__((weak)) temp_command(char *arguments) {
 382              		.loc 1 120 58 is_stmt 1 view -0
 383              		.cfi_startproc
 384              		@ args = 0, pretend = 0, frame = 0
 385              		@ frame_needed = 0, uses_anonymous_args = 0
 386              		.loc 1 120 58 is_stmt 0 view .LVU54
 387 0000 08B5     		push	{r3, lr}
 388              	.LCFI7:
 389              		.cfi_def_cfa_offset 8
 390              		.cfi_offset 3, -8
 391              		.cfi_offset 14, -4
 121:Core/Src/command.c ****   printf("In weak temp command\n\r");
 392              		.loc 1 121 3 is_stmt 1 view .LVU55
 393 0002 0348     		ldr	r0, .L34
 394              	.LVL34:
 395              		.loc 1 121 3 is_stmt 0 view .LVU56
 396 0004 FFF7FEFF 		bl	printf
 397              	.LVL35:
 122:Core/Src/command.c ****   printf("OK\n\r");
 398              		.loc 1 122 3 is_stmt 1 view .LVU57
 399 0008 0248     		ldr	r0, .L34+4
 400 000a FFF7FEFF 		bl	printf
 401              	.LVL36:
 123:Core/Src/command.c **** }
 402              		.loc 1 123 1 is_stmt 0 view .LVU58
 403 000e 08BD     		pop	{r3, pc}
 404              	.L35:
 405              		.align	2
 406              	.L34:
 407 0010 00000000 		.word	.LC9
 408 0014 20000000 		.word	.LC2
 409              		.cfi_endproc
 410              	.LFE1831:
 412              		.section	.rodata.batt_command.str1.4,"aMS",%progbits,1
 413              		.align	2
 414              	.LC10:
 415 0000 496E2077 		.ascii	"In weak battery command\012\015\000"
 415      65616B20 
 415      62617474 
 415      65727920 
 415      636F6D6D 
 416              		.section	.text.batt_command,"ax",%progbits
 417              		.align	1
 418              		.weak	batt_command
 419              		.syntax unified
 420              		.thumb
 421              		.thumb_func
 422              		.fpu fpv4-sp-d16
 424              	batt_command:
 425              	.LVL37:
ARM GAS  /var/folders/lt/l_qrc8c54t93n_phsj7cf5tc0000gn/T//ccXAGWAV.s 			page 11


 426              	.LFB1832:
 124:Core/Src/command.c **** 
 125:Core/Src/command.c **** void __attribute__((weak)) batt_command(char *arguments) {
 427              		.loc 1 125 58 is_stmt 1 view -0
 428              		.cfi_startproc
 429              		@ args = 0, pretend = 0, frame = 0
 430              		@ frame_needed = 0, uses_anonymous_args = 0
 431              		.loc 1 125 58 is_stmt 0 view .LVU60
 432 0000 08B5     		push	{r3, lr}
 433              	.LCFI8:
 434              		.cfi_def_cfa_offset 8
 435              		.cfi_offset 3, -8
 436              		.cfi_offset 14, -4
 126:Core/Src/command.c ****   printf("In weak battery command\n\r");
 437              		.loc 1 126 3 is_stmt 1 view .LVU61
 438 0002 0348     		ldr	r0, .L38
 439              	.LVL38:
 440              		.loc 1 126 3 is_stmt 0 view .LVU62
 441 0004 FFF7FEFF 		bl	printf
 442              	.LVL39:
 127:Core/Src/command.c ****   printf("OK\n\r");
 443              		.loc 1 127 3 is_stmt 1 view .LVU63
 444 0008 0248     		ldr	r0, .L38+4
 445 000a FFF7FEFF 		bl	printf
 446              	.LVL40:
 128:Core/Src/command.c **** }
 447              		.loc 1 128 1 is_stmt 0 view .LVU64
 448 000e 08BD     		pop	{r3, pc}
 449              	.L39:
 450              		.align	2
 451              	.L38:
 452 0010 00000000 		.word	.LC10
 453 0014 20000000 		.word	.LC2
 454              		.cfi_endproc
 455              	.LFE1832:
 457              		.section	.rodata.tsl237_command.str1.4,"aMS",%progbits,1
 458              		.align	2
 459              	.LC11:
 460 0000 496E2077 		.ascii	"In weak tsl237 command\012\015\000"
 460      65616B20 
 460      74736C32 
 460      33372063 
 460      6F6D6D61 
 461              		.section	.text.tsl237_command,"ax",%progbits
 462              		.align	1
 463              		.weak	tsl237_command
 464              		.syntax unified
 465              		.thumb
 466              		.thumb_func
 467              		.fpu fpv4-sp-d16
 469              	tsl237_command:
 470              	.LVL41:
 471              	.LFB1833:
 129:Core/Src/command.c **** 
 130:Core/Src/command.c **** void __attribute__((weak)) tsl237_command(char *arguments) {
 472              		.loc 1 130 60 is_stmt 1 view -0
 473              		.cfi_startproc
ARM GAS  /var/folders/lt/l_qrc8c54t93n_phsj7cf5tc0000gn/T//ccXAGWAV.s 			page 12


 474              		@ args = 0, pretend = 0, frame = 0
 475              		@ frame_needed = 0, uses_anonymous_args = 0
 476              		.loc 1 130 60 is_stmt 0 view .LVU66
 477 0000 08B5     		push	{r3, lr}
 478              	.LCFI9:
 479              		.cfi_def_cfa_offset 8
 480              		.cfi_offset 3, -8
 481              		.cfi_offset 14, -4
 131:Core/Src/command.c ****   printf("In weak tsl237 command\n\r");
 482              		.loc 1 131 3 is_stmt 1 view .LVU67
 483 0002 0348     		ldr	r0, .L42
 484              	.LVL42:
 485              		.loc 1 131 3 is_stmt 0 view .LVU68
 486 0004 FFF7FEFF 		bl	printf
 487              	.LVL43:
 132:Core/Src/command.c ****   printf("OK\n\r");
 488              		.loc 1 132 3 is_stmt 1 view .LVU69
 489 0008 0248     		ldr	r0, .L42+4
 490 000a FFF7FEFF 		bl	printf
 491              	.LVL44:
 133:Core/Src/command.c **** }
 492              		.loc 1 133 1 is_stmt 0 view .LVU70
 493 000e 08BD     		pop	{r3, pc}
 494              	.L43:
 495              		.align	2
 496              	.L42:
 497 0010 00000000 		.word	.LC11
 498 0014 20000000 		.word	.LC2
 499              		.cfi_endproc
 500              	.LFE1833:
 502              		.section	.rodata.test_command.str1.4,"aMS",%progbits,1
 503              		.align	2
 504              	.LC12:
 505 0000 496E2077 		.ascii	"In weak test command\012\015\000"
 505      65616B20 
 505      74657374 
 505      20636F6D 
 505      6D616E64 
 506              		.section	.text.test_command,"ax",%progbits
 507              		.align	1
 508              		.weak	test_command
 509              		.syntax unified
 510              		.thumb
 511              		.thumb_func
 512              		.fpu fpv4-sp-d16
 514              	test_command:
 515              	.LVL45:
 516              	.LFB1834:
 134:Core/Src/command.c **** 
 135:Core/Src/command.c **** void __attribute__((weak)) test_command(char *arguments) {
 517              		.loc 1 135 58 is_stmt 1 view -0
 518              		.cfi_startproc
 519              		@ args = 0, pretend = 0, frame = 0
 520              		@ frame_needed = 0, uses_anonymous_args = 0
 521              		.loc 1 135 58 is_stmt 0 view .LVU72
 522 0000 08B5     		push	{r3, lr}
 523              	.LCFI10:
ARM GAS  /var/folders/lt/l_qrc8c54t93n_phsj7cf5tc0000gn/T//ccXAGWAV.s 			page 13


 524              		.cfi_def_cfa_offset 8
 525              		.cfi_offset 3, -8
 526              		.cfi_offset 14, -4
 136:Core/Src/command.c ****   printf("In weak test command\n\r");
 527              		.loc 1 136 3 is_stmt 1 view .LVU73
 528 0002 0348     		ldr	r0, .L46
 529              	.LVL46:
 530              		.loc 1 136 3 is_stmt 0 view .LVU74
 531 0004 FFF7FEFF 		bl	printf
 532              	.LVL47:
 137:Core/Src/command.c ****   printf("OK\n\r");
 533              		.loc 1 137 3 is_stmt 1 view .LVU75
 534 0008 0248     		ldr	r0, .L46+4
 535 000a FFF7FEFF 		bl	printf
 536              	.LVL48:
 138:Core/Src/command.c **** }
 537              		.loc 1 138 1 is_stmt 0 view .LVU76
 538 000e 08BD     		pop	{r3, pc}
 539              	.L47:
 540              		.align	2
 541              	.L46:
 542 0010 00000000 		.word	.LC12
 543 0014 20000000 		.word	.LC2
 544              		.cfi_endproc
 545              	.LFE1834:
 547              		.section	.rodata.lon_command.str1.4,"aMS",%progbits,1
 548              		.align	2
 549              	.LC13:
 550 0000 4C656420 		.ascii	"Led On Default Command\012\015\000"
 550      4F6E2044 
 550      65666175 
 550      6C742043 
 550      6F6D6D61 
 551 0019 000000   		.align	2
 552              	.LC14:
 553 001c 41726775 		.ascii	"Arguments = %s\012\015\000"
 553      6D656E74 
 553      73203D20 
 553      25730A0D 
 553      00
 554              		.section	.text.lon_command,"ax",%progbits
 555              		.align	1
 556              		.weak	lon_command
 557              		.syntax unified
 558              		.thumb
 559              		.thumb_func
 560              		.fpu fpv4-sp-d16
 562              	lon_command:
 563              	.LVL49:
 564              	.LFB1835:
 139:Core/Src/command.c **** 
 140:Core/Src/command.c **** 
 141:Core/Src/command.c **** void __attribute__((weak)) lon_command(char *arguments) {
 565              		.loc 1 141 57 is_stmt 1 view -0
 566              		.cfi_startproc
 567              		@ args = 0, pretend = 0, frame = 0
 568              		@ frame_needed = 0, uses_anonymous_args = 0
ARM GAS  /var/folders/lt/l_qrc8c54t93n_phsj7cf5tc0000gn/T//ccXAGWAV.s 			page 14


 569              		.loc 1 141 57 is_stmt 0 view .LVU78
 570 0000 10B5     		push	{r4, lr}
 571              	.LCFI11:
 572              		.cfi_def_cfa_offset 8
 573              		.cfi_offset 4, -8
 574              		.cfi_offset 14, -4
 575 0002 0446     		mov	r4, r0
 142:Core/Src/command.c ****   printf("Led On Default Command\n\r");
 576              		.loc 1 142 3 is_stmt 1 view .LVU79
 577 0004 0448     		ldr	r0, .L51
 578              	.LVL50:
 579              		.loc 1 142 3 is_stmt 0 view .LVU80
 580 0006 FFF7FEFF 		bl	printf
 581              	.LVL51:
 143:Core/Src/command.c ****   if (arguments) {
 582              		.loc 1 143 3 is_stmt 1 view .LVU81
 583              		.loc 1 143 6 is_stmt 0 view .LVU82
 584 000a 1CB1     		cbz	r4, .L48
 144:Core/Src/command.c ****     printf("Arguments = %s\n\r",arguments);
 585              		.loc 1 144 5 is_stmt 1 view .LVU83
 586 000c 2146     		mov	r1, r4
 587 000e 0348     		ldr	r0, .L51+4
 588 0010 FFF7FEFF 		bl	printf
 589              	.LVL52:
 590              	.L48:
 145:Core/Src/command.c ****   }
 146:Core/Src/command.c **** }
 591              		.loc 1 146 1 is_stmt 0 view .LVU84
 592 0014 10BD     		pop	{r4, pc}
 593              	.LVL53:
 594              	.L52:
 595              		.loc 1 146 1 view .LVU85
 596 0016 00BF     		.align	2
 597              	.L51:
 598 0018 00000000 		.word	.LC13
 599 001c 1C000000 		.word	.LC14
 600              		.cfi_endproc
 601              	.LFE1835:
 603              		.section	.rodata.lof_command.str1.4,"aMS",%progbits,1
 604              		.align	2
 605              	.LC15:
 606 0000 4C656420 		.ascii	"Led Off Default Command\012\015\000"
 606      4F666620 
 606      44656661 
 606      756C7420 
 606      436F6D6D 
 607              		.section	.text.lof_command,"ax",%progbits
 608              		.align	1
 609              		.weak	lof_command
 610              		.syntax unified
 611              		.thumb
 612              		.thumb_func
 613              		.fpu fpv4-sp-d16
 615              	lof_command:
 616              	.LVL54:
 617              	.LFB1836:
 147:Core/Src/command.c **** 
ARM GAS  /var/folders/lt/l_qrc8c54t93n_phsj7cf5tc0000gn/T//ccXAGWAV.s 			page 15


 148:Core/Src/command.c **** void __attribute__((weak)) lof_command(char *arguments) {
 618              		.loc 1 148 57 is_stmt 1 view -0
 619              		.cfi_startproc
 620              		@ args = 0, pretend = 0, frame = 0
 621              		@ frame_needed = 0, uses_anonymous_args = 0
 622              		.loc 1 148 57 is_stmt 0 view .LVU87
 623 0000 10B5     		push	{r4, lr}
 624              	.LCFI12:
 625              		.cfi_def_cfa_offset 8
 626              		.cfi_offset 4, -8
 627              		.cfi_offset 14, -4
 628 0002 0446     		mov	r4, r0
 149:Core/Src/command.c ****   printf("Led Off Default Command\n\r");
 629              		.loc 1 149 3 is_stmt 1 view .LVU88
 630 0004 0448     		ldr	r0, .L56
 631              	.LVL55:
 632              		.loc 1 149 3 is_stmt 0 view .LVU89
 633 0006 FFF7FEFF 		bl	printf
 634              	.LVL56:
 150:Core/Src/command.c ****   if (arguments) {
 635              		.loc 1 150 3 is_stmt 1 view .LVU90
 636              		.loc 1 150 6 is_stmt 0 view .LVU91
 637 000a 1CB1     		cbz	r4, .L53
 151:Core/Src/command.c ****     printf("Arguments = %s\n\r",arguments);
 638              		.loc 1 151 5 is_stmt 1 view .LVU92
 639 000c 2146     		mov	r1, r4
 640 000e 0348     		ldr	r0, .L56+4
 641 0010 FFF7FEFF 		bl	printf
 642              	.LVL57:
 643              	.L53:
 152:Core/Src/command.c ****   }
 153:Core/Src/command.c **** }
 644              		.loc 1 153 1 is_stmt 0 view .LVU93
 645 0014 10BD     		pop	{r4, pc}
 646              	.LVL58:
 647              	.L57:
 648              		.loc 1 153 1 view .LVU94
 649 0016 00BF     		.align	2
 650              	.L56:
 651 0018 00000000 		.word	.LC15
 652 001c 1C000000 		.word	.LC14
 653              		.cfi_endproc
 654              	.LFE1836:
 656              		.section	.rodata.uid_command.str1.4,"aMS",%progbits,1
 657              		.align	2
 658              	.LC16:
 659 0000 556E6971 		.ascii	"Unique Processor ID Default Command\012\015\000"
 659      75652050 
 659      726F6365 
 659      73736F72 
 659      20494420 
 660              		.section	.text.uid_command,"ax",%progbits
 661              		.align	1
 662              		.weak	uid_command
 663              		.syntax unified
 664              		.thumb
 665              		.thumb_func
ARM GAS  /var/folders/lt/l_qrc8c54t93n_phsj7cf5tc0000gn/T//ccXAGWAV.s 			page 16


 666              		.fpu fpv4-sp-d16
 668              	uid_command:
 669              	.LVL59:
 670              	.LFB1837:
 154:Core/Src/command.c **** 
 155:Core/Src/command.c **** void __attribute__((weak)) uid_command(char *arguments) {
 671              		.loc 1 155 57 is_stmt 1 view -0
 672              		.cfi_startproc
 673              		@ args = 0, pretend = 0, frame = 0
 674              		@ frame_needed = 0, uses_anonymous_args = 0
 675              		.loc 1 155 57 is_stmt 0 view .LVU96
 676 0000 10B5     		push	{r4, lr}
 677              	.LCFI13:
 678              		.cfi_def_cfa_offset 8
 679              		.cfi_offset 4, -8
 680              		.cfi_offset 14, -4
 681 0002 0446     		mov	r4, r0
 156:Core/Src/command.c ****   printf("Unique Processor ID Default Command\n\r");
 682              		.loc 1 156 3 is_stmt 1 view .LVU97
 683 0004 0448     		ldr	r0, .L61
 684              	.LVL60:
 685              		.loc 1 156 3 is_stmt 0 view .LVU98
 686 0006 FFF7FEFF 		bl	printf
 687              	.LVL61:
 157:Core/Src/command.c ****   if (arguments) {
 688              		.loc 1 157 3 is_stmt 1 view .LVU99
 689              		.loc 1 157 6 is_stmt 0 view .LVU100
 690 000a 1CB1     		cbz	r4, .L58
 158:Core/Src/command.c ****     printf("Arguments = %s\n\r",arguments);
 691              		.loc 1 158 5 is_stmt 1 view .LVU101
 692 000c 2146     		mov	r1, r4
 693 000e 0348     		ldr	r0, .L61+4
 694 0010 FFF7FEFF 		bl	printf
 695              	.LVL62:
 696              	.L58:
 159:Core/Src/command.c ****   }
 160:Core/Src/command.c **** }
 697              		.loc 1 160 1 is_stmt 0 view .LVU102
 698 0014 10BD     		pop	{r4, pc}
 699              	.LVL63:
 700              	.L62:
 701              		.loc 1 160 1 view .LVU103
 702 0016 00BF     		.align	2
 703              	.L61:
 704 0018 00000000 		.word	.LC16
 705 001c 1C000000 		.word	.LC14
 706              		.cfi_endproc
 707              	.LFE1837:
 709              		.section	.rodata.ts_command.str1.4,"aMS",%progbits,1
 710              		.align	2
 711              	.LC17:
 712 0000 53657420 		.ascii	"Set time default function\012\015\000"
 712      74696D65 
 712      20646566 
 712      61756C74 
 712      2066756E 
 713              		.section	.text.ts_command,"ax",%progbits
ARM GAS  /var/folders/lt/l_qrc8c54t93n_phsj7cf5tc0000gn/T//ccXAGWAV.s 			page 17


 714              		.align	1
 715              		.weak	ts_command
 716              		.syntax unified
 717              		.thumb
 718              		.thumb_func
 719              		.fpu fpv4-sp-d16
 721              	ts_command:
 722              	.LVL64:
 723              	.LFB1838:
 161:Core/Src/command.c **** 
 162:Core/Src/command.c **** void __attribute__((weak)) ts_command(char *arguments) {
 724              		.loc 1 162 56 is_stmt 1 view -0
 725              		.cfi_startproc
 726              		@ args = 0, pretend = 0, frame = 0
 727              		@ frame_needed = 0, uses_anonymous_args = 0
 728              		.loc 1 162 56 is_stmt 0 view .LVU105
 729 0000 10B5     		push	{r4, lr}
 730              	.LCFI14:
 731              		.cfi_def_cfa_offset 8
 732              		.cfi_offset 4, -8
 733              		.cfi_offset 14, -4
 734 0002 0446     		mov	r4, r0
 163:Core/Src/command.c ****   printf("Set time default function\n\r");
 735              		.loc 1 163 3 is_stmt 1 view .LVU106
 736 0004 0448     		ldr	r0, .L66
 737              	.LVL65:
 738              		.loc 1 163 3 is_stmt 0 view .LVU107
 739 0006 FFF7FEFF 		bl	printf
 740              	.LVL66:
 164:Core/Src/command.c ****   if (arguments) {
 741              		.loc 1 164 3 is_stmt 1 view .LVU108
 742              		.loc 1 164 6 is_stmt 0 view .LVU109
 743 000a 1CB1     		cbz	r4, .L63
 165:Core/Src/command.c ****     printf("Arguments = %s\n\r",arguments);
 744              		.loc 1 165 5 is_stmt 1 view .LVU110
 745 000c 2146     		mov	r1, r4
 746 000e 0348     		ldr	r0, .L66+4
 747 0010 FFF7FEFF 		bl	printf
 748              	.LVL67:
 749              	.L63:
 166:Core/Src/command.c ****   }
 167:Core/Src/command.c **** }
 750              		.loc 1 167 1 is_stmt 0 view .LVU111
 751 0014 10BD     		pop	{r4, pc}
 752              	.LVL68:
 753              	.L67:
 754              		.loc 1 167 1 view .LVU112
 755 0016 00BF     		.align	2
 756              	.L66:
 757 0018 00000000 		.word	.LC17
 758 001c 1C000000 		.word	.LC14
 759              		.cfi_endproc
 760              	.LFE1838:
 762              		.section	.rodata.ds_command.str1.4,"aMS",%progbits,1
 763              		.align	2
 764              	.LC18:
 765 0000 53657420 		.ascii	"Set date default command\012\015\000"
ARM GAS  /var/folders/lt/l_qrc8c54t93n_phsj7cf5tc0000gn/T//ccXAGWAV.s 			page 18


 765      64617465 
 765      20646566 
 765      61756C74 
 765      20636F6D 
 766              		.section	.text.ds_command,"ax",%progbits
 767              		.align	1
 768              		.weak	ds_command
 769              		.syntax unified
 770              		.thumb
 771              		.thumb_func
 772              		.fpu fpv4-sp-d16
 774              	ds_command:
 775              	.LVL69:
 776              	.LFB1839:
 168:Core/Src/command.c **** 
 169:Core/Src/command.c **** void __attribute__((weak)) ds_command(char *arguments) {
 777              		.loc 1 169 56 is_stmt 1 view -0
 778              		.cfi_startproc
 779              		@ args = 0, pretend = 0, frame = 0
 780              		@ frame_needed = 0, uses_anonymous_args = 0
 781              		.loc 1 169 56 is_stmt 0 view .LVU114
 782 0000 10B5     		push	{r4, lr}
 783              	.LCFI15:
 784              		.cfi_def_cfa_offset 8
 785              		.cfi_offset 4, -8
 786              		.cfi_offset 14, -4
 787 0002 0446     		mov	r4, r0
 170:Core/Src/command.c ****   printf("Set date default command\n\r");
 788              		.loc 1 170 3 is_stmt 1 view .LVU115
 789 0004 0448     		ldr	r0, .L71
 790              	.LVL70:
 791              		.loc 1 170 3 is_stmt 0 view .LVU116
 792 0006 FFF7FEFF 		bl	printf
 793              	.LVL71:
 171:Core/Src/command.c ****   if (arguments) {
 794              		.loc 1 171 3 is_stmt 1 view .LVU117
 795              		.loc 1 171 6 is_stmt 0 view .LVU118
 796 000a 1CB1     		cbz	r4, .L68
 172:Core/Src/command.c ****     printf("Arguments = %s\n\r",arguments);
 797              		.loc 1 172 5 is_stmt 1 view .LVU119
 798 000c 2146     		mov	r1, r4
 799 000e 0348     		ldr	r0, .L71+4
 800 0010 FFF7FEFF 		bl	printf
 801              	.LVL72:
 802              	.L68:
 173:Core/Src/command.c ****   }
 174:Core/Src/command.c **** }
 803              		.loc 1 174 1 is_stmt 0 view .LVU120
 804 0014 10BD     		pop	{r4, pc}
 805              	.LVL73:
 806              	.L72:
 807              		.loc 1 174 1 view .LVU121
 808 0016 00BF     		.align	2
 809              	.L71:
 810 0018 00000000 		.word	.LC18
 811 001c 1C000000 		.word	.LC14
 812              		.cfi_endproc
ARM GAS  /var/folders/lt/l_qrc8c54t93n_phsj7cf5tc0000gn/T//ccXAGWAV.s 			page 19


 813              	.LFE1839:
 815              		.section	.rodata.prompt.str1.4,"aMS",%progbits,1
 816              		.align	2
 817              	.LC19:
 818 0000 0D0A0D0A 		.ascii	"\015\012\015\012%02d/%02d/20%02d \000"
 818      25303264 
 818      2F253032 
 818      642F3230 
 818      25303264 
 819 0016 0000     		.align	2
 820              	.LC20:
 821 0018 25303264 		.ascii	"%02d:%02d:%02d \000"
 821      3A253032 
 821      643A2530 
 821      32642000 
 822              		.align	2
 823              	.LC21:
 824 0028 49554C53 		.ascii	"IULS> \000"
 824      3E2000
 825              		.section	.text.prompt,"ax",%progbits
 826              		.align	1
 827              		.global	prompt
 828              		.syntax unified
 829              		.thumb
 830              		.thumb_func
 831              		.fpu fpv4-sp-d16
 833              	prompt:
 834              	.LFB1823:
  28:Core/Src/command.c ****   RTC_TimeTypeDef current_time = {0};
 835              		.loc 1 28 19 is_stmt 1 view -0
 836              		.cfi_startproc
 837              		@ args = 0, pretend = 0, frame = 24
 838              		@ frame_needed = 0, uses_anonymous_args = 0
 839 0000 30B5     		push	{r4, r5, lr}
 840              	.LCFI16:
 841              		.cfi_def_cfa_offset 12
 842              		.cfi_offset 4, -12
 843              		.cfi_offset 5, -8
 844              		.cfi_offset 14, -4
 845 0002 87B0     		sub	sp, sp, #28
 846              	.LCFI17:
 847              		.cfi_def_cfa_offset 40
  29:Core/Src/command.c ****   RTC_DateTypeDef current_date = {0};
 848              		.loc 1 29 3 view .LVU123
  29:Core/Src/command.c ****   RTC_DateTypeDef current_date = {0};
 849              		.loc 1 29 19 is_stmt 0 view .LVU124
 850 0004 0024     		movs	r4, #0
 851 0006 0194     		str	r4, [sp, #4]
 852 0008 0294     		str	r4, [sp, #8]
 853 000a 0394     		str	r4, [sp, #12]
 854 000c 0494     		str	r4, [sp, #16]
 855 000e 0594     		str	r4, [sp, #20]
  30:Core/Src/command.c ****   HAL_RTC_GetTime(&hrtc,&current_time,RTC_FORMAT_BIN);
 856              		.loc 1 30 3 is_stmt 1 view .LVU125
  30:Core/Src/command.c ****   HAL_RTC_GetTime(&hrtc,&current_time,RTC_FORMAT_BIN);
 857              		.loc 1 30 19 is_stmt 0 view .LVU126
 858 0010 0094     		str	r4, [sp]
ARM GAS  /var/folders/lt/l_qrc8c54t93n_phsj7cf5tc0000gn/T//ccXAGWAV.s 			page 20


  31:Core/Src/command.c ****   HAL_RTC_GetDate(&hrtc,&current_date,RTC_FORMAT_BIN);
 859              		.loc 1 31 3 is_stmt 1 view .LVU127
 860 0012 114D     		ldr	r5, .L75
 861 0014 2246     		mov	r2, r4
 862 0016 01A9     		add	r1, sp, #4
 863 0018 2846     		mov	r0, r5
 864 001a FFF7FEFF 		bl	HAL_RTC_GetTime
 865              	.LVL74:
  32:Core/Src/command.c ****   printf("\r\n\r\n%02d/%02d/20%02d ",current_date.Month,current_date.Date,current_date.Year);
 866              		.loc 1 32 3 view .LVU128
 867 001e 2246     		mov	r2, r4
 868 0020 6946     		mov	r1, sp
 869 0022 2846     		mov	r0, r5
 870 0024 FFF7FEFF 		bl	HAL_RTC_GetDate
 871              	.LVL75:
  33:Core/Src/command.c ****   printf("%02d:%02d:%02d ",current_time.Hours,current_time.Minutes, current_time.Seconds);
 872              		.loc 1 33 3 view .LVU129
 873 0028 9DF80330 		ldrb	r3, [sp, #3]	@ zero_extendqisi2
 874 002c 9DF80220 		ldrb	r2, [sp, #2]	@ zero_extendqisi2
 875 0030 9DF80110 		ldrb	r1, [sp, #1]	@ zero_extendqisi2
 876 0034 0948     		ldr	r0, .L75+4
 877 0036 FFF7FEFF 		bl	printf
 878              	.LVL76:
  34:Core/Src/command.c ****   printf("IULS> ");
 879              		.loc 1 34 3 view .LVU130
 880 003a 9DF80630 		ldrb	r3, [sp, #6]	@ zero_extendqisi2
 881 003e 9DF80520 		ldrb	r2, [sp, #5]	@ zero_extendqisi2
 882 0042 9DF80410 		ldrb	r1, [sp, #4]	@ zero_extendqisi2
 883 0046 0648     		ldr	r0, .L75+8
 884 0048 FFF7FEFF 		bl	printf
 885              	.LVL77:
  35:Core/Src/command.c **** }
 886              		.loc 1 35 3 view .LVU131
 887 004c 0548     		ldr	r0, .L75+12
 888 004e FFF7FEFF 		bl	printf
 889              	.LVL78:
  36:Core/Src/command.c **** void help_command(char *);
 890              		.loc 1 36 1 is_stmt 0 view .LVU132
 891 0052 07B0     		add	sp, sp, #28
 892              	.LCFI18:
 893              		.cfi_def_cfa_offset 12
 894              		@ sp needed
 895 0054 30BD     		pop	{r4, r5, pc}
 896              	.L76:
 897 0056 00BF     		.align	2
 898              	.L75:
 899 0058 00000000 		.word	hrtc
 900 005c 00000000 		.word	.LC19
 901 0060 18000000 		.word	.LC20
 902 0064 28000000 		.word	.LC21
 903              		.cfi_endproc
 904              	.LFE1823:
 906              		.section	.text.parse_command,"ax",%progbits
 907              		.align	1
 908              		.global	parse_command
 909              		.syntax unified
 910              		.thumb
ARM GAS  /var/folders/lt/l_qrc8c54t93n_phsj7cf5tc0000gn/T//ccXAGWAV.s 			page 21


 911              		.thumb_func
 912              		.fpu fpv4-sp-d16
 914              	parse_command:
 915              	.LVL79:
 916              	.LFB1841:
 175:Core/Src/command.c **** 
 176:Core/Src/command.c **** int execute_command(uint8_t * line) {
 177:Core/Src/command.c ****   // APP_DBG_MSG("Command Recieved: %s\r\n", line);make
 178:Core/Src/command.c ****   uint8_t *cmd;
 179:Core/Src/command.c ****   uint8_t *arg;
 180:Core/Src/command.c ****   command_t *p = commands;
 181:Core/Src/command.c ****   int success = 0;
 182:Core/Src/command.c **** 
 183:Core/Src/command.c ****   if (!line) {
 184:Core/Src/command.c ****     return (-1); // Passed a bad pointer 
 185:Core/Src/command.c ****   }
 186:Core/Src/command.c ****   if (parse_command(line,&cmd,&arg) == -1) {
 187:Core/Src/command.c ****     printf("Error with parse command\n\r");
 188:Core/Src/command.c ****     return (-1);
 189:Core/Src/command.c ****   }
 190:Core/Src/command.c ****   while (p->cmd_string) {
 191:Core/Src/command.c ****     if (!strcmp(p->cmd_string,(char *) cmd)) {
 192:Core/Src/command.c ****       if (!p->cmd_function) {
 193:Core/Src/command.c ****         return (-1);
 194:Core/Src/command.c ****       }
 195:Core/Src/command.c ****       (*p->cmd_function)((char *)arg);            // Run the command with the passed arguments
 196:Core/Src/command.c ****       success = 1;
 197:Core/Src/command.c ****       break;
 198:Core/Src/command.c ****     }
 199:Core/Src/command.c ****     p++;
 200:Core/Src/command.c ****   }
 201:Core/Src/command.c **** 
 202:Core/Src/command.c ****   fflush(stdout);
 203:Core/Src/command.c ****   
 204:Core/Src/command.c ****   if (success) {
 205:Core/Src/command.c ****     // printf("OK: execute_command\r\n");
 206:Core/Src/command.c ****     // prompt();
 207:Core/Src/command.c ****     fflush(stdout);
 208:Core/Src/command.c ****     return (0);
 209:Core/Src/command.c ****   }
 210:Core/Src/command.c ****   else {
 211:Core/Src/command.c ****     // printf("NOK: execute_command\r\n");
 212:Core/Src/command.c ****     // prompt();
 213:Core/Src/command.c ****     fflush(stdout);
 214:Core/Src/command.c ****     return (-1);
 215:Core/Src/command.c ****   }
 216:Core/Src/command.c **** }
 217:Core/Src/command.c **** 
 218:Core/Src/command.c **** int parse_command (uint8_t *line, uint8_t **command, uint8_t **args) {
 917              		.loc 1 218 70 is_stmt 1 view -0
 918              		.cfi_startproc
 919              		@ args = 0, pretend = 0, frame = 0
 920              		@ frame_needed = 0, uses_anonymous_args = 0
 921              		@ link register save eliminated.
 219:Core/Src/command.c ****   // looks for the first comma, places a NULL and captures the remainder as the arguments
 220:Core/Src/command.c ****   uint8_t *p; 
 922              		.loc 1 220 3 view .LVU134
ARM GAS  /var/folders/lt/l_qrc8c54t93n_phsj7cf5tc0000gn/T//ccXAGWAV.s 			page 22


 221:Core/Src/command.c ****   
 222:Core/Src/command.c ****   if((!line) ||
 923              		.loc 1 222 3 view .LVU135
 924              		.loc 1 222 5 is_stmt 0 view .LVU136
 925 0000 0346     		mov	r3, r0
 926 0002 80B1     		cbz	r0, .L82
 927              		.loc 1 222 14 discriminator 1 view .LVU137
 928 0004 91B1     		cbz	r1, .L83
 223:Core/Src/command.c ****      (!command) ||
 929              		.loc 1 223 17 view .LVU138
 930 0006 A2B1     		cbz	r2, .L84
 224:Core/Src/command.c ****      (!args)) {
 225:Core/Src/command.c ****     return (-1); // Passed a bad pointer 
 226:Core/Src/command.c ****   }    
 227:Core/Src/command.c ****   *command = line;
 931              		.loc 1 227 3 is_stmt 1 view .LVU139
 932              		.loc 1 227 12 is_stmt 0 view .LVU140
 933 0008 0860     		str	r0, [r1]
 228:Core/Src/command.c ****   p = line;
 934              		.loc 1 228 3 is_stmt 1 view .LVU141
 935              	.LVL80:
 229:Core/Src/command.c ****   while (*p!=','){
 936              		.loc 1 229 3 view .LVU142
 937              	.L79:
 938              		.loc 1 229 9 view .LVU143
 939              		.loc 1 229 10 is_stmt 0 view .LVU144
 940 000a 1978     		ldrb	r1, [r3]	@ zero_extendqisi2
 941              		.loc 1 229 9 view .LVU145
 942 000c 2C29     		cmp	r1, #44
 943 000e 05D0     		beq	.L85
 230:Core/Src/command.c ****     if (!*p) {
 944              		.loc 1 230 5 is_stmt 1 view .LVU146
 945              		.loc 1 230 8 is_stmt 0 view .LVU147
 946 0010 09B1     		cbz	r1, .L86
 231:Core/Src/command.c ****       *args = '\0';
 232:Core/Src/command.c ****       return(0);
 233:Core/Src/command.c ****     }
 234:Core/Src/command.c ****     p++;
 947              		.loc 1 234 5 is_stmt 1 view .LVU148
 948              		.loc 1 234 6 is_stmt 0 view .LVU149
 949 0012 0133     		adds	r3, r3, #1
 950              	.LVL81:
 951              		.loc 1 234 6 view .LVU150
 952 0014 F9E7     		b	.L79
 953              	.L86:
 231:Core/Src/command.c ****       *args = '\0';
 954              		.loc 1 231 7 is_stmt 1 view .LVU151
 231:Core/Src/command.c ****       *args = '\0';
 955              		.loc 1 231 13 is_stmt 0 view .LVU152
 956 0016 0020     		movs	r0, #0
 957              	.LVL82:
 231:Core/Src/command.c ****       *args = '\0';
 958              		.loc 1 231 13 view .LVU153
 959 0018 1060     		str	r0, [r2]
 960              	.LVL83:
 232:Core/Src/command.c ****     }
 961              		.loc 1 232 7 is_stmt 1 view .LVU154
ARM GAS  /var/folders/lt/l_qrc8c54t93n_phsj7cf5tc0000gn/T//ccXAGWAV.s 			page 23


 232:Core/Src/command.c ****     }
 962              		.loc 1 232 13 is_stmt 0 view .LVU155
 963 001a 7047     		bx	lr
 964              	.LVL84:
 965              	.L85:
 235:Core/Src/command.c ****   }
 236:Core/Src/command.c ****   *p++ = '\0'; // Replace first comma with a null
 966              		.loc 1 236 3 is_stmt 1 view .LVU156
 967              		.loc 1 236 8 is_stmt 0 view .LVU157
 968 001c 0020     		movs	r0, #0
 969              	.LVL85:
 970              		.loc 1 236 8 view .LVU158
 971 001e 03F8010B 		strb	r0, [r3], #1
 972              	.LVL86:
 237:Core/Src/command.c ****   *args = p;   // The arguments are right after the comma
 973              		.loc 1 237 3 is_stmt 1 view .LVU159
 974              		.loc 1 237 9 is_stmt 0 view .LVU160
 975 0022 1360     		str	r3, [r2]
 238:Core/Src/command.c ****   return (0);
 976              		.loc 1 238 3 is_stmt 1 view .LVU161
 977              		.loc 1 238 10 is_stmt 0 view .LVU162
 978 0024 7047     		bx	lr
 979              	.LVL87:
 980              	.L82:
 225:Core/Src/command.c ****   }    
 981              		.loc 1 225 12 view .LVU163
 982 0026 4FF0FF30 		mov	r0, #-1
 983              	.LVL88:
 225:Core/Src/command.c ****   }    
 984              		.loc 1 225 12 view .LVU164
 985 002a 7047     		bx	lr
 986              	.LVL89:
 987              	.L83:
 225:Core/Src/command.c ****   }    
 988              		.loc 1 225 12 view .LVU165
 989 002c 4FF0FF30 		mov	r0, #-1
 990              	.LVL90:
 225:Core/Src/command.c ****   }    
 991              		.loc 1 225 12 view .LVU166
 992 0030 7047     		bx	lr
 993              	.LVL91:
 994              	.L84:
 225:Core/Src/command.c ****   }    
 995              		.loc 1 225 12 view .LVU167
 996 0032 4FF0FF30 		mov	r0, #-1
 997              	.LVL92:
 239:Core/Src/command.c **** }
 998              		.loc 1 239 1 view .LVU168
 999 0036 7047     		bx	lr
 1000              		.cfi_endproc
 1001              	.LFE1841:
 1003              		.section	.rodata.execute_command.str1.4,"aMS",%progbits,1
 1004              		.align	2
 1005              	.LC22:
 1006 0000 4572726F 		.ascii	"Error with parse command\012\015\000"
 1006      72207769 
 1006      74682070 
ARM GAS  /var/folders/lt/l_qrc8c54t93n_phsj7cf5tc0000gn/T//ccXAGWAV.s 			page 24


 1006      61727365 
 1006      20636F6D 
 1007              		.section	.text.execute_command,"ax",%progbits
 1008              		.align	1
 1009              		.global	execute_command
 1010              		.syntax unified
 1011              		.thumb
 1012              		.thumb_func
 1013              		.fpu fpv4-sp-d16
 1015              	execute_command:
 1016              	.LVL93:
 1017              	.LFB1840:
 176:Core/Src/command.c ****   // APP_DBG_MSG("Command Recieved: %s\r\n", line);make
 1018              		.loc 1 176 37 is_stmt 1 view -0
 1019              		.cfi_startproc
 1020              		@ args = 0, pretend = 0, frame = 8
 1021              		@ frame_needed = 0, uses_anonymous_args = 0
 176:Core/Src/command.c ****   // APP_DBG_MSG("Command Recieved: %s\r\n", line);make
 1022              		.loc 1 176 37 is_stmt 0 view .LVU170
 1023 0000 10B5     		push	{r4, lr}
 1024              	.LCFI19:
 1025              		.cfi_def_cfa_offset 8
 1026              		.cfi_offset 4, -8
 1027              		.cfi_offset 14, -4
 1028 0002 82B0     		sub	sp, sp, #8
 1029              	.LCFI20:
 1030              		.cfi_def_cfa_offset 16
 178:Core/Src/command.c ****   uint8_t *arg;
 1031              		.loc 1 178 3 is_stmt 1 view .LVU171
 179:Core/Src/command.c ****   command_t *p = commands;
 1032              		.loc 1 179 3 view .LVU172
 180:Core/Src/command.c ****   int success = 0;
 1033              		.loc 1 180 3 view .LVU173
 1034              	.LVL94:
 181:Core/Src/command.c **** 
 1035              		.loc 1 181 3 view .LVU174
 183:Core/Src/command.c ****     return (-1); // Passed a bad pointer 
 1036              		.loc 1 183 3 view .LVU175
 183:Core/Src/command.c ****     return (-1); // Passed a bad pointer 
 1037              		.loc 1 183 6 is_stmt 0 view .LVU176
 1038 0004 0028     		cmp	r0, #0
 1039 0006 32D0     		beq	.L94
 186:Core/Src/command.c ****     printf("Error with parse command\n\r");
 1040              		.loc 1 186 3 is_stmt 1 view .LVU177
 186:Core/Src/command.c ****     printf("Error with parse command\n\r");
 1041              		.loc 1 186 7 is_stmt 0 view .LVU178
 1042 0008 6A46     		mov	r2, sp
 1043 000a 01A9     		add	r1, sp, #4
 1044 000c FFF7FEFF 		bl	parse_command
 1045              	.LVL95:
 186:Core/Src/command.c ****     printf("Error with parse command\n\r");
 1046              		.loc 1 186 7 view .LVU179
 1047 0010 0446     		mov	r4, r0
 186:Core/Src/command.c ****     printf("Error with parse command\n\r");
 1048              		.loc 1 186 6 view .LVU180
 1049 0012 B0F1FF3F 		cmp	r0, #-1
 1050 0016 08D0     		beq	.L98
ARM GAS  /var/folders/lt/l_qrc8c54t93n_phsj7cf5tc0000gn/T//ccXAGWAV.s 			page 25


 180:Core/Src/command.c ****   int success = 0;
 1051              		.loc 1 180 14 view .LVU181
 1052 0018 184C     		ldr	r4, .L101
 1053              	.LVL96:
 1054              	.L89:
 190:Core/Src/command.c ****     if (!strcmp(p->cmd_string,(char *) cmd)) {
 1055              		.loc 1 190 9 is_stmt 1 view .LVU182
 190:Core/Src/command.c ****     if (!strcmp(p->cmd_string,(char *) cmd)) {
 1056              		.loc 1 190 11 is_stmt 0 view .LVU183
 1057 001a 2068     		ldr	r0, [r4]
 190:Core/Src/command.c ****     if (!strcmp(p->cmd_string,(char *) cmd)) {
 1058              		.loc 1 190 9 view .LVU184
 1059 001c 78B1     		cbz	r0, .L99
 191:Core/Src/command.c ****       if (!p->cmd_function) {
 1060              		.loc 1 191 5 is_stmt 1 view .LVU185
 191:Core/Src/command.c ****       if (!p->cmd_function) {
 1061              		.loc 1 191 10 is_stmt 0 view .LVU186
 1062 001e 0199     		ldr	r1, [sp, #4]
 1063 0020 FFF7FEFF 		bl	strcmp
 1064              	.LVL97:
 191:Core/Src/command.c ****       if (!p->cmd_function) {
 1065              		.loc 1 191 8 view .LVU187
 1066 0024 28B1     		cbz	r0, .L100
 199:Core/Src/command.c ****   }
 1067              		.loc 1 199 5 is_stmt 1 view .LVU188
 199:Core/Src/command.c ****   }
 1068              		.loc 1 199 6 is_stmt 0 view .LVU189
 1069 0026 0834     		adds	r4, r4, #8
 1070              	.LVL98:
 199:Core/Src/command.c ****   }
 1071              		.loc 1 199 6 view .LVU190
 1072 0028 F7E7     		b	.L89
 1073              	.LVL99:
 1074              	.L98:
 187:Core/Src/command.c ****     return (-1);
 1075              		.loc 1 187 5 is_stmt 1 view .LVU191
 1076 002a 1548     		ldr	r0, .L101+4
 1077 002c FFF7FEFF 		bl	printf
 1078              	.LVL100:
 188:Core/Src/command.c ****   }
 1079              		.loc 1 188 5 view .LVU192
 188:Core/Src/command.c ****   }
 1080              		.loc 1 188 12 is_stmt 0 view .LVU193
 1081 0030 12E0     		b	.L87
 1082              	.LVL101:
 1083              	.L100:
 192:Core/Src/command.c ****         return (-1);
 1084              		.loc 1 192 7 is_stmt 1 view .LVU194
 192:Core/Src/command.c ****         return (-1);
 1085              		.loc 1 192 13 is_stmt 0 view .LVU195
 1086 0032 6368     		ldr	r3, [r4, #4]
 192:Core/Src/command.c ****         return (-1);
 1087              		.loc 1 192 10 view .LVU196
 1088 0034 F3B1     		cbz	r3, .L96
 195:Core/Src/command.c ****       success = 1;
 1089              		.loc 1 195 7 is_stmt 1 view .LVU197
 195:Core/Src/command.c ****       success = 1;
ARM GAS  /var/folders/lt/l_qrc8c54t93n_phsj7cf5tc0000gn/T//ccXAGWAV.s 			page 26


 1090              		.loc 1 195 8 is_stmt 0 view .LVU198
 1091 0036 0098     		ldr	r0, [sp]
 1092 0038 9847     		blx	r3
 1093              	.LVL102:
 196:Core/Src/command.c ****       break;
 1094              		.loc 1 196 7 is_stmt 1 view .LVU199
 197:Core/Src/command.c ****     }
 1095              		.loc 1 197 7 view .LVU200
 196:Core/Src/command.c ****       break;
 1096              		.loc 1 196 15 is_stmt 0 view .LVU201
 1097 003a 0124     		movs	r4, #1
 1098              	.LVL103:
 197:Core/Src/command.c ****     }
 1099              		.loc 1 197 7 view .LVU202
 1100 003c 00E0     		b	.L91
 1101              	.LVL104:
 1102              	.L99:
 181:Core/Src/command.c **** 
 1103              		.loc 1 181 7 view .LVU203
 1104 003e 0024     		movs	r4, #0
 1105              	.LVL105:
 1106              	.L91:
 202:Core/Src/command.c ****   
 1107              		.loc 1 202 3 is_stmt 1 view .LVU204
 202:Core/Src/command.c ****   
 1108              		.loc 1 202 10 is_stmt 0 view .LVU205
 1109 0040 104B     		ldr	r3, .L101+8
 1110 0042 1B68     		ldr	r3, [r3]
 202:Core/Src/command.c ****   
 1111              		.loc 1 202 3 view .LVU206
 1112 0044 9868     		ldr	r0, [r3, #8]
 1113 0046 FFF7FEFF 		bl	fflush
 1114              	.LVL106:
 204:Core/Src/command.c ****     // printf("OK: execute_command\r\n");
 1115              		.loc 1 204 3 is_stmt 1 view .LVU207
 204:Core/Src/command.c ****     // printf("OK: execute_command\r\n");
 1116              		.loc 1 204 6 is_stmt 0 view .LVU208
 1117 004a 44B1     		cbz	r4, .L93
 207:Core/Src/command.c ****     return (0);
 1118              		.loc 1 207 5 is_stmt 1 view .LVU209
 207:Core/Src/command.c ****     return (0);
 1119              		.loc 1 207 12 is_stmt 0 view .LVU210
 1120 004c 0D4B     		ldr	r3, .L101+8
 1121 004e 1B68     		ldr	r3, [r3]
 207:Core/Src/command.c ****     return (0);
 1122              		.loc 1 207 5 view .LVU211
 1123 0050 9868     		ldr	r0, [r3, #8]
 1124 0052 FFF7FEFF 		bl	fflush
 1125              	.LVL107:
 208:Core/Src/command.c ****   }
 1126              		.loc 1 208 5 is_stmt 1 view .LVU212
 208:Core/Src/command.c ****   }
 1127              		.loc 1 208 12 is_stmt 0 view .LVU213
 1128 0056 0024     		movs	r4, #0
 1129              	.LVL108:
 1130              	.L87:
 216:Core/Src/command.c **** 
ARM GAS  /var/folders/lt/l_qrc8c54t93n_phsj7cf5tc0000gn/T//ccXAGWAV.s 			page 27


 1131              		.loc 1 216 1 view .LVU214
 1132 0058 2046     		mov	r0, r4
 1133 005a 02B0     		add	sp, sp, #8
 1134              	.LCFI21:
 1135              		.cfi_remember_state
 1136              		.cfi_def_cfa_offset 8
 1137              		@ sp needed
 1138 005c 10BD     		pop	{r4, pc}
 1139              	.LVL109:
 1140              	.L93:
 1141              	.LCFI22:
 1142              		.cfi_restore_state
 213:Core/Src/command.c ****     return (-1);
 1143              		.loc 1 213 5 is_stmt 1 view .LVU215
 213:Core/Src/command.c ****     return (-1);
 1144              		.loc 1 213 12 is_stmt 0 view .LVU216
 1145 005e 094B     		ldr	r3, .L101+8
 1146 0060 1B68     		ldr	r3, [r3]
 213:Core/Src/command.c ****     return (-1);
 1147              		.loc 1 213 5 view .LVU217
 1148 0062 9868     		ldr	r0, [r3, #8]
 1149 0064 FFF7FEFF 		bl	fflush
 1150              	.LVL110:
 214:Core/Src/command.c ****   }
 1151              		.loc 1 214 5 is_stmt 1 view .LVU218
 214:Core/Src/command.c ****   }
 1152              		.loc 1 214 12 is_stmt 0 view .LVU219
 1153 0068 4FF0FF34 		mov	r4, #-1
 1154              	.LVL111:
 214:Core/Src/command.c ****   }
 1155              		.loc 1 214 12 view .LVU220
 1156 006c F4E7     		b	.L87
 1157              	.LVL112:
 1158              	.L94:
 184:Core/Src/command.c ****   }
 1159              		.loc 1 184 12 view .LVU221
 1160 006e 4FF0FF34 		mov	r4, #-1
 1161 0072 F1E7     		b	.L87
 1162              	.LVL113:
 1163              	.L96:
 193:Core/Src/command.c ****       }
 1164              		.loc 1 193 16 view .LVU222
 1165 0074 4FF0FF34 		mov	r4, #-1
 1166              	.LVL114:
 193:Core/Src/command.c ****       }
 1167              		.loc 1 193 16 view .LVU223
 1168 0078 EEE7     		b	.L87
 1169              	.L102:
 1170 007a 00BF     		.align	2
 1171              	.L101:
 1172 007c 00000000 		.word	.LANCHOR0
 1173 0080 00000000 		.word	.LC22
 1174 0084 00000000 		.word	_impure_ptr
 1175              		.cfi_endproc
 1176              	.LFE1840:
 1178              		.section	.rodata.get_command.str1.4,"aMS",%progbits,1
 1179              		.align	2
ARM GAS  /var/folders/lt/l_qrc8c54t93n_phsj7cf5tc0000gn/T//ccXAGWAV.s 			page 28


 1180              	.LC23:
 1181 0000 08200800 		.ascii	"\010 \010\000"
 1182              		.align	2
 1183              	.LC24:
 1184 0004 0A0D00   		.ascii	"\012\015\000"
 1185              		.section	.text.get_command,"ax",%progbits
 1186              		.align	1
 1187              		.global	get_command
 1188              		.syntax unified
 1189              		.thumb
 1190              		.thumb_func
 1191              		.fpu fpv4-sp-d16
 1193              	get_command:
 1194              	.LVL115:
 1195              	.LFB1842:
 240:Core/Src/command.c **** 
 241:Core/Src/command.c **** enum {COLLECT_CHARS, COMPLETE};
 242:Core/Src/command.c ****   
 243:Core/Src/command.c **** int get_command(uint8_t *command_buf) {
 1196              		.loc 1 243 39 is_stmt 1 view -0
 1197              		.cfi_startproc
 1198              		@ args = 0, pretend = 0, frame = 0
 1199              		@ frame_needed = 0, uses_anonymous_args = 0
 1200              		.loc 1 243 39 is_stmt 0 view .LVU225
 1201 0000 70B5     		push	{r4, r5, r6, lr}
 1202              	.LCFI23:
 1203              		.cfi_def_cfa_offset 16
 1204              		.cfi_offset 4, -16
 1205              		.cfi_offset 5, -12
 1206              		.cfi_offset 6, -8
 1207              		.cfi_offset 14, -4
 1208 0002 0646     		mov	r6, r0
 244:Core/Src/command.c ****   static uint32_t counter=0;
 1209              		.loc 1 244 3 is_stmt 1 view .LVU226
 245:Core/Src/command.c ****   static uint32_t mode = COLLECT_CHARS;
 1210              		.loc 1 245 3 view .LVU227
 246:Core/Src/command.c ****     
 247:Core/Src/command.c ****   uint8_t ch = 0;;
 1211              		.loc 1 247 3 view .LVU228
 1212              	.LVL116:
 1213              		.loc 1 247 18 view .LVU229
 248:Core/Src/command.c ****   uint32_t mask;
 1214              		.loc 1 248 3 view .LVU230
 249:Core/Src/command.c ****   
 250:Core/Src/command.c ****   ch=dequeue(&rx_queue);
 1215              		.loc 1 250 3 view .LVU231
 1216              		.loc 1 250 6 is_stmt 0 view .LVU232
 1217 0004 2248     		ldr	r0, .L115
 1218              	.LVL117:
 1219              		.loc 1 250 6 view .LVU233
 1220 0006 FFF7FEFF 		bl	dequeue
 1221              	.LVL118:
 1222 000a 0446     		mov	r4, r0
 1223              	.LVL119:
 251:Core/Src/command.c ****   while (ch!=0) {
 1224              		.loc 1 251 3 is_stmt 1 view .LVU234
 1225              		.loc 1 251 9 is_stmt 0 view .LVU235
ARM GAS  /var/folders/lt/l_qrc8c54t93n_phsj7cf5tc0000gn/T//ccXAGWAV.s 			page 29


 1226 000c 13E0     		b	.L104
 1227              	.L106:
 252:Core/Src/command.c ****     if ((ch!='\n')&&(ch!='\r')) {
 253:Core/Src/command.c ****       if (ch==0x7f) {               // backspace functionality
 254:Core/Src/command.c ****         if (counter > 0) { 
 255:Core/Src/command.c ****             printf("\b \b");
 256:Core/Src/command.c ****             counter--;
 257:Core/Src/command.c ****         }
 258:Core/Src/command.c ****       }
 259:Core/Src/command.c ****       else {
 260:Core/Src/command.c ****         putchar(ch); // send the character
 1228              		.loc 1 260 9 is_stmt 1 view .LVU236
 1229 000e 2046     		mov	r0, r4
 1230 0010 FFF7FEFF 		bl	putchar
 1231              	.LVL120:
 261:Core/Src/command.c ****         /* while (!LL_LPUART_IsActiveFlag_TXE(LPUART1)); // wait until the character has been sent.
 262:Core/Src/command.c ****         command_buf[counter++]=ch;
 1232              		.loc 1 262 9 view .LVU237
 1233              		.loc 1 262 28 is_stmt 0 view .LVU238
 1234 0014 1F49     		ldr	r1, .L115+4
 1235 0016 0A68     		ldr	r2, [r1]
 1236 0018 531C     		adds	r3, r2, #1
 1237 001a 0B60     		str	r3, [r1]
 1238              		.loc 1 262 31 view .LVU239
 1239 001c B454     		strb	r4, [r6, r2]
 263:Core/Src/command.c ****         if (counter>=(QUEUE_SIZE-2)) {
 1240              		.loc 1 263 9 is_stmt 1 view .LVU240
 1241              		.loc 1 263 12 is_stmt 0 view .LVU241
 1242 001e 1D2B     		cmp	r3, #29
 1243 0020 1CD8     		bhi	.L113
 1244              	.L107:
 264:Core/Src/command.c ****           mode=COMPLETE;
 265:Core/Src/command.c ****           break;
 266:Core/Src/command.c ****         }
 267:Core/Src/command.c ****       }
 268:Core/Src/command.c ****     }
 269:Core/Src/command.c ****     else {
 270:Core/Src/command.c ****       mode = COMPLETE;
 271:Core/Src/command.c ****       break;
 272:Core/Src/command.c ****     }
 273:Core/Src/command.c ****     mask = disable();
 1245              		.loc 1 273 5 is_stmt 1 view .LVU242
 1246              		.loc 1 273 12 is_stmt 0 view .LVU243
 1247 0022 FFF7FEFF 		bl	disable
 1248              	.LVL121:
 1249 0026 0546     		mov	r5, r0
 1250              	.LVL122:
 274:Core/Src/command.c ****     ch=dequeue(&rx_queue);
 1251              		.loc 1 274 5 is_stmt 1 view .LVU244
 1252              		.loc 1 274 8 is_stmt 0 view .LVU245
 1253 0028 1948     		ldr	r0, .L115
 1254              	.LVL123:
 1255              		.loc 1 274 8 view .LVU246
 1256 002a FFF7FEFF 		bl	dequeue
 1257              	.LVL124:
 1258 002e 0446     		mov	r4, r0
 1259              	.LVL125:
ARM GAS  /var/folders/lt/l_qrc8c54t93n_phsj7cf5tc0000gn/T//ccXAGWAV.s 			page 30


 275:Core/Src/command.c ****     restore(mask);  
 1260              		.loc 1 275 5 is_stmt 1 view .LVU247
 1261 0030 2846     		mov	r0, r5
 1262 0032 FFF7FEFF 		bl	restore
 1263              	.LVL126:
 1264              	.L104:
 251:Core/Src/command.c ****     if ((ch!='\n')&&(ch!='\r')) {
 1265              		.loc 1 251 9 view .LVU248
 1266 0036 C4B1     		cbz	r4, .L108
 252:Core/Src/command.c ****       if (ch==0x7f) {               // backspace functionality
 1267              		.loc 1 252 5 view .LVU249
 252:Core/Src/command.c ****       if (ch==0x7f) {               // backspace functionality
 1268              		.loc 1 252 8 is_stmt 0 view .LVU250
 1269 0038 0A2C     		cmp	r4, #10
 1270 003a 13D0     		beq	.L105
 252:Core/Src/command.c ****       if (ch==0x7f) {               // backspace functionality
 1271              		.loc 1 252 19 discriminator 1 view .LVU251
 1272 003c 0D2C     		cmp	r4, #13
 1273 003e 11D0     		beq	.L105
 253:Core/Src/command.c ****         if (counter > 0) { 
 1274              		.loc 1 253 7 is_stmt 1 view .LVU252
 253:Core/Src/command.c ****         if (counter > 0) { 
 1275              		.loc 1 253 10 is_stmt 0 view .LVU253
 1276 0040 7F2C     		cmp	r4, #127
 1277 0042 E4D1     		bne	.L106
 254:Core/Src/command.c ****             printf("\b \b");
 1278              		.loc 1 254 9 is_stmt 1 view .LVU254
 254:Core/Src/command.c ****             printf("\b \b");
 1279              		.loc 1 254 21 is_stmt 0 view .LVU255
 1280 0044 134B     		ldr	r3, .L115+4
 1281 0046 1B68     		ldr	r3, [r3]
 254:Core/Src/command.c ****             printf("\b \b");
 1282              		.loc 1 254 12 view .LVU256
 1283 0048 002B     		cmp	r3, #0
 1284 004a EAD0     		beq	.L107
 255:Core/Src/command.c ****             counter--;
 1285              		.loc 1 255 13 is_stmt 1 view .LVU257
 1286 004c 1248     		ldr	r0, .L115+8
 1287 004e FFF7FEFF 		bl	printf
 1288              	.LVL127:
 256:Core/Src/command.c ****         }
 1289              		.loc 1 256 13 view .LVU258
 256:Core/Src/command.c ****         }
 1290              		.loc 1 256 20 is_stmt 0 view .LVU259
 1291 0052 104A     		ldr	r2, .L115+4
 1292 0054 1368     		ldr	r3, [r2]
 1293 0056 013B     		subs	r3, r3, #1
 1294 0058 1360     		str	r3, [r2]
 1295 005a E2E7     		b	.L107
 1296              	.L113:
 264:Core/Src/command.c ****           break;
 1297              		.loc 1 264 11 is_stmt 1 view .LVU260
 264:Core/Src/command.c ****           break;
 1298              		.loc 1 264 15 is_stmt 0 view .LVU261
 1299 005c 0F4B     		ldr	r3, .L115+12
 1300 005e 0122     		movs	r2, #1
 1301 0060 1A60     		str	r2, [r3]
ARM GAS  /var/folders/lt/l_qrc8c54t93n_phsj7cf5tc0000gn/T//ccXAGWAV.s 			page 31


 265:Core/Src/command.c ****         }
 1302              		.loc 1 265 11 is_stmt 1 view .LVU262
 1303 0062 02E0     		b	.L108
 1304              	.L105:
 270:Core/Src/command.c ****       break;
 1305              		.loc 1 270 7 view .LVU263
 270:Core/Src/command.c ****       break;
 1306              		.loc 1 270 12 is_stmt 0 view .LVU264
 1307 0064 0D4B     		ldr	r3, .L115+12
 1308 0066 0122     		movs	r2, #1
 1309 0068 1A60     		str	r2, [r3]
 271:Core/Src/command.c ****     }
 1310              		.loc 1 271 7 is_stmt 1 view .LVU265
 1311              	.L108:
 276:Core/Src/command.c ****   }
 277:Core/Src/command.c ****   if (mode == COMPLETE) {
 1312              		.loc 1 277 3 view .LVU266
 1313              		.loc 1 277 12 is_stmt 0 view .LVU267
 1314 006a 0C4B     		ldr	r3, .L115+12
 1315 006c 1B68     		ldr	r3, [r3]
 1316              		.loc 1 277 6 view .LVU268
 1317 006e 012B     		cmp	r3, #1
 1318 0070 01D0     		beq	.L114
 278:Core/Src/command.c ****     command_buf[counter] = 0;
 279:Core/Src/command.c ****     printf("\n\r");
 280:Core/Src/command.c ****     counter = 0;
 281:Core/Src/command.c ****     mode = COLLECT_CHARS;
 282:Core/Src/command.c ****     return(1);
 283:Core/Src/command.c ****   }
 284:Core/Src/command.c ****   else {
 285:Core/Src/command.c ****     return(0);
 1319              		.loc 1 285 11 view .LVU269
 1320 0072 0020     		movs	r0, #0
 1321              	.LVL128:
 1322              	.L103:
 286:Core/Src/command.c ****   }
 287:Core/Src/command.c **** }
 1323              		.loc 1 287 1 view .LVU270
 1324 0074 70BD     		pop	{r4, r5, r6, pc}
 1325              	.LVL129:
 1326              	.L114:
 278:Core/Src/command.c ****     command_buf[counter] = 0;
 1327              		.loc 1 278 5 is_stmt 1 view .LVU271
 278:Core/Src/command.c ****     command_buf[counter] = 0;
 1328              		.loc 1 278 16 is_stmt 0 view .LVU272
 1329 0076 074D     		ldr	r5, .L115+4
 1330 0078 2B68     		ldr	r3, [r5]
 278:Core/Src/command.c ****     command_buf[counter] = 0;
 1331              		.loc 1 278 26 view .LVU273
 1332 007a 0024     		movs	r4, #0
 1333              	.LVL130:
 278:Core/Src/command.c ****     command_buf[counter] = 0;
 1334              		.loc 1 278 26 view .LVU274
 1335 007c F454     		strb	r4, [r6, r3]
 279:Core/Src/command.c ****     counter = 0;
 1336              		.loc 1 279 5 is_stmt 1 view .LVU275
 1337 007e 0848     		ldr	r0, .L115+16
ARM GAS  /var/folders/lt/l_qrc8c54t93n_phsj7cf5tc0000gn/T//ccXAGWAV.s 			page 32


 1338 0080 FFF7FEFF 		bl	printf
 1339              	.LVL131:
 280:Core/Src/command.c ****     mode = COLLECT_CHARS;
 1340              		.loc 1 280 5 view .LVU276
 280:Core/Src/command.c ****     mode = COLLECT_CHARS;
 1341              		.loc 1 280 13 is_stmt 0 view .LVU277
 1342 0084 2C60     		str	r4, [r5]
 281:Core/Src/command.c ****     return(1);
 1343              		.loc 1 281 5 is_stmt 1 view .LVU278
 281:Core/Src/command.c ****     return(1);
 1344              		.loc 1 281 10 is_stmt 0 view .LVU279
 1345 0086 054B     		ldr	r3, .L115+12
 1346 0088 1C60     		str	r4, [r3]
 282:Core/Src/command.c ****   }
 1347              		.loc 1 282 5 is_stmt 1 view .LVU280
 282:Core/Src/command.c ****   }
 1348              		.loc 1 282 11 is_stmt 0 view .LVU281
 1349 008a 0120     		movs	r0, #1
 1350 008c F2E7     		b	.L103
 1351              	.L116:
 1352 008e 00BF     		.align	2
 1353              	.L115:
 1354 0090 00000000 		.word	rx_queue
 1355 0094 00000000 		.word	.LANCHOR1
 1356 0098 00000000 		.word	.LC23
 1357 009c 00000000 		.word	.LANCHOR2
 1358 00a0 04000000 		.word	.LC24
 1359              		.cfi_endproc
 1360              	.LFE1842:
 1362              		.section	.text.delspace,"ax",%progbits
 1363              		.align	1
 1364              		.global	delspace
 1365              		.syntax unified
 1366              		.thumb
 1367              		.thumb_func
 1368              		.fpu fpv4-sp-d16
 1370              	delspace:
 1371              	.LVL132:
 1372              	.LFB1843:
 288:Core/Src/command.c ****     
 289:Core/Src/command.c **** 
 290:Core/Src/command.c **** int delspace(uint8_t *instr) {
 1373              		.loc 1 290 30 is_stmt 1 view -0
 1374              		.cfi_startproc
 1375              		@ args = 0, pretend = 0, frame = 32
 1376              		@ frame_needed = 0, uses_anonymous_args = 0
 291:Core/Src/command.c ****   int length;
 1377              		.loc 1 291 3 view .LVU283
 292:Core/Src/command.c ****   uint8_t temp[MAX_COMMAND_LEN];
 1378              		.loc 1 292 3 view .LVU284
 293:Core/Src/command.c ****   uint8_t *src;
 1379              		.loc 1 293 3 view .LVU285
 294:Core/Src/command.c ****   uint8_t *dest;
 1380              		.loc 1 294 3 view .LVU286
 295:Core/Src/command.c ****   int count = 0;
 1381              		.loc 1 295 3 view .LVU287
 296:Core/Src/command.c ****   
ARM GAS  /var/folders/lt/l_qrc8c54t93n_phsj7cf5tc0000gn/T//ccXAGWAV.s 			page 33


 297:Core/Src/command.c ****   if (!instr) {
 1382              		.loc 1 297 3 view .LVU288
 1383              		.loc 1 297 6 is_stmt 0 view .LVU289
 1384 0000 38B3     		cbz	r0, .L124
 290:Core/Src/command.c ****   int length;
 1385              		.loc 1 290 30 view .LVU290
 1386 0002 10B5     		push	{r4, lr}
 1387              	.LCFI24:
 1388              		.cfi_def_cfa_offset 8
 1389              		.cfi_offset 4, -8
 1390              		.cfi_offset 14, -4
 1391 0004 88B0     		sub	sp, sp, #32
 1392              	.LCFI25:
 1393              		.cfi_def_cfa_offset 40
 1394 0006 0446     		mov	r4, r0
 298:Core/Src/command.c ****     return (-1); // if passed a null pointer, bail out 
 299:Core/Src/command.c ****   } 
 300:Core/Src/command.c ****   if (!(length=strnlen((char *)instr,MAX_COMMAND_LEN))) {
 1395              		.loc 1 300 3 is_stmt 1 view .LVU291
 1396              		.loc 1 300 16 is_stmt 0 view .LVU292
 1397 0008 2021     		movs	r1, #32
 1398 000a FFF7FEFF 		bl	strnlen
 1399              	.LVL133:
 1400              		.loc 1 300 6 view .LVU293
 1401 000e 18B3     		cbz	r0, .L125
 301:Core/Src/command.c ****     return (-1); // if the passed string length is 0
 302:Core/Src/command.c ****   }
 303:Core/Src/command.c ****   if (length == MAX_COMMAND_LEN) {
 1402              		.loc 1 303 3 is_stmt 1 view .LVU294
 1403              		.loc 1 303 6 is_stmt 0 view .LVU295
 1404 0010 2028     		cmp	r0, #32
 1405 0012 24D0     		beq	.L126
 304:Core/Src/command.c ****     return (-1); // no null was found in the passed string. 
 305:Core/Src/command.c ****   }
 306:Core/Src/command.c ****   strcpy((char *)temp, (char *)instr);
 1406              		.loc 1 306 3 is_stmt 1 view .LVU296
 1407 0014 2146     		mov	r1, r4
 1408 0016 6846     		mov	r0, sp
 1409              	.LVL134:
 1410              		.loc 1 306 3 is_stmt 0 view .LVU297
 1411 0018 FFF7FEFF 		bl	strcpy
 1412              	.LVL135:
 307:Core/Src/command.c ****   src = temp;                 // point at the beginning of the temp string (copy of instr)
 1413              		.loc 1 307 3 is_stmt 1 view .LVU298
 308:Core/Src/command.c ****   dest = instr;
 1414              		.loc 1 308 3 view .LVU299
 309:Core/Src/command.c ****   while(isspace(*src)) src++; // Skip leading whitespace
 1415              		.loc 1 309 3 view .LVU300
 307:Core/Src/command.c ****   src = temp;                 // point at the beginning of the temp string (copy of instr)
 1416              		.loc 1 307 7 is_stmt 0 view .LVU301
 1417 001c 6B46     		mov	r3, sp
 1418              		.loc 1 309 8 view .LVU302
 1419 001e 00E0     		b	.L119
 1420              	.LVL136:
 1421              	.L120:
 1422              		.loc 1 309 24 is_stmt 1 discriminator 2 view .LVU303
 1423              		.loc 1 309 27 is_stmt 0 discriminator 2 view .LVU304
ARM GAS  /var/folders/lt/l_qrc8c54t93n_phsj7cf5tc0000gn/T//ccXAGWAV.s 			page 34


 1424 0020 0133     		adds	r3, r3, #1
 1425              	.LVL137:
 1426              	.L119:
 1427              		.loc 1 309 8 is_stmt 1 discriminator 1 view .LVU305
 1428              		.loc 1 309 9 is_stmt 0 discriminator 1 view .LVU306
 1429 0022 1978     		ldrb	r1, [r3]	@ zero_extendqisi2
 1430 0024 0F4A     		ldr	r2, .L132
 1431 0026 8A5C     		ldrb	r2, [r1, r2]	@ zero_extendqisi2
 1432              		.loc 1 309 8 discriminator 1 view .LVU307
 1433 0028 12F0080F 		tst	r2, #8
 1434 002c F8D1     		bne	.L120
 295:Core/Src/command.c ****   
 1435              		.loc 1 295 7 view .LVU308
 1436 002e 0020     		movs	r0, #0
 1437 0030 00E0     		b	.L121
 1438              	.LVL138:
 1439              	.L122:
 310:Core/Src/command.c ****   while (*src!='\0') {        // traverse the source string
 311:Core/Src/command.c ****     if (!isspace(*src)) {     // if the character is not whitespace, copy it to the dest. 
 312:Core/Src/command.c ****       *dest = *src;
 313:Core/Src/command.c ****       dest++;
 314:Core/Src/command.c ****       count++;
 315:Core/Src/command.c ****     }
 316:Core/Src/command.c ****     src++;
 1440              		.loc 1 316 5 is_stmt 1 view .LVU309
 1441              		.loc 1 316 8 is_stmt 0 view .LVU310
 1442 0032 0133     		adds	r3, r3, #1
 1443              	.LVL139:
 1444              	.L121:
 310:Core/Src/command.c ****   while (*src!='\0') {        // traverse the source string
 1445              		.loc 1 310 9 is_stmt 1 view .LVU311
 310:Core/Src/command.c ****   while (*src!='\0') {        // traverse the source string
 1446              		.loc 1 310 10 is_stmt 0 view .LVU312
 1447 0034 1A78     		ldrb	r2, [r3]	@ zero_extendqisi2
 310:Core/Src/command.c ****   while (*src!='\0') {        // traverse the source string
 1448              		.loc 1 310 9 view .LVU313
 1449 0036 42B1     		cbz	r2, .L131
 311:Core/Src/command.c ****       *dest = *src;
 1450              		.loc 1 311 5 is_stmt 1 view .LVU314
 311:Core/Src/command.c ****       *dest = *src;
 1451              		.loc 1 311 10 is_stmt 0 view .LVU315
 1452 0038 0A49     		ldr	r1, .L132
 1453 003a 515C     		ldrb	r1, [r2, r1]	@ zero_extendqisi2
 311:Core/Src/command.c ****       *dest = *src;
 1454              		.loc 1 311 8 view .LVU316
 1455 003c 11F0080F 		tst	r1, #8
 1456 0040 F7D1     		bne	.L122
 312:Core/Src/command.c ****       dest++;
 1457              		.loc 1 312 7 is_stmt 1 view .LVU317
 312:Core/Src/command.c ****       dest++;
 1458              		.loc 1 312 13 is_stmt 0 view .LVU318
 1459 0042 04F8012B 		strb	r2, [r4], #1
 1460              	.LVL140:
 313:Core/Src/command.c ****       count++;
 1461              		.loc 1 313 7 is_stmt 1 view .LVU319
 314:Core/Src/command.c ****     }
 1462              		.loc 1 314 7 view .LVU320
ARM GAS  /var/folders/lt/l_qrc8c54t93n_phsj7cf5tc0000gn/T//ccXAGWAV.s 			page 35


 314:Core/Src/command.c ****     }
 1463              		.loc 1 314 12 is_stmt 0 view .LVU321
 1464 0046 0130     		adds	r0, r0, #1
 1465              	.LVL141:
 314:Core/Src/command.c ****     }
 1466              		.loc 1 314 12 view .LVU322
 1467 0048 F3E7     		b	.L122
 1468              	.L131:
 317:Core/Src/command.c ****   }
 318:Core/Src/command.c ****   *dest = '\0';
 1469              		.loc 1 318 3 is_stmt 1 view .LVU323
 1470              		.loc 1 318 9 is_stmt 0 view .LVU324
 1471 004a 0023     		movs	r3, #0
 1472              	.LVL142:
 1473              		.loc 1 318 9 view .LVU325
 1474 004c 2370     		strb	r3, [r4]
 319:Core/Src/command.c ****   return (count);
 1475              		.loc 1 319 3 is_stmt 1 view .LVU326
 1476              	.LVL143:
 1477              	.L117:
 320:Core/Src/command.c **** }
 1478              		.loc 1 320 1 is_stmt 0 view .LVU327
 1479 004e 08B0     		add	sp, sp, #32
 1480              	.LCFI26:
 1481              		.cfi_def_cfa_offset 8
 1482              		@ sp needed
 1483 0050 10BD     		pop	{r4, pc}
 1484              	.LVL144:
 1485              	.L124:
 1486              	.LCFI27:
 1487              		.cfi_def_cfa_offset 0
 1488              		.cfi_restore 4
 1489              		.cfi_restore 14
 298:Core/Src/command.c ****   } 
 1490              		.loc 1 298 12 view .LVU328
 1491 0052 4FF0FF30 		mov	r0, #-1
 1492              	.LVL145:
 1493              		.loc 1 320 1 view .LVU329
 1494 0056 7047     		bx	lr
 1495              	.LVL146:
 1496              	.L125:
 1497              	.LCFI28:
 1498              		.cfi_def_cfa_offset 40
 1499              		.cfi_offset 4, -8
 1500              		.cfi_offset 14, -4
 301:Core/Src/command.c ****   }
 1501              		.loc 1 301 12 view .LVU330
 1502 0058 4FF0FF30 		mov	r0, #-1
 1503              	.LVL147:
 301:Core/Src/command.c ****   }
 1504              		.loc 1 301 12 view .LVU331
 1505 005c F7E7     		b	.L117
 1506              	.LVL148:
 1507              	.L126:
 304:Core/Src/command.c ****   }
 1508              		.loc 1 304 12 view .LVU332
 1509 005e 4FF0FF30 		mov	r0, #-1
ARM GAS  /var/folders/lt/l_qrc8c54t93n_phsj7cf5tc0000gn/T//ccXAGWAV.s 			page 36


 1510              	.LVL149:
 304:Core/Src/command.c ****   }
 1511              		.loc 1 304 12 view .LVU333
 1512 0062 F4E7     		b	.L117
 1513              	.L133:
 1514              		.align	2
 1515              	.L132:
 1516 0064 01000000 		.word	_ctype_+1
 1517              		.cfi_endproc
 1518              	.LFE1843:
 1520              		.global	commands
 1521              		.section	.rodata.str1.4,"aMS",%progbits,1
 1522              		.align	2
 1523              	.LC25:
 1524 0000 68656C70 		.ascii	"help\000"
 1524      00
 1525 0005 000000   		.align	2
 1526              	.LC26:
 1527 0008 6C6F6600 		.ascii	"lof\000"
 1528              		.align	2
 1529              	.LC27:
 1530 000c 6C6F6E00 		.ascii	"lon\000"
 1531              		.align	2
 1532              	.LC28:
 1533 0010 75696400 		.ascii	"uid\000"
 1534              		.align	2
 1535              	.LC29:
 1536 0014 74657374 		.ascii	"test\000"
 1536      00
 1537 0019 000000   		.align	2
 1538              	.LC30:
 1539 001c 747300   		.ascii	"ts\000"
 1540 001f 00       		.align	2
 1541              	.LC31:
 1542 0020 647300   		.ascii	"ds\000"
 1543 0023 00       		.align	2
 1544              	.LC32:
 1545 0024 74656D70 		.ascii	"temp\000"
 1545      00
 1546 0029 000000   		.align	2
 1547              	.LC33:
 1548 002c 62617474 		.ascii	"batt\000"
 1548      00
 1549 0031 000000   		.align	2
 1550              	.LC34:
 1551 0034 74736C32 		.ascii	"tsl237\000"
 1551      333700
 1552 003b 00       		.align	2
 1553              	.LC35:
 1554 003c 656600   		.ascii	"ef\000"
 1555 003f 00       		.align	2
 1556              	.LC36:
 1557 0040 73616D70 		.ascii	"sample\000"
 1557      6C6500
 1558 0047 00       		.align	2
 1559              	.LC37:
 1560 0048 6C6F6700 		.ascii	"log\000"
ARM GAS  /var/folders/lt/l_qrc8c54t93n_phsj7cf5tc0000gn/T//ccXAGWAV.s 			page 37


 1561              		.align	2
 1562              	.LC38:
 1563 004c 64617461 		.ascii	"data\000"
 1563      00
 1564 0051 000000   		.align	2
 1565              	.LC39:
 1566 0054 7072696E 		.ascii	"print_log\000"
 1566      745F6C6F 
 1566      6700
 1567 005e 0000     		.align	2
 1568              	.LC40:
 1569 0060 74696D65 		.ascii	"time\000"
 1569      00
 1570 0065 000000   		.align	2
 1571              	.LC41:
 1572 0068 666C6173 		.ascii	"flash_info\000"
 1572      685F696E 
 1572      666F00
 1573 0073 00       		.align	2
 1574              	.LC42:
 1575 0074 737400   		.ascii	"st\000"
 1576              		.section	.bss.counter.17302,"aw",%nobits
 1577              		.align	2
 1578              		.set	.LANCHOR1,. + 0
 1581              	counter.17302:
 1582 0000 00000000 		.space	4
 1583              		.section	.bss.mode.17303,"aw",%nobits
 1584              		.align	2
 1585              		.set	.LANCHOR2,. + 0
 1588              	mode.17303:
 1589 0000 00000000 		.space	4
 1590              		.section	.data.commands,"aw"
 1591              		.align	2
 1592              		.set	.LANCHOR0,. + 0
 1595              	commands:
 1596 0000 00000000 		.word	.LC25
 1597 0004 00000000 		.word	help_command
 1598 0008 08000000 		.word	.LC26
 1599 000c 00000000 		.word	lof_command
 1600 0010 0C000000 		.word	.LC27
 1601 0014 00000000 		.word	lon_command
 1602 0018 10000000 		.word	.LC28
 1603 001c 00000000 		.word	uid_command
 1604 0020 14000000 		.word	.LC29
 1605 0024 00000000 		.word	test_command
 1606 0028 1C000000 		.word	.LC30
 1607 002c 00000000 		.word	ts_command
 1608 0030 20000000 		.word	.LC31
 1609 0034 00000000 		.word	ds_command
 1610 0038 24000000 		.word	.LC32
 1611 003c 00000000 		.word	temp_command
 1612 0040 2C000000 		.word	.LC33
 1613 0044 00000000 		.word	batt_command
 1614 0048 34000000 		.word	.LC34
 1615 004c 00000000 		.word	tsl237_command
 1616 0050 3C000000 		.word	.LC35
 1617 0054 00000000 		.word	ef_command
ARM GAS  /var/folders/lt/l_qrc8c54t93n_phsj7cf5tc0000gn/T//ccXAGWAV.s 			page 38


 1618 0058 40000000 		.word	.LC36
 1619 005c 00000000 		.word	sample_command
 1620 0060 48000000 		.word	.LC37
 1621 0064 00000000 		.word	log_command
 1622 0068 4C000000 		.word	.LC38
 1623 006c 00000000 		.word	data_command
 1624 0070 54000000 		.word	.LC39
 1625 0074 00000000 		.word	print_log_command
 1626 0078 60000000 		.word	.LC40
 1627 007c 00000000 		.word	time_command
 1628 0080 68000000 		.word	.LC41
 1629 0084 00000000 		.word	flash_info_command
 1630 0088 74000000 		.word	.LC42
 1631 008c 00000000 		.word	create_sample_time
 1632 0090 00000000 		.word	0
 1633 0094 00000000 		.word	0
 1634              		.text
 1635              	.Letext0:
 1636              		.file 2 "/usr/local/Cellar/arm-none-eabi-gcc/9-2019-q4-major/gcc/arm-none-eabi/include/machine/_de
 1637              		.file 3 "/usr/local/Cellar/arm-none-eabi-gcc/9-2019-q4-major/gcc/arm-none-eabi/include/sys/_stdint
 1638              		.file 4 "Drivers/CMSIS/Include/core_cm4.h"
 1639              		.file 5 "Drivers/CMSIS/Device/ST/STM32WBxx/Include/system_stm32wbxx.h"
 1640              		.file 6 "Drivers/CMSIS/Device/ST/STM32WBxx/Include/stm32wb55xx.h"
 1641              		.file 7 "Drivers/STM32WBxx_HAL_Driver/Inc/stm32wbxx_hal_def.h"
 1642              		.file 8 "Drivers/STM32WBxx_HAL_Driver/Inc/stm32wbxx_hal_flash.h"
 1643              		.file 9 "Drivers/STM32WBxx_HAL_Driver/Inc/stm32wbxx_hal_rtc.h"
 1644              		.file 10 "Drivers/STM32WBxx_HAL_Driver/Inc/stm32wbxx_hal_uart.h"
 1645              		.file 11 "Drivers/STM32WBxx_HAL_Driver/Inc/stm32wbxx_hal.h"
 1646              		.file 12 "/usr/local/Cellar/arm-none-eabi-gcc/9-2019-q4-major/gcc/arm-none-eabi/include/sys/lock.h
 1647              		.file 13 "/usr/local/Cellar/arm-none-eabi-gcc/9-2019-q4-major/gcc/arm-none-eabi/include/sys/_types
 1648              		.file 14 "/usr/local/Cellar/arm-none-eabi-gcc/9-2019-q4-major/gcc/lib/gcc/arm-none-eabi/9.2.1/incl
 1649              		.file 15 "/usr/local/Cellar/arm-none-eabi-gcc/9-2019-q4-major/gcc/arm-none-eabi/include/sys/reent.
 1650              		.file 16 "/usr/local/Cellar/arm-none-eabi-gcc/9-2019-q4-major/gcc/arm-none-eabi/include/stdlib.h"
 1651              		.file 17 "Drivers/STM32WBxx_HAL_Driver/Inc/stm32wbxx_ll_usart.h"
 1652              		.file 18 "Drivers/STM32WBxx_HAL_Driver/Inc/stm32wbxx_ll_lpuart.h"
 1653              		.file 19 "/usr/local/Cellar/arm-none-eabi-gcc/9-2019-q4-major/gcc/arm-none-eabi/include/ctype.h"
 1654              		.file 20 "Core/Inc/queue.h"
 1655              		.file 21 "Core/Inc/command.h"
 1656              		.file 22 "/usr/local/Cellar/arm-none-eabi-gcc/9-2019-q4-major/gcc/arm-none-eabi/include/time.h"
 1657              		.file 23 "/usr/local/Cellar/arm-none-eabi-gcc/9-2019-q4-major/gcc/arm-none-eabi/include/string.h"
 1658              		.file 24 "/usr/local/Cellar/arm-none-eabi-gcc/9-2019-q4-major/gcc/arm-none-eabi/include/stdio.h"
 1659              		.file 25 "Core/Inc/interrupt.h"
ARM GAS  /var/folders/lt/l_qrc8c54t93n_phsj7cf5tc0000gn/T//ccXAGWAV.s 			page 39

