ARM GAS  /var/folders/lt/l_qrc8c54t93n_phsj7cf5tc0000gn/T//cc8IS97E.s 			page 1


   1              		.cpu cortex-m4
   2              		.eabi_attribute 27, 1
   3              		.eabi_attribute 28, 1
   4              		.eabi_attribute 20, 1
   5              		.eabi_attribute 21, 1
   6              		.eabi_attribute 23, 3
   7              		.eabi_attribute 24, 1
   8              		.eabi_attribute 25, 1
   9              		.eabi_attribute 26, 1
  10              		.eabi_attribute 30, 1
  11              		.eabi_attribute 34, 1
  12              		.eabi_attribute 18, 4
  13              		.file	"custom_app.c"
  14              		.text
  15              	.Ltext0:
  16              		.cfi_sections	.debug_frame
  17              		.section	.text.Custom_Indication_char_Update_Char,"ax",%progbits
  18              		.align	1
  19              		.arch armv7e-m
  20              		.syntax unified
  21              		.thumb
  22              		.thumb_func
  23              		.fpu fpv4-sp-d16
  25              	Custom_Indication_char_Update_Char:
  26              	.LFB1826:
  27              		.file 1 "STM32_WPAN/App/custom_app.c"
   1:STM32_WPAN/App/custom_app.c **** /* USER CODE BEGIN Header */
   2:STM32_WPAN/App/custom_app.c **** /**
   3:STM32_WPAN/App/custom_app.c ****   ******************************************************************************
   4:STM32_WPAN/App/custom_app.c ****   * @file    App/custom_app.c
   5:STM32_WPAN/App/custom_app.c ****   * @author  MCD Application Team
   6:STM32_WPAN/App/custom_app.c ****   * @brief   Custom Example Application (Server)
   7:STM32_WPAN/App/custom_app.c ****   ******************************************************************************
   8:STM32_WPAN/App/custom_app.c ****   * @attention
   9:STM32_WPAN/App/custom_app.c ****   *
  10:STM32_WPAN/App/custom_app.c ****   * Copyright (c) 2022 STMicroelectronics.
  11:STM32_WPAN/App/custom_app.c ****   * All rights reserved.
  12:STM32_WPAN/App/custom_app.c ****   *
  13:STM32_WPAN/App/custom_app.c ****   * This software is licensed under terms that can be found in the LICENSE file
  14:STM32_WPAN/App/custom_app.c ****   * in the root directory of this software component.
  15:STM32_WPAN/App/custom_app.c ****   * If no LICENSE file comes with this software, it is provided AS-IS.
  16:STM32_WPAN/App/custom_app.c ****   *
  17:STM32_WPAN/App/custom_app.c ****   ******************************************************************************
  18:STM32_WPAN/App/custom_app.c ****   */
  19:STM32_WPAN/App/custom_app.c **** /* USER CODE END Header */
  20:STM32_WPAN/App/custom_app.c **** 
  21:STM32_WPAN/App/custom_app.c **** /* Includes ------------------------------------------------------------------*/
  22:STM32_WPAN/App/custom_app.c **** #include "main.h"
  23:STM32_WPAN/App/custom_app.c **** #include "app_common.h"
  24:STM32_WPAN/App/custom_app.c **** #include "dbg_trace.h"
  25:STM32_WPAN/App/custom_app.c **** #include "ble.h"
  26:STM32_WPAN/App/custom_app.c **** #include "custom_app.h"
  27:STM32_WPAN/App/custom_app.c **** #include "custom_stm.h"
  28:STM32_WPAN/App/custom_app.c **** #include "stm32_seq.h"
  29:STM32_WPAN/App/custom_app.c **** 
  30:STM32_WPAN/App/custom_app.c **** /* Private includes ----------------------------------------------------------*/
  31:STM32_WPAN/App/custom_app.c **** /* USER CODE BEGIN Includes */
ARM GAS  /var/folders/lt/l_qrc8c54t93n_phsj7cf5tc0000gn/T//cc8IS97E.s 			page 2


  32:STM32_WPAN/App/custom_app.c **** #include <time.h>
  33:STM32_WPAN/App/custom_app.c **** #include <string.h>
  34:STM32_WPAN/App/custom_app.c **** 
  35:STM32_WPAN/App/custom_app.c **** uint8_t payload[8];
  36:STM32_WPAN/App/custom_app.c **** extern flash_status_t flash_status;
  37:STM32_WPAN/App/custom_app.c **** /* USER CODE END Includes */
  38:STM32_WPAN/App/custom_app.c **** 
  39:STM32_WPAN/App/custom_app.c **** /* Private typedef -----------------------------------------------------------*/
  40:STM32_WPAN/App/custom_app.c **** typedef struct
  41:STM32_WPAN/App/custom_app.c **** {
  42:STM32_WPAN/App/custom_app.c ****   /* IULS_BLE_Service */
  43:STM32_WPAN/App/custom_app.c ****   uint8_t               Indication_char_Indication_Status;
  44:STM32_WPAN/App/custom_app.c ****   /* USER CODE BEGIN CUSTOM_APP_Context_t */
  45:STM32_WPAN/App/custom_app.c **** 
  46:STM32_WPAN/App/custom_app.c ****   /* USER CODE END CUSTOM_APP_Context_t */
  47:STM32_WPAN/App/custom_app.c **** 
  48:STM32_WPAN/App/custom_app.c ****   uint16_t              ConnectionHandle;
  49:STM32_WPAN/App/custom_app.c **** } Custom_App_Context_t;
  50:STM32_WPAN/App/custom_app.c **** 
  51:STM32_WPAN/App/custom_app.c **** /* USER CODE BEGIN PTD */
  52:STM32_WPAN/App/custom_app.c **** 
  53:STM32_WPAN/App/custom_app.c **** /* USER CODE END PTD */
  54:STM32_WPAN/App/custom_app.c **** 
  55:STM32_WPAN/App/custom_app.c **** /* Private defines ------------------------------------------------------------*/
  56:STM32_WPAN/App/custom_app.c **** /* USER CODE BEGIN PD */
  57:STM32_WPAN/App/custom_app.c **** 
  58:STM32_WPAN/App/custom_app.c **** /* USER CODE END PD */
  59:STM32_WPAN/App/custom_app.c **** 
  60:STM32_WPAN/App/custom_app.c **** /* Private macros -------------------------------------------------------------*/
  61:STM32_WPAN/App/custom_app.c **** /* USER CODE BEGIN PM */
  62:STM32_WPAN/App/custom_app.c **** 
  63:STM32_WPAN/App/custom_app.c **** /* USER CODE END PM */
  64:STM32_WPAN/App/custom_app.c **** 
  65:STM32_WPAN/App/custom_app.c **** /* Private variables ---------------------------------------------------------*/
  66:STM32_WPAN/App/custom_app.c **** /**
  67:STM32_WPAN/App/custom_app.c ****  * START of Section BLE_APP_CONTEXT
  68:STM32_WPAN/App/custom_app.c ****  */
  69:STM32_WPAN/App/custom_app.c **** 
  70:STM32_WPAN/App/custom_app.c **** PLACE_IN_SECTION("BLE_APP_CONTEXT") static Custom_App_Context_t Custom_App_Context;
  71:STM32_WPAN/App/custom_app.c **** 
  72:STM32_WPAN/App/custom_app.c **** /**
  73:STM32_WPAN/App/custom_app.c ****  * END of Section BLE_APP_CONTEXT
  74:STM32_WPAN/App/custom_app.c ****  */
  75:STM32_WPAN/App/custom_app.c **** 
  76:STM32_WPAN/App/custom_app.c **** /* USER CODE BEGIN PV */
  77:STM32_WPAN/App/custom_app.c **** uint8_t UpdateCharData[247];
  78:STM32_WPAN/App/custom_app.c **** uint8_t NotifyCharData[247];
  79:STM32_WPAN/App/custom_app.c **** 
  80:STM32_WPAN/App/custom_app.c **** uint8_t SecureReadData;
  81:STM32_WPAN/App/custom_app.c **** 
  82:STM32_WPAN/App/custom_app.c **** /* USER CODE END PV */
  83:STM32_WPAN/App/custom_app.c **** 
  84:STM32_WPAN/App/custom_app.c **** /* Private function prototypes -----------------------------------------------*/
  85:STM32_WPAN/App/custom_app.c ****   /* IULS_BLE_Service */
  86:STM32_WPAN/App/custom_app.c **** static void Custom_Indication_char_Update_Char(void);
  87:STM32_WPAN/App/custom_app.c **** static void Custom_Indication_char_Send_Indication(void);
  88:STM32_WPAN/App/custom_app.c **** 
ARM GAS  /var/folders/lt/l_qrc8c54t93n_phsj7cf5tc0000gn/T//cc8IS97E.s 			page 3


  89:STM32_WPAN/App/custom_app.c **** /* USER CODE BEGIN PFP */
  90:STM32_WPAN/App/custom_app.c **** 
  91:STM32_WPAN/App/custom_app.c **** /* USER CODE END PFP */
  92:STM32_WPAN/App/custom_app.c **** 
  93:STM32_WPAN/App/custom_app.c **** /* Functions Definition ------------------------------------------------------*/
  94:STM32_WPAN/App/custom_app.c **** void Custom_STM_App_Notification(Custom_STM_App_Notification_evt_t *pNotification)
  95:STM32_WPAN/App/custom_app.c **** {
  96:STM32_WPAN/App/custom_app.c ****   /* USER CODE BEGIN CUSTOM_STM_App_Notification_1 */
  97:STM32_WPAN/App/custom_app.c ****   memset(payload, NULL, 8);
  98:STM32_WPAN/App/custom_app.c ****   // strncpy(payload, pNotification->DataTransfered.pPayload, pNotification->DataTransfered.Length)
  99:STM32_WPAN/App/custom_app.c ****   // payload = pNotification->DataTransfered.pPayload;
 100:STM32_WPAN/App/custom_app.c ****   // payload[pNotification->DataTransfered.Length] = '\0';
 101:STM32_WPAN/App/custom_app.c **** // /  strncpy()
 102:STM32_WPAN/App/custom_app.c ****   
 103:STM32_WPAN/App/custom_app.c ****   /* USER CODE END CUSTOM_STM_App_Notification_1 */
 104:STM32_WPAN/App/custom_app.c ****   switch(pNotification->Custom_Evt_Opcode)
 105:STM32_WPAN/App/custom_app.c ****   {
 106:STM32_WPAN/App/custom_app.c ****     APP_DBG_MSG("pNotifcation: in switch");
 107:STM32_WPAN/App/custom_app.c ****     /* USER CODE BEGIN CUSTOM_STM_App_Notification_Custom_Evt_Opcode */
 108:STM32_WPAN/App/custom_app.c ****     // memset(payload, NULL, 8);
 109:STM32_WPAN/App/custom_app.c ****     // strncpy(payload, pNotification->DataTransfered.pPayload, pNotification->DataTransfered.Lengt
 110:STM32_WPAN/App/custom_app.c ****     // APP_DBG_MSG("Notifcation recieved: %s\r\n", payload);
 111:STM32_WPAN/App/custom_app.c ****     /* USER CODE END CUSTOM_STM_App_Notification_Custom_Evt_Opcode */
 112:STM32_WPAN/App/custom_app.c **** 
 113:STM32_WPAN/App/custom_app.c ****   /* IULS_BLE_Service */
 114:STM32_WPAN/App/custom_app.c ****     case CUSTOM_STM_READ_WRITE_CHAR_READ_EVT:
 115:STM32_WPAN/App/custom_app.c ****       /* USER CODE BEGIN CUSTOM_STM_READ_WRITE_CHAR_READ_EVT */
 116:STM32_WPAN/App/custom_app.c ****       APP_DBG_MSG("Event: Read from characteristic");
 117:STM32_WPAN/App/custom_app.c ****       /* USER CODE END CUSTOM_STM_READ_WRITE_CHAR_READ_EVT */
 118:STM32_WPAN/App/custom_app.c ****       break;
 119:STM32_WPAN/App/custom_app.c **** 
 120:STM32_WPAN/App/custom_app.c ****     case CUSTOM_STM_READ_WRITE_CHAR_WRITE_NO_RESP_EVT:
 121:STM32_WPAN/App/custom_app.c ****       /* USER CODE BEGIN CUSTOM_STM_READ_WRITE_CHAR_WRITE_NO_RESP_EVT */
 122:STM32_WPAN/App/custom_app.c ****       APP_DBG_MSG("Event recieved: %s\r\n", pNotification->DataTransfered.pPayload);
 123:STM32_WPAN/App/custom_app.c ****       uint8_t * command = pNotification->DataTransfered.pPayload;
 124:STM32_WPAN/App/custom_app.c **** 
 125:STM32_WPAN/App/custom_app.c ****       if(strncmp(command, "data", 4) == 0) {
 126:STM32_WPAN/App/custom_app.c ****         read_data_records_ble(&flash_status);
 127:STM32_WPAN/App/custom_app.c ****         APP_DBG_MSG("COMMAND: data");
 128:STM32_WPAN/App/custom_app.c ****         APP_DBG_MSG("Turning on datasend");
 129:STM32_WPAN/App/custom_app.c ****         // P2P_Send_Data()
 130:STM32_WPAN/App/custom_app.c ****       }
 131:STM32_WPAN/App/custom_app.c **** 
 132:STM32_WPAN/App/custom_app.c ****       // APP_DBG_MSG("Event: Write no response");
 133:STM32_WPAN/App/custom_app.c ****       // APP_DBG_MSG("Notifcation recieved: %s\r\n", payload);
 134:STM32_WPAN/App/custom_app.c ****       // if(strncmp(payload, "data", 4) == 0) {
 135:STM32_WPAN/App/custom_app.c ****       //   send_data();
 136:STM32_WPAN/App/custom_app.c ****       // }
 137:STM32_WPAN/App/custom_app.c ****       /* USER CODE END CUSTOM_STM_READ_WRITE_CHAR_WRITE_NO_RESP_EVT */
 138:STM32_WPAN/App/custom_app.c ****       break;
 139:STM32_WPAN/App/custom_app.c **** 
 140:STM32_WPAN/App/custom_app.c ****     case CUSTOM_STM_INDICATION_CHAR_INDICATE_ENABLED_EVT:
 141:STM32_WPAN/App/custom_app.c ****       /* USER CODE BEGIN CUSTOM_STM_INDICATION_CHAR_INDICATE_ENABLED_EVT */
 142:STM32_WPAN/App/custom_app.c ****       APP_DBG_MSG("Event: Notifications enabled");
 143:STM32_WPAN/App/custom_app.c ****       /* USER CODE END CUSTOM_STM_INDICATION_CHAR_INDICATE_ENABLED_EVT */
 144:STM32_WPAN/App/custom_app.c ****       break;
 145:STM32_WPAN/App/custom_app.c **** 
ARM GAS  /var/folders/lt/l_qrc8c54t93n_phsj7cf5tc0000gn/T//cc8IS97E.s 			page 4


 146:STM32_WPAN/App/custom_app.c ****     case CUSTOM_STM_INDICATION_CHAR_INDICATE_DISABLED_EVT:
 147:STM32_WPAN/App/custom_app.c ****       /* USER CODE BEGIN CUSTOM_STM_INDICATION_CHAR_INDICATE_DISABLED_EVT */
 148:STM32_WPAN/App/custom_app.c ****       APP_DBG_MSG("Event: Notifications disabled");
 149:STM32_WPAN/App/custom_app.c ****       /* USER CODE END CUSTOM_STM_INDICATION_CHAR_INDICATE_DISABLED_EVT */
 150:STM32_WPAN/App/custom_app.c ****       break;
 151:STM32_WPAN/App/custom_app.c **** 
 152:STM32_WPAN/App/custom_app.c ****     default:
 153:STM32_WPAN/App/custom_app.c ****       /* USER CODE BEGIN CUSTOM_STM_App_Notification_default */
 154:STM32_WPAN/App/custom_app.c **** 
 155:STM32_WPAN/App/custom_app.c ****       /* USER CODE END CUSTOM_STM_App_Notification_default */
 156:STM32_WPAN/App/custom_app.c ****       break;
 157:STM32_WPAN/App/custom_app.c ****   }
 158:STM32_WPAN/App/custom_app.c ****   /* USER CODE BEGIN CUSTOM_STM_App_Notification_2 */
 159:STM32_WPAN/App/custom_app.c **** 
 160:STM32_WPAN/App/custom_app.c ****   /* USER CODE END CUSTOM_STM_App_Notification_2 */
 161:STM32_WPAN/App/custom_app.c ****   return;
 162:STM32_WPAN/App/custom_app.c **** }
 163:STM32_WPAN/App/custom_app.c **** 
 164:STM32_WPAN/App/custom_app.c **** void Custom_APP_Notification(Custom_App_ConnHandle_Not_evt_t *pNotification)
 165:STM32_WPAN/App/custom_app.c **** {
 166:STM32_WPAN/App/custom_app.c ****   /* USER CODE BEGIN CUSTOM_APP_Notification_1 */
 167:STM32_WPAN/App/custom_app.c ****   APP_DBG_MSG("Connection handle event");
 168:STM32_WPAN/App/custom_app.c ****   /* USER CODE END CUSTOM_APP_Notification_1 */
 169:STM32_WPAN/App/custom_app.c **** 
 170:STM32_WPAN/App/custom_app.c ****   switch(pNotification->Custom_Evt_Opcode)
 171:STM32_WPAN/App/custom_app.c ****   {
 172:STM32_WPAN/App/custom_app.c ****     /* USER CODE BEGIN CUSTOM_APP_Notification_Custom_Evt_Opcode */
 173:STM32_WPAN/App/custom_app.c **** 
 174:STM32_WPAN/App/custom_app.c ****     /* USER CODE END P2PS_CUSTOM_Notification_Custom_Evt_Opcode */
 175:STM32_WPAN/App/custom_app.c ****     case CUSTOM_CONN_HANDLE_EVT :
 176:STM32_WPAN/App/custom_app.c ****       /* USER CODE BEGIN CUSTOM_CONN_HANDLE_EVT */
 177:STM32_WPAN/App/custom_app.c ****       APP_DBG_MSG("Device Connected");
 178:STM32_WPAN/App/custom_app.c ****       /* USER CODE END CUSTOM_CONN_HANDLE_EVT */
 179:STM32_WPAN/App/custom_app.c ****       break;
 180:STM32_WPAN/App/custom_app.c **** 
 181:STM32_WPAN/App/custom_app.c ****     case CUSTOM_DISCON_HANDLE_EVT :
 182:STM32_WPAN/App/custom_app.c ****       /* USER CODE BEGIN CUSTOM_DISCON_HANDLE_EVT */
 183:STM32_WPAN/App/custom_app.c ****       APP_DBG_MSG("Device Disconnected");
 184:STM32_WPAN/App/custom_app.c ****       /* USER CODE END CUSTOM_DISCON_HANDLE_EVT */
 185:STM32_WPAN/App/custom_app.c ****       break;
 186:STM32_WPAN/App/custom_app.c **** 
 187:STM32_WPAN/App/custom_app.c ****     default:
 188:STM32_WPAN/App/custom_app.c ****       /* USER CODE BEGIN CUSTOM_APP_Notification_default */
 189:STM32_WPAN/App/custom_app.c **** 
 190:STM32_WPAN/App/custom_app.c ****       /* USER CODE END CUSTOM_APP_Notification_default */
 191:STM32_WPAN/App/custom_app.c ****       break;
 192:STM32_WPAN/App/custom_app.c ****   }
 193:STM32_WPAN/App/custom_app.c **** 
 194:STM32_WPAN/App/custom_app.c ****   /* USER CODE BEGIN CUSTOM_APP_Notification_2 */
 195:STM32_WPAN/App/custom_app.c **** 
 196:STM32_WPAN/App/custom_app.c ****   /* USER CODE END CUSTOM_APP_Notification_2 */
 197:STM32_WPAN/App/custom_app.c **** 
 198:STM32_WPAN/App/custom_app.c ****   return;
 199:STM32_WPAN/App/custom_app.c **** }
 200:STM32_WPAN/App/custom_app.c **** 
 201:STM32_WPAN/App/custom_app.c **** void Custom_APP_Init(void)
 202:STM32_WPAN/App/custom_app.c **** {
ARM GAS  /var/folders/lt/l_qrc8c54t93n_phsj7cf5tc0000gn/T//cc8IS97E.s 			page 5


 203:STM32_WPAN/App/custom_app.c ****   /* USER CODE BEGIN CUSTOM_APP_Init */
 204:STM32_WPAN/App/custom_app.c **** 
 205:STM32_WPAN/App/custom_app.c ****   /* USER CODE END CUSTOM_APP_Init */
 206:STM32_WPAN/App/custom_app.c ****   return;
 207:STM32_WPAN/App/custom_app.c **** }
 208:STM32_WPAN/App/custom_app.c **** 
 209:STM32_WPAN/App/custom_app.c **** /* USER CODE BEGIN FD */
 210:STM32_WPAN/App/custom_app.c **** 
 211:STM32_WPAN/App/custom_app.c **** /* USER CODE END FD */
 212:STM32_WPAN/App/custom_app.c **** 
 213:STM32_WPAN/App/custom_app.c **** /*************************************************************
 214:STM32_WPAN/App/custom_app.c ****  *
 215:STM32_WPAN/App/custom_app.c ****  * LOCAL FUNCTIONS
 216:STM32_WPAN/App/custom_app.c ****  *
 217:STM32_WPAN/App/custom_app.c ****  *************************************************************/
 218:STM32_WPAN/App/custom_app.c **** 
 219:STM32_WPAN/App/custom_app.c ****   /* IULS_BLE_Service */
 220:STM32_WPAN/App/custom_app.c **** void Custom_Indication_char_Update_Char(void) /* Property Read */
 221:STM32_WPAN/App/custom_app.c **** {
  28              		.loc 1 221 1 view -0
  29              		.cfi_startproc
  30              		@ args = 0, pretend = 0, frame = 0
  31              		@ frame_needed = 0, uses_anonymous_args = 0
  32 0000 08B5     		push	{r3, lr}
  33              	.LCFI0:
  34              		.cfi_def_cfa_offset 8
  35              		.cfi_offset 3, -8
  36              		.cfi_offset 14, -4
 222:STM32_WPAN/App/custom_app.c ****   Custom_STM_App_Update_Char(CUSTOM_STM_INDICATION_CHAR, (uint8_t *)UpdateCharData);
  37              		.loc 1 222 3 view .LVU1
  38 0002 0249     		ldr	r1, .L3
  39 0004 0120     		movs	r0, #1
  40 0006 FFF7FEFF 		bl	Custom_STM_App_Update_Char
  41              	.LVL0:
 223:STM32_WPAN/App/custom_app.c ****   /* USER CODE BEGIN Indication_char_UC*/
 224:STM32_WPAN/App/custom_app.c **** 
 225:STM32_WPAN/App/custom_app.c ****   /* USER CODE END Indication_char_UC*/
 226:STM32_WPAN/App/custom_app.c ****   return;
  42              		.loc 1 226 3 view .LVU2
 227:STM32_WPAN/App/custom_app.c **** }
  43              		.loc 1 227 1 is_stmt 0 view .LVU3
  44 000a 08BD     		pop	{r3, pc}
  45              	.L4:
  46              		.align	2
  47              	.L3:
  48 000c 00000000 		.word	UpdateCharData
  49              		.cfi_endproc
  50              	.LFE1826:
  52              		.section	.rodata.Custom_APP_Notification.str1.4,"aMS",%progbits,1
  53              		.align	2
  54              	.LC0:
  55 0000 53544D33 		.ascii	"STM32_WPAN/App/custom_app.c\000"
  55      325F5750 
  55      414E2F41 
  55      70702F63 
  55      7573746F 
  56              		.align	2
ARM GAS  /var/folders/lt/l_qrc8c54t93n_phsj7cf5tc0000gn/T//cc8IS97E.s 			page 6


  57              	.LC1:
  58 001c 0D0A205B 		.ascii	"\015\012 [%s][%s][%d] \000"
  58      25735D5B 
  58      25735D5B 
  58      25645D20 
  58      00
  59 002d 000000   		.align	2
  60              	.LC2:
  61 0030 436F6E6E 		.ascii	"Connection handle event\000"
  61      65637469 
  61      6F6E2068 
  61      616E646C 
  61      65206576 
  62              		.align	2
  63              	.LC3:
  64 0048 44657669 		.ascii	"Device Connected\000"
  64      63652043 
  64      6F6E6E65 
  64      63746564 
  64      00
  65 0059 000000   		.align	2
  66              	.LC4:
  67 005c 44657669 		.ascii	"Device Disconnected\000"
  67      63652044 
  67      6973636F 
  67      6E6E6563 
  67      74656400 
  68              		.section	.text.Custom_APP_Notification,"ax",%progbits
  69              		.align	1
  70              		.global	Custom_APP_Notification
  71              		.syntax unified
  72              		.thumb
  73              		.thumb_func
  74              		.fpu fpv4-sp-d16
  76              	Custom_APP_Notification:
  77              	.LVL1:
  78              	.LFB1824:
 165:STM32_WPAN/App/custom_app.c ****   /* USER CODE BEGIN CUSTOM_APP_Notification_1 */
  79              		.loc 1 165 1 is_stmt 1 view -0
  80              		.cfi_startproc
  81              		@ args = 0, pretend = 0, frame = 0
  82              		@ frame_needed = 0, uses_anonymous_args = 0
 165:STM32_WPAN/App/custom_app.c ****   /* USER CODE BEGIN CUSTOM_APP_Notification_1 */
  83              		.loc 1 165 1 is_stmt 0 view .LVU5
  84 0000 10B5     		push	{r4, lr}
  85              	.LCFI1:
  86              		.cfi_def_cfa_offset 8
  87              		.cfi_offset 4, -8
  88              		.cfi_offset 14, -4
  89 0002 0446     		mov	r4, r0
 167:STM32_WPAN/App/custom_app.c ****   /* USER CODE END CUSTOM_APP_Notification_1 */
  90              		.loc 1 167 3 is_stmt 1 view .LVU6
 167:STM32_WPAN/App/custom_app.c ****   /* USER CODE END CUSTOM_APP_Notification_1 */
  91              		.loc 1 167 3 view .LVU7
  92 0004 1548     		ldr	r0, .L10
  93              	.LVL2:
 167:STM32_WPAN/App/custom_app.c ****   /* USER CODE END CUSTOM_APP_Notification_1 */
ARM GAS  /var/folders/lt/l_qrc8c54t93n_phsj7cf5tc0000gn/T//cc8IS97E.s 			page 7


  94              		.loc 1 167 3 is_stmt 0 view .LVU8
  95 0006 FFF7FEFF 		bl	DbgTraceGetFileName
  96              	.LVL3:
  97 000a 0146     		mov	r1, r0
  98 000c A723     		movs	r3, #167
  99 000e 144A     		ldr	r2, .L10+4
 100 0010 1448     		ldr	r0, .L10+8
 101 0012 FFF7FEFF 		bl	printf
 102              	.LVL4:
 167:STM32_WPAN/App/custom_app.c ****   /* USER CODE END CUSTOM_APP_Notification_1 */
 103              		.loc 1 167 3 is_stmt 1 view .LVU9
 104 0016 1448     		ldr	r0, .L10+12
 105 0018 FFF7FEFF 		bl	printf
 106              	.LVL5:
 167:STM32_WPAN/App/custom_app.c ****   /* USER CODE END CUSTOM_APP_Notification_1 */
 107              		.loc 1 167 3 view .LVU10
 167:STM32_WPAN/App/custom_app.c ****   /* USER CODE END CUSTOM_APP_Notification_1 */
 108              		.loc 1 167 41 view .LVU11
 170:STM32_WPAN/App/custom_app.c ****   {
 109              		.loc 1 170 3 view .LVU12
 170:STM32_WPAN/App/custom_app.c ****   {
 110              		.loc 1 170 23 is_stmt 0 view .LVU13
 111 001c 2378     		ldrb	r3, [r4]	@ zero_extendqisi2
 170:STM32_WPAN/App/custom_app.c ****   {
 112              		.loc 1 170 3 view .LVU14
 113 001e 13B1     		cbz	r3, .L6
 114 0020 012B     		cmp	r3, #1
 115 0022 0DD0     		beq	.L7
 116              	.L5:
 199:STM32_WPAN/App/custom_app.c **** 
 117              		.loc 1 199 1 view .LVU15
 118 0024 10BD     		pop	{r4, pc}
 119              	.LVL6:
 120              	.L6:
 177:STM32_WPAN/App/custom_app.c ****       /* USER CODE END CUSTOM_CONN_HANDLE_EVT */
 121              		.loc 1 177 7 is_stmt 1 view .LVU16
 177:STM32_WPAN/App/custom_app.c ****       /* USER CODE END CUSTOM_CONN_HANDLE_EVT */
 122              		.loc 1 177 7 view .LVU17
 123 0026 0D48     		ldr	r0, .L10
 124 0028 FFF7FEFF 		bl	DbgTraceGetFileName
 125              	.LVL7:
 126 002c 0146     		mov	r1, r0
 127 002e B123     		movs	r3, #177
 128 0030 0B4A     		ldr	r2, .L10+4
 129 0032 0C48     		ldr	r0, .L10+8
 130 0034 FFF7FEFF 		bl	printf
 131              	.LVL8:
 177:STM32_WPAN/App/custom_app.c ****       /* USER CODE END CUSTOM_CONN_HANDLE_EVT */
 132              		.loc 1 177 7 view .LVU18
 133 0038 0C48     		ldr	r0, .L10+16
 134 003a FFF7FEFF 		bl	printf
 135              	.LVL9:
 177:STM32_WPAN/App/custom_app.c ****       /* USER CODE END CUSTOM_CONN_HANDLE_EVT */
 136              		.loc 1 177 7 view .LVU19
 177:STM32_WPAN/App/custom_app.c ****       /* USER CODE END CUSTOM_CONN_HANDLE_EVT */
 137              		.loc 1 177 38 view .LVU20
 179:STM32_WPAN/App/custom_app.c **** 
ARM GAS  /var/folders/lt/l_qrc8c54t93n_phsj7cf5tc0000gn/T//cc8IS97E.s 			page 8


 138              		.loc 1 179 7 view .LVU21
 139 003e F1E7     		b	.L5
 140              	.L7:
 183:STM32_WPAN/App/custom_app.c ****       /* USER CODE END CUSTOM_DISCON_HANDLE_EVT */
 141              		.loc 1 183 7 view .LVU22
 183:STM32_WPAN/App/custom_app.c ****       /* USER CODE END CUSTOM_DISCON_HANDLE_EVT */
 142              		.loc 1 183 7 view .LVU23
 143 0040 0648     		ldr	r0, .L10
 144 0042 FFF7FEFF 		bl	DbgTraceGetFileName
 145              	.LVL10:
 146 0046 0146     		mov	r1, r0
 147 0048 B723     		movs	r3, #183
 148 004a 054A     		ldr	r2, .L10+4
 149 004c 0548     		ldr	r0, .L10+8
 150 004e FFF7FEFF 		bl	printf
 151              	.LVL11:
 183:STM32_WPAN/App/custom_app.c ****       /* USER CODE END CUSTOM_DISCON_HANDLE_EVT */
 152              		.loc 1 183 7 view .LVU24
 153 0052 0748     		ldr	r0, .L10+20
 154 0054 FFF7FEFF 		bl	printf
 155              	.LVL12:
 183:STM32_WPAN/App/custom_app.c ****       /* USER CODE END CUSTOM_DISCON_HANDLE_EVT */
 156              		.loc 1 183 7 view .LVU25
 183:STM32_WPAN/App/custom_app.c ****       /* USER CODE END CUSTOM_DISCON_HANDLE_EVT */
 157              		.loc 1 183 41 view .LVU26
 185:STM32_WPAN/App/custom_app.c **** 
 158              		.loc 1 185 7 view .LVU27
 198:STM32_WPAN/App/custom_app.c **** }
 159              		.loc 1 198 3 view .LVU28
 160 0058 E4E7     		b	.L5
 161              	.L11:
 162 005a 00BF     		.align	2
 163              	.L10:
 164 005c 00000000 		.word	.LC0
 165 0060 00000000 		.word	.LANCHOR0
 166 0064 1C000000 		.word	.LC1
 167 0068 30000000 		.word	.LC2
 168 006c 48000000 		.word	.LC3
 169 0070 5C000000 		.word	.LC4
 170              		.cfi_endproc
 171              	.LFE1824:
 173              		.section	.text.Custom_APP_Init,"ax",%progbits
 174              		.align	1
 175              		.global	Custom_APP_Init
 176              		.syntax unified
 177              		.thumb
 178              		.thumb_func
 179              		.fpu fpv4-sp-d16
 181              	Custom_APP_Init:
 182              	.LFB1825:
 202:STM32_WPAN/App/custom_app.c ****   /* USER CODE BEGIN CUSTOM_APP_Init */
 183              		.loc 1 202 1 view -0
 184              		.cfi_startproc
 185              		@ args = 0, pretend = 0, frame = 0
 186              		@ frame_needed = 0, uses_anonymous_args = 0
 187              		@ link register save eliminated.
 206:STM32_WPAN/App/custom_app.c **** }
ARM GAS  /var/folders/lt/l_qrc8c54t93n_phsj7cf5tc0000gn/T//cc8IS97E.s 			page 9


 188              		.loc 1 206 3 view .LVU30
 207:STM32_WPAN/App/custom_app.c **** 
 189              		.loc 1 207 1 is_stmt 0 view .LVU31
 190 0000 7047     		bx	lr
 191              		.cfi_endproc
 192              	.LFE1825:
 194              		.section	.text.send_data,"ax",%progbits
 195              		.align	1
 196              		.global	send_data
 197              		.syntax unified
 198              		.thumb
 199              		.thumb_func
 200              		.fpu fpv4-sp-d16
 202              	send_data:
 203              	.LFB1828:
 228:STM32_WPAN/App/custom_app.c **** 
 229:STM32_WPAN/App/custom_app.c **** void Custom_Indication_char_Send_Indication(void) /* Property Indication */
 230:STM32_WPAN/App/custom_app.c **** {
 231:STM32_WPAN/App/custom_app.c ****   if(Custom_App_Context.Indication_char_Indication_Status)
 232:STM32_WPAN/App/custom_app.c ****   {
 233:STM32_WPAN/App/custom_app.c ****     Custom_STM_App_Update_Char(CUSTOM_STM_INDICATION_CHAR, (uint8_t *)NotifyCharData);
 234:STM32_WPAN/App/custom_app.c ****     /* USER CODE BEGIN Indication_char_IS*/
 235:STM32_WPAN/App/custom_app.c **** 
 236:STM32_WPAN/App/custom_app.c ****     /* USER CODE END Indication_char_IS*/
 237:STM32_WPAN/App/custom_app.c ****   }
 238:STM32_WPAN/App/custom_app.c ****   else
 239:STM32_WPAN/App/custom_app.c ****   {
 240:STM32_WPAN/App/custom_app.c ****     APP_DBG_MSG("-- CUSTOM APPLICATION : CAN'T INFORM CLIENT -  INDICATION DISABLED\n ");
 241:STM32_WPAN/App/custom_app.c ****   }
 242:STM32_WPAN/App/custom_app.c ****   return;
 243:STM32_WPAN/App/custom_app.c **** }
 244:STM32_WPAN/App/custom_app.c **** 
 245:STM32_WPAN/App/custom_app.c **** /* USER CODE BEGIN FD_LOCAL_FUNCTIONS*/
 246:STM32_WPAN/App/custom_app.c **** void send_data(void) {
 204              		.loc 1 246 22 is_stmt 1 view -0
 205              		.cfi_startproc
 206              		@ args = 0, pretend = 0, frame = 0
 207              		@ frame_needed = 0, uses_anonymous_args = 0
 208              		@ link register save eliminated.
 247:STM32_WPAN/App/custom_app.c ****   // sensordata_t * temp = read_data_records_ble(&flash_status);
 248:STM32_WPAN/App/custom_app.c ****   // flash_status
 249:STM32_WPAN/App/custom_app.c **** 
 250:STM32_WPAN/App/custom_app.c **** 
 251:STM32_WPAN/App/custom_app.c **** }
 209              		.loc 1 251 1 view .LVU33
 210 0000 7047     		bx	lr
 211              		.cfi_endproc
 212              	.LFE1828:
 214              		.section	.rodata.read_data_records_ble.str1.4,"aMS",%progbits,1
 215              		.align	2
 216              	.LC5:
 217 0000 25303264 		.ascii	"%02d/%02d/%02d,%02d:%02d:%02d\000"
 217      2F253032 
 217      642F2530 
 217      32642C25 
 217      3032643A 
 218 001e 0000     		.align	2
ARM GAS  /var/folders/lt/l_qrc8c54t93n_phsj7cf5tc0000gn/T//cc8IS97E.s 			page 10


 219              	.LC6:
 220 0020 442C2564 		.ascii	"D,%d,%s,%d.%d,%d,%d\000"
 220      2C25732C 
 220      25642E25 
 220      642C2564 
 220      2C256400 
 221              		.align	2
 222              	.LC7:
 223 0034 25730D0A 		.ascii	"%s\015\012\000"
 223      00
 224              		.section	.text.read_data_records_ble,"ax",%progbits
 225              		.align	1
 226              		.global	read_data_records_ble
 227              		.syntax unified
 228              		.thumb
 229              		.thumb_func
 230              		.fpu fpv4-sp-d16
 232              	read_data_records_ble:
 233              	.LVL13:
 234              	.LFB1829:
 252:STM32_WPAN/App/custom_app.c **** 
 253:STM32_WPAN/App/custom_app.c **** int read_data_records_ble(flash_status_t *fs) {
 235              		.loc 1 253 47 view -0
 236              		.cfi_startproc
 237              		@ args = 0, pretend = 0, frame = 168
 238              		@ frame_needed = 0, uses_anonymous_args = 0
 239              		.loc 1 253 47 is_stmt 0 view .LVU35
 240 0000 F0B5     		push	{r4, r5, r6, r7, lr}
 241              	.LCFI2:
 242              		.cfi_def_cfa_offset 20
 243              		.cfi_offset 4, -20
 244              		.cfi_offset 5, -16
 245              		.cfi_offset 6, -12
 246              		.cfi_offset 7, -8
 247              		.cfi_offset 14, -4
 248 0002 AFB0     		sub	sp, sp, #188
 249              	.LCFI3:
 250              		.cfi_def_cfa_offset 208
 251 0004 0546     		mov	r5, r0
 254:STM32_WPAN/App/custom_app.c ****   sensordata_t * p;
 252              		.loc 1 254 3 is_stmt 1 view .LVU36
 255:STM32_WPAN/App/custom_app.c ****   char samp[124];
 253              		.loc 1 255 3 view .LVU37
 256:STM32_WPAN/App/custom_app.c ****   struct tm * recover;
 254              		.loc 1 256 3 view .LVU38
 257:STM32_WPAN/App/custom_app.c ****   struct tm * temp;
 255              		.loc 1 257 3 view .LVU39
 258:STM32_WPAN/App/custom_app.c ****   int count = 1;
 256              		.loc 1 258 3 view .LVU40
 257              	.LVL14:
 259:STM32_WPAN/App/custom_app.c ****   p = (sensordata_t *) fs->data_start;
 258              		.loc 1 259 3 view .LVU41
 259              		.loc 1 259 5 is_stmt 0 view .LVU42
 260 0006 0468     		ldr	r4, [r0]
 261              	.LVL15:
 260:STM32_WPAN/App/custom_app.c **** 
 261:STM32_WPAN/App/custom_app.c ****   uint32_t epoch_time;
ARM GAS  /var/folders/lt/l_qrc8c54t93n_phsj7cf5tc0000gn/T//cc8IS97E.s 			page 11


 262              		.loc 1 261 3 is_stmt 1 view .LVU43
 262:STM32_WPAN/App/custom_app.c ****   char date_time[32];
 263              		.loc 1 262 3 view .LVU44
 263:STM32_WPAN/App/custom_app.c ****   char * test;
 264              		.loc 1 263 3 view .LVU45
 264:STM32_WPAN/App/custom_app.c ****   time_t t_of_day;
 265              		.loc 1 264 3 view .LVU46
 265:STM32_WPAN/App/custom_app.c **** 
 266:STM32_WPAN/App/custom_app.c ****   while (p>((sensordata_t *)fs->next_address)) {
 266              		.loc 1 266 3 view .LVU47
 258:STM32_WPAN/App/custom_app.c ****   p = (sensordata_t *) fs->data_start;
 267              		.loc 1 258 7 is_stmt 0 view .LVU48
 268 0008 0126     		movs	r6, #1
 269              		.loc 1 266 9 view .LVU49
 270 000a 43E0     		b	.L15
 271              	.LVL16:
 272              	.L20:
 273              	.LBB2:
 267:STM32_WPAN/App/custom_app.c ****     if (p->status==1) {
 268:STM32_WPAN/App/custom_app.c ****       memset(date_time, 0 , 32);
 274              		.loc 1 268 7 is_stmt 1 view .LVU50
 275 000c 2022     		movs	r2, #32
 276 000e 0021     		movs	r1, #0
 277 0010 07A8     		add	r0, sp, #28
 278 0012 FFF7FEFF 		bl	memset
 279              	.LVL17:
 269:STM32_WPAN/App/custom_app.c ****       t_of_day = p->timestamp;
 280              		.loc 1 269 7 view .LVU51
 281              		.loc 1 269 19 is_stmt 0 view .LVU52
 282 0016 6368     		ldr	r3, [r4, #4]
 283              		.loc 1 269 16 view .LVU53
 284 0018 0493     		str	r3, [sp, #16]
 285 001a 0023     		movs	r3, #0
 286 001c 0593     		str	r3, [sp, #20]
 270:STM32_WPAN/App/custom_app.c **** 
 271:STM32_WPAN/App/custom_app.c ****       struct tm * recover;
 287              		.loc 1 271 7 is_stmt 1 view .LVU54
 272:STM32_WPAN/App/custom_app.c ****       recover = localtime(&t_of_day);
 288              		.loc 1 272 7 view .LVU55
 289              		.loc 1 272 17 is_stmt 0 view .LVU56
 290 001e 04A8     		add	r0, sp, #16
 291 0020 FFF7FEFF 		bl	localtime
 292              	.LVL18:
 273:STM32_WPAN/App/custom_app.c **** 
 274:STM32_WPAN/App/custom_app.c ****       sprintf(date_time,
 293              		.loc 1 274 7 is_stmt 1 view .LVU57
 275:STM32_WPAN/App/custom_app.c ****             "%02d/%02d/%02d,%02d:%02d:%02d",
 276:STM32_WPAN/App/custom_app.c ****             // Weekdays[curDate->tm_wday],
 277:STM32_WPAN/App/custom_app.c ****             recover->tm_mon+1,
 294              		.loc 1 277 20 is_stmt 0 view .LVU58
 295 0024 0269     		ldr	r2, [r0, #16]
 278:STM32_WPAN/App/custom_app.c ****             recover->tm_mday,
 279:STM32_WPAN/App/custom_app.c ****             recover->tm_year+1900,
 296              		.loc 1 279 20 view .LVU59
 297 0026 4169     		ldr	r1, [r0, #20]
 274:STM32_WPAN/App/custom_app.c ****             "%02d/%02d/%02d,%02d:%02d:%02d",
 298              		.loc 1 274 7 view .LVU60
ARM GAS  /var/folders/lt/l_qrc8c54t93n_phsj7cf5tc0000gn/T//cc8IS97E.s 			page 12


 299 0028 C368     		ldr	r3, [r0, #12]
 300 002a 0768     		ldr	r7, [r0]
 301 002c 0397     		str	r7, [sp, #12]
 302 002e 4768     		ldr	r7, [r0, #4]
 303 0030 0297     		str	r7, [sp, #8]
 304 0032 8068     		ldr	r0, [r0, #8]
 305              	.LVL19:
 274:STM32_WPAN/App/custom_app.c ****             "%02d/%02d/%02d,%02d:%02d:%02d",
 306              		.loc 1 274 7 view .LVU61
 307 0034 0190     		str	r0, [sp, #4]
 308 0036 01F26C71 		addw	r1, r1, #1900
 309 003a 0091     		str	r1, [sp]
 310 003c 0132     		adds	r2, r2, #1
 311 003e 1C49     		ldr	r1, .L21
 312 0040 07A8     		add	r0, sp, #28
 313 0042 FFF7FEFF 		bl	sprintf
 314              	.LVL20:
 280:STM32_WPAN/App/custom_app.c ****             recover->tm_hour,
 281:STM32_WPAN/App/custom_app.c ****             recover->tm_min,
 282:STM32_WPAN/App/custom_app.c ****             recover->tm_sec);
 283:STM32_WPAN/App/custom_app.c **** 
 284:STM32_WPAN/App/custom_app.c ****       sprintf(samp, "D,%d,%s,%d.%d,%d,%d", 
 315              		.loc 1 284 7 is_stmt 1 view .LVU62
 285:STM32_WPAN/App/custom_app.c ****             count, 
 286:STM32_WPAN/App/custom_app.c ****             date_time,
 287:STM32_WPAN/App/custom_app.c ****             p->battery_voltage/1000,
 316              		.loc 1 287 14 is_stmt 0 view .LVU63
 317 0046 2189     		ldrh	r1, [r4, #8]
 288:STM32_WPAN/App/custom_app.c ****             p->battery_voltage%1000,
 289:STM32_WPAN/App/custom_app.c ****             p->temperature,
 318              		.loc 1 289 14 view .LVU64
 319 0048 B4F90A30 		ldrsh	r3, [r4, #10]
 290:STM32_WPAN/App/custom_app.c ****             (int) p->sensor_period);
 320              		.loc 1 290 20 view .LVU65
 321 004c E268     		ldr	r2, [r4, #12]
 284:STM32_WPAN/App/custom_app.c ****             count, 
 322              		.loc 1 284 7 view .LVU66
 323 004e 0392     		str	r2, [sp, #12]
 324 0050 0293     		str	r3, [sp, #8]
 325 0052 184B     		ldr	r3, .L21+4
 326 0054 A3FB0123 		umull	r2, r3, r3, r1
 327 0058 9B09     		lsrs	r3, r3, #6
 328 005a 4FF47A72 		mov	r2, #1000
 329 005e 02FB1312 		mls	r2, r2, r3, r1
 330 0062 92B2     		uxth	r2, r2
 331 0064 0192     		str	r2, [sp, #4]
 332 0066 0093     		str	r3, [sp]
 333 0068 07AB     		add	r3, sp, #28
 334 006a 3246     		mov	r2, r6
 335 006c 1249     		ldr	r1, .L21+8
 336 006e 0FA8     		add	r0, sp, #60
 337 0070 FFF7FEFF 		bl	sprintf
 338              	.LVL21:
 291:STM32_WPAN/App/custom_app.c ****   
 292:STM32_WPAN/App/custom_app.c ****       printf("%s\r\n", samp);
 339              		.loc 1 292 7 is_stmt 1 view .LVU67
 340 0074 0FA9     		add	r1, sp, #60
ARM GAS  /var/folders/lt/l_qrc8c54t93n_phsj7cf5tc0000gn/T//cc8IS97E.s 			page 13


 341 0076 1148     		ldr	r0, .L21+12
 342 0078 FFF7FEFF 		bl	printf
 343              	.LVL22:
 293:STM32_WPAN/App/custom_app.c ****       int len = strlen(samp);
 344              		.loc 1 293 7 view .LVU68
 345              		.loc 1 293 17 is_stmt 0 view .LVU69
 346 007c 0FA8     		add	r0, sp, #60
 347 007e FFF7FEFF 		bl	strlen
 348              	.LVL23:
 349 0082 0246     		mov	r2, r0
 350              	.LVL24:
 294:STM32_WPAN/App/custom_app.c ****       memcpy(UpdateCharData, samp, len);
 351              		.loc 1 294 7 is_stmt 1 view .LVU70
 352 0084 0FA9     		add	r1, sp, #60
 353 0086 0E48     		ldr	r0, .L21+16
 354              	.LVL25:
 355              		.loc 1 294 7 is_stmt 0 view .LVU71
 356 0088 FFF7FEFF 		bl	memcpy
 357              	.LVL26:
 295:STM32_WPAN/App/custom_app.c ****       Custom_Indication_char_Update_Char();
 358              		.loc 1 295 7 is_stmt 1 view .LVU72
 359 008c FFF7FEFF 		bl	Custom_Indication_char_Update_Char
 360              	.LVL27:
 296:STM32_WPAN/App/custom_app.c ****       fflush;
 361              		.loc 1 296 7 view .LVU73
 297:STM32_WPAN/App/custom_app.c ****       count++;
 362              		.loc 1 297 7 view .LVU74
 363              		.loc 1 297 12 is_stmt 0 view .LVU75
 364 0090 0136     		adds	r6, r6, #1
 365              	.LVL28:
 366              	.L16:
 367              		.loc 1 297 12 view .LVU76
 368              	.LBE2:
 298:STM32_WPAN/App/custom_app.c ****     }
 299:STM32_WPAN/App/custom_app.c ****     p--;
 369              		.loc 1 299 5 is_stmt 1 view .LVU77
 370              		.loc 1 299 6 is_stmt 0 view .LVU78
 371 0092 103C     		subs	r4, r4, #16
 372              	.LVL29:
 373              	.L15:
 266:STM32_WPAN/App/custom_app.c ****     if (p->status==1) {
 374              		.loc 1 266 9 is_stmt 1 view .LVU79
 266:STM32_WPAN/App/custom_app.c ****     if (p->status==1) {
 375              		.loc 1 266 31 is_stmt 0 view .LVU80
 376 0094 AB68     		ldr	r3, [r5, #8]
 266:STM32_WPAN/App/custom_app.c ****     if (p->status==1) {
 377              		.loc 1 266 9 view .LVU81
 378 0096 A342     		cmp	r3, r4
 379 0098 03D2     		bcs	.L19
 267:STM32_WPAN/App/custom_app.c ****       memset(date_time, 0 , 32);
 380              		.loc 1 267 5 is_stmt 1 view .LVU82
 267:STM32_WPAN/App/custom_app.c ****       memset(date_time, 0 , 32);
 381              		.loc 1 267 10 is_stmt 0 view .LVU83
 382 009a 6378     		ldrb	r3, [r4, #1]	@ zero_extendqisi2
 267:STM32_WPAN/App/custom_app.c ****       memset(date_time, 0 , 32);
 383              		.loc 1 267 8 view .LVU84
 384 009c 012B     		cmp	r3, #1
ARM GAS  /var/folders/lt/l_qrc8c54t93n_phsj7cf5tc0000gn/T//cc8IS97E.s 			page 14


 385 009e F8D1     		bne	.L16
 386 00a0 B4E7     		b	.L20
 387              	.L19:
 300:STM32_WPAN/App/custom_app.c ****   }
 301:STM32_WPAN/App/custom_app.c ****   free(recover);
 388              		.loc 1 301 3 is_stmt 1 view .LVU85
 389 00a2 0020     		movs	r0, #0
 390 00a4 FFF7FEFF 		bl	free
 391              	.LVL30:
 302:STM32_WPAN/App/custom_app.c ****   return(0);
 392              		.loc 1 302 3 view .LVU86
 303:STM32_WPAN/App/custom_app.c **** }
 393              		.loc 1 303 1 is_stmt 0 view .LVU87
 394 00a8 0020     		movs	r0, #0
 395 00aa 2FB0     		add	sp, sp, #188
 396              	.LCFI4:
 397              		.cfi_def_cfa_offset 20
 398              		@ sp needed
 399 00ac F0BD     		pop	{r4, r5, r6, r7, pc}
 400              	.LVL31:
 401              	.L22:
 402              		.loc 1 303 1 view .LVU88
 403 00ae 00BF     		.align	2
 404              	.L21:
 405 00b0 00000000 		.word	.LC5
 406 00b4 D34D6210 		.word	274877907
 407 00b8 20000000 		.word	.LC6
 408 00bc 34000000 		.word	.LC7
 409 00c0 00000000 		.word	UpdateCharData
 410              		.cfi_endproc
 411              	.LFE1829:
 413              		.section	.rodata.Custom_STM_App_Notification.str1.4,"aMS",%progbits,1
 414              		.align	2
 415              	.LC8:
 416 0000 4576656E 		.ascii	"Event: Read from characteristic\000"
 416      743A2052 
 416      65616420 
 416      66726F6D 
 416      20636861 
 417              		.align	2
 418              	.LC9:
 419 0020 4576656E 		.ascii	"Event recieved: %s\015\012\000"
 419      74207265 
 419      63696576 
 419      65643A20 
 419      25730D0A 
 420 0035 000000   		.align	2
 421              	.LC10:
 422 0038 64617461 		.ascii	"data\000"
 422      00
 423 003d 000000   		.align	2
 424              	.LC11:
 425 0040 434F4D4D 		.ascii	"COMMAND: data\000"
 425      414E443A 
 425      20646174 
 425      6100
 426 004e 0000     		.align	2
ARM GAS  /var/folders/lt/l_qrc8c54t93n_phsj7cf5tc0000gn/T//cc8IS97E.s 			page 15


 427              	.LC12:
 428 0050 5475726E 		.ascii	"Turning on datasend\000"
 428      696E6720 
 428      6F6E2064 
 428      61746173 
 428      656E6400 
 429              		.align	2
 430              	.LC13:
 431 0064 4576656E 		.ascii	"Event: Notifications enabled\000"
 431      743A204E 
 431      6F746966 
 431      69636174 
 431      696F6E73 
 432 0081 000000   		.align	2
 433              	.LC14:
 434 0084 4576656E 		.ascii	"Event: Notifications disabled\000"
 434      743A204E 
 434      6F746966 
 434      69636174 
 434      696F6E73 
 435              		.section	.text.Custom_STM_App_Notification,"ax",%progbits
 436              		.align	1
 437              		.global	Custom_STM_App_Notification
 438              		.syntax unified
 439              		.thumb
 440              		.thumb_func
 441              		.fpu fpv4-sp-d16
 443              	Custom_STM_App_Notification:
 444              	.LVL32:
 445              	.LFB1823:
  95:STM32_WPAN/App/custom_app.c ****   /* USER CODE BEGIN CUSTOM_STM_App_Notification_1 */
 446              		.loc 1 95 1 is_stmt 1 view -0
 447              		.cfi_startproc
 448              		@ args = 0, pretend = 0, frame = 0
 449              		@ frame_needed = 0, uses_anonymous_args = 0
  95:STM32_WPAN/App/custom_app.c ****   /* USER CODE BEGIN CUSTOM_STM_App_Notification_1 */
 450              		.loc 1 95 1 is_stmt 0 view .LVU90
 451 0000 70B5     		push	{r4, r5, r6, lr}
 452              	.LCFI5:
 453              		.cfi_def_cfa_offset 16
 454              		.cfi_offset 4, -16
 455              		.cfi_offset 5, -12
 456              		.cfi_offset 6, -8
 457              		.cfi_offset 14, -4
  97:STM32_WPAN/App/custom_app.c ****   // strncpy(payload, pNotification->DataTransfered.pPayload, pNotification->DataTransfered.Length)
 458              		.loc 1 97 3 is_stmt 1 view .LVU91
 459 0002 334B     		ldr	r3, .L31
 460 0004 0022     		movs	r2, #0
 461 0006 1A60     		str	r2, [r3]	@ unaligned
 462 0008 5A60     		str	r2, [r3, #4]	@ unaligned
 104:STM32_WPAN/App/custom_app.c ****   {
 463              		.loc 1 104 3 view .LVU92
 104:STM32_WPAN/App/custom_app.c ****   {
 464              		.loc 1 104 23 is_stmt 0 view .LVU93
 465 000a 0378     		ldrb	r3, [r0]	@ zero_extendqisi2
 466 000c 032B     		cmp	r3, #3
 467 000e 0FD8     		bhi	.L23
ARM GAS  /var/folders/lt/l_qrc8c54t93n_phsj7cf5tc0000gn/T//cc8IS97E.s 			page 16


 468 0010 DFE803F0 		tbb	[pc, r3]
 469              	.L26:
 470 0014 02       		.byte	(.L29-.L26)/2
 471 0015 0F       		.byte	(.L28-.L26)/2
 472 0016 43       		.byte	(.L27-.L26)/2
 473 0017 50       		.byte	(.L25-.L26)/2
 474              		.p2align 1
 475              	.L29:
 476              	.LBB3:
 106:STM32_WPAN/App/custom_app.c ****     /* USER CODE BEGIN CUSTOM_STM_App_Notification_Custom_Evt_Opcode */
 477              		.loc 1 106 5 is_stmt 1 discriminator 1 view .LVU94
 106:STM32_WPAN/App/custom_app.c ****     /* USER CODE BEGIN CUSTOM_STM_App_Notification_Custom_Evt_Opcode */
 478              		.loc 1 106 43 discriminator 1 view .LVU95
 116:STM32_WPAN/App/custom_app.c ****       /* USER CODE END CUSTOM_STM_READ_WRITE_CHAR_READ_EVT */
 479              		.loc 1 116 7 discriminator 1 view .LVU96
 116:STM32_WPAN/App/custom_app.c ****       /* USER CODE END CUSTOM_STM_READ_WRITE_CHAR_READ_EVT */
 480              		.loc 1 116 7 discriminator 1 view .LVU97
 481 0018 2E48     		ldr	r0, .L31+4
 482              	.LVL33:
 116:STM32_WPAN/App/custom_app.c ****       /* USER CODE END CUSTOM_STM_READ_WRITE_CHAR_READ_EVT */
 483              		.loc 1 116 7 is_stmt 0 discriminator 1 view .LVU98
 484 001a FFF7FEFF 		bl	DbgTraceGetFileName
 485              	.LVL34:
 486 001e 0146     		mov	r1, r0
 487 0020 7423     		movs	r3, #116
 488 0022 2D4A     		ldr	r2, .L31+8
 489 0024 2D48     		ldr	r0, .L31+12
 490 0026 FFF7FEFF 		bl	printf
 491              	.LVL35:
 116:STM32_WPAN/App/custom_app.c ****       /* USER CODE END CUSTOM_STM_READ_WRITE_CHAR_READ_EVT */
 492              		.loc 1 116 7 is_stmt 1 discriminator 1 view .LVU99
 493 002a 2D48     		ldr	r0, .L31+16
 494 002c FFF7FEFF 		bl	printf
 495              	.LVL36:
 116:STM32_WPAN/App/custom_app.c ****       /* USER CODE END CUSTOM_STM_READ_WRITE_CHAR_READ_EVT */
 496              		.loc 1 116 7 discriminator 1 view .LVU100
 116:STM32_WPAN/App/custom_app.c ****       /* USER CODE END CUSTOM_STM_READ_WRITE_CHAR_READ_EVT */
 497              		.loc 1 116 53 discriminator 1 view .LVU101
 118:STM32_WPAN/App/custom_app.c **** 
 498              		.loc 1 118 7 discriminator 1 view .LVU102
 499              	.L23:
 500              	.LBE3:
 162:STM32_WPAN/App/custom_app.c **** 
 501              		.loc 1 162 1 is_stmt 0 view .LVU103
 502 0030 70BD     		pop	{r4, r5, r6, pc}
 503              	.LVL37:
 504              	.L28:
 162:STM32_WPAN/App/custom_app.c **** 
 505              		.loc 1 162 1 view .LVU104
 506 0032 0446     		mov	r4, r0
 507              	.LBB4:
 122:STM32_WPAN/App/custom_app.c ****       uint8_t * command = pNotification->DataTransfered.pPayload;
 508              		.loc 1 122 7 is_stmt 1 view .LVU105
 122:STM32_WPAN/App/custom_app.c ****       uint8_t * command = pNotification->DataTransfered.pPayload;
 509              		.loc 1 122 7 view .LVU106
 510 0034 2748     		ldr	r0, .L31+4
 511              	.LVL38:
ARM GAS  /var/folders/lt/l_qrc8c54t93n_phsj7cf5tc0000gn/T//cc8IS97E.s 			page 17


 122:STM32_WPAN/App/custom_app.c ****       uint8_t * command = pNotification->DataTransfered.pPayload;
 512              		.loc 1 122 7 is_stmt 0 view .LVU107
 513 0036 FFF7FEFF 		bl	DbgTraceGetFileName
 514              	.LVL39:
 515 003a 0146     		mov	r1, r0
 516 003c 7A23     		movs	r3, #122
 517 003e 264A     		ldr	r2, .L31+8
 518 0040 2648     		ldr	r0, .L31+12
 519 0042 FFF7FEFF 		bl	printf
 520              	.LVL40:
 122:STM32_WPAN/App/custom_app.c ****       uint8_t * command = pNotification->DataTransfered.pPayload;
 521              		.loc 1 122 7 is_stmt 1 view .LVU108
 522 0046 6168     		ldr	r1, [r4, #4]
 523 0048 2648     		ldr	r0, .L31+20
 524 004a FFF7FEFF 		bl	printf
 525              	.LVL41:
 122:STM32_WPAN/App/custom_app.c ****       uint8_t * command = pNotification->DataTransfered.pPayload;
 526              		.loc 1 122 7 view .LVU109
 122:STM32_WPAN/App/custom_app.c ****       uint8_t * command = pNotification->DataTransfered.pPayload;
 527              		.loc 1 122 84 view .LVU110
 123:STM32_WPAN/App/custom_app.c **** 
 528              		.loc 1 123 7 view .LVU111
 125:STM32_WPAN/App/custom_app.c ****         read_data_records_ble(&flash_status);
 529              		.loc 1 125 7 view .LVU112
 125:STM32_WPAN/App/custom_app.c ****         read_data_records_ble(&flash_status);
 530              		.loc 1 125 10 is_stmt 0 view .LVU113
 531 004e 0422     		movs	r2, #4
 532 0050 2549     		ldr	r1, .L31+24
 533 0052 6068     		ldr	r0, [r4, #4]
 534 0054 FFF7FEFF 		bl	strncmp
 535              	.LVL42:
 125:STM32_WPAN/App/custom_app.c ****         read_data_records_ble(&flash_status);
 536              		.loc 1 125 9 view .LVU114
 537 0058 0028     		cmp	r0, #0
 538 005a E9D1     		bne	.L23
 126:STM32_WPAN/App/custom_app.c ****         APP_DBG_MSG("COMMAND: data");
 539              		.loc 1 126 9 is_stmt 1 view .LVU115
 540 005c 2348     		ldr	r0, .L31+28
 541 005e FFF7FEFF 		bl	read_data_records_ble
 542              	.LVL43:
 127:STM32_WPAN/App/custom_app.c ****         APP_DBG_MSG("Turning on datasend");
 543              		.loc 1 127 9 view .LVU116
 127:STM32_WPAN/App/custom_app.c ****         APP_DBG_MSG("Turning on datasend");
 544              		.loc 1 127 9 view .LVU117
 545 0062 1C4E     		ldr	r6, .L31+4
 546 0064 3046     		mov	r0, r6
 547 0066 FFF7FEFF 		bl	DbgTraceGetFileName
 548              	.LVL44:
 549 006a 0146     		mov	r1, r0
 550 006c 1A4D     		ldr	r5, .L31+8
 551 006e 1B4C     		ldr	r4, .L31+12
 552              	.LVL45:
 127:STM32_WPAN/App/custom_app.c ****         APP_DBG_MSG("Turning on datasend");
 553              		.loc 1 127 9 is_stmt 0 view .LVU118
 554 0070 7F23     		movs	r3, #127
 555 0072 2A46     		mov	r2, r5
 556 0074 2046     		mov	r0, r4
ARM GAS  /var/folders/lt/l_qrc8c54t93n_phsj7cf5tc0000gn/T//cc8IS97E.s 			page 18


 557 0076 FFF7FEFF 		bl	printf
 558              	.LVL46:
 127:STM32_WPAN/App/custom_app.c ****         APP_DBG_MSG("Turning on datasend");
 559              		.loc 1 127 9 is_stmt 1 view .LVU119
 560 007a 1D48     		ldr	r0, .L31+32
 561 007c FFF7FEFF 		bl	printf
 562              	.LVL47:
 127:STM32_WPAN/App/custom_app.c ****         APP_DBG_MSG("Turning on datasend");
 563              		.loc 1 127 9 view .LVU120
 127:STM32_WPAN/App/custom_app.c ****         APP_DBG_MSG("Turning on datasend");
 564              		.loc 1 127 37 view .LVU121
 128:STM32_WPAN/App/custom_app.c ****         // P2P_Send_Data()
 565              		.loc 1 128 9 view .LVU122
 128:STM32_WPAN/App/custom_app.c ****         // P2P_Send_Data()
 566              		.loc 1 128 9 view .LVU123
 567 0080 3046     		mov	r0, r6
 568 0082 FFF7FEFF 		bl	DbgTraceGetFileName
 569              	.LVL48:
 570 0086 0146     		mov	r1, r0
 571 0088 8023     		movs	r3, #128
 572 008a 2A46     		mov	r2, r5
 573 008c 2046     		mov	r0, r4
 574 008e FFF7FEFF 		bl	printf
 575              	.LVL49:
 128:STM32_WPAN/App/custom_app.c ****         // P2P_Send_Data()
 576              		.loc 1 128 9 view .LVU124
 577 0092 1848     		ldr	r0, .L31+36
 578 0094 FFF7FEFF 		bl	printf
 579              	.LVL50:
 580 0098 CAE7     		b	.L23
 581              	.LVL51:
 582              	.L27:
 142:STM32_WPAN/App/custom_app.c ****       /* USER CODE END CUSTOM_STM_INDICATION_CHAR_INDICATE_ENABLED_EVT */
 583              		.loc 1 142 7 view .LVU125
 142:STM32_WPAN/App/custom_app.c ****       /* USER CODE END CUSTOM_STM_INDICATION_CHAR_INDICATE_ENABLED_EVT */
 584              		.loc 1 142 7 view .LVU126
 585 009a 0E48     		ldr	r0, .L31+4
 586              	.LVL52:
 142:STM32_WPAN/App/custom_app.c ****       /* USER CODE END CUSTOM_STM_INDICATION_CHAR_INDICATE_ENABLED_EVT */
 587              		.loc 1 142 7 is_stmt 0 view .LVU127
 588 009c FFF7FEFF 		bl	DbgTraceGetFileName
 589              	.LVL53:
 590 00a0 0146     		mov	r1, r0
 591 00a2 8E23     		movs	r3, #142
 592 00a4 0C4A     		ldr	r2, .L31+8
 593 00a6 0D48     		ldr	r0, .L31+12
 594 00a8 FFF7FEFF 		bl	printf
 595              	.LVL54:
 142:STM32_WPAN/App/custom_app.c ****       /* USER CODE END CUSTOM_STM_INDICATION_CHAR_INDICATE_ENABLED_EVT */
 596              		.loc 1 142 7 is_stmt 1 view .LVU128
 597 00ac 1248     		ldr	r0, .L31+40
 598 00ae FFF7FEFF 		bl	printf
 599              	.LVL55:
 142:STM32_WPAN/App/custom_app.c ****       /* USER CODE END CUSTOM_STM_INDICATION_CHAR_INDICATE_ENABLED_EVT */
 600              		.loc 1 142 7 view .LVU129
 142:STM32_WPAN/App/custom_app.c ****       /* USER CODE END CUSTOM_STM_INDICATION_CHAR_INDICATE_ENABLED_EVT */
 601              		.loc 1 142 50 view .LVU130
ARM GAS  /var/folders/lt/l_qrc8c54t93n_phsj7cf5tc0000gn/T//cc8IS97E.s 			page 19


 144:STM32_WPAN/App/custom_app.c **** 
 602              		.loc 1 144 7 view .LVU131
 603 00b2 BDE7     		b	.L23
 604              	.LVL56:
 605              	.L25:
 148:STM32_WPAN/App/custom_app.c ****       /* USER CODE END CUSTOM_STM_INDICATION_CHAR_INDICATE_DISABLED_EVT */
 606              		.loc 1 148 7 view .LVU132
 148:STM32_WPAN/App/custom_app.c ****       /* USER CODE END CUSTOM_STM_INDICATION_CHAR_INDICATE_DISABLED_EVT */
 607              		.loc 1 148 7 view .LVU133
 608 00b4 0748     		ldr	r0, .L31+4
 609              	.LVL57:
 148:STM32_WPAN/App/custom_app.c ****       /* USER CODE END CUSTOM_STM_INDICATION_CHAR_INDICATE_DISABLED_EVT */
 610              		.loc 1 148 7 is_stmt 0 view .LVU134
 611 00b6 FFF7FEFF 		bl	DbgTraceGetFileName
 612              	.LVL58:
 613 00ba 0146     		mov	r1, r0
 614 00bc 9423     		movs	r3, #148
 615 00be 064A     		ldr	r2, .L31+8
 616 00c0 0648     		ldr	r0, .L31+12
 617 00c2 FFF7FEFF 		bl	printf
 618              	.LVL59:
 148:STM32_WPAN/App/custom_app.c ****       /* USER CODE END CUSTOM_STM_INDICATION_CHAR_INDICATE_DISABLED_EVT */
 619              		.loc 1 148 7 is_stmt 1 view .LVU135
 620 00c6 0D48     		ldr	r0, .L31+44
 621 00c8 FFF7FEFF 		bl	printf
 622              	.LVL60:
 148:STM32_WPAN/App/custom_app.c ****       /* USER CODE END CUSTOM_STM_INDICATION_CHAR_INDICATE_DISABLED_EVT */
 623              		.loc 1 148 7 view .LVU136
 148:STM32_WPAN/App/custom_app.c ****       /* USER CODE END CUSTOM_STM_INDICATION_CHAR_INDICATE_DISABLED_EVT */
 624              		.loc 1 148 51 view .LVU137
 150:STM32_WPAN/App/custom_app.c **** 
 625              		.loc 1 150 7 view .LVU138
 626              	.LBE4:
 161:STM32_WPAN/App/custom_app.c **** }
 627              		.loc 1 161 3 view .LVU139
 628 00cc B0E7     		b	.L23
 629              	.L32:
 630 00ce 00BF     		.align	2
 631              	.L31:
 632 00d0 00000000 		.word	payload
 633 00d4 00000000 		.word	.LC0
 634 00d8 00000000 		.word	.LANCHOR1
 635 00dc 1C000000 		.word	.LC1
 636 00e0 00000000 		.word	.LC8
 637 00e4 20000000 		.word	.LC9
 638 00e8 38000000 		.word	.LC10
 639 00ec 00000000 		.word	flash_status
 640 00f0 40000000 		.word	.LC11
 641 00f4 50000000 		.word	.LC12
 642 00f8 64000000 		.word	.LC13
 643 00fc 84000000 		.word	.LC14
 644              		.cfi_endproc
 645              	.LFE1823:
 647              		.comm	SecureReadData,1,1
 648              		.comm	NotifyCharData,247,4
 649              		.comm	UpdateCharData,247,4
 650              		.comm	payload,8,4
ARM GAS  /var/folders/lt/l_qrc8c54t93n_phsj7cf5tc0000gn/T//cc8IS97E.s 			page 20


 651              		.section	.rodata.__FUNCTION__.20911,"a"
 652              		.align	2
 653              		.set	.LANCHOR1,. + 0
 656              	__FUNCTION__.20911:
 657 0000 43757374 		.ascii	"Custom_STM_App_Notification\000"
 657      6F6D5F53 
 657      544D5F41 
 657      70705F4E 
 657      6F746966 
 658              		.section	.rodata.__FUNCTION__.20922,"a"
 659              		.align	2
 660              		.set	.LANCHOR0,. + 0
 663              	__FUNCTION__.20922:
 664 0000 43757374 		.ascii	"Custom_APP_Notification\000"
 664      6F6D5F41 
 664      50505F4E 
 664      6F746966 
 664      69636174 
 665              		.text
 666              	.Letext0:
 667              		.file 2 "/usr/local/Cellar/arm-none-eabi-gcc/9-2019-q4-major/gcc/arm-none-eabi/include/machine/_de
 668              		.file 3 "/usr/local/Cellar/arm-none-eabi-gcc/9-2019-q4-major/gcc/arm-none-eabi/include/sys/_stdint
 669              		.file 4 "Drivers/CMSIS/Include/core_cm4.h"
 670              		.file 5 "Drivers/CMSIS/Device/ST/STM32WBxx/Include/system_stm32wbxx.h"
 671              		.file 6 "Drivers/STM32WBxx_HAL_Driver/Inc/stm32wbxx_hal_def.h"
 672              		.file 7 "Drivers/STM32WBxx_HAL_Driver/Inc/stm32wbxx_hal_flash.h"
 673              		.file 8 "Drivers/STM32WBxx_HAL_Driver/Inc/stm32wbxx_hal_uart.h"
 674              		.file 9 "Drivers/STM32WBxx_HAL_Driver/Inc/stm32wbxx_hal.h"
 675              		.file 10 "/usr/local/Cellar/arm-none-eabi-gcc/9-2019-q4-major/gcc/arm-none-eabi/include/sys/lock.h
 676              		.file 11 "/usr/local/Cellar/arm-none-eabi-gcc/9-2019-q4-major/gcc/arm-none-eabi/include/sys/_types
 677              		.file 12 "/usr/local/Cellar/arm-none-eabi-gcc/9-2019-q4-major/gcc/lib/gcc/arm-none-eabi/9.2.1/incl
 678              		.file 13 "/usr/local/Cellar/arm-none-eabi-gcc/9-2019-q4-major/gcc/arm-none-eabi/include/sys/reent.
 679              		.file 14 "/usr/local/Cellar/arm-none-eabi-gcc/9-2019-q4-major/gcc/arm-none-eabi/include/sys/_timev
 680              		.file 15 "/usr/local/Cellar/arm-none-eabi-gcc/9-2019-q4-major/gcc/arm-none-eabi/include/stdlib.h"
 681              		.file 16 "Drivers/STM32WBxx_HAL_Driver/Inc/stm32wbxx_ll_usart.h"
 682              		.file 17 "Drivers/STM32WBxx_HAL_Driver/Inc/stm32wbxx_ll_lpuart.h"
 683              		.file 18 "Core/Inc/flash.h"
 684              		.file 19 "Middlewares/ST/STM32_WPAN/ble/core/auto/ble_events.h"
 685              		.file 20 "STM32_WPAN/App/custom_app.h"
 686              		.file 21 "STM32_WPAN/App/custom_stm.h"
 687              		.file 22 "/usr/local/Cellar/arm-none-eabi-gcc/9-2019-q4-major/gcc/arm-none-eabi/include/time.h"
 688              		.file 23 "/usr/local/Cellar/arm-none-eabi-gcc/9-2019-q4-major/gcc/arm-none-eabi/include/stdio.h"
 689              		.file 24 "/usr/local/Cellar/arm-none-eabi-gcc/9-2019-q4-major/gcc/arm-none-eabi/include/string.h"
 690              		.file 25 "<built-in>"
 691              		.file 26 "Middlewares/ST/STM32_WPAN/utilities/dbg_trace.h"
ARM GAS  /var/folders/lt/l_qrc8c54t93n_phsj7cf5tc0000gn/T//cc8IS97E.s 			page 21


DEFINED SYMBOLS
                            *ABS*:0000000000000000 custom_app.c
/var/folders/lt/l_qrc8c54t93n_phsj7cf5tc0000gn/T//cc8IS97E.s:18     .text.Custom_Indication_char_Update_Char:0000000000000000 $t
/var/folders/lt/l_qrc8c54t93n_phsj7cf5tc0000gn/T//cc8IS97E.s:25     .text.Custom_Indication_char_Update_Char:0000000000000000 Custom_Indication_char_Update_Char
/var/folders/lt/l_qrc8c54t93n_phsj7cf5tc0000gn/T//cc8IS97E.s:48     .text.Custom_Indication_char_Update_Char:000000000000000c $d
                            *COM*:00000000000000f7 UpdateCharData
/var/folders/lt/l_qrc8c54t93n_phsj7cf5tc0000gn/T//cc8IS97E.s:53     .rodata.Custom_APP_Notification.str1.4:0000000000000000 $d
/var/folders/lt/l_qrc8c54t93n_phsj7cf5tc0000gn/T//cc8IS97E.s:69     .text.Custom_APP_Notification:0000000000000000 $t
/var/folders/lt/l_qrc8c54t93n_phsj7cf5tc0000gn/T//cc8IS97E.s:76     .text.Custom_APP_Notification:0000000000000000 Custom_APP_Notification
/var/folders/lt/l_qrc8c54t93n_phsj7cf5tc0000gn/T//cc8IS97E.s:164    .text.Custom_APP_Notification:000000000000005c $d
/var/folders/lt/l_qrc8c54t93n_phsj7cf5tc0000gn/T//cc8IS97E.s:174    .text.Custom_APP_Init:0000000000000000 $t
/var/folders/lt/l_qrc8c54t93n_phsj7cf5tc0000gn/T//cc8IS97E.s:181    .text.Custom_APP_Init:0000000000000000 Custom_APP_Init
/var/folders/lt/l_qrc8c54t93n_phsj7cf5tc0000gn/T//cc8IS97E.s:195    .text.send_data:0000000000000000 $t
/var/folders/lt/l_qrc8c54t93n_phsj7cf5tc0000gn/T//cc8IS97E.s:202    .text.send_data:0000000000000000 send_data
/var/folders/lt/l_qrc8c54t93n_phsj7cf5tc0000gn/T//cc8IS97E.s:215    .rodata.read_data_records_ble.str1.4:0000000000000000 $d
/var/folders/lt/l_qrc8c54t93n_phsj7cf5tc0000gn/T//cc8IS97E.s:225    .text.read_data_records_ble:0000000000000000 $t
/var/folders/lt/l_qrc8c54t93n_phsj7cf5tc0000gn/T//cc8IS97E.s:232    .text.read_data_records_ble:0000000000000000 read_data_records_ble
/var/folders/lt/l_qrc8c54t93n_phsj7cf5tc0000gn/T//cc8IS97E.s:405    .text.read_data_records_ble:00000000000000b0 $d
/var/folders/lt/l_qrc8c54t93n_phsj7cf5tc0000gn/T//cc8IS97E.s:414    .rodata.Custom_STM_App_Notification.str1.4:0000000000000000 $d
/var/folders/lt/l_qrc8c54t93n_phsj7cf5tc0000gn/T//cc8IS97E.s:436    .text.Custom_STM_App_Notification:0000000000000000 $t
/var/folders/lt/l_qrc8c54t93n_phsj7cf5tc0000gn/T//cc8IS97E.s:443    .text.Custom_STM_App_Notification:0000000000000000 Custom_STM_App_Notification
/var/folders/lt/l_qrc8c54t93n_phsj7cf5tc0000gn/T//cc8IS97E.s:470    .text.Custom_STM_App_Notification:0000000000000014 $d
/var/folders/lt/l_qrc8c54t93n_phsj7cf5tc0000gn/T//cc8IS97E.s:474    .text.Custom_STM_App_Notification:0000000000000018 $t
/var/folders/lt/l_qrc8c54t93n_phsj7cf5tc0000gn/T//cc8IS97E.s:632    .text.Custom_STM_App_Notification:00000000000000d0 $d
                            *COM*:0000000000000008 payload
                            *COM*:0000000000000001 SecureReadData
                            *COM*:00000000000000f7 NotifyCharData
/var/folders/lt/l_qrc8c54t93n_phsj7cf5tc0000gn/T//cc8IS97E.s:652    .rodata.__FUNCTION__.20911:0000000000000000 $d
/var/folders/lt/l_qrc8c54t93n_phsj7cf5tc0000gn/T//cc8IS97E.s:656    .rodata.__FUNCTION__.20911:0000000000000000 __FUNCTION__.20911
/var/folders/lt/l_qrc8c54t93n_phsj7cf5tc0000gn/T//cc8IS97E.s:659    .rodata.__FUNCTION__.20922:0000000000000000 $d
/var/folders/lt/l_qrc8c54t93n_phsj7cf5tc0000gn/T//cc8IS97E.s:663    .rodata.__FUNCTION__.20922:0000000000000000 __FUNCTION__.20922

UNDEFINED SYMBOLS
Custom_STM_App_Update_Char
DbgTraceGetFileName
printf
memset
localtime
sprintf
strlen
memcpy
free
strncmp
flash_status
