ARM GAS  /var/folders/lt/l_qrc8c54t93n_phsj7cf5tc0000gn/T//ccRwmTUQ.s 			page 1


   1              		.cpu cortex-m4
   2              		.eabi_attribute 27, 1
   3              		.eabi_attribute 28, 1
   4              		.eabi_attribute 20, 1
   5              		.eabi_attribute 21, 1
   6              		.eabi_attribute 23, 3
   7              		.eabi_attribute 24, 1
   8              		.eabi_attribute 25, 1
   9              		.eabi_attribute 26, 1
  10              		.eabi_attribute 30, 1
  11              		.eabi_attribute 34, 1
  12              		.eabi_attribute 18, 4
  13              		.file	"shci.c"
  14              		.text
  15              	.Ltext0:
  16              		.cfi_sections	.debug_frame
  17              		.section	.text.SHCI_C2_FUS_GetState,"ax",%progbits
  18              		.align	1
  19              		.global	SHCI_C2_FUS_GetState
  20              		.arch armv7e-m
  21              		.syntax unified
  22              		.thumb
  23              		.thumb_func
  24              		.fpu fpv4-sp-d16
  26              	SHCI_C2_FUS_GetState:
  27              	.LVL0:
  28              	.LFB1107:
  29              		.file 1 "Middlewares/ST/STM32_WPAN/interface/patterns/ble_thread/shci/shci.c"
   1:Middlewares/ST/STM32_WPAN/interface/patterns/ble_thread/shci/shci.c **** /**
   2:Middlewares/ST/STM32_WPAN/interface/patterns/ble_thread/shci/shci.c ****  ******************************************************************************
   3:Middlewares/ST/STM32_WPAN/interface/patterns/ble_thread/shci/shci.c ****  * @file    shci.c
   4:Middlewares/ST/STM32_WPAN/interface/patterns/ble_thread/shci/shci.c ****  * @author  MCD Application Team
   5:Middlewares/ST/STM32_WPAN/interface/patterns/ble_thread/shci/shci.c ****  * @brief   HCI command for the system channel
   6:Middlewares/ST/STM32_WPAN/interface/patterns/ble_thread/shci/shci.c ****  ******************************************************************************
   7:Middlewares/ST/STM32_WPAN/interface/patterns/ble_thread/shci/shci.c ****  * @attention
   8:Middlewares/ST/STM32_WPAN/interface/patterns/ble_thread/shci/shci.c ****  *
   9:Middlewares/ST/STM32_WPAN/interface/patterns/ble_thread/shci/shci.c ****  * Copyright (c) 2018-2021 STMicroelectronics.
  10:Middlewares/ST/STM32_WPAN/interface/patterns/ble_thread/shci/shci.c ****  * All rights reserved.
  11:Middlewares/ST/STM32_WPAN/interface/patterns/ble_thread/shci/shci.c ****  *
  12:Middlewares/ST/STM32_WPAN/interface/patterns/ble_thread/shci/shci.c ****  * This software is licensed under terms that can be found in the LICENSE file
  13:Middlewares/ST/STM32_WPAN/interface/patterns/ble_thread/shci/shci.c ****  * in the root directory of this software component.
  14:Middlewares/ST/STM32_WPAN/interface/patterns/ble_thread/shci/shci.c ****  * If no LICENSE file comes with this software, it is provided AS-IS.
  15:Middlewares/ST/STM32_WPAN/interface/patterns/ble_thread/shci/shci.c ****  *
  16:Middlewares/ST/STM32_WPAN/interface/patterns/ble_thread/shci/shci.c ****  ******************************************************************************
  17:Middlewares/ST/STM32_WPAN/interface/patterns/ble_thread/shci/shci.c ****  */
  18:Middlewares/ST/STM32_WPAN/interface/patterns/ble_thread/shci/shci.c **** 
  19:Middlewares/ST/STM32_WPAN/interface/patterns/ble_thread/shci/shci.c **** 
  20:Middlewares/ST/STM32_WPAN/interface/patterns/ble_thread/shci/shci.c **** /* Includes ------------------------------------------------------------------*/
  21:Middlewares/ST/STM32_WPAN/interface/patterns/ble_thread/shci/shci.c **** #include "stm32_wpan_common.h"
  22:Middlewares/ST/STM32_WPAN/interface/patterns/ble_thread/shci/shci.c **** 
  23:Middlewares/ST/STM32_WPAN/interface/patterns/ble_thread/shci/shci.c **** #include "shci_tl.h"
  24:Middlewares/ST/STM32_WPAN/interface/patterns/ble_thread/shci/shci.c **** #include "shci.h"
  25:Middlewares/ST/STM32_WPAN/interface/patterns/ble_thread/shci/shci.c **** #include "stm32wbxx.h"
  26:Middlewares/ST/STM32_WPAN/interface/patterns/ble_thread/shci/shci.c **** 
  27:Middlewares/ST/STM32_WPAN/interface/patterns/ble_thread/shci/shci.c **** /* Private typedef -----------------------------------------------------------*/
  28:Middlewares/ST/STM32_WPAN/interface/patterns/ble_thread/shci/shci.c **** /* Private defines -----------------------------------------------------------*/
  29:Middlewares/ST/STM32_WPAN/interface/patterns/ble_thread/shci/shci.c **** /* Private macros ------------------------------------------------------------*/
ARM GAS  /var/folders/lt/l_qrc8c54t93n_phsj7cf5tc0000gn/T//ccRwmTUQ.s 			page 2


  30:Middlewares/ST/STM32_WPAN/interface/patterns/ble_thread/shci/shci.c **** /* Private variables ---------------------------------------------------------*/
  31:Middlewares/ST/STM32_WPAN/interface/patterns/ble_thread/shci/shci.c **** /* Global variables ----------------------------------------------------------*/
  32:Middlewares/ST/STM32_WPAN/interface/patterns/ble_thread/shci/shci.c **** /* Private function prototypes -----------------------------------------------*/
  33:Middlewares/ST/STM32_WPAN/interface/patterns/ble_thread/shci/shci.c **** /* Local Functions Definition ------------------------------------------------------*/
  34:Middlewares/ST/STM32_WPAN/interface/patterns/ble_thread/shci/shci.c **** /* Public Functions Definition ------------------------------------------------------*/
  35:Middlewares/ST/STM32_WPAN/interface/patterns/ble_thread/shci/shci.c **** 
  36:Middlewares/ST/STM32_WPAN/interface/patterns/ble_thread/shci/shci.c **** /**
  37:Middlewares/ST/STM32_WPAN/interface/patterns/ble_thread/shci/shci.c ****  *  C2 COMMAND
  38:Middlewares/ST/STM32_WPAN/interface/patterns/ble_thread/shci/shci.c ****  *  These commands are sent to the CPU2
  39:Middlewares/ST/STM32_WPAN/interface/patterns/ble_thread/shci/shci.c ****  */
  40:Middlewares/ST/STM32_WPAN/interface/patterns/ble_thread/shci/shci.c **** uint8_t SHCI_C2_FUS_GetState( SHCI_FUS_GetState_ErrorCode_t *p_error_code )
  41:Middlewares/ST/STM32_WPAN/interface/patterns/ble_thread/shci/shci.c **** {
  30              		.loc 1 41 1 view -0
  31              		.cfi_startproc
  32              		@ args = 0, pretend = 0, frame = 16
  33              		@ frame_needed = 0, uses_anonymous_args = 0
  34              		.loc 1 41 1 is_stmt 0 view .LVU1
  35 0000 10B5     		push	{r4, lr}
  36              	.LCFI0:
  37              		.cfi_def_cfa_offset 8
  38              		.cfi_offset 4, -8
  39              		.cfi_offset 14, -4
  40 0002 84B0     		sub	sp, sp, #16
  41              	.LCFI1:
  42              		.cfi_def_cfa_offset 24
  43 0004 0446     		mov	r4, r0
  42:Middlewares/ST/STM32_WPAN/interface/patterns/ble_thread/shci/shci.c ****   /**
  43:Middlewares/ST/STM32_WPAN/interface/patterns/ble_thread/shci/shci.c ****    * A command status event + payload has the same size than the expected command complete
  44:Middlewares/ST/STM32_WPAN/interface/patterns/ble_thread/shci/shci.c ****    */
  45:Middlewares/ST/STM32_WPAN/interface/patterns/ble_thread/shci/shci.c ****   uint8_t local_buffer[TL_BLEEVT_CS_BUFFER_SIZE + 1];
  44              		.loc 1 45 3 is_stmt 1 view .LVU2
  46:Middlewares/ST/STM32_WPAN/interface/patterns/ble_thread/shci/shci.c ****   TL_EvtPacket_t * p_rsp;
  45              		.loc 1 46 3 view .LVU3
  47:Middlewares/ST/STM32_WPAN/interface/patterns/ble_thread/shci/shci.c **** 
  48:Middlewares/ST/STM32_WPAN/interface/patterns/ble_thread/shci/shci.c ****   p_rsp = (TL_EvtPacket_t *)local_buffer;
  46              		.loc 1 48 3 view .LVU4
  47              	.LVL1:
  49:Middlewares/ST/STM32_WPAN/interface/patterns/ble_thread/shci/shci.c **** 
  50:Middlewares/ST/STM32_WPAN/interface/patterns/ble_thread/shci/shci.c ****   shci_send( SHCI_OPCODE_C2_FUS_GET_STATE,
  48              		.loc 1 50 3 view .LVU5
  49 0006 6B46     		mov	r3, sp
  50 0008 0022     		movs	r2, #0
  51 000a 1146     		mov	r1, r2
  52 000c 4FF65240 		movw	r0, #64594
  53              	.LVL2:
  54              		.loc 1 50 3 is_stmt 0 view .LVU6
  55 0010 FFF7FEFF 		bl	shci_send
  56              	.LVL3:
  51:Middlewares/ST/STM32_WPAN/interface/patterns/ble_thread/shci/shci.c ****              0,
  52:Middlewares/ST/STM32_WPAN/interface/patterns/ble_thread/shci/shci.c ****              0,
  53:Middlewares/ST/STM32_WPAN/interface/patterns/ble_thread/shci/shci.c ****              p_rsp );
  54:Middlewares/ST/STM32_WPAN/interface/patterns/ble_thread/shci/shci.c **** 
  55:Middlewares/ST/STM32_WPAN/interface/patterns/ble_thread/shci/shci.c ****   if(p_error_code != 0)
  57              		.loc 1 55 3 is_stmt 1 view .LVU7
  58              		.loc 1 55 5 is_stmt 0 view .LVU8
  59 0014 14B1     		cbz	r4, .L2
  56:Middlewares/ST/STM32_WPAN/interface/patterns/ble_thread/shci/shci.c ****   {
ARM GAS  /var/folders/lt/l_qrc8c54t93n_phsj7cf5tc0000gn/T//ccRwmTUQ.s 			page 3


  57:Middlewares/ST/STM32_WPAN/interface/patterns/ble_thread/shci/shci.c ****     *p_error_code = (SHCI_FUS_GetState_ErrorCode_t)(((TL_CcEvt_t*)(p_rsp->evtserial.evt.payload))->
  60              		.loc 1 57 5 is_stmt 1 view .LVU9
  61              		.loc 1 57 107 is_stmt 0 view .LVU10
  62 0016 9DF80F30 		ldrb	r3, [sp, #15]	@ zero_extendqisi2
  63              		.loc 1 57 19 view .LVU11
  64 001a 2370     		strb	r3, [r4]
  65              	.L2:
  58:Middlewares/ST/STM32_WPAN/interface/patterns/ble_thread/shci/shci.c ****   }
  59:Middlewares/ST/STM32_WPAN/interface/patterns/ble_thread/shci/shci.c **** 
  60:Middlewares/ST/STM32_WPAN/interface/patterns/ble_thread/shci/shci.c ****   return (((TL_CcEvt_t*)(p_rsp->evtserial.evt.payload))->payload[0]);
  66              		.loc 1 60 3 is_stmt 1 view .LVU12
  61:Middlewares/ST/STM32_WPAN/interface/patterns/ble_thread/shci/shci.c **** }
  67              		.loc 1 61 1 is_stmt 0 view .LVU13
  68 001c 9DF80E00 		ldrb	r0, [sp, #14]	@ zero_extendqisi2
  69 0020 04B0     		add	sp, sp, #16
  70              	.LCFI2:
  71              		.cfi_def_cfa_offset 8
  72              	.LVL4:
  73              		.loc 1 61 1 view .LVU14
  74              		@ sp needed
  75 0022 10BD     		pop	{r4, pc}
  76              		.loc 1 61 1 view .LVU15
  77              		.cfi_endproc
  78              	.LFE1107:
  80              		.section	.text.SHCI_C2_FUS_FwUpgrade,"ax",%progbits
  81              		.align	1
  82              		.global	SHCI_C2_FUS_FwUpgrade
  83              		.syntax unified
  84              		.thumb
  85              		.thumb_func
  86              		.fpu fpv4-sp-d16
  88              	SHCI_C2_FUS_FwUpgrade:
  89              	.LVL5:
  90              	.LFB1108:
  62:Middlewares/ST/STM32_WPAN/interface/patterns/ble_thread/shci/shci.c **** 
  63:Middlewares/ST/STM32_WPAN/interface/patterns/ble_thread/shci/shci.c **** SHCI_CmdStatus_t SHCI_C2_FUS_FwUpgrade( uint32_t fw_src_add,  uint32_t fw_dest_add )
  64:Middlewares/ST/STM32_WPAN/interface/patterns/ble_thread/shci/shci.c **** {
  91              		.loc 1 64 1 is_stmt 1 view -0
  92              		.cfi_startproc
  93              		@ args = 0, pretend = 0, frame = 16
  94              		@ frame_needed = 0, uses_anonymous_args = 0
  95              		.loc 1 64 1 is_stmt 0 view .LVU17
  96 0000 00B5     		push	{lr}
  97              	.LCFI3:
  98              		.cfi_def_cfa_offset 4
  99              		.cfi_offset 14, -4
 100 0002 85B0     		sub	sp, sp, #20
 101              	.LCFI4:
 102              		.cfi_def_cfa_offset 24
 103 0004 0B46     		mov	r3, r1
  65:Middlewares/ST/STM32_WPAN/interface/patterns/ble_thread/shci/shci.c ****   /**
  66:Middlewares/ST/STM32_WPAN/interface/patterns/ble_thread/shci/shci.c ****    * TL_BLEEVT_CS_BUFFER_SIZE is 15 bytes so it is large enough to hold the 8 bytes of command para
  67:Middlewares/ST/STM32_WPAN/interface/patterns/ble_thread/shci/shci.c ****    * Buffer is large enough to hold command complete without payload
  68:Middlewares/ST/STM32_WPAN/interface/patterns/ble_thread/shci/shci.c ****    */
  69:Middlewares/ST/STM32_WPAN/interface/patterns/ble_thread/shci/shci.c ****   uint8_t local_buffer[TL_BLEEVT_CS_BUFFER_SIZE];
 104              		.loc 1 69 3 is_stmt 1 view .LVU18
  70:Middlewares/ST/STM32_WPAN/interface/patterns/ble_thread/shci/shci.c ****   TL_EvtPacket_t * p_rsp;
ARM GAS  /var/folders/lt/l_qrc8c54t93n_phsj7cf5tc0000gn/T//ccRwmTUQ.s 			page 4


 105              		.loc 1 70 3 view .LVU19
  71:Middlewares/ST/STM32_WPAN/interface/patterns/ble_thread/shci/shci.c ****   uint32_t *p_cmd;
 106              		.loc 1 71 3 view .LVU20
  72:Middlewares/ST/STM32_WPAN/interface/patterns/ble_thread/shci/shci.c ****   uint8_t cmd_length;
 107              		.loc 1 72 3 view .LVU21
  73:Middlewares/ST/STM32_WPAN/interface/patterns/ble_thread/shci/shci.c **** 
  74:Middlewares/ST/STM32_WPAN/interface/patterns/ble_thread/shci/shci.c ****   p_cmd = (uint32_t*)local_buffer;
 108              		.loc 1 74 3 view .LVU22
 109              	.LVL6:
  75:Middlewares/ST/STM32_WPAN/interface/patterns/ble_thread/shci/shci.c ****   cmd_length = 0;
 110              		.loc 1 75 3 view .LVU23
  76:Middlewares/ST/STM32_WPAN/interface/patterns/ble_thread/shci/shci.c **** 
  77:Middlewares/ST/STM32_WPAN/interface/patterns/ble_thread/shci/shci.c ****   if(fw_src_add != 0)
 111              		.loc 1 77 3 view .LVU24
 112              		.loc 1 77 5 is_stmt 0 view .LVU25
 113 0006 80B1     		cbz	r0, .L7
  78:Middlewares/ST/STM32_WPAN/interface/patterns/ble_thread/shci/shci.c ****   {
  79:Middlewares/ST/STM32_WPAN/interface/patterns/ble_thread/shci/shci.c ****     *p_cmd = fw_src_add;
 114              		.loc 1 79 5 is_stmt 1 view .LVU26
 115              		.loc 1 79 12 is_stmt 0 view .LVU27
 116 0008 0090     		str	r0, [sp]
  80:Middlewares/ST/STM32_WPAN/interface/patterns/ble_thread/shci/shci.c ****     cmd_length += 4;
 117              		.loc 1 80 5 is_stmt 1 view .LVU28
 118              	.LVL7:
 119              		.loc 1 80 16 is_stmt 0 view .LVU29
 120 000a 0421     		movs	r1, #4
 121              	.LVL8:
 122              	.L5:
  81:Middlewares/ST/STM32_WPAN/interface/patterns/ble_thread/shci/shci.c ****   }
  82:Middlewares/ST/STM32_WPAN/interface/patterns/ble_thread/shci/shci.c **** 
  83:Middlewares/ST/STM32_WPAN/interface/patterns/ble_thread/shci/shci.c ****   if(fw_dest_add != 0)
 123              		.loc 1 83 3 is_stmt 1 view .LVU30
 124              		.loc 1 83 5 is_stmt 0 view .LVU31
 125 000c 13B1     		cbz	r3, .L6
  84:Middlewares/ST/STM32_WPAN/interface/patterns/ble_thread/shci/shci.c ****   {
  85:Middlewares/ST/STM32_WPAN/interface/patterns/ble_thread/shci/shci.c ****     *(p_cmd+1) = fw_dest_add;
 126              		.loc 1 85 5 is_stmt 1 view .LVU32
 127              		.loc 1 85 16 is_stmt 0 view .LVU33
 128 000e 0193     		str	r3, [sp, #4]
  86:Middlewares/ST/STM32_WPAN/interface/patterns/ble_thread/shci/shci.c ****     cmd_length += 4;
 129              		.loc 1 86 5 is_stmt 1 view .LVU34
 130              		.loc 1 86 16 is_stmt 0 view .LVU35
 131 0010 0431     		adds	r1, r1, #4
 132              	.LVL9:
 133              		.loc 1 86 16 view .LVU36
 134 0012 C9B2     		uxtb	r1, r1
 135              	.LVL10:
 136              	.L6:
  87:Middlewares/ST/STM32_WPAN/interface/patterns/ble_thread/shci/shci.c ****   }
  88:Middlewares/ST/STM32_WPAN/interface/patterns/ble_thread/shci/shci.c **** 
  89:Middlewares/ST/STM32_WPAN/interface/patterns/ble_thread/shci/shci.c ****   p_rsp = (TL_EvtPacket_t *)local_buffer;
 137              		.loc 1 89 3 is_stmt 1 view .LVU37
  90:Middlewares/ST/STM32_WPAN/interface/patterns/ble_thread/shci/shci.c **** 
  91:Middlewares/ST/STM32_WPAN/interface/patterns/ble_thread/shci/shci.c ****   shci_send( SHCI_OPCODE_C2_FUS_FW_UPGRADE,
 138              		.loc 1 91 3 view .LVU38
 139 0014 6B46     		mov	r3, sp
 140              	.LVL11:
ARM GAS  /var/folders/lt/l_qrc8c54t93n_phsj7cf5tc0000gn/T//ccRwmTUQ.s 			page 5


 141              		.loc 1 91 3 is_stmt 0 view .LVU39
 142 0016 6A46     		mov	r2, sp
 143 0018 4FF65440 		movw	r0, #64596
 144              	.LVL12:
 145              		.loc 1 91 3 view .LVU40
 146 001c FFF7FEFF 		bl	shci_send
 147              	.LVL13:
  92:Middlewares/ST/STM32_WPAN/interface/patterns/ble_thread/shci/shci.c ****              cmd_length,
  93:Middlewares/ST/STM32_WPAN/interface/patterns/ble_thread/shci/shci.c ****              local_buffer,
  94:Middlewares/ST/STM32_WPAN/interface/patterns/ble_thread/shci/shci.c ****              p_rsp );
  95:Middlewares/ST/STM32_WPAN/interface/patterns/ble_thread/shci/shci.c **** 
  96:Middlewares/ST/STM32_WPAN/interface/patterns/ble_thread/shci/shci.c ****   return (SHCI_CmdStatus_t)(((TL_CcEvt_t*)(p_rsp->evtserial.evt.payload))->payload[0]);
 148              		.loc 1 96 3 is_stmt 1 view .LVU41
  97:Middlewares/ST/STM32_WPAN/interface/patterns/ble_thread/shci/shci.c **** }
 149              		.loc 1 97 1 is_stmt 0 view .LVU42
 150 0020 9DF80E00 		ldrb	r0, [sp, #14]	@ zero_extendqisi2
 151 0024 05B0     		add	sp, sp, #20
 152              	.LCFI5:
 153              		.cfi_remember_state
 154              		.cfi_def_cfa_offset 4
 155              	.LVL14:
 156              		.loc 1 97 1 view .LVU43
 157              		@ sp needed
 158 0026 5DF804FB 		ldr	pc, [sp], #4
 159              	.LVL15:
 160              	.L7:
 161              	.LCFI6:
 162              		.cfi_restore_state
  75:Middlewares/ST/STM32_WPAN/interface/patterns/ble_thread/shci/shci.c **** 
 163              		.loc 1 75 14 view .LVU44
 164 002a 0021     		movs	r1, #0
 165              	.LVL16:
  75:Middlewares/ST/STM32_WPAN/interface/patterns/ble_thread/shci/shci.c **** 
 166              		.loc 1 75 14 view .LVU45
 167 002c EEE7     		b	.L5
 168              		.cfi_endproc
 169              	.LFE1108:
 171              		.section	.text.SHCI_C2_FUS_FwDelete,"ax",%progbits
 172              		.align	1
 173              		.global	SHCI_C2_FUS_FwDelete
 174              		.syntax unified
 175              		.thumb
 176              		.thumb_func
 177              		.fpu fpv4-sp-d16
 179              	SHCI_C2_FUS_FwDelete:
 180              	.LFB1109:
  98:Middlewares/ST/STM32_WPAN/interface/patterns/ble_thread/shci/shci.c **** 
  99:Middlewares/ST/STM32_WPAN/interface/patterns/ble_thread/shci/shci.c **** SHCI_CmdStatus_t SHCI_C2_FUS_FwDelete( void )
 100:Middlewares/ST/STM32_WPAN/interface/patterns/ble_thread/shci/shci.c **** {
 181              		.loc 1 100 1 is_stmt 1 view -0
 182              		.cfi_startproc
 183              		@ args = 0, pretend = 0, frame = 16
 184              		@ frame_needed = 0, uses_anonymous_args = 0
 185 0000 00B5     		push	{lr}
 186              	.LCFI7:
 187              		.cfi_def_cfa_offset 4
 188              		.cfi_offset 14, -4
ARM GAS  /var/folders/lt/l_qrc8c54t93n_phsj7cf5tc0000gn/T//ccRwmTUQ.s 			page 6


 189 0002 85B0     		sub	sp, sp, #20
 190              	.LCFI8:
 191              		.cfi_def_cfa_offset 24
 101:Middlewares/ST/STM32_WPAN/interface/patterns/ble_thread/shci/shci.c ****   /**
 102:Middlewares/ST/STM32_WPAN/interface/patterns/ble_thread/shci/shci.c ****    * Buffer is large enough to hold command complete without payload
 103:Middlewares/ST/STM32_WPAN/interface/patterns/ble_thread/shci/shci.c ****    */
 104:Middlewares/ST/STM32_WPAN/interface/patterns/ble_thread/shci/shci.c ****   uint8_t local_buffer[TL_BLEEVT_CS_BUFFER_SIZE];
 192              		.loc 1 104 3 view .LVU47
 105:Middlewares/ST/STM32_WPAN/interface/patterns/ble_thread/shci/shci.c ****   TL_EvtPacket_t * p_rsp;
 193              		.loc 1 105 3 view .LVU48
 106:Middlewares/ST/STM32_WPAN/interface/patterns/ble_thread/shci/shci.c **** 
 107:Middlewares/ST/STM32_WPAN/interface/patterns/ble_thread/shci/shci.c ****   p_rsp = (TL_EvtPacket_t *)local_buffer;
 194              		.loc 1 107 3 view .LVU49
 195              	.LVL17:
 108:Middlewares/ST/STM32_WPAN/interface/patterns/ble_thread/shci/shci.c **** 
 109:Middlewares/ST/STM32_WPAN/interface/patterns/ble_thread/shci/shci.c ****   shci_send( SHCI_OPCODE_C2_FUS_FW_DELETE,
 196              		.loc 1 109 3 view .LVU50
 197 0004 6B46     		mov	r3, sp
 198 0006 0022     		movs	r2, #0
 199 0008 1146     		mov	r1, r2
 200 000a 4FF65540 		movw	r0, #64597
 201 000e FFF7FEFF 		bl	shci_send
 202              	.LVL18:
 110:Middlewares/ST/STM32_WPAN/interface/patterns/ble_thread/shci/shci.c ****              0,
 111:Middlewares/ST/STM32_WPAN/interface/patterns/ble_thread/shci/shci.c ****              0,
 112:Middlewares/ST/STM32_WPAN/interface/patterns/ble_thread/shci/shci.c ****              p_rsp );
 113:Middlewares/ST/STM32_WPAN/interface/patterns/ble_thread/shci/shci.c **** 
 114:Middlewares/ST/STM32_WPAN/interface/patterns/ble_thread/shci/shci.c ****   return (SHCI_CmdStatus_t)(((TL_CcEvt_t*)(p_rsp->evtserial.evt.payload))->payload[0]);
 203              		.loc 1 114 3 view .LVU51
 115:Middlewares/ST/STM32_WPAN/interface/patterns/ble_thread/shci/shci.c **** }
 204              		.loc 1 115 1 is_stmt 0 view .LVU52
 205 0012 9DF80E00 		ldrb	r0, [sp, #14]	@ zero_extendqisi2
 206 0016 05B0     		add	sp, sp, #20
 207              	.LCFI9:
 208              		.cfi_def_cfa_offset 4
 209              	.LVL19:
 210              		.loc 1 115 1 view .LVU53
 211              		@ sp needed
 212 0018 5DF804FB 		ldr	pc, [sp], #4
 213              		.loc 1 115 1 view .LVU54
 214              		.cfi_endproc
 215              	.LFE1109:
 217              		.section	.text.SHCI_C2_FUS_UpdateAuthKey,"ax",%progbits
 218              		.align	1
 219              		.global	SHCI_C2_FUS_UpdateAuthKey
 220              		.syntax unified
 221              		.thumb
 222              		.thumb_func
 223              		.fpu fpv4-sp-d16
 225              	SHCI_C2_FUS_UpdateAuthKey:
 226              	.LVL20:
 227              	.LFB1110:
 116:Middlewares/ST/STM32_WPAN/interface/patterns/ble_thread/shci/shci.c **** 
 117:Middlewares/ST/STM32_WPAN/interface/patterns/ble_thread/shci/shci.c **** SHCI_CmdStatus_t SHCI_C2_FUS_UpdateAuthKey( SHCI_C2_FUS_UpdateAuthKey_Cmd_Param_t *pParam )
 118:Middlewares/ST/STM32_WPAN/interface/patterns/ble_thread/shci/shci.c **** {
 228              		.loc 1 118 1 is_stmt 1 view -0
 229              		.cfi_startproc
ARM GAS  /var/folders/lt/l_qrc8c54t93n_phsj7cf5tc0000gn/T//ccRwmTUQ.s 			page 7


 230              		@ args = 0, pretend = 0, frame = 16
 231              		@ frame_needed = 0, uses_anonymous_args = 0
 232              		.loc 1 118 1 is_stmt 0 view .LVU56
 233 0000 00B5     		push	{lr}
 234              	.LCFI10:
 235              		.cfi_def_cfa_offset 4
 236              		.cfi_offset 14, -4
 237 0002 85B0     		sub	sp, sp, #20
 238              	.LCFI11:
 239              		.cfi_def_cfa_offset 24
 240 0004 0246     		mov	r2, r0
 119:Middlewares/ST/STM32_WPAN/interface/patterns/ble_thread/shci/shci.c ****   /**
 120:Middlewares/ST/STM32_WPAN/interface/patterns/ble_thread/shci/shci.c ****    * Buffer is large enough to hold command complete without payload
 121:Middlewares/ST/STM32_WPAN/interface/patterns/ble_thread/shci/shci.c ****    */
 122:Middlewares/ST/STM32_WPAN/interface/patterns/ble_thread/shci/shci.c ****   uint8_t local_buffer[TL_BLEEVT_CS_BUFFER_SIZE];
 241              		.loc 1 122 3 is_stmt 1 view .LVU57
 123:Middlewares/ST/STM32_WPAN/interface/patterns/ble_thread/shci/shci.c ****   TL_EvtPacket_t * p_rsp;
 242              		.loc 1 123 3 view .LVU58
 124:Middlewares/ST/STM32_WPAN/interface/patterns/ble_thread/shci/shci.c **** 
 125:Middlewares/ST/STM32_WPAN/interface/patterns/ble_thread/shci/shci.c ****   p_rsp = (TL_EvtPacket_t *)local_buffer;
 243              		.loc 1 125 3 view .LVU59
 244              	.LVL21:
 126:Middlewares/ST/STM32_WPAN/interface/patterns/ble_thread/shci/shci.c **** 
 127:Middlewares/ST/STM32_WPAN/interface/patterns/ble_thread/shci/shci.c ****   shci_send( SHCI_OPCODE_C2_FUS_UPDATE_AUTH_KEY,
 245              		.loc 1 127 3 view .LVU60
 246 0006 6B46     		mov	r3, sp
 247 0008 4121     		movs	r1, #65
 248 000a 4FF65640 		movw	r0, #64598
 249              	.LVL22:
 250              		.loc 1 127 3 is_stmt 0 view .LVU61
 251 000e FFF7FEFF 		bl	shci_send
 252              	.LVL23:
 128:Middlewares/ST/STM32_WPAN/interface/patterns/ble_thread/shci/shci.c ****              sizeof( SHCI_C2_FUS_UpdateAuthKey_Cmd_Param_t ),
 129:Middlewares/ST/STM32_WPAN/interface/patterns/ble_thread/shci/shci.c ****              (uint8_t*)pParam,
 130:Middlewares/ST/STM32_WPAN/interface/patterns/ble_thread/shci/shci.c ****              p_rsp );
 131:Middlewares/ST/STM32_WPAN/interface/patterns/ble_thread/shci/shci.c **** 
 132:Middlewares/ST/STM32_WPAN/interface/patterns/ble_thread/shci/shci.c ****   return (SHCI_CmdStatus_t)(((TL_CcEvt_t*)(p_rsp->evtserial.evt.payload))->payload[0]);
 253              		.loc 1 132 3 is_stmt 1 view .LVU62
 133:Middlewares/ST/STM32_WPAN/interface/patterns/ble_thread/shci/shci.c **** }
 254              		.loc 1 133 1 is_stmt 0 view .LVU63
 255 0012 9DF80E00 		ldrb	r0, [sp, #14]	@ zero_extendqisi2
 256 0016 05B0     		add	sp, sp, #20
 257              	.LCFI12:
 258              		.cfi_def_cfa_offset 4
 259              	.LVL24:
 260              		.loc 1 133 1 view .LVU64
 261              		@ sp needed
 262 0018 5DF804FB 		ldr	pc, [sp], #4
 263              		.loc 1 133 1 view .LVU65
 264              		.cfi_endproc
 265              	.LFE1110:
 267              		.section	.text.SHCI_C2_FUS_LockAuthKey,"ax",%progbits
 268              		.align	1
 269              		.global	SHCI_C2_FUS_LockAuthKey
 270              		.syntax unified
 271              		.thumb
 272              		.thumb_func
ARM GAS  /var/folders/lt/l_qrc8c54t93n_phsj7cf5tc0000gn/T//ccRwmTUQ.s 			page 8


 273              		.fpu fpv4-sp-d16
 275              	SHCI_C2_FUS_LockAuthKey:
 276              	.LFB1111:
 134:Middlewares/ST/STM32_WPAN/interface/patterns/ble_thread/shci/shci.c **** 
 135:Middlewares/ST/STM32_WPAN/interface/patterns/ble_thread/shci/shci.c **** SHCI_CmdStatus_t SHCI_C2_FUS_LockAuthKey( void )
 136:Middlewares/ST/STM32_WPAN/interface/patterns/ble_thread/shci/shci.c **** {
 277              		.loc 1 136 1 is_stmt 1 view -0
 278              		.cfi_startproc
 279              		@ args = 0, pretend = 0, frame = 16
 280              		@ frame_needed = 0, uses_anonymous_args = 0
 281 0000 00B5     		push	{lr}
 282              	.LCFI13:
 283              		.cfi_def_cfa_offset 4
 284              		.cfi_offset 14, -4
 285 0002 85B0     		sub	sp, sp, #20
 286              	.LCFI14:
 287              		.cfi_def_cfa_offset 24
 137:Middlewares/ST/STM32_WPAN/interface/patterns/ble_thread/shci/shci.c ****   /**
 138:Middlewares/ST/STM32_WPAN/interface/patterns/ble_thread/shci/shci.c ****    * Buffer is large enough to hold command complete without payload
 139:Middlewares/ST/STM32_WPAN/interface/patterns/ble_thread/shci/shci.c ****    */
 140:Middlewares/ST/STM32_WPAN/interface/patterns/ble_thread/shci/shci.c ****   uint8_t local_buffer[TL_BLEEVT_CS_BUFFER_SIZE];
 288              		.loc 1 140 3 view .LVU67
 141:Middlewares/ST/STM32_WPAN/interface/patterns/ble_thread/shci/shci.c ****   TL_EvtPacket_t * p_rsp;
 289              		.loc 1 141 3 view .LVU68
 142:Middlewares/ST/STM32_WPAN/interface/patterns/ble_thread/shci/shci.c **** 
 143:Middlewares/ST/STM32_WPAN/interface/patterns/ble_thread/shci/shci.c ****   p_rsp = (TL_EvtPacket_t *)local_buffer;
 290              		.loc 1 143 3 view .LVU69
 291              	.LVL25:
 144:Middlewares/ST/STM32_WPAN/interface/patterns/ble_thread/shci/shci.c **** 
 145:Middlewares/ST/STM32_WPAN/interface/patterns/ble_thread/shci/shci.c ****   shci_send( SHCI_OPCODE_C2_FUS_LOCK_AUTH_KEY,
 292              		.loc 1 145 3 view .LVU70
 293 0004 6B46     		mov	r3, sp
 294 0006 0022     		movs	r2, #0
 295 0008 1146     		mov	r1, r2
 296 000a 4FF65740 		movw	r0, #64599
 297 000e FFF7FEFF 		bl	shci_send
 298              	.LVL26:
 146:Middlewares/ST/STM32_WPAN/interface/patterns/ble_thread/shci/shci.c ****              0,
 147:Middlewares/ST/STM32_WPAN/interface/patterns/ble_thread/shci/shci.c ****              0,
 148:Middlewares/ST/STM32_WPAN/interface/patterns/ble_thread/shci/shci.c ****              p_rsp );
 149:Middlewares/ST/STM32_WPAN/interface/patterns/ble_thread/shci/shci.c **** 
 150:Middlewares/ST/STM32_WPAN/interface/patterns/ble_thread/shci/shci.c ****   return (SHCI_CmdStatus_t)(((TL_CcEvt_t*)(p_rsp->evtserial.evt.payload))->payload[0]);
 299              		.loc 1 150 3 view .LVU71
 151:Middlewares/ST/STM32_WPAN/interface/patterns/ble_thread/shci/shci.c **** }
 300              		.loc 1 151 1 is_stmt 0 view .LVU72
 301 0012 9DF80E00 		ldrb	r0, [sp, #14]	@ zero_extendqisi2
 302 0016 05B0     		add	sp, sp, #20
 303              	.LCFI15:
 304              		.cfi_def_cfa_offset 4
 305              	.LVL27:
 306              		.loc 1 151 1 view .LVU73
 307              		@ sp needed
 308 0018 5DF804FB 		ldr	pc, [sp], #4
 309              		.loc 1 151 1 view .LVU74
 310              		.cfi_endproc
 311              	.LFE1111:
 313              		.section	.text.SHCI_C2_FUS_StoreUsrKey,"ax",%progbits
ARM GAS  /var/folders/lt/l_qrc8c54t93n_phsj7cf5tc0000gn/T//ccRwmTUQ.s 			page 9


 314              		.align	1
 315              		.global	SHCI_C2_FUS_StoreUsrKey
 316              		.syntax unified
 317              		.thumb
 318              		.thumb_func
 319              		.fpu fpv4-sp-d16
 321              	SHCI_C2_FUS_StoreUsrKey:
 322              	.LVL28:
 323              	.LFB1112:
 152:Middlewares/ST/STM32_WPAN/interface/patterns/ble_thread/shci/shci.c **** 
 153:Middlewares/ST/STM32_WPAN/interface/patterns/ble_thread/shci/shci.c **** SHCI_CmdStatus_t SHCI_C2_FUS_StoreUsrKey( SHCI_C2_FUS_StoreUsrKey_Cmd_Param_t *pParam, uint8_t *p_k
 154:Middlewares/ST/STM32_WPAN/interface/patterns/ble_thread/shci/shci.c **** {
 324              		.loc 1 154 1 is_stmt 1 view -0
 325              		.cfi_startproc
 326              		@ args = 0, pretend = 0, frame = 16
 327              		@ frame_needed = 0, uses_anonymous_args = 0
 328              		.loc 1 154 1 is_stmt 0 view .LVU76
 329 0000 10B5     		push	{r4, lr}
 330              	.LCFI16:
 331              		.cfi_def_cfa_offset 8
 332              		.cfi_offset 4, -8
 333              		.cfi_offset 14, -4
 334 0002 84B0     		sub	sp, sp, #16
 335              	.LCFI17:
 336              		.cfi_def_cfa_offset 24
 337 0004 0246     		mov	r2, r0
 338 0006 0C46     		mov	r4, r1
 155:Middlewares/ST/STM32_WPAN/interface/patterns/ble_thread/shci/shci.c ****   /**
 156:Middlewares/ST/STM32_WPAN/interface/patterns/ble_thread/shci/shci.c ****    * Buffer is large enough to hold command complete without payload
 157:Middlewares/ST/STM32_WPAN/interface/patterns/ble_thread/shci/shci.c ****    */
 158:Middlewares/ST/STM32_WPAN/interface/patterns/ble_thread/shci/shci.c ****   uint8_t local_buffer[TL_BLEEVT_CS_BUFFER_SIZE + 1];
 339              		.loc 1 158 3 is_stmt 1 view .LVU77
 159:Middlewares/ST/STM32_WPAN/interface/patterns/ble_thread/shci/shci.c ****   TL_EvtPacket_t * p_rsp;
 340              		.loc 1 159 3 view .LVU78
 160:Middlewares/ST/STM32_WPAN/interface/patterns/ble_thread/shci/shci.c ****   uint8_t local_payload_len;
 341              		.loc 1 160 3 view .LVU79
 161:Middlewares/ST/STM32_WPAN/interface/patterns/ble_thread/shci/shci.c **** 
 162:Middlewares/ST/STM32_WPAN/interface/patterns/ble_thread/shci/shci.c ****   if(pParam->KeyType == KEYTYPE_ENCRYPTED)
 342              		.loc 1 162 3 view .LVU80
 343              		.loc 1 162 12 is_stmt 0 view .LVU81
 344 0008 0378     		ldrb	r3, [r0]	@ zero_extendqisi2
 345              		.loc 1 162 5 view .LVU82
 346 000a 032B     		cmp	r3, #3
 347 000c 0ED0     		beq	.L19
 163:Middlewares/ST/STM32_WPAN/interface/patterns/ble_thread/shci/shci.c ****   {
 164:Middlewares/ST/STM32_WPAN/interface/patterns/ble_thread/shci/shci.c ****     /**
 165:Middlewares/ST/STM32_WPAN/interface/patterns/ble_thread/shci/shci.c ****      * When the key is encrypted, the 12 bytes IV Key is included in the payload as well
 166:Middlewares/ST/STM32_WPAN/interface/patterns/ble_thread/shci/shci.c ****      * The IV key is always 12 bytes
 167:Middlewares/ST/STM32_WPAN/interface/patterns/ble_thread/shci/shci.c ****      */
 168:Middlewares/ST/STM32_WPAN/interface/patterns/ble_thread/shci/shci.c ****     local_payload_len = pParam->KeySize + 2 + 12;
 169:Middlewares/ST/STM32_WPAN/interface/patterns/ble_thread/shci/shci.c ****   }
 170:Middlewares/ST/STM32_WPAN/interface/patterns/ble_thread/shci/shci.c ****   else
 171:Middlewares/ST/STM32_WPAN/interface/patterns/ble_thread/shci/shci.c ****   {
 172:Middlewares/ST/STM32_WPAN/interface/patterns/ble_thread/shci/shci.c ****     local_payload_len = pParam->KeySize + 2;
 348              		.loc 1 172 5 is_stmt 1 view .LVU83
 349              		.loc 1 172 31 is_stmt 0 view .LVU84
 350 000e 4378     		ldrb	r3, [r0, #1]	@ zero_extendqisi2
ARM GAS  /var/folders/lt/l_qrc8c54t93n_phsj7cf5tc0000gn/T//ccRwmTUQ.s 			page 10


 351              		.loc 1 172 23 view .LVU85
 352 0010 0233     		adds	r3, r3, #2
 353 0012 D9B2     		uxtb	r1, r3
 354              	.LVL29:
 355              	.L17:
 173:Middlewares/ST/STM32_WPAN/interface/patterns/ble_thread/shci/shci.c ****   }
 174:Middlewares/ST/STM32_WPAN/interface/patterns/ble_thread/shci/shci.c **** 
 175:Middlewares/ST/STM32_WPAN/interface/patterns/ble_thread/shci/shci.c ****   p_rsp = (TL_EvtPacket_t *)local_buffer;
 356              		.loc 1 175 3 is_stmt 1 view .LVU86
 176:Middlewares/ST/STM32_WPAN/interface/patterns/ble_thread/shci/shci.c **** 
 177:Middlewares/ST/STM32_WPAN/interface/patterns/ble_thread/shci/shci.c ****   shci_send( SHCI_OPCODE_C2_FUS_STORE_USR_KEY,
 357              		.loc 1 177 3 view .LVU87
 358 0014 6B46     		mov	r3, sp
 359 0016 4FF65840 		movw	r0, #64600
 360              	.LVL30:
 361              		.loc 1 177 3 is_stmt 0 view .LVU88
 362 001a FFF7FEFF 		bl	shci_send
 363              	.LVL31:
 178:Middlewares/ST/STM32_WPAN/interface/patterns/ble_thread/shci/shci.c ****              local_payload_len ,
 179:Middlewares/ST/STM32_WPAN/interface/patterns/ble_thread/shci/shci.c ****              (uint8_t*)pParam,
 180:Middlewares/ST/STM32_WPAN/interface/patterns/ble_thread/shci/shci.c ****              p_rsp );
 181:Middlewares/ST/STM32_WPAN/interface/patterns/ble_thread/shci/shci.c **** 
 182:Middlewares/ST/STM32_WPAN/interface/patterns/ble_thread/shci/shci.c ****   *p_key_index = (((TL_CcEvt_t*)(p_rsp->evtserial.evt.payload))->payload[1]);
 364              		.loc 1 182 3 is_stmt 1 view .LVU89
 365              		.loc 1 182 73 is_stmt 0 view .LVU90
 366 001e 9DF80F30 		ldrb	r3, [sp, #15]	@ zero_extendqisi2
 367              		.loc 1 182 16 view .LVU91
 368 0022 2370     		strb	r3, [r4]
 183:Middlewares/ST/STM32_WPAN/interface/patterns/ble_thread/shci/shci.c **** 
 184:Middlewares/ST/STM32_WPAN/interface/patterns/ble_thread/shci/shci.c ****   return (SHCI_CmdStatus_t)(((TL_CcEvt_t*)(p_rsp->evtserial.evt.payload))->payload[0]);
 369              		.loc 1 184 3 is_stmt 1 view .LVU92
 185:Middlewares/ST/STM32_WPAN/interface/patterns/ble_thread/shci/shci.c **** }
 370              		.loc 1 185 1 is_stmt 0 view .LVU93
 371 0024 9DF80E00 		ldrb	r0, [sp, #14]	@ zero_extendqisi2
 372 0028 04B0     		add	sp, sp, #16
 373              	.LCFI18:
 374              		.cfi_remember_state
 375              		.cfi_def_cfa_offset 8
 376              	.LVL32:
 377              		.loc 1 185 1 view .LVU94
 378              		@ sp needed
 379 002a 10BD     		pop	{r4, pc}
 380              	.LVL33:
 381              	.L19:
 382              	.LCFI19:
 383              		.cfi_restore_state
 168:Middlewares/ST/STM32_WPAN/interface/patterns/ble_thread/shci/shci.c ****   }
 384              		.loc 1 168 5 is_stmt 1 view .LVU95
 168:Middlewares/ST/STM32_WPAN/interface/patterns/ble_thread/shci/shci.c ****   }
 385              		.loc 1 168 31 is_stmt 0 view .LVU96
 386 002c 4378     		ldrb	r3, [r0, #1]	@ zero_extendqisi2
 168:Middlewares/ST/STM32_WPAN/interface/patterns/ble_thread/shci/shci.c ****   }
 387              		.loc 1 168 23 view .LVU97
 388 002e 0E33     		adds	r3, r3, #14
 389 0030 D9B2     		uxtb	r1, r3
 390              	.LVL34:
 168:Middlewares/ST/STM32_WPAN/interface/patterns/ble_thread/shci/shci.c ****   }
ARM GAS  /var/folders/lt/l_qrc8c54t93n_phsj7cf5tc0000gn/T//ccRwmTUQ.s 			page 11


 391              		.loc 1 168 23 view .LVU98
 392 0032 EFE7     		b	.L17
 393              		.cfi_endproc
 394              	.LFE1112:
 396              		.section	.text.SHCI_C2_FUS_LoadUsrKey,"ax",%progbits
 397              		.align	1
 398              		.global	SHCI_C2_FUS_LoadUsrKey
 399              		.syntax unified
 400              		.thumb
 401              		.thumb_func
 402              		.fpu fpv4-sp-d16
 404              	SHCI_C2_FUS_LoadUsrKey:
 405              	.LVL35:
 406              	.LFB1113:
 186:Middlewares/ST/STM32_WPAN/interface/patterns/ble_thread/shci/shci.c **** 
 187:Middlewares/ST/STM32_WPAN/interface/patterns/ble_thread/shci/shci.c **** SHCI_CmdStatus_t SHCI_C2_FUS_LoadUsrKey( uint8_t key_index )
 188:Middlewares/ST/STM32_WPAN/interface/patterns/ble_thread/shci/shci.c **** {
 407              		.loc 1 188 1 is_stmt 1 view -0
 408              		.cfi_startproc
 409              		@ args = 0, pretend = 0, frame = 16
 410              		@ frame_needed = 0, uses_anonymous_args = 0
 411              		.loc 1 188 1 is_stmt 0 view .LVU100
 412 0000 00B5     		push	{lr}
 413              	.LCFI20:
 414              		.cfi_def_cfa_offset 4
 415              		.cfi_offset 14, -4
 416 0002 85B0     		sub	sp, sp, #20
 417              	.LCFI21:
 418              		.cfi_def_cfa_offset 24
 189:Middlewares/ST/STM32_WPAN/interface/patterns/ble_thread/shci/shci.c ****   /**
 190:Middlewares/ST/STM32_WPAN/interface/patterns/ble_thread/shci/shci.c ****    * Buffer is large enough to hold command complete without payload
 191:Middlewares/ST/STM32_WPAN/interface/patterns/ble_thread/shci/shci.c ****    */
 192:Middlewares/ST/STM32_WPAN/interface/patterns/ble_thread/shci/shci.c ****   uint8_t local_buffer[TL_BLEEVT_CS_BUFFER_SIZE];
 419              		.loc 1 192 3 is_stmt 1 view .LVU101
 193:Middlewares/ST/STM32_WPAN/interface/patterns/ble_thread/shci/shci.c ****   TL_EvtPacket_t * p_rsp;
 420              		.loc 1 193 3 view .LVU102
 194:Middlewares/ST/STM32_WPAN/interface/patterns/ble_thread/shci/shci.c **** 
 195:Middlewares/ST/STM32_WPAN/interface/patterns/ble_thread/shci/shci.c ****   p_rsp = (TL_EvtPacket_t *)local_buffer;
 421              		.loc 1 195 3 view .LVU103
 422              	.LVL36:
 196:Middlewares/ST/STM32_WPAN/interface/patterns/ble_thread/shci/shci.c **** 
 197:Middlewares/ST/STM32_WPAN/interface/patterns/ble_thread/shci/shci.c ****   local_buffer[0] = key_index;
 423              		.loc 1 197 3 view .LVU104
 424              		.loc 1 197 19 is_stmt 0 view .LVU105
 425 0004 8DF80000 		strb	r0, [sp]
 198:Middlewares/ST/STM32_WPAN/interface/patterns/ble_thread/shci/shci.c **** 
 199:Middlewares/ST/STM32_WPAN/interface/patterns/ble_thread/shci/shci.c ****   shci_send( SHCI_OPCODE_C2_FUS_LOAD_USR_KEY,
 426              		.loc 1 199 3 is_stmt 1 view .LVU106
 427 0008 6B46     		mov	r3, sp
 428 000a 6A46     		mov	r2, sp
 429 000c 0121     		movs	r1, #1
 430 000e 4FF65940 		movw	r0, #64601
 431              	.LVL37:
 432              		.loc 1 199 3 is_stmt 0 view .LVU107
 433 0012 FFF7FEFF 		bl	shci_send
 434              	.LVL38:
 200:Middlewares/ST/STM32_WPAN/interface/patterns/ble_thread/shci/shci.c ****              1,
ARM GAS  /var/folders/lt/l_qrc8c54t93n_phsj7cf5tc0000gn/T//ccRwmTUQ.s 			page 12


 201:Middlewares/ST/STM32_WPAN/interface/patterns/ble_thread/shci/shci.c ****              local_buffer,
 202:Middlewares/ST/STM32_WPAN/interface/patterns/ble_thread/shci/shci.c ****              p_rsp );
 203:Middlewares/ST/STM32_WPAN/interface/patterns/ble_thread/shci/shci.c **** 
 204:Middlewares/ST/STM32_WPAN/interface/patterns/ble_thread/shci/shci.c ****   return (SHCI_CmdStatus_t)(((TL_CcEvt_t*)(p_rsp->evtserial.evt.payload))->payload[0]);
 435              		.loc 1 204 3 is_stmt 1 view .LVU108
 205:Middlewares/ST/STM32_WPAN/interface/patterns/ble_thread/shci/shci.c **** }
 436              		.loc 1 205 1 is_stmt 0 view .LVU109
 437 0016 9DF80E00 		ldrb	r0, [sp, #14]	@ zero_extendqisi2
 438 001a 05B0     		add	sp, sp, #20
 439              	.LCFI22:
 440              		.cfi_def_cfa_offset 4
 441              	.LVL39:
 442              		.loc 1 205 1 view .LVU110
 443              		@ sp needed
 444 001c 5DF804FB 		ldr	pc, [sp], #4
 445              		.loc 1 205 1 view .LVU111
 446              		.cfi_endproc
 447              	.LFE1113:
 449              		.section	.text.SHCI_C2_FUS_StartWs,"ax",%progbits
 450              		.align	1
 451              		.global	SHCI_C2_FUS_StartWs
 452              		.syntax unified
 453              		.thumb
 454              		.thumb_func
 455              		.fpu fpv4-sp-d16
 457              	SHCI_C2_FUS_StartWs:
 458              	.LFB1114:
 206:Middlewares/ST/STM32_WPAN/interface/patterns/ble_thread/shci/shci.c **** 
 207:Middlewares/ST/STM32_WPAN/interface/patterns/ble_thread/shci/shci.c **** SHCI_CmdStatus_t SHCI_C2_FUS_StartWs( void )
 208:Middlewares/ST/STM32_WPAN/interface/patterns/ble_thread/shci/shci.c **** {
 459              		.loc 1 208 1 is_stmt 1 view -0
 460              		.cfi_startproc
 461              		@ args = 0, pretend = 0, frame = 16
 462              		@ frame_needed = 0, uses_anonymous_args = 0
 463 0000 00B5     		push	{lr}
 464              	.LCFI23:
 465              		.cfi_def_cfa_offset 4
 466              		.cfi_offset 14, -4
 467 0002 85B0     		sub	sp, sp, #20
 468              	.LCFI24:
 469              		.cfi_def_cfa_offset 24
 209:Middlewares/ST/STM32_WPAN/interface/patterns/ble_thread/shci/shci.c ****   /**
 210:Middlewares/ST/STM32_WPAN/interface/patterns/ble_thread/shci/shci.c ****    * Buffer is large enough to hold command complete without payload
 211:Middlewares/ST/STM32_WPAN/interface/patterns/ble_thread/shci/shci.c ****    */
 212:Middlewares/ST/STM32_WPAN/interface/patterns/ble_thread/shci/shci.c ****   uint8_t local_buffer[TL_BLEEVT_CS_BUFFER_SIZE];
 470              		.loc 1 212 3 view .LVU113
 213:Middlewares/ST/STM32_WPAN/interface/patterns/ble_thread/shci/shci.c ****   TL_EvtPacket_t * p_rsp;
 471              		.loc 1 213 3 view .LVU114
 214:Middlewares/ST/STM32_WPAN/interface/patterns/ble_thread/shci/shci.c **** 
 215:Middlewares/ST/STM32_WPAN/interface/patterns/ble_thread/shci/shci.c ****   p_rsp = (TL_EvtPacket_t *)local_buffer;
 472              		.loc 1 215 3 view .LVU115
 473              	.LVL40:
 216:Middlewares/ST/STM32_WPAN/interface/patterns/ble_thread/shci/shci.c **** 
 217:Middlewares/ST/STM32_WPAN/interface/patterns/ble_thread/shci/shci.c ****   shci_send( SHCI_OPCODE_C2_FUS_START_WS,
 474              		.loc 1 217 3 view .LVU116
 475 0004 6B46     		mov	r3, sp
 476 0006 0022     		movs	r2, #0
ARM GAS  /var/folders/lt/l_qrc8c54t93n_phsj7cf5tc0000gn/T//ccRwmTUQ.s 			page 13


 477 0008 1146     		mov	r1, r2
 478 000a 4FF65A40 		movw	r0, #64602
 479 000e FFF7FEFF 		bl	shci_send
 480              	.LVL41:
 218:Middlewares/ST/STM32_WPAN/interface/patterns/ble_thread/shci/shci.c ****              0,
 219:Middlewares/ST/STM32_WPAN/interface/patterns/ble_thread/shci/shci.c ****              0,
 220:Middlewares/ST/STM32_WPAN/interface/patterns/ble_thread/shci/shci.c ****              p_rsp );
 221:Middlewares/ST/STM32_WPAN/interface/patterns/ble_thread/shci/shci.c **** 
 222:Middlewares/ST/STM32_WPAN/interface/patterns/ble_thread/shci/shci.c ****   return (SHCI_CmdStatus_t)(((TL_CcEvt_t*)(p_rsp->evtserial.evt.payload))->payload[0]);
 481              		.loc 1 222 3 view .LVU117
 223:Middlewares/ST/STM32_WPAN/interface/patterns/ble_thread/shci/shci.c **** }
 482              		.loc 1 223 1 is_stmt 0 view .LVU118
 483 0012 9DF80E00 		ldrb	r0, [sp, #14]	@ zero_extendqisi2
 484 0016 05B0     		add	sp, sp, #20
 485              	.LCFI25:
 486              		.cfi_def_cfa_offset 4
 487              	.LVL42:
 488              		.loc 1 223 1 view .LVU119
 489              		@ sp needed
 490 0018 5DF804FB 		ldr	pc, [sp], #4
 491              		.loc 1 223 1 view .LVU120
 492              		.cfi_endproc
 493              	.LFE1114:
 495              		.section	.text.SHCI_C2_FUS_LockUsrKey,"ax",%progbits
 496              		.align	1
 497              		.global	SHCI_C2_FUS_LockUsrKey
 498              		.syntax unified
 499              		.thumb
 500              		.thumb_func
 501              		.fpu fpv4-sp-d16
 503              	SHCI_C2_FUS_LockUsrKey:
 504              	.LVL43:
 505              	.LFB1115:
 224:Middlewares/ST/STM32_WPAN/interface/patterns/ble_thread/shci/shci.c **** 
 225:Middlewares/ST/STM32_WPAN/interface/patterns/ble_thread/shci/shci.c **** SHCI_CmdStatus_t SHCI_C2_FUS_LockUsrKey( uint8_t key_index )
 226:Middlewares/ST/STM32_WPAN/interface/patterns/ble_thread/shci/shci.c **** {
 506              		.loc 1 226 1 is_stmt 1 view -0
 507              		.cfi_startproc
 508              		@ args = 0, pretend = 0, frame = 16
 509              		@ frame_needed = 0, uses_anonymous_args = 0
 510              		.loc 1 226 1 is_stmt 0 view .LVU122
 511 0000 00B5     		push	{lr}
 512              	.LCFI26:
 513              		.cfi_def_cfa_offset 4
 514              		.cfi_offset 14, -4
 515 0002 85B0     		sub	sp, sp, #20
 516              	.LCFI27:
 517              		.cfi_def_cfa_offset 24
 227:Middlewares/ST/STM32_WPAN/interface/patterns/ble_thread/shci/shci.c ****   /**
 228:Middlewares/ST/STM32_WPAN/interface/patterns/ble_thread/shci/shci.c ****    * Buffer is large enough to hold command complete without payload
 229:Middlewares/ST/STM32_WPAN/interface/patterns/ble_thread/shci/shci.c ****    */
 230:Middlewares/ST/STM32_WPAN/interface/patterns/ble_thread/shci/shci.c ****   uint8_t local_buffer[TL_BLEEVT_CS_BUFFER_SIZE];
 518              		.loc 1 230 3 is_stmt 1 view .LVU123
 231:Middlewares/ST/STM32_WPAN/interface/patterns/ble_thread/shci/shci.c ****   TL_EvtPacket_t * p_rsp;
 519              		.loc 1 231 3 view .LVU124
 232:Middlewares/ST/STM32_WPAN/interface/patterns/ble_thread/shci/shci.c **** 
 233:Middlewares/ST/STM32_WPAN/interface/patterns/ble_thread/shci/shci.c ****   p_rsp = (TL_EvtPacket_t *)local_buffer;
ARM GAS  /var/folders/lt/l_qrc8c54t93n_phsj7cf5tc0000gn/T//ccRwmTUQ.s 			page 14


 520              		.loc 1 233 3 view .LVU125
 521              	.LVL44:
 234:Middlewares/ST/STM32_WPAN/interface/patterns/ble_thread/shci/shci.c **** 
 235:Middlewares/ST/STM32_WPAN/interface/patterns/ble_thread/shci/shci.c ****   local_buffer[0] = key_index;
 522              		.loc 1 235 3 view .LVU126
 523              		.loc 1 235 19 is_stmt 0 view .LVU127
 524 0004 8DF80000 		strb	r0, [sp]
 236:Middlewares/ST/STM32_WPAN/interface/patterns/ble_thread/shci/shci.c **** 
 237:Middlewares/ST/STM32_WPAN/interface/patterns/ble_thread/shci/shci.c ****   shci_send( SHCI_OPCODE_C2_FUS_LOCK_USR_KEY,
 525              		.loc 1 237 3 is_stmt 1 view .LVU128
 526 0008 6B46     		mov	r3, sp
 527 000a 6A46     		mov	r2, sp
 528 000c 0121     		movs	r1, #1
 529 000e 4FF65D40 		movw	r0, #64605
 530              	.LVL45:
 531              		.loc 1 237 3 is_stmt 0 view .LVU129
 532 0012 FFF7FEFF 		bl	shci_send
 533              	.LVL46:
 238:Middlewares/ST/STM32_WPAN/interface/patterns/ble_thread/shci/shci.c ****              1,
 239:Middlewares/ST/STM32_WPAN/interface/patterns/ble_thread/shci/shci.c ****              local_buffer,
 240:Middlewares/ST/STM32_WPAN/interface/patterns/ble_thread/shci/shci.c ****              p_rsp );
 241:Middlewares/ST/STM32_WPAN/interface/patterns/ble_thread/shci/shci.c **** 
 242:Middlewares/ST/STM32_WPAN/interface/patterns/ble_thread/shci/shci.c ****   return (SHCI_CmdStatus_t)(((TL_CcEvt_t*)(p_rsp->evtserial.evt.payload))->payload[0]);
 534              		.loc 1 242 3 is_stmt 1 view .LVU130
 243:Middlewares/ST/STM32_WPAN/interface/patterns/ble_thread/shci/shci.c **** }
 535              		.loc 1 243 1 is_stmt 0 view .LVU131
 536 0016 9DF80E00 		ldrb	r0, [sp, #14]	@ zero_extendqisi2
 537 001a 05B0     		add	sp, sp, #20
 538              	.LCFI28:
 539              		.cfi_def_cfa_offset 4
 540              	.LVL47:
 541              		.loc 1 243 1 view .LVU132
 542              		@ sp needed
 543 001c 5DF804FB 		ldr	pc, [sp], #4
 544              		.loc 1 243 1 view .LVU133
 545              		.cfi_endproc
 546              	.LFE1115:
 548              		.section	.text.SHCI_C2_FUS_UnloadUsrKey,"ax",%progbits
 549              		.align	1
 550              		.global	SHCI_C2_FUS_UnloadUsrKey
 551              		.syntax unified
 552              		.thumb
 553              		.thumb_func
 554              		.fpu fpv4-sp-d16
 556              	SHCI_C2_FUS_UnloadUsrKey:
 557              	.LVL48:
 558              	.LFB1116:
 244:Middlewares/ST/STM32_WPAN/interface/patterns/ble_thread/shci/shci.c **** 
 245:Middlewares/ST/STM32_WPAN/interface/patterns/ble_thread/shci/shci.c **** SHCI_CmdStatus_t SHCI_C2_FUS_UnloadUsrKey( uint8_t key_index )
 246:Middlewares/ST/STM32_WPAN/interface/patterns/ble_thread/shci/shci.c **** {
 559              		.loc 1 246 1 is_stmt 1 view -0
 560              		.cfi_startproc
 561              		@ args = 0, pretend = 0, frame = 16
 562              		@ frame_needed = 0, uses_anonymous_args = 0
 563              		.loc 1 246 1 is_stmt 0 view .LVU135
 564 0000 00B5     		push	{lr}
 565              	.LCFI29:
ARM GAS  /var/folders/lt/l_qrc8c54t93n_phsj7cf5tc0000gn/T//ccRwmTUQ.s 			page 15


 566              		.cfi_def_cfa_offset 4
 567              		.cfi_offset 14, -4
 568 0002 85B0     		sub	sp, sp, #20
 569              	.LCFI30:
 570              		.cfi_def_cfa_offset 24
 247:Middlewares/ST/STM32_WPAN/interface/patterns/ble_thread/shci/shci.c ****   /**
 248:Middlewares/ST/STM32_WPAN/interface/patterns/ble_thread/shci/shci.c ****    * Buffer is large enough to hold command complete without payload
 249:Middlewares/ST/STM32_WPAN/interface/patterns/ble_thread/shci/shci.c ****    */
 250:Middlewares/ST/STM32_WPAN/interface/patterns/ble_thread/shci/shci.c ****   uint8_t local_buffer[TL_BLEEVT_CS_BUFFER_SIZE];
 571              		.loc 1 250 3 is_stmt 1 view .LVU136
 251:Middlewares/ST/STM32_WPAN/interface/patterns/ble_thread/shci/shci.c ****   TL_EvtPacket_t * p_rsp;
 572              		.loc 1 251 3 view .LVU137
 252:Middlewares/ST/STM32_WPAN/interface/patterns/ble_thread/shci/shci.c **** 
 253:Middlewares/ST/STM32_WPAN/interface/patterns/ble_thread/shci/shci.c ****   p_rsp = (TL_EvtPacket_t *)local_buffer;
 573              		.loc 1 253 3 view .LVU138
 574              	.LVL49:
 254:Middlewares/ST/STM32_WPAN/interface/patterns/ble_thread/shci/shci.c **** 
 255:Middlewares/ST/STM32_WPAN/interface/patterns/ble_thread/shci/shci.c ****   local_buffer[0] = key_index;
 575              		.loc 1 255 3 view .LVU139
 576              		.loc 1 255 19 is_stmt 0 view .LVU140
 577 0004 8DF80000 		strb	r0, [sp]
 256:Middlewares/ST/STM32_WPAN/interface/patterns/ble_thread/shci/shci.c **** 
 257:Middlewares/ST/STM32_WPAN/interface/patterns/ble_thread/shci/shci.c ****   shci_send( SHCI_OPCODE_C2_FUS_UNLOAD_USR_KEY,
 578              		.loc 1 257 3 is_stmt 1 view .LVU141
 579 0008 6B46     		mov	r3, sp
 580 000a 6A46     		mov	r2, sp
 581 000c 0121     		movs	r1, #1
 582 000e 4FF65E40 		movw	r0, #64606
 583              	.LVL50:
 584              		.loc 1 257 3 is_stmt 0 view .LVU142
 585 0012 FFF7FEFF 		bl	shci_send
 586              	.LVL51:
 258:Middlewares/ST/STM32_WPAN/interface/patterns/ble_thread/shci/shci.c ****              1,
 259:Middlewares/ST/STM32_WPAN/interface/patterns/ble_thread/shci/shci.c ****              local_buffer,
 260:Middlewares/ST/STM32_WPAN/interface/patterns/ble_thread/shci/shci.c ****              p_rsp );
 261:Middlewares/ST/STM32_WPAN/interface/patterns/ble_thread/shci/shci.c **** 
 262:Middlewares/ST/STM32_WPAN/interface/patterns/ble_thread/shci/shci.c ****   return (SHCI_CmdStatus_t)(((TL_CcEvt_t*)(p_rsp->evtserial.evt.payload))->payload[0]);
 587              		.loc 1 262 3 is_stmt 1 view .LVU143
 263:Middlewares/ST/STM32_WPAN/interface/patterns/ble_thread/shci/shci.c **** }
 588              		.loc 1 263 1 is_stmt 0 view .LVU144
 589 0016 9DF80E00 		ldrb	r0, [sp, #14]	@ zero_extendqisi2
 590 001a 05B0     		add	sp, sp, #20
 591              	.LCFI31:
 592              		.cfi_def_cfa_offset 4
 593              	.LVL52:
 594              		.loc 1 263 1 view .LVU145
 595              		@ sp needed
 596 001c 5DF804FB 		ldr	pc, [sp], #4
 597              		.loc 1 263 1 view .LVU146
 598              		.cfi_endproc
 599              	.LFE1116:
 601              		.section	.text.SHCI_C2_FUS_ActivateAntiRollback,"ax",%progbits
 602              		.align	1
 603              		.global	SHCI_C2_FUS_ActivateAntiRollback
 604              		.syntax unified
 605              		.thumb
 606              		.thumb_func
ARM GAS  /var/folders/lt/l_qrc8c54t93n_phsj7cf5tc0000gn/T//ccRwmTUQ.s 			page 16


 607              		.fpu fpv4-sp-d16
 609              	SHCI_C2_FUS_ActivateAntiRollback:
 610              	.LFB1117:
 264:Middlewares/ST/STM32_WPAN/interface/patterns/ble_thread/shci/shci.c **** 
 265:Middlewares/ST/STM32_WPAN/interface/patterns/ble_thread/shci/shci.c **** SHCI_CmdStatus_t SHCI_C2_FUS_ActivateAntiRollback( void )
 266:Middlewares/ST/STM32_WPAN/interface/patterns/ble_thread/shci/shci.c **** {
 611              		.loc 1 266 1 is_stmt 1 view -0
 612              		.cfi_startproc
 613              		@ args = 0, pretend = 0, frame = 16
 614              		@ frame_needed = 0, uses_anonymous_args = 0
 615 0000 00B5     		push	{lr}
 616              	.LCFI32:
 617              		.cfi_def_cfa_offset 4
 618              		.cfi_offset 14, -4
 619 0002 85B0     		sub	sp, sp, #20
 620              	.LCFI33:
 621              		.cfi_def_cfa_offset 24
 267:Middlewares/ST/STM32_WPAN/interface/patterns/ble_thread/shci/shci.c ****   /**
 268:Middlewares/ST/STM32_WPAN/interface/patterns/ble_thread/shci/shci.c ****    * Buffer is large enough to hold command complete without payload
 269:Middlewares/ST/STM32_WPAN/interface/patterns/ble_thread/shci/shci.c ****    */
 270:Middlewares/ST/STM32_WPAN/interface/patterns/ble_thread/shci/shci.c ****   uint8_t local_buffer[TL_BLEEVT_CS_BUFFER_SIZE];
 622              		.loc 1 270 3 view .LVU148
 271:Middlewares/ST/STM32_WPAN/interface/patterns/ble_thread/shci/shci.c ****   TL_EvtPacket_t * p_rsp;
 623              		.loc 1 271 3 view .LVU149
 272:Middlewares/ST/STM32_WPAN/interface/patterns/ble_thread/shci/shci.c **** 
 273:Middlewares/ST/STM32_WPAN/interface/patterns/ble_thread/shci/shci.c ****   p_rsp = (TL_EvtPacket_t *)local_buffer;
 624              		.loc 1 273 3 view .LVU150
 625              	.LVL53:
 274:Middlewares/ST/STM32_WPAN/interface/patterns/ble_thread/shci/shci.c **** 
 275:Middlewares/ST/STM32_WPAN/interface/patterns/ble_thread/shci/shci.c ****   shci_send( SHCI_OPCODE_C2_FUS_ACTIVATE_ANTIROLLBACK,
 626              		.loc 1 275 3 view .LVU151
 627 0004 6B46     		mov	r3, sp
 628 0006 0022     		movs	r2, #0
 629 0008 1146     		mov	r1, r2
 630 000a 4FF65F40 		movw	r0, #64607
 631 000e FFF7FEFF 		bl	shci_send
 632              	.LVL54:
 276:Middlewares/ST/STM32_WPAN/interface/patterns/ble_thread/shci/shci.c ****              0,
 277:Middlewares/ST/STM32_WPAN/interface/patterns/ble_thread/shci/shci.c ****              0,
 278:Middlewares/ST/STM32_WPAN/interface/patterns/ble_thread/shci/shci.c ****              p_rsp );
 279:Middlewares/ST/STM32_WPAN/interface/patterns/ble_thread/shci/shci.c **** 
 280:Middlewares/ST/STM32_WPAN/interface/patterns/ble_thread/shci/shci.c ****   return (SHCI_CmdStatus_t)(((TL_CcEvt_t*)(p_rsp->evtserial.evt.payload))->payload[0]);
 633              		.loc 1 280 3 view .LVU152
 281:Middlewares/ST/STM32_WPAN/interface/patterns/ble_thread/shci/shci.c **** }
 634              		.loc 1 281 1 is_stmt 0 view .LVU153
 635 0012 9DF80E00 		ldrb	r0, [sp, #14]	@ zero_extendqisi2
 636 0016 05B0     		add	sp, sp, #20
 637              	.LCFI34:
 638              		.cfi_def_cfa_offset 4
 639              	.LVL55:
 640              		.loc 1 281 1 view .LVU154
 641              		@ sp needed
 642 0018 5DF804FB 		ldr	pc, [sp], #4
 643              		.loc 1 281 1 view .LVU155
 644              		.cfi_endproc
 645              	.LFE1117:
 647              		.section	.text.SHCI_C2_BLE_Init,"ax",%progbits
ARM GAS  /var/folders/lt/l_qrc8c54t93n_phsj7cf5tc0000gn/T//ccRwmTUQ.s 			page 17


 648              		.align	1
 649              		.global	SHCI_C2_BLE_Init
 650              		.syntax unified
 651              		.thumb
 652              		.thumb_func
 653              		.fpu fpv4-sp-d16
 655              	SHCI_C2_BLE_Init:
 656              	.LVL56:
 657              	.LFB1118:
 282:Middlewares/ST/STM32_WPAN/interface/patterns/ble_thread/shci/shci.c **** 
 283:Middlewares/ST/STM32_WPAN/interface/patterns/ble_thread/shci/shci.c **** SHCI_CmdStatus_t SHCI_C2_BLE_Init( SHCI_C2_Ble_Init_Cmd_Packet_t *pCmdPacket )
 284:Middlewares/ST/STM32_WPAN/interface/patterns/ble_thread/shci/shci.c **** {
 658              		.loc 1 284 1 is_stmt 1 view -0
 659              		.cfi_startproc
 660              		@ args = 0, pretend = 0, frame = 16
 661              		@ frame_needed = 0, uses_anonymous_args = 0
 662              		.loc 1 284 1 is_stmt 0 view .LVU157
 663 0000 00B5     		push	{lr}
 664              	.LCFI35:
 665              		.cfi_def_cfa_offset 4
 666              		.cfi_offset 14, -4
 667 0002 85B0     		sub	sp, sp, #20
 668              	.LCFI36:
 669              		.cfi_def_cfa_offset 24
 285:Middlewares/ST/STM32_WPAN/interface/patterns/ble_thread/shci/shci.c ****   /**
 286:Middlewares/ST/STM32_WPAN/interface/patterns/ble_thread/shci/shci.c ****    * Buffer is large enough to hold command complete without payload
 287:Middlewares/ST/STM32_WPAN/interface/patterns/ble_thread/shci/shci.c ****    */
 288:Middlewares/ST/STM32_WPAN/interface/patterns/ble_thread/shci/shci.c ****   uint8_t local_buffer[TL_BLEEVT_CS_BUFFER_SIZE];
 670              		.loc 1 288 3 is_stmt 1 view .LVU158
 289:Middlewares/ST/STM32_WPAN/interface/patterns/ble_thread/shci/shci.c ****   TL_EvtPacket_t * p_rsp;
 671              		.loc 1 289 3 view .LVU159
 290:Middlewares/ST/STM32_WPAN/interface/patterns/ble_thread/shci/shci.c **** 
 291:Middlewares/ST/STM32_WPAN/interface/patterns/ble_thread/shci/shci.c ****   p_rsp = (TL_EvtPacket_t *)local_buffer;
 672              		.loc 1 291 3 view .LVU160
 673              	.LVL57:
 292:Middlewares/ST/STM32_WPAN/interface/patterns/ble_thread/shci/shci.c **** 
 293:Middlewares/ST/STM32_WPAN/interface/patterns/ble_thread/shci/shci.c ****  shci_send( SHCI_OPCODE_C2_BLE_INIT,
 674              		.loc 1 293 2 view .LVU161
 675 0004 6B46     		mov	r3, sp
 676 0006 00F10C02 		add	r2, r0, #12
 677 000a 2521     		movs	r1, #37
 678 000c 4FF66640 		movw	r0, #64614
 679              	.LVL58:
 680              		.loc 1 293 2 is_stmt 0 view .LVU162
 681 0010 FFF7FEFF 		bl	shci_send
 682              	.LVL59:
 294:Middlewares/ST/STM32_WPAN/interface/patterns/ble_thread/shci/shci.c ****             sizeof( SHCI_C2_Ble_Init_Cmd_Param_t ),
 295:Middlewares/ST/STM32_WPAN/interface/patterns/ble_thread/shci/shci.c ****             (uint8_t*)&pCmdPacket->Param,
 296:Middlewares/ST/STM32_WPAN/interface/patterns/ble_thread/shci/shci.c ****             p_rsp );
 297:Middlewares/ST/STM32_WPAN/interface/patterns/ble_thread/shci/shci.c **** 
 298:Middlewares/ST/STM32_WPAN/interface/patterns/ble_thread/shci/shci.c ****   return (SHCI_CmdStatus_t)(((TL_CcEvt_t*)(p_rsp->evtserial.evt.payload))->payload[0]);
 683              		.loc 1 298 3 is_stmt 1 view .LVU163
 299:Middlewares/ST/STM32_WPAN/interface/patterns/ble_thread/shci/shci.c **** }
 684              		.loc 1 299 1 is_stmt 0 view .LVU164
 685 0014 9DF80E00 		ldrb	r0, [sp, #14]	@ zero_extendqisi2
 686 0018 05B0     		add	sp, sp, #20
 687              	.LCFI37:
ARM GAS  /var/folders/lt/l_qrc8c54t93n_phsj7cf5tc0000gn/T//ccRwmTUQ.s 			page 18


 688              		.cfi_def_cfa_offset 4
 689              	.LVL60:
 690              		.loc 1 299 1 view .LVU165
 691              		@ sp needed
 692 001a 5DF804FB 		ldr	pc, [sp], #4
 693              		.loc 1 299 1 view .LVU166
 694              		.cfi_endproc
 695              	.LFE1118:
 697              		.section	.text.SHCI_C2_THREAD_Init,"ax",%progbits
 698              		.align	1
 699              		.global	SHCI_C2_THREAD_Init
 700              		.syntax unified
 701              		.thumb
 702              		.thumb_func
 703              		.fpu fpv4-sp-d16
 705              	SHCI_C2_THREAD_Init:
 706              	.LFB1119:
 300:Middlewares/ST/STM32_WPAN/interface/patterns/ble_thread/shci/shci.c **** 
 301:Middlewares/ST/STM32_WPAN/interface/patterns/ble_thread/shci/shci.c **** SHCI_CmdStatus_t SHCI_C2_THREAD_Init( void )
 302:Middlewares/ST/STM32_WPAN/interface/patterns/ble_thread/shci/shci.c **** {
 707              		.loc 1 302 1 is_stmt 1 view -0
 708              		.cfi_startproc
 709              		@ args = 0, pretend = 0, frame = 16
 710              		@ frame_needed = 0, uses_anonymous_args = 0
 711 0000 00B5     		push	{lr}
 712              	.LCFI38:
 713              		.cfi_def_cfa_offset 4
 714              		.cfi_offset 14, -4
 715 0002 85B0     		sub	sp, sp, #20
 716              	.LCFI39:
 717              		.cfi_def_cfa_offset 24
 303:Middlewares/ST/STM32_WPAN/interface/patterns/ble_thread/shci/shci.c ****   /**
 304:Middlewares/ST/STM32_WPAN/interface/patterns/ble_thread/shci/shci.c ****    * Buffer is large enough to hold command complete without payload
 305:Middlewares/ST/STM32_WPAN/interface/patterns/ble_thread/shci/shci.c ****    */
 306:Middlewares/ST/STM32_WPAN/interface/patterns/ble_thread/shci/shci.c ****   uint8_t local_buffer[TL_BLEEVT_CS_BUFFER_SIZE];
 718              		.loc 1 306 3 view .LVU168
 307:Middlewares/ST/STM32_WPAN/interface/patterns/ble_thread/shci/shci.c ****   TL_EvtPacket_t * p_rsp;
 719              		.loc 1 307 3 view .LVU169
 308:Middlewares/ST/STM32_WPAN/interface/patterns/ble_thread/shci/shci.c **** 
 309:Middlewares/ST/STM32_WPAN/interface/patterns/ble_thread/shci/shci.c ****   p_rsp = (TL_EvtPacket_t *)local_buffer;
 720              		.loc 1 309 3 view .LVU170
 721              	.LVL61:
 310:Middlewares/ST/STM32_WPAN/interface/patterns/ble_thread/shci/shci.c **** 
 311:Middlewares/ST/STM32_WPAN/interface/patterns/ble_thread/shci/shci.c ****   shci_send( SHCI_OPCODE_C2_THREAD_INIT,
 722              		.loc 1 311 3 view .LVU171
 723 0004 6B46     		mov	r3, sp
 724 0006 0022     		movs	r2, #0
 725 0008 1146     		mov	r1, r2
 726 000a 4FF66740 		movw	r0, #64615
 727 000e FFF7FEFF 		bl	shci_send
 728              	.LVL62:
 312:Middlewares/ST/STM32_WPAN/interface/patterns/ble_thread/shci/shci.c ****              0,
 313:Middlewares/ST/STM32_WPAN/interface/patterns/ble_thread/shci/shci.c ****              0,
 314:Middlewares/ST/STM32_WPAN/interface/patterns/ble_thread/shci/shci.c ****              p_rsp );
 315:Middlewares/ST/STM32_WPAN/interface/patterns/ble_thread/shci/shci.c **** 
 316:Middlewares/ST/STM32_WPAN/interface/patterns/ble_thread/shci/shci.c ****   return (SHCI_CmdStatus_t)(((TL_CcEvt_t*)(p_rsp->evtserial.evt.payload))->payload[0]);
 729              		.loc 1 316 3 view .LVU172
ARM GAS  /var/folders/lt/l_qrc8c54t93n_phsj7cf5tc0000gn/T//ccRwmTUQ.s 			page 19


 317:Middlewares/ST/STM32_WPAN/interface/patterns/ble_thread/shci/shci.c **** }
 730              		.loc 1 317 1 is_stmt 0 view .LVU173
 731 0012 9DF80E00 		ldrb	r0, [sp, #14]	@ zero_extendqisi2
 732 0016 05B0     		add	sp, sp, #20
 733              	.LCFI40:
 734              		.cfi_def_cfa_offset 4
 735              	.LVL63:
 736              		.loc 1 317 1 view .LVU174
 737              		@ sp needed
 738 0018 5DF804FB 		ldr	pc, [sp], #4
 739              		.loc 1 317 1 view .LVU175
 740              		.cfi_endproc
 741              	.LFE1119:
 743              		.section	.text.SHCI_C2_LLDTESTS_Init,"ax",%progbits
 744              		.align	1
 745              		.global	SHCI_C2_LLDTESTS_Init
 746              		.syntax unified
 747              		.thumb
 748              		.thumb_func
 749              		.fpu fpv4-sp-d16
 751              	SHCI_C2_LLDTESTS_Init:
 752              	.LVL64:
 753              	.LFB1120:
 318:Middlewares/ST/STM32_WPAN/interface/patterns/ble_thread/shci/shci.c **** 
 319:Middlewares/ST/STM32_WPAN/interface/patterns/ble_thread/shci/shci.c **** SHCI_CmdStatus_t SHCI_C2_LLDTESTS_Init( uint8_t param_size, uint8_t * p_param )
 320:Middlewares/ST/STM32_WPAN/interface/patterns/ble_thread/shci/shci.c **** {
 754              		.loc 1 320 1 is_stmt 1 view -0
 755              		.cfi_startproc
 756              		@ args = 0, pretend = 0, frame = 16
 757              		@ frame_needed = 0, uses_anonymous_args = 0
 758              		.loc 1 320 1 is_stmt 0 view .LVU177
 759 0000 00B5     		push	{lr}
 760              	.LCFI41:
 761              		.cfi_def_cfa_offset 4
 762              		.cfi_offset 14, -4
 763 0002 85B0     		sub	sp, sp, #20
 764              	.LCFI42:
 765              		.cfi_def_cfa_offset 24
 766 0004 0A46     		mov	r2, r1
 321:Middlewares/ST/STM32_WPAN/interface/patterns/ble_thread/shci/shci.c ****   /**
 322:Middlewares/ST/STM32_WPAN/interface/patterns/ble_thread/shci/shci.c ****    * Buffer is large enough to hold command complete without payload
 323:Middlewares/ST/STM32_WPAN/interface/patterns/ble_thread/shci/shci.c ****    */
 324:Middlewares/ST/STM32_WPAN/interface/patterns/ble_thread/shci/shci.c ****   uint8_t local_buffer[TL_BLEEVT_CS_BUFFER_SIZE];
 767              		.loc 1 324 3 is_stmt 1 view .LVU178
 325:Middlewares/ST/STM32_WPAN/interface/patterns/ble_thread/shci/shci.c ****   TL_EvtPacket_t * p_rsp;
 768              		.loc 1 325 3 view .LVU179
 326:Middlewares/ST/STM32_WPAN/interface/patterns/ble_thread/shci/shci.c **** 
 327:Middlewares/ST/STM32_WPAN/interface/patterns/ble_thread/shci/shci.c ****   p_rsp = (TL_EvtPacket_t *)local_buffer;
 769              		.loc 1 327 3 view .LVU180
 770              	.LVL65:
 328:Middlewares/ST/STM32_WPAN/interface/patterns/ble_thread/shci/shci.c **** 
 329:Middlewares/ST/STM32_WPAN/interface/patterns/ble_thread/shci/shci.c ****   shci_send( SHCI_OPCODE_C2_LLD_TESTS_INIT,
 771              		.loc 1 329 3 view .LVU181
 772 0006 6B46     		mov	r3, sp
 773 0008 0146     		mov	r1, r0
 774              	.LVL66:
 775              		.loc 1 329 3 is_stmt 0 view .LVU182
ARM GAS  /var/folders/lt/l_qrc8c54t93n_phsj7cf5tc0000gn/T//ccRwmTUQ.s 			page 20


 776 000a 4FF67140 		movw	r0, #64625
 777              	.LVL67:
 778              		.loc 1 329 3 view .LVU183
 779 000e FFF7FEFF 		bl	shci_send
 780              	.LVL68:
 330:Middlewares/ST/STM32_WPAN/interface/patterns/ble_thread/shci/shci.c ****              param_size,
 331:Middlewares/ST/STM32_WPAN/interface/patterns/ble_thread/shci/shci.c ****              p_param,
 332:Middlewares/ST/STM32_WPAN/interface/patterns/ble_thread/shci/shci.c ****              p_rsp );
 333:Middlewares/ST/STM32_WPAN/interface/patterns/ble_thread/shci/shci.c **** 
 334:Middlewares/ST/STM32_WPAN/interface/patterns/ble_thread/shci/shci.c ****   return (SHCI_CmdStatus_t)(((TL_CcEvt_t*)(p_rsp->evtserial.evt.payload))->payload[0]);
 781              		.loc 1 334 3 is_stmt 1 view .LVU184
 335:Middlewares/ST/STM32_WPAN/interface/patterns/ble_thread/shci/shci.c **** }
 782              		.loc 1 335 1 is_stmt 0 view .LVU185
 783 0012 9DF80E00 		ldrb	r0, [sp, #14]	@ zero_extendqisi2
 784 0016 05B0     		add	sp, sp, #20
 785              	.LCFI43:
 786              		.cfi_def_cfa_offset 4
 787              	.LVL69:
 788              		.loc 1 335 1 view .LVU186
 789              		@ sp needed
 790 0018 5DF804FB 		ldr	pc, [sp], #4
 791              		.loc 1 335 1 view .LVU187
 792              		.cfi_endproc
 793              	.LFE1120:
 795              		.section	.text.SHCI_C2_BLE_LLD_Init,"ax",%progbits
 796              		.align	1
 797              		.global	SHCI_C2_BLE_LLD_Init
 798              		.syntax unified
 799              		.thumb
 800              		.thumb_func
 801              		.fpu fpv4-sp-d16
 803              	SHCI_C2_BLE_LLD_Init:
 804              	.LVL70:
 805              	.LFB1121:
 336:Middlewares/ST/STM32_WPAN/interface/patterns/ble_thread/shci/shci.c **** 
 337:Middlewares/ST/STM32_WPAN/interface/patterns/ble_thread/shci/shci.c **** SHCI_CmdStatus_t SHCI_C2_BLE_LLD_Init( uint8_t param_size, uint8_t * p_param )
 338:Middlewares/ST/STM32_WPAN/interface/patterns/ble_thread/shci/shci.c **** {
 806              		.loc 1 338 1 is_stmt 1 view -0
 807              		.cfi_startproc
 808              		@ args = 0, pretend = 0, frame = 16
 809              		@ frame_needed = 0, uses_anonymous_args = 0
 810              		.loc 1 338 1 is_stmt 0 view .LVU189
 811 0000 00B5     		push	{lr}
 812              	.LCFI44:
 813              		.cfi_def_cfa_offset 4
 814              		.cfi_offset 14, -4
 815 0002 85B0     		sub	sp, sp, #20
 816              	.LCFI45:
 817              		.cfi_def_cfa_offset 24
 818 0004 0A46     		mov	r2, r1
 339:Middlewares/ST/STM32_WPAN/interface/patterns/ble_thread/shci/shci.c ****   /**
 340:Middlewares/ST/STM32_WPAN/interface/patterns/ble_thread/shci/shci.c ****    * Buffer is large enough to hold command complete without payload
 341:Middlewares/ST/STM32_WPAN/interface/patterns/ble_thread/shci/shci.c ****    */
 342:Middlewares/ST/STM32_WPAN/interface/patterns/ble_thread/shci/shci.c ****   uint8_t local_buffer[TL_BLEEVT_CS_BUFFER_SIZE];
 819              		.loc 1 342 3 is_stmt 1 view .LVU190
 343:Middlewares/ST/STM32_WPAN/interface/patterns/ble_thread/shci/shci.c ****   TL_EvtPacket_t * p_rsp;
 820              		.loc 1 343 3 view .LVU191
ARM GAS  /var/folders/lt/l_qrc8c54t93n_phsj7cf5tc0000gn/T//ccRwmTUQ.s 			page 21


 344:Middlewares/ST/STM32_WPAN/interface/patterns/ble_thread/shci/shci.c **** 
 345:Middlewares/ST/STM32_WPAN/interface/patterns/ble_thread/shci/shci.c ****   p_rsp = (TL_EvtPacket_t *)local_buffer;
 821              		.loc 1 345 3 view .LVU192
 822              	.LVL71:
 346:Middlewares/ST/STM32_WPAN/interface/patterns/ble_thread/shci/shci.c **** 
 347:Middlewares/ST/STM32_WPAN/interface/patterns/ble_thread/shci/shci.c ****   shci_send( SHCI_OPCODE_C2_BLE_LLD_INIT,
 823              		.loc 1 347 3 view .LVU193
 824 0006 6B46     		mov	r3, sp
 825 0008 0146     		mov	r1, r0
 826              	.LVL72:
 827              		.loc 1 347 3 is_stmt 0 view .LVU194
 828 000a 4FF67440 		movw	r0, #64628
 829              	.LVL73:
 830              		.loc 1 347 3 view .LVU195
 831 000e FFF7FEFF 		bl	shci_send
 832              	.LVL74:
 348:Middlewares/ST/STM32_WPAN/interface/patterns/ble_thread/shci/shci.c ****              param_size,
 349:Middlewares/ST/STM32_WPAN/interface/patterns/ble_thread/shci/shci.c ****              p_param,
 350:Middlewares/ST/STM32_WPAN/interface/patterns/ble_thread/shci/shci.c ****              p_rsp );
 351:Middlewares/ST/STM32_WPAN/interface/patterns/ble_thread/shci/shci.c **** 
 352:Middlewares/ST/STM32_WPAN/interface/patterns/ble_thread/shci/shci.c ****   return (SHCI_CmdStatus_t)(((TL_CcEvt_t*)(p_rsp->evtserial.evt.payload))->payload[0]);
 833              		.loc 1 352 3 is_stmt 1 view .LVU196
 353:Middlewares/ST/STM32_WPAN/interface/patterns/ble_thread/shci/shci.c **** }
 834              		.loc 1 353 1 is_stmt 0 view .LVU197
 835 0012 9DF80E00 		ldrb	r0, [sp, #14]	@ zero_extendqisi2
 836 0016 05B0     		add	sp, sp, #20
 837              	.LCFI46:
 838              		.cfi_def_cfa_offset 4
 839              	.LVL75:
 840              		.loc 1 353 1 view .LVU198
 841              		@ sp needed
 842 0018 5DF804FB 		ldr	pc, [sp], #4
 843              		.loc 1 353 1 view .LVU199
 844              		.cfi_endproc
 845              	.LFE1121:
 847              		.section	.text.SHCI_C2_ZIGBEE_Init,"ax",%progbits
 848              		.align	1
 849              		.global	SHCI_C2_ZIGBEE_Init
 850              		.syntax unified
 851              		.thumb
 852              		.thumb_func
 853              		.fpu fpv4-sp-d16
 855              	SHCI_C2_ZIGBEE_Init:
 856              	.LFB1122:
 354:Middlewares/ST/STM32_WPAN/interface/patterns/ble_thread/shci/shci.c **** 
 355:Middlewares/ST/STM32_WPAN/interface/patterns/ble_thread/shci/shci.c **** SHCI_CmdStatus_t SHCI_C2_ZIGBEE_Init( void )
 356:Middlewares/ST/STM32_WPAN/interface/patterns/ble_thread/shci/shci.c **** {
 857              		.loc 1 356 1 is_stmt 1 view -0
 858              		.cfi_startproc
 859              		@ args = 0, pretend = 0, frame = 16
 860              		@ frame_needed = 0, uses_anonymous_args = 0
 861 0000 00B5     		push	{lr}
 862              	.LCFI47:
 863              		.cfi_def_cfa_offset 4
 864              		.cfi_offset 14, -4
 865 0002 85B0     		sub	sp, sp, #20
 866              	.LCFI48:
ARM GAS  /var/folders/lt/l_qrc8c54t93n_phsj7cf5tc0000gn/T//ccRwmTUQ.s 			page 22


 867              		.cfi_def_cfa_offset 24
 357:Middlewares/ST/STM32_WPAN/interface/patterns/ble_thread/shci/shci.c ****   /**
 358:Middlewares/ST/STM32_WPAN/interface/patterns/ble_thread/shci/shci.c ****    * Buffer is large enough to hold command complete without payload
 359:Middlewares/ST/STM32_WPAN/interface/patterns/ble_thread/shci/shci.c ****    */
 360:Middlewares/ST/STM32_WPAN/interface/patterns/ble_thread/shci/shci.c ****   uint8_t local_buffer[TL_BLEEVT_CS_BUFFER_SIZE];
 868              		.loc 1 360 3 view .LVU201
 361:Middlewares/ST/STM32_WPAN/interface/patterns/ble_thread/shci/shci.c ****   TL_EvtPacket_t * p_rsp;
 869              		.loc 1 361 3 view .LVU202
 362:Middlewares/ST/STM32_WPAN/interface/patterns/ble_thread/shci/shci.c **** 
 363:Middlewares/ST/STM32_WPAN/interface/patterns/ble_thread/shci/shci.c ****   p_rsp = (TL_EvtPacket_t *)local_buffer;
 870              		.loc 1 363 3 view .LVU203
 871              	.LVL76:
 364:Middlewares/ST/STM32_WPAN/interface/patterns/ble_thread/shci/shci.c **** 
 365:Middlewares/ST/STM32_WPAN/interface/patterns/ble_thread/shci/shci.c ****   shci_send( SHCI_OPCODE_C2_ZIGBEE_INIT,
 872              		.loc 1 365 3 view .LVU204
 873 0004 6B46     		mov	r3, sp
 874 0006 0022     		movs	r2, #0
 875 0008 1146     		mov	r1, r2
 876 000a 4FF67040 		movw	r0, #64624
 877 000e FFF7FEFF 		bl	shci_send
 878              	.LVL77:
 366:Middlewares/ST/STM32_WPAN/interface/patterns/ble_thread/shci/shci.c ****              0,
 367:Middlewares/ST/STM32_WPAN/interface/patterns/ble_thread/shci/shci.c ****              0,
 368:Middlewares/ST/STM32_WPAN/interface/patterns/ble_thread/shci/shci.c ****              p_rsp );
 369:Middlewares/ST/STM32_WPAN/interface/patterns/ble_thread/shci/shci.c **** 
 370:Middlewares/ST/STM32_WPAN/interface/patterns/ble_thread/shci/shci.c ****   return (SHCI_CmdStatus_t)(((TL_CcEvt_t*)(p_rsp->evtserial.evt.payload))->payload[0]);
 879              		.loc 1 370 3 view .LVU205
 371:Middlewares/ST/STM32_WPAN/interface/patterns/ble_thread/shci/shci.c **** }
 880              		.loc 1 371 1 is_stmt 0 view .LVU206
 881 0012 9DF80E00 		ldrb	r0, [sp, #14]	@ zero_extendqisi2
 882 0016 05B0     		add	sp, sp, #20
 883              	.LCFI49:
 884              		.cfi_def_cfa_offset 4
 885              	.LVL78:
 886              		.loc 1 371 1 view .LVU207
 887              		@ sp needed
 888 0018 5DF804FB 		ldr	pc, [sp], #4
 889              		.loc 1 371 1 view .LVU208
 890              		.cfi_endproc
 891              	.LFE1122:
 893              		.section	.text.SHCI_C2_DEBUG_Init,"ax",%progbits
 894              		.align	1
 895              		.global	SHCI_C2_DEBUG_Init
 896              		.syntax unified
 897              		.thumb
 898              		.thumb_func
 899              		.fpu fpv4-sp-d16
 901              	SHCI_C2_DEBUG_Init:
 902              	.LVL79:
 903              	.LFB1123:
 372:Middlewares/ST/STM32_WPAN/interface/patterns/ble_thread/shci/shci.c **** 
 373:Middlewares/ST/STM32_WPAN/interface/patterns/ble_thread/shci/shci.c **** SHCI_CmdStatus_t SHCI_C2_DEBUG_Init( SHCI_C2_DEBUG_Init_Cmd_Packet_t *pCmdPacket  )
 374:Middlewares/ST/STM32_WPAN/interface/patterns/ble_thread/shci/shci.c **** {
 904              		.loc 1 374 1 is_stmt 1 view -0
 905              		.cfi_startproc
 906              		@ args = 0, pretend = 0, frame = 16
 907              		@ frame_needed = 0, uses_anonymous_args = 0
ARM GAS  /var/folders/lt/l_qrc8c54t93n_phsj7cf5tc0000gn/T//ccRwmTUQ.s 			page 23


 908              		.loc 1 374 1 is_stmt 0 view .LVU210
 909 0000 00B5     		push	{lr}
 910              	.LCFI50:
 911              		.cfi_def_cfa_offset 4
 912              		.cfi_offset 14, -4
 913 0002 85B0     		sub	sp, sp, #20
 914              	.LCFI51:
 915              		.cfi_def_cfa_offset 24
 375:Middlewares/ST/STM32_WPAN/interface/patterns/ble_thread/shci/shci.c ****   /**
 376:Middlewares/ST/STM32_WPAN/interface/patterns/ble_thread/shci/shci.c ****    * Buffer is large enough to hold command complete without payload
 377:Middlewares/ST/STM32_WPAN/interface/patterns/ble_thread/shci/shci.c ****    */
 378:Middlewares/ST/STM32_WPAN/interface/patterns/ble_thread/shci/shci.c ****   uint8_t local_buffer[TL_BLEEVT_CS_BUFFER_SIZE];
 916              		.loc 1 378 3 is_stmt 1 view .LVU211
 379:Middlewares/ST/STM32_WPAN/interface/patterns/ble_thread/shci/shci.c ****   TL_EvtPacket_t * p_rsp;
 917              		.loc 1 379 3 view .LVU212
 380:Middlewares/ST/STM32_WPAN/interface/patterns/ble_thread/shci/shci.c **** 
 381:Middlewares/ST/STM32_WPAN/interface/patterns/ble_thread/shci/shci.c ****   p_rsp = (TL_EvtPacket_t *)local_buffer;
 918              		.loc 1 381 3 view .LVU213
 919              	.LVL80:
 382:Middlewares/ST/STM32_WPAN/interface/patterns/ble_thread/shci/shci.c **** 
 383:Middlewares/ST/STM32_WPAN/interface/patterns/ble_thread/shci/shci.c ****   shci_send( SHCI_OPCODE_C2_DEBUG_INIT,
 920              		.loc 1 383 3 view .LVU214
 921 0004 6B46     		mov	r3, sp
 922 0006 00F10C02 		add	r2, r0, #12
 923 000a 0F21     		movs	r1, #15
 924 000c 4FF66840 		movw	r0, #64616
 925              	.LVL81:
 926              		.loc 1 383 3 is_stmt 0 view .LVU215
 927 0010 FFF7FEFF 		bl	shci_send
 928              	.LVL82:
 384:Middlewares/ST/STM32_WPAN/interface/patterns/ble_thread/shci/shci.c ****              sizeof( SHCI_C2_DEBUG_init_Cmd_Param_t ),
 385:Middlewares/ST/STM32_WPAN/interface/patterns/ble_thread/shci/shci.c ****              (uint8_t*)&pCmdPacket->Param,
 386:Middlewares/ST/STM32_WPAN/interface/patterns/ble_thread/shci/shci.c ****              p_rsp );
 387:Middlewares/ST/STM32_WPAN/interface/patterns/ble_thread/shci/shci.c **** 
 388:Middlewares/ST/STM32_WPAN/interface/patterns/ble_thread/shci/shci.c ****   return (SHCI_CmdStatus_t)(((TL_CcEvt_t*)(p_rsp->evtserial.evt.payload))->payload[0]);
 929              		.loc 1 388 3 is_stmt 1 view .LVU216
 389:Middlewares/ST/STM32_WPAN/interface/patterns/ble_thread/shci/shci.c **** }
 930              		.loc 1 389 1 is_stmt 0 view .LVU217
 931 0014 9DF80E00 		ldrb	r0, [sp, #14]	@ zero_extendqisi2
 932 0018 05B0     		add	sp, sp, #20
 933              	.LCFI52:
 934              		.cfi_def_cfa_offset 4
 935              	.LVL83:
 936              		.loc 1 389 1 view .LVU218
 937              		@ sp needed
 938 001a 5DF804FB 		ldr	pc, [sp], #4
 939              		.loc 1 389 1 view .LVU219
 940              		.cfi_endproc
 941              	.LFE1123:
 943              		.section	.text.SHCI_C2_FLASH_EraseActivity,"ax",%progbits
 944              		.align	1
 945              		.global	SHCI_C2_FLASH_EraseActivity
 946              		.syntax unified
 947              		.thumb
 948              		.thumb_func
 949              		.fpu fpv4-sp-d16
 951              	SHCI_C2_FLASH_EraseActivity:
ARM GAS  /var/folders/lt/l_qrc8c54t93n_phsj7cf5tc0000gn/T//ccRwmTUQ.s 			page 24


 952              	.LVL84:
 953              	.LFB1124:
 390:Middlewares/ST/STM32_WPAN/interface/patterns/ble_thread/shci/shci.c **** 
 391:Middlewares/ST/STM32_WPAN/interface/patterns/ble_thread/shci/shci.c **** SHCI_CmdStatus_t SHCI_C2_FLASH_EraseActivity( SHCI_EraseActivity_t erase_activity )
 392:Middlewares/ST/STM32_WPAN/interface/patterns/ble_thread/shci/shci.c **** {
 954              		.loc 1 392 1 is_stmt 1 view -0
 955              		.cfi_startproc
 956              		@ args = 0, pretend = 0, frame = 16
 957              		@ frame_needed = 0, uses_anonymous_args = 0
 958              		.loc 1 392 1 is_stmt 0 view .LVU221
 959 0000 00B5     		push	{lr}
 960              	.LCFI53:
 961              		.cfi_def_cfa_offset 4
 962              		.cfi_offset 14, -4
 963 0002 85B0     		sub	sp, sp, #20
 964              	.LCFI54:
 965              		.cfi_def_cfa_offset 24
 393:Middlewares/ST/STM32_WPAN/interface/patterns/ble_thread/shci/shci.c ****   /**
 394:Middlewares/ST/STM32_WPAN/interface/patterns/ble_thread/shci/shci.c ****    * Buffer is large enough to hold command complete without payload
 395:Middlewares/ST/STM32_WPAN/interface/patterns/ble_thread/shci/shci.c ****    */
 396:Middlewares/ST/STM32_WPAN/interface/patterns/ble_thread/shci/shci.c ****   uint8_t local_buffer[TL_BLEEVT_CS_BUFFER_SIZE];
 966              		.loc 1 396 3 is_stmt 1 view .LVU222
 397:Middlewares/ST/STM32_WPAN/interface/patterns/ble_thread/shci/shci.c ****   TL_EvtPacket_t * p_rsp;
 967              		.loc 1 397 3 view .LVU223
 398:Middlewares/ST/STM32_WPAN/interface/patterns/ble_thread/shci/shci.c **** 
 399:Middlewares/ST/STM32_WPAN/interface/patterns/ble_thread/shci/shci.c ****   p_rsp = (TL_EvtPacket_t *)local_buffer;
 968              		.loc 1 399 3 view .LVU224
 969              	.LVL85:
 400:Middlewares/ST/STM32_WPAN/interface/patterns/ble_thread/shci/shci.c **** 
 401:Middlewares/ST/STM32_WPAN/interface/patterns/ble_thread/shci/shci.c ****   local_buffer[0] = erase_activity;
 970              		.loc 1 401 3 view .LVU225
 971              		.loc 1 401 19 is_stmt 0 view .LVU226
 972 0004 8DF80000 		strb	r0, [sp]
 402:Middlewares/ST/STM32_WPAN/interface/patterns/ble_thread/shci/shci.c **** 
 403:Middlewares/ST/STM32_WPAN/interface/patterns/ble_thread/shci/shci.c ****   shci_send( SHCI_OPCODE_C2_FLASH_ERASE_ACTIVITY,
 973              		.loc 1 403 3 is_stmt 1 view .LVU227
 974 0008 6B46     		mov	r3, sp
 975 000a 6A46     		mov	r2, sp
 976 000c 0121     		movs	r1, #1
 977 000e 4FF66940 		movw	r0, #64617
 978              	.LVL86:
 979              		.loc 1 403 3 is_stmt 0 view .LVU228
 980 0012 FFF7FEFF 		bl	shci_send
 981              	.LVL87:
 404:Middlewares/ST/STM32_WPAN/interface/patterns/ble_thread/shci/shci.c ****              1,
 405:Middlewares/ST/STM32_WPAN/interface/patterns/ble_thread/shci/shci.c ****              local_buffer,
 406:Middlewares/ST/STM32_WPAN/interface/patterns/ble_thread/shci/shci.c ****              p_rsp );
 407:Middlewares/ST/STM32_WPAN/interface/patterns/ble_thread/shci/shci.c **** 
 408:Middlewares/ST/STM32_WPAN/interface/patterns/ble_thread/shci/shci.c ****   return (SHCI_CmdStatus_t)(((TL_CcEvt_t*)(p_rsp->evtserial.evt.payload))->payload[0]);
 982              		.loc 1 408 3 is_stmt 1 view .LVU229
 409:Middlewares/ST/STM32_WPAN/interface/patterns/ble_thread/shci/shci.c **** }
 983              		.loc 1 409 1 is_stmt 0 view .LVU230
 984 0016 9DF80E00 		ldrb	r0, [sp, #14]	@ zero_extendqisi2
 985 001a 05B0     		add	sp, sp, #20
 986              	.LCFI55:
 987              		.cfi_def_cfa_offset 4
 988              	.LVL88:
ARM GAS  /var/folders/lt/l_qrc8c54t93n_phsj7cf5tc0000gn/T//ccRwmTUQ.s 			page 25


 989              		.loc 1 409 1 view .LVU231
 990              		@ sp needed
 991 001c 5DF804FB 		ldr	pc, [sp], #4
 992              		.loc 1 409 1 view .LVU232
 993              		.cfi_endproc
 994              	.LFE1124:
 996              		.section	.text.SHCI_C2_CONCURRENT_SetMode,"ax",%progbits
 997              		.align	1
 998              		.global	SHCI_C2_CONCURRENT_SetMode
 999              		.syntax unified
 1000              		.thumb
 1001              		.thumb_func
 1002              		.fpu fpv4-sp-d16
 1004              	SHCI_C2_CONCURRENT_SetMode:
 1005              	.LVL89:
 1006              	.LFB1125:
 410:Middlewares/ST/STM32_WPAN/interface/patterns/ble_thread/shci/shci.c **** 
 411:Middlewares/ST/STM32_WPAN/interface/patterns/ble_thread/shci/shci.c **** SHCI_CmdStatus_t SHCI_C2_CONCURRENT_SetMode( SHCI_C2_CONCURRENT_Mode_Param_t Mode )
 412:Middlewares/ST/STM32_WPAN/interface/patterns/ble_thread/shci/shci.c **** {
 1007              		.loc 1 412 1 is_stmt 1 view -0
 1008              		.cfi_startproc
 1009              		@ args = 0, pretend = 0, frame = 16
 1010              		@ frame_needed = 0, uses_anonymous_args = 0
 1011              		.loc 1 412 1 is_stmt 0 view .LVU234
 1012 0000 00B5     		push	{lr}
 1013              	.LCFI56:
 1014              		.cfi_def_cfa_offset 4
 1015              		.cfi_offset 14, -4
 1016 0002 85B0     		sub	sp, sp, #20
 1017              	.LCFI57:
 1018              		.cfi_def_cfa_offset 24
 413:Middlewares/ST/STM32_WPAN/interface/patterns/ble_thread/shci/shci.c ****   /**
 414:Middlewares/ST/STM32_WPAN/interface/patterns/ble_thread/shci/shci.c ****    * Buffer is large enough to hold command complete without payload
 415:Middlewares/ST/STM32_WPAN/interface/patterns/ble_thread/shci/shci.c ****    */
 416:Middlewares/ST/STM32_WPAN/interface/patterns/ble_thread/shci/shci.c ****   uint8_t local_buffer[TL_BLEEVT_CS_BUFFER_SIZE];
 1019              		.loc 1 416 3 is_stmt 1 view .LVU235
 417:Middlewares/ST/STM32_WPAN/interface/patterns/ble_thread/shci/shci.c ****   TL_EvtPacket_t * p_rsp;
 1020              		.loc 1 417 3 view .LVU236
 418:Middlewares/ST/STM32_WPAN/interface/patterns/ble_thread/shci/shci.c **** 
 419:Middlewares/ST/STM32_WPAN/interface/patterns/ble_thread/shci/shci.c ****   p_rsp = (TL_EvtPacket_t *)local_buffer;
 1021              		.loc 1 419 3 view .LVU237
 1022              	.LVL90:
 420:Middlewares/ST/STM32_WPAN/interface/patterns/ble_thread/shci/shci.c **** 
 421:Middlewares/ST/STM32_WPAN/interface/patterns/ble_thread/shci/shci.c ****   local_buffer[0] = Mode;
 1023              		.loc 1 421 3 view .LVU238
 1024              		.loc 1 421 19 is_stmt 0 view .LVU239
 1025 0004 8DF80000 		strb	r0, [sp]
 422:Middlewares/ST/STM32_WPAN/interface/patterns/ble_thread/shci/shci.c **** 
 423:Middlewares/ST/STM32_WPAN/interface/patterns/ble_thread/shci/shci.c ****   shci_send( SHCI_OPCODE_C2_CONCURRENT_SET_MODE,
 1026              		.loc 1 423 3 is_stmt 1 view .LVU240
 1027 0008 6B46     		mov	r3, sp
 1028 000a 6A46     		mov	r2, sp
 1029 000c 0121     		movs	r1, #1
 1030 000e 4FF66A40 		movw	r0, #64618
 1031              	.LVL91:
 1032              		.loc 1 423 3 is_stmt 0 view .LVU241
 1033 0012 FFF7FEFF 		bl	shci_send
ARM GAS  /var/folders/lt/l_qrc8c54t93n_phsj7cf5tc0000gn/T//ccRwmTUQ.s 			page 26


 1034              	.LVL92:
 424:Middlewares/ST/STM32_WPAN/interface/patterns/ble_thread/shci/shci.c ****              1,
 425:Middlewares/ST/STM32_WPAN/interface/patterns/ble_thread/shci/shci.c ****              local_buffer,
 426:Middlewares/ST/STM32_WPAN/interface/patterns/ble_thread/shci/shci.c ****              p_rsp );
 427:Middlewares/ST/STM32_WPAN/interface/patterns/ble_thread/shci/shci.c **** 
 428:Middlewares/ST/STM32_WPAN/interface/patterns/ble_thread/shci/shci.c ****   return (SHCI_CmdStatus_t)(((TL_CcEvt_t*)(p_rsp->evtserial.evt.payload))->payload[0]);
 1035              		.loc 1 428 3 is_stmt 1 view .LVU242
 429:Middlewares/ST/STM32_WPAN/interface/patterns/ble_thread/shci/shci.c **** }
 1036              		.loc 1 429 1 is_stmt 0 view .LVU243
 1037 0016 9DF80E00 		ldrb	r0, [sp, #14]	@ zero_extendqisi2
 1038 001a 05B0     		add	sp, sp, #20
 1039              	.LCFI58:
 1040              		.cfi_def_cfa_offset 4
 1041              	.LVL93:
 1042              		.loc 1 429 1 view .LVU244
 1043              		@ sp needed
 1044 001c 5DF804FB 		ldr	pc, [sp], #4
 1045              		.loc 1 429 1 view .LVU245
 1046              		.cfi_endproc
 1047              	.LFE1125:
 1049              		.section	.text.SHCI_C2_CONCURRENT_GetNextBleEvtTime,"ax",%progbits
 1050              		.align	1
 1051              		.global	SHCI_C2_CONCURRENT_GetNextBleEvtTime
 1052              		.syntax unified
 1053              		.thumb
 1054              		.thumb_func
 1055              		.fpu fpv4-sp-d16
 1057              	SHCI_C2_CONCURRENT_GetNextBleEvtTime:
 1058              	.LVL94:
 1059              	.LFB1126:
 430:Middlewares/ST/STM32_WPAN/interface/patterns/ble_thread/shci/shci.c **** 
 431:Middlewares/ST/STM32_WPAN/interface/patterns/ble_thread/shci/shci.c **** SHCI_CmdStatus_t SHCI_C2_CONCURRENT_GetNextBleEvtTime( SHCI_C2_CONCURRENT_GetNextBleEvtTime_Param_t
 432:Middlewares/ST/STM32_WPAN/interface/patterns/ble_thread/shci/shci.c **** {
 1060              		.loc 1 432 1 is_stmt 1 view -0
 1061              		.cfi_startproc
 1062              		@ args = 0, pretend = 0, frame = 24
 1063              		@ frame_needed = 0, uses_anonymous_args = 0
 1064              		.loc 1 432 1 is_stmt 0 view .LVU247
 1065 0000 10B5     		push	{r4, lr}
 1066              	.LCFI59:
 1067              		.cfi_def_cfa_offset 8
 1068              		.cfi_offset 4, -8
 1069              		.cfi_offset 14, -4
 1070 0002 86B0     		sub	sp, sp, #24
 1071              	.LCFI60:
 1072              		.cfi_def_cfa_offset 32
 1073 0004 0446     		mov	r4, r0
 433:Middlewares/ST/STM32_WPAN/interface/patterns/ble_thread/shci/shci.c ****   /**
 434:Middlewares/ST/STM32_WPAN/interface/patterns/ble_thread/shci/shci.c ****    * Buffer is large enough to hold command complete without payload
 435:Middlewares/ST/STM32_WPAN/interface/patterns/ble_thread/shci/shci.c ****    */
 436:Middlewares/ST/STM32_WPAN/interface/patterns/ble_thread/shci/shci.c ****   uint8_t local_buffer[TL_BLEEVT_CS_BUFFER_SIZE+4];
 1074              		.loc 1 436 3 is_stmt 1 view .LVU248
 437:Middlewares/ST/STM32_WPAN/interface/patterns/ble_thread/shci/shci.c ****   TL_EvtPacket_t * p_rsp;
 1075              		.loc 1 437 3 view .LVU249
 438:Middlewares/ST/STM32_WPAN/interface/patterns/ble_thread/shci/shci.c **** 
 439:Middlewares/ST/STM32_WPAN/interface/patterns/ble_thread/shci/shci.c ****   p_rsp = (TL_EvtPacket_t *)local_buffer;
 1076              		.loc 1 439 3 view .LVU250
ARM GAS  /var/folders/lt/l_qrc8c54t93n_phsj7cf5tc0000gn/T//ccRwmTUQ.s 			page 27


 1077              	.LVL95:
 440:Middlewares/ST/STM32_WPAN/interface/patterns/ble_thread/shci/shci.c **** 
 441:Middlewares/ST/STM32_WPAN/interface/patterns/ble_thread/shci/shci.c ****   shci_send( SHCI_OPCODE_C2_CONCURRENT_GET_NEXT_BLE_EVT_TIME,
 1078              		.loc 1 441 3 view .LVU251
 1079 0006 01AB     		add	r3, sp, #4
 1080              	.LVL96:
 1081              		.loc 1 441 3 is_stmt 0 view .LVU252
 1082 0008 0022     		movs	r2, #0
 1083 000a 1146     		mov	r1, r2
 1084 000c 4FF67640 		movw	r0, #64630
 1085              	.LVL97:
 1086              		.loc 1 441 3 view .LVU253
 1087 0010 FFF7FEFF 		bl	shci_send
 1088              	.LVL98:
 442:Middlewares/ST/STM32_WPAN/interface/patterns/ble_thread/shci/shci.c ****              0,
 443:Middlewares/ST/STM32_WPAN/interface/patterns/ble_thread/shci/shci.c ****              0,
 444:Middlewares/ST/STM32_WPAN/interface/patterns/ble_thread/shci/shci.c ****              p_rsp );
 445:Middlewares/ST/STM32_WPAN/interface/patterns/ble_thread/shci/shci.c ****   
 446:Middlewares/ST/STM32_WPAN/interface/patterns/ble_thread/shci/shci.c ****   memcpy((void*)&(pParam->relative_time), (void*)&((TL_CcEvt_t*)(p_rsp->evtserial.evt.payload))->pa
 1089              		.loc 1 446 3 is_stmt 1 view .LVU254
 1090 0014 DDF81330 		ldr	r3, [sp, #19]	@ unaligned
 1091 0018 2360     		str	r3, [r4]	@ unaligned
 447:Middlewares/ST/STM32_WPAN/interface/patterns/ble_thread/shci/shci.c **** 
 448:Middlewares/ST/STM32_WPAN/interface/patterns/ble_thread/shci/shci.c ****   return (SHCI_CmdStatus_t)(((TL_CcEvt_t*)(p_rsp->evtserial.evt.payload))->payload[0]);
 1092              		.loc 1 448 3 view .LVU255
 449:Middlewares/ST/STM32_WPAN/interface/patterns/ble_thread/shci/shci.c **** }
 1093              		.loc 1 449 1 is_stmt 0 view .LVU256
 1094 001a 9DF81200 		ldrb	r0, [sp, #18]	@ zero_extendqisi2
 1095 001e 06B0     		add	sp, sp, #24
 1096              	.LCFI61:
 1097              		.cfi_def_cfa_offset 8
 1098              		@ sp needed
 1099 0020 10BD     		pop	{r4, pc}
 1100              		.loc 1 449 1 view .LVU257
 1101              		.cfi_endproc
 1102              	.LFE1126:
 1104              		.section	.text.SHCI_C2_CONCURRENT_EnableNext_802154_EvtNotification,"ax",%progbits
 1105              		.align	1
 1106              		.global	SHCI_C2_CONCURRENT_EnableNext_802154_EvtNotification
 1107              		.syntax unified
 1108              		.thumb
 1109              		.thumb_func
 1110              		.fpu fpv4-sp-d16
 1112              	SHCI_C2_CONCURRENT_EnableNext_802154_EvtNotification:
 1113              	.LFB1127:
 450:Middlewares/ST/STM32_WPAN/interface/patterns/ble_thread/shci/shci.c ****   
 451:Middlewares/ST/STM32_WPAN/interface/patterns/ble_thread/shci/shci.c **** SHCI_CmdStatus_t SHCI_C2_CONCURRENT_EnableNext_802154_EvtNotification( void )
 452:Middlewares/ST/STM32_WPAN/interface/patterns/ble_thread/shci/shci.c **** {
 1114              		.loc 1 452 1 is_stmt 1 view -0
 1115              		.cfi_startproc
 1116              		@ args = 0, pretend = 0, frame = 16
 1117              		@ frame_needed = 0, uses_anonymous_args = 0
 1118 0000 00B5     		push	{lr}
 1119              	.LCFI62:
 1120              		.cfi_def_cfa_offset 4
 1121              		.cfi_offset 14, -4
 1122 0002 85B0     		sub	sp, sp, #20
ARM GAS  /var/folders/lt/l_qrc8c54t93n_phsj7cf5tc0000gn/T//ccRwmTUQ.s 			page 28


 1123              	.LCFI63:
 1124              		.cfi_def_cfa_offset 24
 453:Middlewares/ST/STM32_WPAN/interface/patterns/ble_thread/shci/shci.c ****   /**
 454:Middlewares/ST/STM32_WPAN/interface/patterns/ble_thread/shci/shci.c ****    * Buffer is large enough to hold command complete without payload
 455:Middlewares/ST/STM32_WPAN/interface/patterns/ble_thread/shci/shci.c ****    */
 456:Middlewares/ST/STM32_WPAN/interface/patterns/ble_thread/shci/shci.c ****   uint8_t local_buffer[TL_BLEEVT_CS_BUFFER_SIZE];
 1125              		.loc 1 456 3 view .LVU259
 457:Middlewares/ST/STM32_WPAN/interface/patterns/ble_thread/shci/shci.c ****   TL_EvtPacket_t * p_rsp;
 1126              		.loc 1 457 3 view .LVU260
 458:Middlewares/ST/STM32_WPAN/interface/patterns/ble_thread/shci/shci.c **** 
 459:Middlewares/ST/STM32_WPAN/interface/patterns/ble_thread/shci/shci.c ****   p_rsp = (TL_EvtPacket_t *)local_buffer;
 1127              		.loc 1 459 3 view .LVU261
 1128              	.LVL99:
 460:Middlewares/ST/STM32_WPAN/interface/patterns/ble_thread/shci/shci.c **** 
 461:Middlewares/ST/STM32_WPAN/interface/patterns/ble_thread/shci/shci.c ****   shci_send( SHCI_OPCODE_C2_CONCURRENT_ENABLE_NEXT_802154_EVT_NOTIFICATION,
 1129              		.loc 1 461 3 view .LVU262
 1130 0004 6B46     		mov	r3, sp
 1131 0006 0022     		movs	r2, #0
 1132 0008 1146     		mov	r1, r2
 1133 000a 4FF67740 		movw	r0, #64631
 1134 000e FFF7FEFF 		bl	shci_send
 1135              	.LVL100:
 462:Middlewares/ST/STM32_WPAN/interface/patterns/ble_thread/shci/shci.c ****              0,
 463:Middlewares/ST/STM32_WPAN/interface/patterns/ble_thread/shci/shci.c ****              0,
 464:Middlewares/ST/STM32_WPAN/interface/patterns/ble_thread/shci/shci.c ****              p_rsp );
 465:Middlewares/ST/STM32_WPAN/interface/patterns/ble_thread/shci/shci.c **** 
 466:Middlewares/ST/STM32_WPAN/interface/patterns/ble_thread/shci/shci.c ****   return (SHCI_CmdStatus_t)(((TL_CcEvt_t*)(p_rsp->evtserial.evt.payload))->payload[0]);
 1136              		.loc 1 466 3 view .LVU263
 467:Middlewares/ST/STM32_WPAN/interface/patterns/ble_thread/shci/shci.c **** }
 1137              		.loc 1 467 1 is_stmt 0 view .LVU264
 1138 0012 9DF80E00 		ldrb	r0, [sp, #14]	@ zero_extendqisi2
 1139 0016 05B0     		add	sp, sp, #20
 1140              	.LCFI64:
 1141              		.cfi_def_cfa_offset 4
 1142              	.LVL101:
 1143              		.loc 1 467 1 view .LVU265
 1144              		@ sp needed
 1145 0018 5DF804FB 		ldr	pc, [sp], #4
 1146              		.loc 1 467 1 view .LVU266
 1147              		.cfi_endproc
 1148              	.LFE1127:
 1150              		.section	.text.SHCI_C2_FLASH_StoreData,"ax",%progbits
 1151              		.align	1
 1152              		.global	SHCI_C2_FLASH_StoreData
 1153              		.syntax unified
 1154              		.thumb
 1155              		.thumb_func
 1156              		.fpu fpv4-sp-d16
 1158              	SHCI_C2_FLASH_StoreData:
 1159              	.LVL102:
 1160              	.LFB1128:
 468:Middlewares/ST/STM32_WPAN/interface/patterns/ble_thread/shci/shci.c **** 
 469:Middlewares/ST/STM32_WPAN/interface/patterns/ble_thread/shci/shci.c **** SHCI_CmdStatus_t SHCI_C2_FLASH_StoreData( SHCI_C2_FLASH_Ip_t Ip )
 470:Middlewares/ST/STM32_WPAN/interface/patterns/ble_thread/shci/shci.c **** {
 1161              		.loc 1 470 1 is_stmt 1 view -0
 1162              		.cfi_startproc
 1163              		@ args = 0, pretend = 0, frame = 16
ARM GAS  /var/folders/lt/l_qrc8c54t93n_phsj7cf5tc0000gn/T//ccRwmTUQ.s 			page 29


 1164              		@ frame_needed = 0, uses_anonymous_args = 0
 1165              		.loc 1 470 1 is_stmt 0 view .LVU268
 1166 0000 00B5     		push	{lr}
 1167              	.LCFI65:
 1168              		.cfi_def_cfa_offset 4
 1169              		.cfi_offset 14, -4
 1170 0002 85B0     		sub	sp, sp, #20
 1171              	.LCFI66:
 1172              		.cfi_def_cfa_offset 24
 471:Middlewares/ST/STM32_WPAN/interface/patterns/ble_thread/shci/shci.c ****   /**
 472:Middlewares/ST/STM32_WPAN/interface/patterns/ble_thread/shci/shci.c ****    * Buffer is large enough to hold command complete without payload
 473:Middlewares/ST/STM32_WPAN/interface/patterns/ble_thread/shci/shci.c ****    */
 474:Middlewares/ST/STM32_WPAN/interface/patterns/ble_thread/shci/shci.c ****   uint8_t local_buffer[TL_BLEEVT_CS_BUFFER_SIZE];
 1173              		.loc 1 474 3 is_stmt 1 view .LVU269
 475:Middlewares/ST/STM32_WPAN/interface/patterns/ble_thread/shci/shci.c ****   TL_EvtPacket_t * p_rsp;
 1174              		.loc 1 475 3 view .LVU270
 476:Middlewares/ST/STM32_WPAN/interface/patterns/ble_thread/shci/shci.c **** 
 477:Middlewares/ST/STM32_WPAN/interface/patterns/ble_thread/shci/shci.c ****   p_rsp = (TL_EvtPacket_t *)local_buffer;
 1175              		.loc 1 477 3 view .LVU271
 1176              	.LVL103:
 478:Middlewares/ST/STM32_WPAN/interface/patterns/ble_thread/shci/shci.c **** 
 479:Middlewares/ST/STM32_WPAN/interface/patterns/ble_thread/shci/shci.c ****   local_buffer[0] = Ip;
 1177              		.loc 1 479 3 view .LVU272
 1178              		.loc 1 479 19 is_stmt 0 view .LVU273
 1179 0004 8DF80000 		strb	r0, [sp]
 480:Middlewares/ST/STM32_WPAN/interface/patterns/ble_thread/shci/shci.c **** 
 481:Middlewares/ST/STM32_WPAN/interface/patterns/ble_thread/shci/shci.c ****   shci_send( SHCI_OPCODE_C2_FLASH_STORE_DATA,
 1180              		.loc 1 481 3 is_stmt 1 view .LVU274
 1181 0008 6B46     		mov	r3, sp
 1182 000a 6A46     		mov	r2, sp
 1183 000c 0121     		movs	r1, #1
 1184 000e 4FF66B40 		movw	r0, #64619
 1185              	.LVL104:
 1186              		.loc 1 481 3 is_stmt 0 view .LVU275
 1187 0012 FFF7FEFF 		bl	shci_send
 1188              	.LVL105:
 482:Middlewares/ST/STM32_WPAN/interface/patterns/ble_thread/shci/shci.c ****              1,
 483:Middlewares/ST/STM32_WPAN/interface/patterns/ble_thread/shci/shci.c ****              local_buffer,
 484:Middlewares/ST/STM32_WPAN/interface/patterns/ble_thread/shci/shci.c ****              p_rsp );
 485:Middlewares/ST/STM32_WPAN/interface/patterns/ble_thread/shci/shci.c **** 
 486:Middlewares/ST/STM32_WPAN/interface/patterns/ble_thread/shci/shci.c ****   return (SHCI_CmdStatus_t)(((TL_CcEvt_t*)(p_rsp->evtserial.evt.payload))->payload[0]);
 1189              		.loc 1 486 3 is_stmt 1 view .LVU276
 487:Middlewares/ST/STM32_WPAN/interface/patterns/ble_thread/shci/shci.c **** }
 1190              		.loc 1 487 1 is_stmt 0 view .LVU277
 1191 0016 9DF80E00 		ldrb	r0, [sp, #14]	@ zero_extendqisi2
 1192 001a 05B0     		add	sp, sp, #20
 1193              	.LCFI67:
 1194              		.cfi_def_cfa_offset 4
 1195              	.LVL106:
 1196              		.loc 1 487 1 view .LVU278
 1197              		@ sp needed
 1198 001c 5DF804FB 		ldr	pc, [sp], #4
 1199              		.loc 1 487 1 view .LVU279
 1200              		.cfi_endproc
 1201              	.LFE1128:
 1203              		.section	.text.SHCI_C2_FLASH_EraseData,"ax",%progbits
 1204              		.align	1
ARM GAS  /var/folders/lt/l_qrc8c54t93n_phsj7cf5tc0000gn/T//ccRwmTUQ.s 			page 30


 1205              		.global	SHCI_C2_FLASH_EraseData
 1206              		.syntax unified
 1207              		.thumb
 1208              		.thumb_func
 1209              		.fpu fpv4-sp-d16
 1211              	SHCI_C2_FLASH_EraseData:
 1212              	.LVL107:
 1213              	.LFB1129:
 488:Middlewares/ST/STM32_WPAN/interface/patterns/ble_thread/shci/shci.c **** 
 489:Middlewares/ST/STM32_WPAN/interface/patterns/ble_thread/shci/shci.c **** SHCI_CmdStatus_t SHCI_C2_FLASH_EraseData( SHCI_C2_FLASH_Ip_t Ip )
 490:Middlewares/ST/STM32_WPAN/interface/patterns/ble_thread/shci/shci.c **** {
 1214              		.loc 1 490 1 is_stmt 1 view -0
 1215              		.cfi_startproc
 1216              		@ args = 0, pretend = 0, frame = 16
 1217              		@ frame_needed = 0, uses_anonymous_args = 0
 1218              		.loc 1 490 1 is_stmt 0 view .LVU281
 1219 0000 00B5     		push	{lr}
 1220              	.LCFI68:
 1221              		.cfi_def_cfa_offset 4
 1222              		.cfi_offset 14, -4
 1223 0002 85B0     		sub	sp, sp, #20
 1224              	.LCFI69:
 1225              		.cfi_def_cfa_offset 24
 491:Middlewares/ST/STM32_WPAN/interface/patterns/ble_thread/shci/shci.c ****   /**
 492:Middlewares/ST/STM32_WPAN/interface/patterns/ble_thread/shci/shci.c ****    * Buffer is large enough to hold command complete without payload
 493:Middlewares/ST/STM32_WPAN/interface/patterns/ble_thread/shci/shci.c ****    */
 494:Middlewares/ST/STM32_WPAN/interface/patterns/ble_thread/shci/shci.c ****   uint8_t local_buffer[TL_BLEEVT_CS_BUFFER_SIZE];
 1226              		.loc 1 494 3 is_stmt 1 view .LVU282
 495:Middlewares/ST/STM32_WPAN/interface/patterns/ble_thread/shci/shci.c ****   TL_EvtPacket_t * p_rsp;
 1227              		.loc 1 495 3 view .LVU283
 496:Middlewares/ST/STM32_WPAN/interface/patterns/ble_thread/shci/shci.c **** 
 497:Middlewares/ST/STM32_WPAN/interface/patterns/ble_thread/shci/shci.c ****   p_rsp = (TL_EvtPacket_t *)local_buffer;
 1228              		.loc 1 497 3 view .LVU284
 1229              	.LVL108:
 498:Middlewares/ST/STM32_WPAN/interface/patterns/ble_thread/shci/shci.c **** 
 499:Middlewares/ST/STM32_WPAN/interface/patterns/ble_thread/shci/shci.c ****   local_buffer[0] = Ip;
 1230              		.loc 1 499 3 view .LVU285
 1231              		.loc 1 499 19 is_stmt 0 view .LVU286
 1232 0004 8DF80000 		strb	r0, [sp]
 500:Middlewares/ST/STM32_WPAN/interface/patterns/ble_thread/shci/shci.c **** 
 501:Middlewares/ST/STM32_WPAN/interface/patterns/ble_thread/shci/shci.c ****   shci_send( SHCI_OPCODE_C2_FLASH_ERASE_DATA,
 1233              		.loc 1 501 3 is_stmt 1 view .LVU287
 1234 0008 6B46     		mov	r3, sp
 1235 000a 6A46     		mov	r2, sp
 1236 000c 0121     		movs	r1, #1
 1237 000e 4FF66C40 		movw	r0, #64620
 1238              	.LVL109:
 1239              		.loc 1 501 3 is_stmt 0 view .LVU288
 1240 0012 FFF7FEFF 		bl	shci_send
 1241              	.LVL110:
 502:Middlewares/ST/STM32_WPAN/interface/patterns/ble_thread/shci/shci.c ****              1,
 503:Middlewares/ST/STM32_WPAN/interface/patterns/ble_thread/shci/shci.c ****              local_buffer,
 504:Middlewares/ST/STM32_WPAN/interface/patterns/ble_thread/shci/shci.c ****              p_rsp );
 505:Middlewares/ST/STM32_WPAN/interface/patterns/ble_thread/shci/shci.c **** 
 506:Middlewares/ST/STM32_WPAN/interface/patterns/ble_thread/shci/shci.c ****   return (SHCI_CmdStatus_t)(((TL_CcEvt_t*)(p_rsp->evtserial.evt.payload))->payload[0]);
 1242              		.loc 1 506 3 is_stmt 1 view .LVU289
 507:Middlewares/ST/STM32_WPAN/interface/patterns/ble_thread/shci/shci.c **** }
ARM GAS  /var/folders/lt/l_qrc8c54t93n_phsj7cf5tc0000gn/T//ccRwmTUQ.s 			page 31


 1243              		.loc 1 507 1 is_stmt 0 view .LVU290
 1244 0016 9DF80E00 		ldrb	r0, [sp, #14]	@ zero_extendqisi2
 1245 001a 05B0     		add	sp, sp, #20
 1246              	.LCFI70:
 1247              		.cfi_def_cfa_offset 4
 1248              	.LVL111:
 1249              		.loc 1 507 1 view .LVU291
 1250              		@ sp needed
 1251 001c 5DF804FB 		ldr	pc, [sp], #4
 1252              		.loc 1 507 1 view .LVU292
 1253              		.cfi_endproc
 1254              	.LFE1129:
 1256              		.section	.text.SHCI_C2_RADIO_AllowLowPower,"ax",%progbits
 1257              		.align	1
 1258              		.global	SHCI_C2_RADIO_AllowLowPower
 1259              		.syntax unified
 1260              		.thumb
 1261              		.thumb_func
 1262              		.fpu fpv4-sp-d16
 1264              	SHCI_C2_RADIO_AllowLowPower:
 1265              	.LVL112:
 1266              	.LFB1130:
 508:Middlewares/ST/STM32_WPAN/interface/patterns/ble_thread/shci/shci.c **** 
 509:Middlewares/ST/STM32_WPAN/interface/patterns/ble_thread/shci/shci.c **** SHCI_CmdStatus_t SHCI_C2_RADIO_AllowLowPower( SHCI_C2_FLASH_Ip_t Ip,uint8_t  FlagRadioLowPowerOn)
 510:Middlewares/ST/STM32_WPAN/interface/patterns/ble_thread/shci/shci.c **** {
 1267              		.loc 1 510 1 is_stmt 1 view -0
 1268              		.cfi_startproc
 1269              		@ args = 0, pretend = 0, frame = 16
 1270              		@ frame_needed = 0, uses_anonymous_args = 0
 1271              		.loc 1 510 1 is_stmt 0 view .LVU294
 1272 0000 00B5     		push	{lr}
 1273              	.LCFI71:
 1274              		.cfi_def_cfa_offset 4
 1275              		.cfi_offset 14, -4
 1276 0002 85B0     		sub	sp, sp, #20
 1277              	.LCFI72:
 1278              		.cfi_def_cfa_offset 24
 511:Middlewares/ST/STM32_WPAN/interface/patterns/ble_thread/shci/shci.c ****   /**
 512:Middlewares/ST/STM32_WPAN/interface/patterns/ble_thread/shci/shci.c ****    * Buffer is large enough to hold command complete without payload
 513:Middlewares/ST/STM32_WPAN/interface/patterns/ble_thread/shci/shci.c ****    */
 514:Middlewares/ST/STM32_WPAN/interface/patterns/ble_thread/shci/shci.c ****   uint8_t local_buffer[TL_BLEEVT_CS_BUFFER_SIZE];
 1279              		.loc 1 514 3 is_stmt 1 view .LVU295
 515:Middlewares/ST/STM32_WPAN/interface/patterns/ble_thread/shci/shci.c ****   TL_EvtPacket_t * p_rsp;
 1280              		.loc 1 515 3 view .LVU296
 516:Middlewares/ST/STM32_WPAN/interface/patterns/ble_thread/shci/shci.c **** 
 517:Middlewares/ST/STM32_WPAN/interface/patterns/ble_thread/shci/shci.c ****   p_rsp = (TL_EvtPacket_t *)local_buffer;
 1281              		.loc 1 517 3 view .LVU297
 1282              	.LVL113:
 518:Middlewares/ST/STM32_WPAN/interface/patterns/ble_thread/shci/shci.c **** 
 519:Middlewares/ST/STM32_WPAN/interface/patterns/ble_thread/shci/shci.c ****   local_buffer[0] = Ip;
 1283              		.loc 1 519 3 view .LVU298
 1284              		.loc 1 519 19 is_stmt 0 view .LVU299
 1285 0004 8DF80000 		strb	r0, [sp]
 520:Middlewares/ST/STM32_WPAN/interface/patterns/ble_thread/shci/shci.c ****   local_buffer[1] = FlagRadioLowPowerOn;
 1286              		.loc 1 520 3 is_stmt 1 view .LVU300
 1287              		.loc 1 520 19 is_stmt 0 view .LVU301
 1288 0008 8DF80110 		strb	r1, [sp, #1]
ARM GAS  /var/folders/lt/l_qrc8c54t93n_phsj7cf5tc0000gn/T//ccRwmTUQ.s 			page 32


 521:Middlewares/ST/STM32_WPAN/interface/patterns/ble_thread/shci/shci.c **** 
 522:Middlewares/ST/STM32_WPAN/interface/patterns/ble_thread/shci/shci.c ****   shci_send( SHCI_OPCODE_C2_RADIO_ALLOW_LOW_POWER,
 1289              		.loc 1 522 3 is_stmt 1 view .LVU302
 1290 000c 6B46     		mov	r3, sp
 1291 000e 6A46     		mov	r2, sp
 1292 0010 0221     		movs	r1, #2
 1293              	.LVL114:
 1294              		.loc 1 522 3 is_stmt 0 view .LVU303
 1295 0012 4FF66D40 		movw	r0, #64621
 1296              	.LVL115:
 1297              		.loc 1 522 3 view .LVU304
 1298 0016 FFF7FEFF 		bl	shci_send
 1299              	.LVL116:
 523:Middlewares/ST/STM32_WPAN/interface/patterns/ble_thread/shci/shci.c ****              2,
 524:Middlewares/ST/STM32_WPAN/interface/patterns/ble_thread/shci/shci.c ****              local_buffer,
 525:Middlewares/ST/STM32_WPAN/interface/patterns/ble_thread/shci/shci.c ****              p_rsp );
 526:Middlewares/ST/STM32_WPAN/interface/patterns/ble_thread/shci/shci.c **** 
 527:Middlewares/ST/STM32_WPAN/interface/patterns/ble_thread/shci/shci.c ****   return (SHCI_CmdStatus_t)(((TL_CcEvt_t*)(p_rsp->evtserial.evt.payload))->payload[0]);
 1300              		.loc 1 527 3 is_stmt 1 view .LVU305
 528:Middlewares/ST/STM32_WPAN/interface/patterns/ble_thread/shci/shci.c **** }
 1301              		.loc 1 528 1 is_stmt 0 view .LVU306
 1302 001a 9DF80E00 		ldrb	r0, [sp, #14]	@ zero_extendqisi2
 1303 001e 05B0     		add	sp, sp, #20
 1304              	.LCFI73:
 1305              		.cfi_def_cfa_offset 4
 1306              	.LVL117:
 1307              		.loc 1 528 1 view .LVU307
 1308              		@ sp needed
 1309 0020 5DF804FB 		ldr	pc, [sp], #4
 1310              		.loc 1 528 1 view .LVU308
 1311              		.cfi_endproc
 1312              	.LFE1130:
 1314              		.section	.text.SHCI_C2_MAC_802_15_4_Init,"ax",%progbits
 1315              		.align	1
 1316              		.global	SHCI_C2_MAC_802_15_4_Init
 1317              		.syntax unified
 1318              		.thumb
 1319              		.thumb_func
 1320              		.fpu fpv4-sp-d16
 1322              	SHCI_C2_MAC_802_15_4_Init:
 1323              	.LFB1131:
 529:Middlewares/ST/STM32_WPAN/interface/patterns/ble_thread/shci/shci.c **** 
 530:Middlewares/ST/STM32_WPAN/interface/patterns/ble_thread/shci/shci.c **** SHCI_CmdStatus_t SHCI_C2_MAC_802_15_4_Init( void )
 531:Middlewares/ST/STM32_WPAN/interface/patterns/ble_thread/shci/shci.c **** {
 1324              		.loc 1 531 1 is_stmt 1 view -0
 1325              		.cfi_startproc
 1326              		@ args = 0, pretend = 0, frame = 16
 1327              		@ frame_needed = 0, uses_anonymous_args = 0
 1328 0000 00B5     		push	{lr}
 1329              	.LCFI74:
 1330              		.cfi_def_cfa_offset 4
 1331              		.cfi_offset 14, -4
 1332 0002 85B0     		sub	sp, sp, #20
 1333              	.LCFI75:
 1334              		.cfi_def_cfa_offset 24
 532:Middlewares/ST/STM32_WPAN/interface/patterns/ble_thread/shci/shci.c ****   /**
 533:Middlewares/ST/STM32_WPAN/interface/patterns/ble_thread/shci/shci.c ****    * Buffer is large enough to hold command complete without payload
ARM GAS  /var/folders/lt/l_qrc8c54t93n_phsj7cf5tc0000gn/T//ccRwmTUQ.s 			page 33


 534:Middlewares/ST/STM32_WPAN/interface/patterns/ble_thread/shci/shci.c ****    */
 535:Middlewares/ST/STM32_WPAN/interface/patterns/ble_thread/shci/shci.c ****   uint8_t local_buffer[TL_BLEEVT_CS_BUFFER_SIZE];
 1335              		.loc 1 535 3 view .LVU310
 536:Middlewares/ST/STM32_WPAN/interface/patterns/ble_thread/shci/shci.c ****   TL_EvtPacket_t * p_rsp;
 1336              		.loc 1 536 3 view .LVU311
 537:Middlewares/ST/STM32_WPAN/interface/patterns/ble_thread/shci/shci.c **** 
 538:Middlewares/ST/STM32_WPAN/interface/patterns/ble_thread/shci/shci.c ****   p_rsp = (TL_EvtPacket_t *)local_buffer;
 1337              		.loc 1 538 3 view .LVU312
 1338              	.LVL118:
 539:Middlewares/ST/STM32_WPAN/interface/patterns/ble_thread/shci/shci.c **** 
 540:Middlewares/ST/STM32_WPAN/interface/patterns/ble_thread/shci/shci.c ****   shci_send( SHCI_OPCODE_C2_MAC_802_15_4_INIT,
 1339              		.loc 1 540 3 view .LVU313
 1340 0004 6B46     		mov	r3, sp
 1341 0006 0022     		movs	r2, #0
 1342 0008 1146     		mov	r1, r2
 1343 000a 4FF66E40 		movw	r0, #64622
 1344 000e FFF7FEFF 		bl	shci_send
 1345              	.LVL119:
 541:Middlewares/ST/STM32_WPAN/interface/patterns/ble_thread/shci/shci.c ****              0,
 542:Middlewares/ST/STM32_WPAN/interface/patterns/ble_thread/shci/shci.c ****              0,
 543:Middlewares/ST/STM32_WPAN/interface/patterns/ble_thread/shci/shci.c ****              p_rsp );
 544:Middlewares/ST/STM32_WPAN/interface/patterns/ble_thread/shci/shci.c **** 
 545:Middlewares/ST/STM32_WPAN/interface/patterns/ble_thread/shci/shci.c ****   return (SHCI_CmdStatus_t)(((TL_CcEvt_t*)(p_rsp->evtserial.evt.payload))->payload[0]);
 1346              		.loc 1 545 3 view .LVU314
 546:Middlewares/ST/STM32_WPAN/interface/patterns/ble_thread/shci/shci.c **** }
 1347              		.loc 1 546 1 is_stmt 0 view .LVU315
 1348 0012 9DF80E00 		ldrb	r0, [sp, #14]	@ zero_extendqisi2
 1349 0016 05B0     		add	sp, sp, #20
 1350              	.LCFI76:
 1351              		.cfi_def_cfa_offset 4
 1352              	.LVL120:
 1353              		.loc 1 546 1 view .LVU316
 1354              		@ sp needed
 1355 0018 5DF804FB 		ldr	pc, [sp], #4
 1356              		.loc 1 546 1 view .LVU317
 1357              		.cfi_endproc
 1358              	.LFE1131:
 1360              		.section	.text.SHCI_C2_Reinit,"ax",%progbits
 1361              		.align	1
 1362              		.global	SHCI_C2_Reinit
 1363              		.syntax unified
 1364              		.thumb
 1365              		.thumb_func
 1366              		.fpu fpv4-sp-d16
 1368              	SHCI_C2_Reinit:
 1369              	.LFB1132:
 547:Middlewares/ST/STM32_WPAN/interface/patterns/ble_thread/shci/shci.c **** 
 548:Middlewares/ST/STM32_WPAN/interface/patterns/ble_thread/shci/shci.c **** SHCI_CmdStatus_t SHCI_C2_Reinit( void )
 549:Middlewares/ST/STM32_WPAN/interface/patterns/ble_thread/shci/shci.c **** {
 1370              		.loc 1 549 1 is_stmt 1 view -0
 1371              		.cfi_startproc
 1372              		@ args = 0, pretend = 0, frame = 16
 1373              		@ frame_needed = 0, uses_anonymous_args = 0
 1374 0000 00B5     		push	{lr}
 1375              	.LCFI77:
 1376              		.cfi_def_cfa_offset 4
 1377              		.cfi_offset 14, -4
ARM GAS  /var/folders/lt/l_qrc8c54t93n_phsj7cf5tc0000gn/T//ccRwmTUQ.s 			page 34


 1378 0002 85B0     		sub	sp, sp, #20
 1379              	.LCFI78:
 1380              		.cfi_def_cfa_offset 24
 550:Middlewares/ST/STM32_WPAN/interface/patterns/ble_thread/shci/shci.c ****   /**
 551:Middlewares/ST/STM32_WPAN/interface/patterns/ble_thread/shci/shci.c ****    * Buffer is large enough to hold command complete without payload
 552:Middlewares/ST/STM32_WPAN/interface/patterns/ble_thread/shci/shci.c ****    */
 553:Middlewares/ST/STM32_WPAN/interface/patterns/ble_thread/shci/shci.c ****   uint8_t local_buffer[TL_BLEEVT_CS_BUFFER_SIZE];
 1381              		.loc 1 553 3 view .LVU319
 554:Middlewares/ST/STM32_WPAN/interface/patterns/ble_thread/shci/shci.c ****   TL_EvtPacket_t * p_rsp;
 1382              		.loc 1 554 3 view .LVU320
 555:Middlewares/ST/STM32_WPAN/interface/patterns/ble_thread/shci/shci.c **** 
 556:Middlewares/ST/STM32_WPAN/interface/patterns/ble_thread/shci/shci.c ****   p_rsp = (TL_EvtPacket_t *)local_buffer;
 1383              		.loc 1 556 3 view .LVU321
 1384              	.LVL121:
 557:Middlewares/ST/STM32_WPAN/interface/patterns/ble_thread/shci/shci.c **** 
 558:Middlewares/ST/STM32_WPAN/interface/patterns/ble_thread/shci/shci.c ****   shci_send( SHCI_OPCODE_C2_REINIT,
 1385              		.loc 1 558 3 view .LVU322
 1386 0004 6B46     		mov	r3, sp
 1387 0006 0022     		movs	r2, #0
 1388 0008 1146     		mov	r1, r2
 1389 000a 4FF66F40 		movw	r0, #64623
 1390 000e FFF7FEFF 		bl	shci_send
 1391              	.LVL122:
 559:Middlewares/ST/STM32_WPAN/interface/patterns/ble_thread/shci/shci.c ****              0,
 560:Middlewares/ST/STM32_WPAN/interface/patterns/ble_thread/shci/shci.c ****              0,
 561:Middlewares/ST/STM32_WPAN/interface/patterns/ble_thread/shci/shci.c ****              p_rsp );
 562:Middlewares/ST/STM32_WPAN/interface/patterns/ble_thread/shci/shci.c **** 
 563:Middlewares/ST/STM32_WPAN/interface/patterns/ble_thread/shci/shci.c ****   return (SHCI_CmdStatus_t)(((TL_CcEvt_t*)(p_rsp->evtserial.evt.payload))->payload[0]);
 1392              		.loc 1 563 3 view .LVU323
 564:Middlewares/ST/STM32_WPAN/interface/patterns/ble_thread/shci/shci.c **** }
 1393              		.loc 1 564 1 is_stmt 0 view .LVU324
 1394 0012 9DF80E00 		ldrb	r0, [sp, #14]	@ zero_extendqisi2
 1395 0016 05B0     		add	sp, sp, #20
 1396              	.LCFI79:
 1397              		.cfi_def_cfa_offset 4
 1398              	.LVL123:
 1399              		.loc 1 564 1 view .LVU325
 1400              		@ sp needed
 1401 0018 5DF804FB 		ldr	pc, [sp], #4
 1402              		.loc 1 564 1 view .LVU326
 1403              		.cfi_endproc
 1404              	.LFE1132:
 1406              		.section	.text.SHCI_C2_ExtpaConfig,"ax",%progbits
 1407              		.align	1
 1408              		.global	SHCI_C2_ExtpaConfig
 1409              		.syntax unified
 1410              		.thumb
 1411              		.thumb_func
 1412              		.fpu fpv4-sp-d16
 1414              	SHCI_C2_ExtpaConfig:
 1415              	.LVL124:
 1416              	.LFB1133:
 565:Middlewares/ST/STM32_WPAN/interface/patterns/ble_thread/shci/shci.c **** 
 566:Middlewares/ST/STM32_WPAN/interface/patterns/ble_thread/shci/shci.c **** SHCI_CmdStatus_t SHCI_C2_ExtpaConfig(uint32_t gpio_port, uint16_t gpio_pin_number, uint8_t gpio_pol
 567:Middlewares/ST/STM32_WPAN/interface/patterns/ble_thread/shci/shci.c **** {
 1417              		.loc 1 567 1 is_stmt 1 view -0
 1418              		.cfi_startproc
ARM GAS  /var/folders/lt/l_qrc8c54t93n_phsj7cf5tc0000gn/T//ccRwmTUQ.s 			page 35


 1419              		@ args = 0, pretend = 0, frame = 16
 1420              		@ frame_needed = 0, uses_anonymous_args = 0
 1421              		.loc 1 567 1 is_stmt 0 view .LVU328
 1422 0000 00B5     		push	{lr}
 1423              	.LCFI80:
 1424              		.cfi_def_cfa_offset 4
 1425              		.cfi_offset 14, -4
 1426 0002 85B0     		sub	sp, sp, #20
 1427              	.LCFI81:
 1428              		.cfi_def_cfa_offset 24
 568:Middlewares/ST/STM32_WPAN/interface/patterns/ble_thread/shci/shci.c ****   /**
 569:Middlewares/ST/STM32_WPAN/interface/patterns/ble_thread/shci/shci.c ****    * TL_BLEEVT_CS_BUFFER_SIZE is 15 bytes so it is large enough to hold the 8 bytes of command para
 570:Middlewares/ST/STM32_WPAN/interface/patterns/ble_thread/shci/shci.c ****    * Buffer is large enough to hold command complete without payload
 571:Middlewares/ST/STM32_WPAN/interface/patterns/ble_thread/shci/shci.c ****    */
 572:Middlewares/ST/STM32_WPAN/interface/patterns/ble_thread/shci/shci.c ****   uint8_t local_buffer[TL_BLEEVT_CS_BUFFER_SIZE];
 1429              		.loc 1 572 3 is_stmt 1 view .LVU329
 573:Middlewares/ST/STM32_WPAN/interface/patterns/ble_thread/shci/shci.c ****   TL_EvtPacket_t * p_rsp;
 1430              		.loc 1 573 3 view .LVU330
 574:Middlewares/ST/STM32_WPAN/interface/patterns/ble_thread/shci/shci.c **** 
 575:Middlewares/ST/STM32_WPAN/interface/patterns/ble_thread/shci/shci.c ****   p_rsp = (TL_EvtPacket_t *)local_buffer;
 1431              		.loc 1 575 3 view .LVU331
 1432              	.LVL125:
 576:Middlewares/ST/STM32_WPAN/interface/patterns/ble_thread/shci/shci.c **** 
 577:Middlewares/ST/STM32_WPAN/interface/patterns/ble_thread/shci/shci.c ****   ((SHCI_C2_EXTPA_CONFIG_Cmd_Param_t*)local_buffer)->gpio_port = gpio_port;
 1433              		.loc 1 577 3 view .LVU332
 1434              		.loc 1 577 64 is_stmt 0 view .LVU333
 1435 0004 0090     		str	r0, [sp]
 578:Middlewares/ST/STM32_WPAN/interface/patterns/ble_thread/shci/shci.c ****   ((SHCI_C2_EXTPA_CONFIG_Cmd_Param_t*)local_buffer)->gpio_pin_number = gpio_pin_number;
 1436              		.loc 1 578 3 is_stmt 1 view .LVU334
 1437              		.loc 1 578 70 is_stmt 0 view .LVU335
 1438 0006 ADF80410 		strh	r1, [sp, #4]	@ movhi
 579:Middlewares/ST/STM32_WPAN/interface/patterns/ble_thread/shci/shci.c ****   ((SHCI_C2_EXTPA_CONFIG_Cmd_Param_t*)local_buffer)->gpio_polarity = gpio_polarity;
 1439              		.loc 1 579 3 is_stmt 1 view .LVU336
 1440              		.loc 1 579 68 is_stmt 0 view .LVU337
 1441 000a 8DF80620 		strb	r2, [sp, #6]
 580:Middlewares/ST/STM32_WPAN/interface/patterns/ble_thread/shci/shci.c ****   ((SHCI_C2_EXTPA_CONFIG_Cmd_Param_t*)local_buffer)->gpio_status = gpio_status;
 1442              		.loc 1 580 3 is_stmt 1 view .LVU338
 1443              		.loc 1 580 66 is_stmt 0 view .LVU339
 1444 000e 8DF80730 		strb	r3, [sp, #7]
 581:Middlewares/ST/STM32_WPAN/interface/patterns/ble_thread/shci/shci.c **** 
 582:Middlewares/ST/STM32_WPAN/interface/patterns/ble_thread/shci/shci.c ****   shci_send( SHCI_OPCODE_C2_EXTPA_CONFIG,
 1445              		.loc 1 582 3 is_stmt 1 view .LVU340
 1446 0012 6B46     		mov	r3, sp
 1447              	.LVL126:
 1448              		.loc 1 582 3 is_stmt 0 view .LVU341
 1449 0014 6A46     		mov	r2, sp
 1450              	.LVL127:
 1451              		.loc 1 582 3 view .LVU342
 1452 0016 0821     		movs	r1, #8
 1453              	.LVL128:
 1454              		.loc 1 582 3 view .LVU343
 1455 0018 4FF67240 		movw	r0, #64626
 1456              	.LVL129:
 1457              		.loc 1 582 3 view .LVU344
 1458 001c FFF7FEFF 		bl	shci_send
 1459              	.LVL130:
 583:Middlewares/ST/STM32_WPAN/interface/patterns/ble_thread/shci/shci.c ****              8,
ARM GAS  /var/folders/lt/l_qrc8c54t93n_phsj7cf5tc0000gn/T//ccRwmTUQ.s 			page 36


 584:Middlewares/ST/STM32_WPAN/interface/patterns/ble_thread/shci/shci.c ****              local_buffer,
 585:Middlewares/ST/STM32_WPAN/interface/patterns/ble_thread/shci/shci.c ****              p_rsp );
 586:Middlewares/ST/STM32_WPAN/interface/patterns/ble_thread/shci/shci.c **** 
 587:Middlewares/ST/STM32_WPAN/interface/patterns/ble_thread/shci/shci.c ****   return (SHCI_CmdStatus_t)(((TL_CcEvt_t*)(p_rsp->evtserial.evt.payload))->payload[0]);
 1460              		.loc 1 587 3 is_stmt 1 view .LVU345
 588:Middlewares/ST/STM32_WPAN/interface/patterns/ble_thread/shci/shci.c **** }
 1461              		.loc 1 588 1 is_stmt 0 view .LVU346
 1462 0020 9DF80E00 		ldrb	r0, [sp, #14]	@ zero_extendqisi2
 1463 0024 05B0     		add	sp, sp, #20
 1464              	.LCFI82:
 1465              		.cfi_def_cfa_offset 4
 1466              	.LVL131:
 1467              		.loc 1 588 1 view .LVU347
 1468              		@ sp needed
 1469 0026 5DF804FB 		ldr	pc, [sp], #4
 1470              		.loc 1 588 1 view .LVU348
 1471              		.cfi_endproc
 1472              	.LFE1133:
 1474              		.section	.text.SHCI_C2_SetFlashActivityControl,"ax",%progbits
 1475              		.align	1
 1476              		.global	SHCI_C2_SetFlashActivityControl
 1477              		.syntax unified
 1478              		.thumb
 1479              		.thumb_func
 1480              		.fpu fpv4-sp-d16
 1482              	SHCI_C2_SetFlashActivityControl:
 1483              	.LVL132:
 1484              	.LFB1134:
 589:Middlewares/ST/STM32_WPAN/interface/patterns/ble_thread/shci/shci.c **** 
 590:Middlewares/ST/STM32_WPAN/interface/patterns/ble_thread/shci/shci.c **** SHCI_CmdStatus_t SHCI_C2_SetFlashActivityControl(SHCI_C2_SET_FLASH_ACTIVITY_CONTROL_Source_t Source
 591:Middlewares/ST/STM32_WPAN/interface/patterns/ble_thread/shci/shci.c **** {
 1485              		.loc 1 591 1 is_stmt 1 view -0
 1486              		.cfi_startproc
 1487              		@ args = 0, pretend = 0, frame = 16
 1488              		@ frame_needed = 0, uses_anonymous_args = 0
 1489              		.loc 1 591 1 is_stmt 0 view .LVU350
 1490 0000 00B5     		push	{lr}
 1491              	.LCFI83:
 1492              		.cfi_def_cfa_offset 4
 1493              		.cfi_offset 14, -4
 1494 0002 85B0     		sub	sp, sp, #20
 1495              	.LCFI84:
 1496              		.cfi_def_cfa_offset 24
 592:Middlewares/ST/STM32_WPAN/interface/patterns/ble_thread/shci/shci.c ****   /**
 593:Middlewares/ST/STM32_WPAN/interface/patterns/ble_thread/shci/shci.c ****    * TL_BLEEVT_CS_BUFFER_SIZE is 15 bytes so it is large enough to hold the 1 byte of command param
 594:Middlewares/ST/STM32_WPAN/interface/patterns/ble_thread/shci/shci.c ****    * Buffer is large enough to hold command complete without payload
 595:Middlewares/ST/STM32_WPAN/interface/patterns/ble_thread/shci/shci.c ****    */
 596:Middlewares/ST/STM32_WPAN/interface/patterns/ble_thread/shci/shci.c ****   uint8_t local_buffer[TL_BLEEVT_CS_BUFFER_SIZE];
 1497              		.loc 1 596 3 is_stmt 1 view .LVU351
 597:Middlewares/ST/STM32_WPAN/interface/patterns/ble_thread/shci/shci.c ****   TL_EvtPacket_t * p_rsp;
 1498              		.loc 1 597 3 view .LVU352
 598:Middlewares/ST/STM32_WPAN/interface/patterns/ble_thread/shci/shci.c **** 
 599:Middlewares/ST/STM32_WPAN/interface/patterns/ble_thread/shci/shci.c ****   p_rsp = (TL_EvtPacket_t *)local_buffer;
 1499              		.loc 1 599 3 view .LVU353
 1500              	.LVL133:
 600:Middlewares/ST/STM32_WPAN/interface/patterns/ble_thread/shci/shci.c **** 
 601:Middlewares/ST/STM32_WPAN/interface/patterns/ble_thread/shci/shci.c ****   local_buffer[0] = (uint8_t)Source;
ARM GAS  /var/folders/lt/l_qrc8c54t93n_phsj7cf5tc0000gn/T//ccRwmTUQ.s 			page 37


 1501              		.loc 1 601 3 view .LVU354
 1502              		.loc 1 601 19 is_stmt 0 view .LVU355
 1503 0004 8DF80000 		strb	r0, [sp]
 602:Middlewares/ST/STM32_WPAN/interface/patterns/ble_thread/shci/shci.c **** 
 603:Middlewares/ST/STM32_WPAN/interface/patterns/ble_thread/shci/shci.c ****   shci_send( SHCI_OPCODE_C2_SET_FLASH_ACTIVITY_CONTROL,
 1504              		.loc 1 603 3 is_stmt 1 view .LVU356
 1505 0008 6B46     		mov	r3, sp
 1506 000a 6A46     		mov	r2, sp
 1507 000c 0121     		movs	r1, #1
 1508 000e 4FF67340 		movw	r0, #64627
 1509              	.LVL134:
 1510              		.loc 1 603 3 is_stmt 0 view .LVU357
 1511 0012 FFF7FEFF 		bl	shci_send
 1512              	.LVL135:
 604:Middlewares/ST/STM32_WPAN/interface/patterns/ble_thread/shci/shci.c ****              1,
 605:Middlewares/ST/STM32_WPAN/interface/patterns/ble_thread/shci/shci.c ****              local_buffer,
 606:Middlewares/ST/STM32_WPAN/interface/patterns/ble_thread/shci/shci.c ****              p_rsp );
 607:Middlewares/ST/STM32_WPAN/interface/patterns/ble_thread/shci/shci.c **** 
 608:Middlewares/ST/STM32_WPAN/interface/patterns/ble_thread/shci/shci.c ****   return (SHCI_CmdStatus_t)(((TL_CcEvt_t*)(p_rsp->evtserial.evt.payload))->payload[0]);
 1513              		.loc 1 608 3 is_stmt 1 view .LVU358
 609:Middlewares/ST/STM32_WPAN/interface/patterns/ble_thread/shci/shci.c **** }
 1514              		.loc 1 609 1 is_stmt 0 view .LVU359
 1515 0016 9DF80E00 		ldrb	r0, [sp, #14]	@ zero_extendqisi2
 1516 001a 05B0     		add	sp, sp, #20
 1517              	.LCFI85:
 1518              		.cfi_def_cfa_offset 4
 1519              	.LVL136:
 1520              		.loc 1 609 1 view .LVU360
 1521              		@ sp needed
 1522 001c 5DF804FB 		ldr	pc, [sp], #4
 1523              		.loc 1 609 1 view .LVU361
 1524              		.cfi_endproc
 1525              	.LFE1134:
 1527              		.section	.text.SHCI_C2_Config,"ax",%progbits
 1528              		.align	1
 1529              		.global	SHCI_C2_Config
 1530              		.syntax unified
 1531              		.thumb
 1532              		.thumb_func
 1533              		.fpu fpv4-sp-d16
 1535              	SHCI_C2_Config:
 1536              	.LVL137:
 1537              	.LFB1135:
 610:Middlewares/ST/STM32_WPAN/interface/patterns/ble_thread/shci/shci.c **** 
 611:Middlewares/ST/STM32_WPAN/interface/patterns/ble_thread/shci/shci.c **** SHCI_CmdStatus_t SHCI_C2_Config(SHCI_C2_CONFIG_Cmd_Param_t *pCmdPacket)
 612:Middlewares/ST/STM32_WPAN/interface/patterns/ble_thread/shci/shci.c **** {
 1538              		.loc 1 612 1 is_stmt 1 view -0
 1539              		.cfi_startproc
 1540              		@ args = 0, pretend = 0, frame = 16
 1541              		@ frame_needed = 0, uses_anonymous_args = 0
 1542              		.loc 1 612 1 is_stmt 0 view .LVU363
 1543 0000 00B5     		push	{lr}
 1544              	.LCFI86:
 1545              		.cfi_def_cfa_offset 4
 1546              		.cfi_offset 14, -4
 1547 0002 85B0     		sub	sp, sp, #20
 1548              	.LCFI87:
ARM GAS  /var/folders/lt/l_qrc8c54t93n_phsj7cf5tc0000gn/T//ccRwmTUQ.s 			page 38


 1549              		.cfi_def_cfa_offset 24
 1550 0004 0246     		mov	r2, r0
 613:Middlewares/ST/STM32_WPAN/interface/patterns/ble_thread/shci/shci.c ****   /**
 614:Middlewares/ST/STM32_WPAN/interface/patterns/ble_thread/shci/shci.c ****    * Buffer is large enough to hold command complete without payload
 615:Middlewares/ST/STM32_WPAN/interface/patterns/ble_thread/shci/shci.c ****    */
 616:Middlewares/ST/STM32_WPAN/interface/patterns/ble_thread/shci/shci.c ****   uint8_t local_buffer[TL_BLEEVT_CS_BUFFER_SIZE];
 1551              		.loc 1 616 3 is_stmt 1 view .LVU364
 617:Middlewares/ST/STM32_WPAN/interface/patterns/ble_thread/shci/shci.c ****   TL_EvtPacket_t * p_rsp;
 1552              		.loc 1 617 3 view .LVU365
 618:Middlewares/ST/STM32_WPAN/interface/patterns/ble_thread/shci/shci.c **** 
 619:Middlewares/ST/STM32_WPAN/interface/patterns/ble_thread/shci/shci.c ****   p_rsp = (TL_EvtPacket_t *)local_buffer;
 1553              		.loc 1 619 3 view .LVU366
 1554              	.LVL138:
 620:Middlewares/ST/STM32_WPAN/interface/patterns/ble_thread/shci/shci.c **** 
 621:Middlewares/ST/STM32_WPAN/interface/patterns/ble_thread/shci/shci.c ****   shci_send( SHCI_OPCODE_C2_CONFIG,
 1555              		.loc 1 621 3 view .LVU367
 1556 0006 6B46     		mov	r3, sp
 1557 0008 0E21     		movs	r1, #14
 1558 000a 4FF67540 		movw	r0, #64629
 1559              	.LVL139:
 1560              		.loc 1 621 3 is_stmt 0 view .LVU368
 1561 000e FFF7FEFF 		bl	shci_send
 1562              	.LVL140:
 622:Middlewares/ST/STM32_WPAN/interface/patterns/ble_thread/shci/shci.c ****              sizeof(SHCI_C2_CONFIG_Cmd_Param_t),
 623:Middlewares/ST/STM32_WPAN/interface/patterns/ble_thread/shci/shci.c ****              (uint8_t*)pCmdPacket,
 624:Middlewares/ST/STM32_WPAN/interface/patterns/ble_thread/shci/shci.c ****              p_rsp );
 625:Middlewares/ST/STM32_WPAN/interface/patterns/ble_thread/shci/shci.c **** 
 626:Middlewares/ST/STM32_WPAN/interface/patterns/ble_thread/shci/shci.c ****   return (SHCI_CmdStatus_t)(((TL_CcEvt_t*)(p_rsp->evtserial.evt.payload))->payload[0]);
 1563              		.loc 1 626 3 is_stmt 1 view .LVU369
 627:Middlewares/ST/STM32_WPAN/interface/patterns/ble_thread/shci/shci.c **** }
 1564              		.loc 1 627 1 is_stmt 0 view .LVU370
 1565 0012 9DF80E00 		ldrb	r0, [sp, #14]	@ zero_extendqisi2
 1566 0016 05B0     		add	sp, sp, #20
 1567              	.LCFI88:
 1568              		.cfi_def_cfa_offset 4
 1569              	.LVL141:
 1570              		.loc 1 627 1 view .LVU371
 1571              		@ sp needed
 1572 0018 5DF804FB 		ldr	pc, [sp], #4
 1573              		.loc 1 627 1 view .LVU372
 1574              		.cfi_endproc
 1575              	.LFE1135:
 1577              		.section	.text.SHCI_C2_802_15_4_DeInit,"ax",%progbits
 1578              		.align	1
 1579              		.global	SHCI_C2_802_15_4_DeInit
 1580              		.syntax unified
 1581              		.thumb
 1582              		.thumb_func
 1583              		.fpu fpv4-sp-d16
 1585              	SHCI_C2_802_15_4_DeInit:
 1586              	.LFB1136:
 628:Middlewares/ST/STM32_WPAN/interface/patterns/ble_thread/shci/shci.c **** 
 629:Middlewares/ST/STM32_WPAN/interface/patterns/ble_thread/shci/shci.c **** SHCI_CmdStatus_t SHCI_C2_802_15_4_DeInit( void )
 630:Middlewares/ST/STM32_WPAN/interface/patterns/ble_thread/shci/shci.c **** {
 1587              		.loc 1 630 1 is_stmt 1 view -0
 1588              		.cfi_startproc
 1589              		@ args = 0, pretend = 0, frame = 16
ARM GAS  /var/folders/lt/l_qrc8c54t93n_phsj7cf5tc0000gn/T//ccRwmTUQ.s 			page 39


 1590              		@ frame_needed = 0, uses_anonymous_args = 0
 1591 0000 00B5     		push	{lr}
 1592              	.LCFI89:
 1593              		.cfi_def_cfa_offset 4
 1594              		.cfi_offset 14, -4
 1595 0002 85B0     		sub	sp, sp, #20
 1596              	.LCFI90:
 1597              		.cfi_def_cfa_offset 24
 631:Middlewares/ST/STM32_WPAN/interface/patterns/ble_thread/shci/shci.c ****   /**
 632:Middlewares/ST/STM32_WPAN/interface/patterns/ble_thread/shci/shci.c ****    * Buffer is large enough to hold command complete without payload
 633:Middlewares/ST/STM32_WPAN/interface/patterns/ble_thread/shci/shci.c ****    */
 634:Middlewares/ST/STM32_WPAN/interface/patterns/ble_thread/shci/shci.c ****   uint8_t local_buffer[TL_BLEEVT_CS_BUFFER_SIZE];
 1598              		.loc 1 634 3 view .LVU374
 635:Middlewares/ST/STM32_WPAN/interface/patterns/ble_thread/shci/shci.c ****   TL_EvtPacket_t * p_rsp;
 1599              		.loc 1 635 3 view .LVU375
 636:Middlewares/ST/STM32_WPAN/interface/patterns/ble_thread/shci/shci.c **** 
 637:Middlewares/ST/STM32_WPAN/interface/patterns/ble_thread/shci/shci.c ****   p_rsp = (TL_EvtPacket_t *)local_buffer;
 1600              		.loc 1 637 3 view .LVU376
 1601              	.LVL142:
 638:Middlewares/ST/STM32_WPAN/interface/patterns/ble_thread/shci/shci.c **** 
 639:Middlewares/ST/STM32_WPAN/interface/patterns/ble_thread/shci/shci.c ****   shci_send( SHCI_OPCODE_C2_802_15_4_DEINIT,
 1602              		.loc 1 639 3 view .LVU377
 1603 0004 6B46     		mov	r3, sp
 1604 0006 0022     		movs	r2, #0
 1605 0008 1146     		mov	r1, r2
 1606 000a 4FF67840 		movw	r0, #64632
 1607 000e FFF7FEFF 		bl	shci_send
 1608              	.LVL143:
 640:Middlewares/ST/STM32_WPAN/interface/patterns/ble_thread/shci/shci.c ****              0,
 641:Middlewares/ST/STM32_WPAN/interface/patterns/ble_thread/shci/shci.c ****              0,
 642:Middlewares/ST/STM32_WPAN/interface/patterns/ble_thread/shci/shci.c ****              p_rsp );
 643:Middlewares/ST/STM32_WPAN/interface/patterns/ble_thread/shci/shci.c **** 
 644:Middlewares/ST/STM32_WPAN/interface/patterns/ble_thread/shci/shci.c ****   return (SHCI_CmdStatus_t)(((TL_CcEvt_t*)(p_rsp->evtserial.evt.payload))->payload[0]);
 1609              		.loc 1 644 3 view .LVU378
 645:Middlewares/ST/STM32_WPAN/interface/patterns/ble_thread/shci/shci.c **** }
 1610              		.loc 1 645 1 is_stmt 0 view .LVU379
 1611 0012 9DF80E00 		ldrb	r0, [sp, #14]	@ zero_extendqisi2
 1612 0016 05B0     		add	sp, sp, #20
 1613              	.LCFI91:
 1614              		.cfi_def_cfa_offset 4
 1615              	.LVL144:
 1616              		.loc 1 645 1 view .LVU380
 1617              		@ sp needed
 1618 0018 5DF804FB 		ldr	pc, [sp], #4
 1619              		.loc 1 645 1 view .LVU381
 1620              		.cfi_endproc
 1621              	.LFE1136:
 1623              		.section	.text.SHCI_GetWirelessFwInfo,"ax",%progbits
 1624              		.align	1
 1625              		.global	SHCI_GetWirelessFwInfo
 1626              		.syntax unified
 1627              		.thumb
 1628              		.thumb_func
 1629              		.fpu fpv4-sp-d16
 1631              	SHCI_GetWirelessFwInfo:
 1632              	.LVL145:
 1633              	.LFB1137:
ARM GAS  /var/folders/lt/l_qrc8c54t93n_phsj7cf5tc0000gn/T//ccRwmTUQ.s 			page 40


 646:Middlewares/ST/STM32_WPAN/interface/patterns/ble_thread/shci/shci.c **** 
 647:Middlewares/ST/STM32_WPAN/interface/patterns/ble_thread/shci/shci.c **** /**
 648:Middlewares/ST/STM32_WPAN/interface/patterns/ble_thread/shci/shci.c ****  *  Local System COMMAND
 649:Middlewares/ST/STM32_WPAN/interface/patterns/ble_thread/shci/shci.c ****  *  These commands are NOT sent to the CPU2
 650:Middlewares/ST/STM32_WPAN/interface/patterns/ble_thread/shci/shci.c ****  */
 651:Middlewares/ST/STM32_WPAN/interface/patterns/ble_thread/shci/shci.c **** 
 652:Middlewares/ST/STM32_WPAN/interface/patterns/ble_thread/shci/shci.c **** SHCI_CmdStatus_t SHCI_GetWirelessFwInfo( WirelessFwInfo_t* pWirelessInfo )
 653:Middlewares/ST/STM32_WPAN/interface/patterns/ble_thread/shci/shci.c **** {
 1634              		.loc 1 653 1 is_stmt 1 view -0
 1635              		.cfi_startproc
 1636              		@ args = 0, pretend = 0, frame = 0
 1637              		@ frame_needed = 0, uses_anonymous_args = 0
 1638              		@ link register save eliminated.
 1639              		.loc 1 653 1 is_stmt 0 view .LVU383
 1640 0000 70B4     		push	{r4, r5, r6}
 1641              	.LCFI92:
 1642              		.cfi_def_cfa_offset 12
 1643              		.cfi_offset 4, -12
 1644              		.cfi_offset 5, -8
 1645              		.cfi_offset 6, -4
 654:Middlewares/ST/STM32_WPAN/interface/patterns/ble_thread/shci/shci.c ****   uint32_t ipccdba = 0;
 1646              		.loc 1 654 3 is_stmt 1 view .LVU384
 1647              	.LVL146:
 655:Middlewares/ST/STM32_WPAN/interface/patterns/ble_thread/shci/shci.c ****   MB_RefTable_t * p_RefTable = NULL;
 1648              		.loc 1 655 3 view .LVU385
 656:Middlewares/ST/STM32_WPAN/interface/patterns/ble_thread/shci/shci.c ****   uint32_t wireless_firmware_version = 0;
 1649              		.loc 1 656 3 view .LVU386
 657:Middlewares/ST/STM32_WPAN/interface/patterns/ble_thread/shci/shci.c ****   uint32_t wireless_firmware_memorySize = 0;
 1650              		.loc 1 657 3 view .LVU387
 658:Middlewares/ST/STM32_WPAN/interface/patterns/ble_thread/shci/shci.c ****   uint32_t wireless_firmware_infoStack = 0;
 1651              		.loc 1 658 3 view .LVU388
 659:Middlewares/ST/STM32_WPAN/interface/patterns/ble_thread/shci/shci.c ****   MB_FUS_DeviceInfoTable_t * p_fus_device_info_table = NULL;
 1652              		.loc 1 659 3 view .LVU389
 660:Middlewares/ST/STM32_WPAN/interface/patterns/ble_thread/shci/shci.c ****   uint32_t fus_version = 0;
 1653              		.loc 1 660 3 view .LVU390
 661:Middlewares/ST/STM32_WPAN/interface/patterns/ble_thread/shci/shci.c ****   uint32_t fus_memorySize = 0;
 1654              		.loc 1 661 3 view .LVU391
 662:Middlewares/ST/STM32_WPAN/interface/patterns/ble_thread/shci/shci.c **** 
 663:Middlewares/ST/STM32_WPAN/interface/patterns/ble_thread/shci/shci.c ****   ipccdba = READ_BIT( FLASH->IPCCBR, FLASH_IPCCBR_IPCCDBA );
 1655              		.loc 1 663 3 view .LVU392
 1656              		.loc 1 663 13 is_stmt 0 view .LVU393
 1657 0002 1D4B     		ldr	r3, .L73
 1658 0004 DB6B     		ldr	r3, [r3, #60]
 1659              		.loc 1 663 11 view .LVU394
 1660 0006 C3F30D03 		ubfx	r3, r3, #0, #14
 1661              	.LVL147:
 664:Middlewares/ST/STM32_WPAN/interface/patterns/ble_thread/shci/shci.c **** 
 665:Middlewares/ST/STM32_WPAN/interface/patterns/ble_thread/shci/shci.c ****   /**
 666:Middlewares/ST/STM32_WPAN/interface/patterns/ble_thread/shci/shci.c ****    * The Device Info Table mapping depends on which firmware is running on CPU2.
 667:Middlewares/ST/STM32_WPAN/interface/patterns/ble_thread/shci/shci.c ****    * If the FUS is running on CPU2, FUS_DEVICE_INFO_TABLE_VALIDITY_KEYWORD shall be written in the 
 668:Middlewares/ST/STM32_WPAN/interface/patterns/ble_thread/shci/shci.c ****    * Otherwise, it means the Wireless Firmware is running on the CPU2
 669:Middlewares/ST/STM32_WPAN/interface/patterns/ble_thread/shci/shci.c ****    */
 670:Middlewares/ST/STM32_WPAN/interface/patterns/ble_thread/shci/shci.c ****   p_fus_device_info_table = (MB_FUS_DeviceInfoTable_t*)(*(uint32_t*)((ipccdba<<2) + SRAM2A_BASE));
 1662              		.loc 1 670 3 is_stmt 1 view .LVU395
 1663              		.loc 1 670 78 is_stmt 0 view .LVU396
 1664 000a 9B00     		lsls	r3, r3, #2
 1665              	.LVL148:
ARM GAS  /var/folders/lt/l_qrc8c54t93n_phsj7cf5tc0000gn/T//ccRwmTUQ.s 			page 41


 1666              		.loc 1 670 83 view .LVU397
 1667 000c 03F10053 		add	r3, r3, #536870912
 1668 0010 03F54033 		add	r3, r3, #196608
 1669              		.loc 1 670 57 view .LVU398
 1670 0014 1A68     		ldr	r2, [r3]
 1671              	.LVL149:
 671:Middlewares/ST/STM32_WPAN/interface/patterns/ble_thread/shci/shci.c **** 
 672:Middlewares/ST/STM32_WPAN/interface/patterns/ble_thread/shci/shci.c ****   if(p_fus_device_info_table->DeviceInfoTableState == FUS_DEVICE_INFO_TABLE_VALIDITY_KEYWORD)
 1672              		.loc 1 672 3 is_stmt 1 view .LVU399
 1673              		.loc 1 672 29 is_stmt 0 view .LVU400
 1674 0016 1168     		ldr	r1, [r2]
 1675              		.loc 1 672 5 view .LVU401
 1676 0018 184B     		ldr	r3, .L73+4
 1677 001a 9942     		cmp	r1, r3
 1678 001c 26D0     		beq	.L72
 673:Middlewares/ST/STM32_WPAN/interface/patterns/ble_thread/shci/shci.c ****   {
 674:Middlewares/ST/STM32_WPAN/interface/patterns/ble_thread/shci/shci.c ****     /* The FUS is running on CPU2 */
 675:Middlewares/ST/STM32_WPAN/interface/patterns/ble_thread/shci/shci.c ****     /**
 676:Middlewares/ST/STM32_WPAN/interface/patterns/ble_thread/shci/shci.c ****      *  Retrieve the WirelessFwInfoTable
 677:Middlewares/ST/STM32_WPAN/interface/patterns/ble_thread/shci/shci.c ****      *  This table is stored in RAM at startup during the TL (transport layer) initialization
 678:Middlewares/ST/STM32_WPAN/interface/patterns/ble_thread/shci/shci.c ****      */
 679:Middlewares/ST/STM32_WPAN/interface/patterns/ble_thread/shci/shci.c ****     wireless_firmware_version =  p_fus_device_info_table->WirelessStackVersion;
 680:Middlewares/ST/STM32_WPAN/interface/patterns/ble_thread/shci/shci.c ****     wireless_firmware_memorySize =  p_fus_device_info_table->WirelessStackMemorySize;
 681:Middlewares/ST/STM32_WPAN/interface/patterns/ble_thread/shci/shci.c ****     wireless_firmware_infoStack =  p_fus_device_info_table->WirelessFirmwareBleInfo;
 682:Middlewares/ST/STM32_WPAN/interface/patterns/ble_thread/shci/shci.c **** 
 683:Middlewares/ST/STM32_WPAN/interface/patterns/ble_thread/shci/shci.c ****     /**
 684:Middlewares/ST/STM32_WPAN/interface/patterns/ble_thread/shci/shci.c ****      *  Retrieve the FusInfoTable
 685:Middlewares/ST/STM32_WPAN/interface/patterns/ble_thread/shci/shci.c ****      *  This table is stored in RAM at startup during the TL (transport layer) initialization
 686:Middlewares/ST/STM32_WPAN/interface/patterns/ble_thread/shci/shci.c ****      */
 687:Middlewares/ST/STM32_WPAN/interface/patterns/ble_thread/shci/shci.c ****     fus_version =  p_fus_device_info_table->FusVersion;
 688:Middlewares/ST/STM32_WPAN/interface/patterns/ble_thread/shci/shci.c ****     fus_memorySize =  p_fus_device_info_table->FusMemorySize;
 689:Middlewares/ST/STM32_WPAN/interface/patterns/ble_thread/shci/shci.c ****   }
 690:Middlewares/ST/STM32_WPAN/interface/patterns/ble_thread/shci/shci.c ****   else
 691:Middlewares/ST/STM32_WPAN/interface/patterns/ble_thread/shci/shci.c ****   {
 692:Middlewares/ST/STM32_WPAN/interface/patterns/ble_thread/shci/shci.c ****     /* The Wireless Firmware is running on CPU2 */
 693:Middlewares/ST/STM32_WPAN/interface/patterns/ble_thread/shci/shci.c ****     p_RefTable = (MB_RefTable_t*)((ipccdba<<2) + SRAM2A_BASE);
 1679              		.loc 1 693 5 is_stmt 1 view .LVU402
 1680              	.LVL150:
 694:Middlewares/ST/STM32_WPAN/interface/patterns/ble_thread/shci/shci.c **** 
 695:Middlewares/ST/STM32_WPAN/interface/patterns/ble_thread/shci/shci.c ****     /**
 696:Middlewares/ST/STM32_WPAN/interface/patterns/ble_thread/shci/shci.c ****      *  Retrieve the WirelessFwInfoTable
 697:Middlewares/ST/STM32_WPAN/interface/patterns/ble_thread/shci/shci.c ****      *  This table is stored in RAM at startup during the TL (transport layer) initialization
 698:Middlewares/ST/STM32_WPAN/interface/patterns/ble_thread/shci/shci.c ****      */
 699:Middlewares/ST/STM32_WPAN/interface/patterns/ble_thread/shci/shci.c ****     wireless_firmware_version =  p_RefTable->p_device_info_table->WirelessFwInfoTable.Version;
 1681              		.loc 1 699 5 view .LVU403
 1682              		.loc 1 699 31 is_stmt 0 view .LVU404
 1683 001e 1369     		ldr	r3, [r2, #16]	@ unaligned
 1684              	.LVL151:
 700:Middlewares/ST/STM32_WPAN/interface/patterns/ble_thread/shci/shci.c ****     wireless_firmware_memorySize =  p_RefTable->p_device_info_table->WirelessFwInfoTable.MemorySize
 1685              		.loc 1 700 5 is_stmt 1 view .LVU405
 1686              		.loc 1 700 34 is_stmt 0 view .LVU406
 1687 0020 5469     		ldr	r4, [r2, #20]	@ unaligned
 1688              	.LVL152:
 701:Middlewares/ST/STM32_WPAN/interface/patterns/ble_thread/shci/shci.c ****     wireless_firmware_infoStack =  p_RefTable->p_device_info_table->WirelessFwInfoTable.InfoStack;
 1689              		.loc 1 701 5 is_stmt 1 view .LVU407
 1690              		.loc 1 701 33 is_stmt 0 view .LVU408
 1691 0022 9569     		ldr	r5, [r2, #24]	@ unaligned
ARM GAS  /var/folders/lt/l_qrc8c54t93n_phsj7cf5tc0000gn/T//ccRwmTUQ.s 			page 42


 1692              	.LVL153:
 702:Middlewares/ST/STM32_WPAN/interface/patterns/ble_thread/shci/shci.c **** 
 703:Middlewares/ST/STM32_WPAN/interface/patterns/ble_thread/shci/shci.c ****     /**
 704:Middlewares/ST/STM32_WPAN/interface/patterns/ble_thread/shci/shci.c ****      *  Retrieve the FusInfoTable
 705:Middlewares/ST/STM32_WPAN/interface/patterns/ble_thread/shci/shci.c ****      *  This table is stored in RAM at startup during the TL (transport layer) initialization
 706:Middlewares/ST/STM32_WPAN/interface/patterns/ble_thread/shci/shci.c ****      */
 707:Middlewares/ST/STM32_WPAN/interface/patterns/ble_thread/shci/shci.c ****     fus_version =  p_RefTable->p_device_info_table->FusInfoTable.Version;
 1693              		.loc 1 707 5 is_stmt 1 view .LVU409
 1694              		.loc 1 707 17 is_stmt 0 view .LVU410
 1695 0024 5168     		ldr	r1, [r2, #4]	@ unaligned
 1696              	.LVL154:
 708:Middlewares/ST/STM32_WPAN/interface/patterns/ble_thread/shci/shci.c ****     fus_memorySize =  p_RefTable->p_device_info_table->FusInfoTable.MemorySize;
 1697              		.loc 1 708 5 is_stmt 1 view .LVU411
 1698              		.loc 1 708 20 is_stmt 0 view .LVU412
 1699 0026 9268     		ldr	r2, [r2, #8]	@ unaligned
 1700              	.LVL155:
 1701              	.L70:
 709:Middlewares/ST/STM32_WPAN/interface/patterns/ble_thread/shci/shci.c ****   }
 710:Middlewares/ST/STM32_WPAN/interface/patterns/ble_thread/shci/shci.c **** 
 711:Middlewares/ST/STM32_WPAN/interface/patterns/ble_thread/shci/shci.c ****   /**
 712:Middlewares/ST/STM32_WPAN/interface/patterns/ble_thread/shci/shci.c ****    *  Retrieve the WirelessFwInfoTable
 713:Middlewares/ST/STM32_WPAN/interface/patterns/ble_thread/shci/shci.c ****    *  This table is stored in RAM at startup during the TL (transport layer) initialization
 714:Middlewares/ST/STM32_WPAN/interface/patterns/ble_thread/shci/shci.c ****    */
 715:Middlewares/ST/STM32_WPAN/interface/patterns/ble_thread/shci/shci.c ****   pWirelessInfo->VersionMajor       = ((wireless_firmware_version & INFO_VERSION_MAJOR_MASK) >> INF
 1702              		.loc 1 715 3 is_stmt 1 view .LVU413
 1703              		.loc 1 715 94 is_stmt 0 view .LVU414
 1704 0028 1E0E     		lsrs	r6, r3, #24
 1705              		.loc 1 715 37 view .LVU415
 1706 002a 0670     		strb	r6, [r0]
 716:Middlewares/ST/STM32_WPAN/interface/patterns/ble_thread/shci/shci.c ****   pWirelessInfo->VersionMinor       = ((wireless_firmware_version & INFO_VERSION_MINOR_MASK) >> INF
 1707              		.loc 1 716 3 is_stmt 1 view .LVU416
 1708              		.loc 1 716 94 is_stmt 0 view .LVU417
 1709 002c 1E0C     		lsrs	r6, r3, #16
 1710              		.loc 1 716 37 view .LVU418
 1711 002e 4670     		strb	r6, [r0, #1]
 717:Middlewares/ST/STM32_WPAN/interface/patterns/ble_thread/shci/shci.c ****   pWirelessInfo->VersionSub         = ((wireless_firmware_version & INFO_VERSION_SUB_MASK) >> INFO_
 1712              		.loc 1 717 3 is_stmt 1 view .LVU419
 1713              		.loc 1 717 92 is_stmt 0 view .LVU420
 1714 0030 1E0A     		lsrs	r6, r3, #8
 1715              		.loc 1 717 37 view .LVU421
 1716 0032 8670     		strb	r6, [r0, #2]
 718:Middlewares/ST/STM32_WPAN/interface/patterns/ble_thread/shci/shci.c ****   pWirelessInfo->VersionBranch      = ((wireless_firmware_version & INFO_VERSION_BRANCH_MASK) >> IN
 1717              		.loc 1 718 3 is_stmt 1 view .LVU422
 1718              		.loc 1 718 95 is_stmt 0 view .LVU423
 1719 0034 C3F30316 		ubfx	r6, r3, #4, #4
 1720              		.loc 1 718 37 view .LVU424
 1721 0038 C670     		strb	r6, [r0, #3]
 719:Middlewares/ST/STM32_WPAN/interface/patterns/ble_thread/shci/shci.c ****   pWirelessInfo->VersionReleaseType = ((wireless_firmware_version & INFO_VERSION_TYPE_MASK) >> INFO
 1722              		.loc 1 719 3 is_stmt 1 view .LVU425
 1723              		.loc 1 719 93 is_stmt 0 view .LVU426
 1724 003a 03F00F03 		and	r3, r3, #15
 1725              	.LVL156:
 1726              		.loc 1 719 37 view .LVU427
 1727 003e 0371     		strb	r3, [r0, #4]
 720:Middlewares/ST/STM32_WPAN/interface/patterns/ble_thread/shci/shci.c **** 
 721:Middlewares/ST/STM32_WPAN/interface/patterns/ble_thread/shci/shci.c ****   pWirelessInfo->MemorySizeSram2B   = ((wireless_firmware_memorySize & INFO_SIZE_SRAM2B_MASK) >> IN
 1728              		.loc 1 721 3 is_stmt 1 view .LVU428
ARM GAS  /var/folders/lt/l_qrc8c54t93n_phsj7cf5tc0000gn/T//ccRwmTUQ.s 			page 43


 1729              		.loc 1 721 95 is_stmt 0 view .LVU429
 1730 0040 230E     		lsrs	r3, r4, #24
 1731              		.loc 1 721 37 view .LVU430
 1732 0042 4371     		strb	r3, [r0, #5]
 722:Middlewares/ST/STM32_WPAN/interface/patterns/ble_thread/shci/shci.c ****   pWirelessInfo->MemorySizeSram2A   = ((wireless_firmware_memorySize & INFO_SIZE_SRAM2A_MASK) >> IN
 1733              		.loc 1 722 3 is_stmt 1 view .LVU431
 1734              		.loc 1 722 95 is_stmt 0 view .LVU432
 1735 0044 230C     		lsrs	r3, r4, #16
 1736              		.loc 1 722 37 view .LVU433
 1737 0046 8371     		strb	r3, [r0, #6]
 723:Middlewares/ST/STM32_WPAN/interface/patterns/ble_thread/shci/shci.c ****   pWirelessInfo->MemorySizeSram1    = ((wireless_firmware_memorySize & INFO_SIZE_SRAM1_MASK) >> INF
 1738              		.loc 1 723 3 is_stmt 1 view .LVU434
 1739              		.loc 1 723 94 is_stmt 0 view .LVU435
 1740 0048 230A     		lsrs	r3, r4, #8
 1741              		.loc 1 723 37 view .LVU436
 1742 004a C371     		strb	r3, [r0, #7]
 724:Middlewares/ST/STM32_WPAN/interface/patterns/ble_thread/shci/shci.c ****   pWirelessInfo->MemorySizeFlash    = ((wireless_firmware_memorySize & INFO_SIZE_FLASH_MASK) >> INF
 1743              		.loc 1 724 3 is_stmt 1 view .LVU437
 1744              		.loc 1 724 37 is_stmt 0 view .LVU438
 1745 004c 0472     		strb	r4, [r0, #8]
 725:Middlewares/ST/STM32_WPAN/interface/patterns/ble_thread/shci/shci.c **** 
 726:Middlewares/ST/STM32_WPAN/interface/patterns/ble_thread/shci/shci.c ****   pWirelessInfo->StackType          = ((wireless_firmware_infoStack & INFO_STACK_TYPE_MASK) >> INFO
 1746              		.loc 1 726 3 is_stmt 1 view .LVU439
 1747              		.loc 1 726 37 is_stmt 0 view .LVU440
 1748 004e 4572     		strb	r5, [r0, #9]
 727:Middlewares/ST/STM32_WPAN/interface/patterns/ble_thread/shci/shci.c **** 
 728:Middlewares/ST/STM32_WPAN/interface/patterns/ble_thread/shci/shci.c ****   /**
 729:Middlewares/ST/STM32_WPAN/interface/patterns/ble_thread/shci/shci.c ****    *  Retrieve the FusInfoTable
 730:Middlewares/ST/STM32_WPAN/interface/patterns/ble_thread/shci/shci.c ****    *  This table is stored in RAM at startup during the TL (transport layer) initialization
 731:Middlewares/ST/STM32_WPAN/interface/patterns/ble_thread/shci/shci.c ****    */
 732:Middlewares/ST/STM32_WPAN/interface/patterns/ble_thread/shci/shci.c ****   pWirelessInfo->FusVersionMajor       = ((fus_version & INFO_VERSION_MAJOR_MASK) >> INFO_VERSION_M
 1749              		.loc 1 732 3 is_stmt 1 view .LVU441
 1750              		.loc 1 732 83 is_stmt 0 view .LVU442
 1751 0050 0B0E     		lsrs	r3, r1, #24
 1752              		.loc 1 732 40 view .LVU443
 1753 0052 8372     		strb	r3, [r0, #10]
 733:Middlewares/ST/STM32_WPAN/interface/patterns/ble_thread/shci/shci.c ****   pWirelessInfo->FusVersionMinor       = ((fus_version & INFO_VERSION_MINOR_MASK) >> INFO_VERSION_M
 1754              		.loc 1 733 3 is_stmt 1 view .LVU444
 1755              		.loc 1 733 83 is_stmt 0 view .LVU445
 1756 0054 0B0C     		lsrs	r3, r1, #16
 1757              		.loc 1 733 40 view .LVU446
 1758 0056 C372     		strb	r3, [r0, #11]
 734:Middlewares/ST/STM32_WPAN/interface/patterns/ble_thread/shci/shci.c ****   pWirelessInfo->FusVersionSub         = ((fus_version & INFO_VERSION_SUB_MASK) >> INFO_VERSION_SUB
 1759              		.loc 1 734 3 is_stmt 1 view .LVU447
 1760              		.loc 1 734 81 is_stmt 0 view .LVU448
 1761 0058 090A     		lsrs	r1, r1, #8
 1762              	.LVL157:
 1763              		.loc 1 734 40 view .LVU449
 1764 005a 0173     		strb	r1, [r0, #12]
 735:Middlewares/ST/STM32_WPAN/interface/patterns/ble_thread/shci/shci.c **** 
 736:Middlewares/ST/STM32_WPAN/interface/patterns/ble_thread/shci/shci.c ****   pWirelessInfo->FusMemorySizeSram2B   = ((fus_memorySize & INFO_SIZE_SRAM2B_MASK) >> INFO_SIZE_SRA
 1765              		.loc 1 736 3 is_stmt 1 view .LVU450
 1766              		.loc 1 736 84 is_stmt 0 view .LVU451
 1767 005c 130E     		lsrs	r3, r2, #24
 1768              		.loc 1 736 40 view .LVU452
 1769 005e 4373     		strb	r3, [r0, #13]
 737:Middlewares/ST/STM32_WPAN/interface/patterns/ble_thread/shci/shci.c ****   pWirelessInfo->FusMemorySizeSram2A   = ((fus_memorySize & INFO_SIZE_SRAM2A_MASK) >> INFO_SIZE_SRA
ARM GAS  /var/folders/lt/l_qrc8c54t93n_phsj7cf5tc0000gn/T//ccRwmTUQ.s 			page 44


 1770              		.loc 1 737 3 is_stmt 1 view .LVU453
 1771              		.loc 1 737 84 is_stmt 0 view .LVU454
 1772 0060 130C     		lsrs	r3, r2, #16
 1773              		.loc 1 737 40 view .LVU455
 1774 0062 8373     		strb	r3, [r0, #14]
 738:Middlewares/ST/STM32_WPAN/interface/patterns/ble_thread/shci/shci.c ****   pWirelessInfo->FusMemorySizeFlash    = ((fus_memorySize & INFO_SIZE_FLASH_MASK) >> INFO_SIZE_FLAS
 1775              		.loc 1 738 3 is_stmt 1 view .LVU456
 1776              		.loc 1 738 40 is_stmt 0 view .LVU457
 1777 0064 C273     		strb	r2, [r0, #15]
 739:Middlewares/ST/STM32_WPAN/interface/patterns/ble_thread/shci/shci.c **** 
 740:Middlewares/ST/STM32_WPAN/interface/patterns/ble_thread/shci/shci.c ****   return (SHCI_Success);
 1778              		.loc 1 740 3 is_stmt 1 view .LVU458
 741:Middlewares/ST/STM32_WPAN/interface/patterns/ble_thread/shci/shci.c **** }
 1779              		.loc 1 741 1 is_stmt 0 view .LVU459
 1780 0066 0020     		movs	r0, #0
 1781              	.LVL158:
 1782              		.loc 1 741 1 view .LVU460
 1783 0068 70BC     		pop	{r4, r5, r6}
 1784              	.LCFI93:
 1785              		.cfi_remember_state
 1786              		.cfi_restore 6
 1787              		.cfi_restore 5
 1788              		.cfi_restore 4
 1789              		.cfi_def_cfa_offset 0
 1790              	.LVL159:
 1791              		.loc 1 741 1 view .LVU461
 1792 006a 7047     		bx	lr
 1793              	.LVL160:
 1794              	.L72:
 1795              	.LCFI94:
 1796              		.cfi_restore_state
 679:Middlewares/ST/STM32_WPAN/interface/patterns/ble_thread/shci/shci.c ****     wireless_firmware_memorySize =  p_fus_device_info_table->WirelessStackMemorySize;
 1797              		.loc 1 679 5 is_stmt 1 view .LVU462
 679:Middlewares/ST/STM32_WPAN/interface/patterns/ble_thread/shci/shci.c ****     wireless_firmware_memorySize =  p_fus_device_info_table->WirelessStackMemorySize;
 1798              		.loc 1 679 31 is_stmt 0 view .LVU463
 1799 006c 5369     		ldr	r3, [r2, #20]
 1800              	.LVL161:
 680:Middlewares/ST/STM32_WPAN/interface/patterns/ble_thread/shci/shci.c ****     wireless_firmware_infoStack =  p_fus_device_info_table->WirelessFirmwareBleInfo;
 1801              		.loc 1 680 5 is_stmt 1 view .LVU464
 680:Middlewares/ST/STM32_WPAN/interface/patterns/ble_thread/shci/shci.c ****     wireless_firmware_infoStack =  p_fus_device_info_table->WirelessFirmwareBleInfo;
 1802              		.loc 1 680 34 is_stmt 0 view .LVU465
 1803 006e 9469     		ldr	r4, [r2, #24]
 1804              	.LVL162:
 681:Middlewares/ST/STM32_WPAN/interface/patterns/ble_thread/shci/shci.c **** 
 1805              		.loc 1 681 5 is_stmt 1 view .LVU466
 681:Middlewares/ST/STM32_WPAN/interface/patterns/ble_thread/shci/shci.c **** 
 1806              		.loc 1 681 33 is_stmt 0 view .LVU467
 1807 0070 D569     		ldr	r5, [r2, #28]
 1808              	.LVL163:
 687:Middlewares/ST/STM32_WPAN/interface/patterns/ble_thread/shci/shci.c ****     fus_memorySize =  p_fus_device_info_table->FusMemorySize;
 1809              		.loc 1 687 5 is_stmt 1 view .LVU468
 687:Middlewares/ST/STM32_WPAN/interface/patterns/ble_thread/shci/shci.c ****     fus_memorySize =  p_fus_device_info_table->FusMemorySize;
 1810              		.loc 1 687 17 is_stmt 0 view .LVU469
 1811 0072 D168     		ldr	r1, [r2, #12]
 1812              	.LVL164:
 688:Middlewares/ST/STM32_WPAN/interface/patterns/ble_thread/shci/shci.c ****   }
 1813              		.loc 1 688 5 is_stmt 1 view .LVU470
ARM GAS  /var/folders/lt/l_qrc8c54t93n_phsj7cf5tc0000gn/T//ccRwmTUQ.s 			page 45


 688:Middlewares/ST/STM32_WPAN/interface/patterns/ble_thread/shci/shci.c ****   }
 1814              		.loc 1 688 20 is_stmt 0 view .LVU471
 1815 0074 1269     		ldr	r2, [r2, #16]
 1816              	.LVL165:
 688:Middlewares/ST/STM32_WPAN/interface/patterns/ble_thread/shci/shci.c ****   }
 1817              		.loc 1 688 20 view .LVU472
 1818 0076 D7E7     		b	.L70
 1819              	.L74:
 1820              		.align	2
 1821              	.L73:
 1822 0078 00400058 		.word	1476411392
 1823 007c B95646A9 		.word	-1455008071
 1824              		.cfi_endproc
 1825              	.LFE1137:
 1827              		.text
 1828              	.Letext0:
 1829              		.file 2 "/usr/local/Cellar/arm-none-eabi-gcc/9-2019-q4-major/gcc/arm-none-eabi/include/machine/_de
 1830              		.file 3 "/usr/local/Cellar/arm-none-eabi-gcc/9-2019-q4-major/gcc/arm-none-eabi/include/sys/_stdint
 1831              		.file 4 "/usr/local/Cellar/arm-none-eabi-gcc/9-2019-q4-major/gcc/arm-none-eabi/include/sys/lock.h"
 1832              		.file 5 "/usr/local/Cellar/arm-none-eabi-gcc/9-2019-q4-major/gcc/arm-none-eabi/include/sys/_types.
 1833              		.file 6 "/usr/local/Cellar/arm-none-eabi-gcc/9-2019-q4-major/gcc/lib/gcc/arm-none-eabi/9.2.1/inclu
 1834              		.file 7 "/usr/local/Cellar/arm-none-eabi-gcc/9-2019-q4-major/gcc/arm-none-eabi/include/sys/reent.h
 1835              		.file 8 "/usr/local/Cellar/arm-none-eabi-gcc/9-2019-q4-major/gcc/arm-none-eabi/include/stdlib.h"
 1836              		.file 9 "Middlewares/ST/STM32_WPAN/interface/patterns/ble_thread/tl/tl.h"
 1837              		.file 10 "Middlewares/ST/STM32_WPAN/interface/patterns/ble_thread/tl/mbox_def.h"
 1838              		.file 11 "Middlewares/ST/STM32_WPAN/interface/patterns/ble_thread/shci/shci.h"
 1839              		.file 12 "Drivers/CMSIS/Include/core_cm4.h"
 1840              		.file 13 "Drivers/CMSIS/Device/ST/STM32WBxx/Include/system_stm32wbxx.h"
 1841              		.file 14 "Drivers/CMSIS/Device/ST/STM32WBxx/Include/stm32wb55xx.h"
 1842              		.file 15 "Drivers/STM32WBxx_HAL_Driver/Inc/stm32wbxx_hal_def.h"
 1843              		.file 16 "Drivers/STM32WBxx_HAL_Driver/Inc/stm32wbxx_hal_flash.h"
 1844              		.file 17 "Drivers/STM32WBxx_HAL_Driver/Inc/stm32wbxx_hal_uart.h"
 1845              		.file 18 "Drivers/STM32WBxx_HAL_Driver/Inc/stm32wbxx_hal.h"
 1846              		.file 19 "Middlewares/ST/STM32_WPAN/interface/patterns/ble_thread/tl/shci_tl.h"
ARM GAS  /var/folders/lt/l_qrc8c54t93n_phsj7cf5tc0000gn/T//ccRwmTUQ.s 			page 46

