ARM GAS  /var/folders/lt/l_qrc8c54t93n_phsj7cf5tc0000gn/T//cc0GZz77.s 			page 1


   1              		.cpu cortex-m4
   2              		.eabi_attribute 27, 1
   3              		.eabi_attribute 28, 1
   4              		.eabi_attribute 20, 1
   5              		.eabi_attribute 21, 1
   6              		.eabi_attribute 23, 3
   7              		.eabi_attribute 24, 1
   8              		.eabi_attribute 25, 1
   9              		.eabi_attribute 26, 1
  10              		.eabi_attribute 30, 1
  11              		.eabi_attribute 34, 1
  12              		.eabi_attribute 18, 4
  13              		.file	"stm32wbxx_hal_rtc_ex.c"
  14              		.text
  15              	.Ltext0:
  16              		.cfi_sections	.debug_frame
  17              		.section	.text.HAL_RTCEx_SetTimeStamp,"ax",%progbits
  18              		.align	1
  19              		.global	HAL_RTCEx_SetTimeStamp
  20              		.arch armv7e-m
  21              		.syntax unified
  22              		.thumb
  23              		.thumb_func
  24              		.fpu fpv4-sp-d16
  26              	HAL_RTCEx_SetTimeStamp:
  27              	.LVL0:
  28              	.LFB1104:
  29              		.file 1 "Drivers/STM32WBxx_HAL_Driver/Src/stm32wbxx_hal_rtc_ex.c"
   1:Drivers/STM32WBxx_HAL_Driver/Src/stm32wbxx_hal_rtc_ex.c **** /**
   2:Drivers/STM32WBxx_HAL_Driver/Src/stm32wbxx_hal_rtc_ex.c ****   ******************************************************************************
   3:Drivers/STM32WBxx_HAL_Driver/Src/stm32wbxx_hal_rtc_ex.c ****   * @file    stm32wbxx_hal_rtc_ex.c
   4:Drivers/STM32WBxx_HAL_Driver/Src/stm32wbxx_hal_rtc_ex.c ****   * @author  MCD Application Team
   5:Drivers/STM32WBxx_HAL_Driver/Src/stm32wbxx_hal_rtc_ex.c ****   * @brief   Extended RTC HAL module driver.
   6:Drivers/STM32WBxx_HAL_Driver/Src/stm32wbxx_hal_rtc_ex.c ****   *          This file provides firmware functions to manage the following
   7:Drivers/STM32WBxx_HAL_Driver/Src/stm32wbxx_hal_rtc_ex.c ****   *          functionalities of the Real Time Clock (RTC) Extended peripheral:
   8:Drivers/STM32WBxx_HAL_Driver/Src/stm32wbxx_hal_rtc_ex.c ****   *           + RTC Time Stamp functions
   9:Drivers/STM32WBxx_HAL_Driver/Src/stm32wbxx_hal_rtc_ex.c ****   *           + RTC Tamper functions
  10:Drivers/STM32WBxx_HAL_Driver/Src/stm32wbxx_hal_rtc_ex.c ****   *           + RTC Wake-up functions
  11:Drivers/STM32WBxx_HAL_Driver/Src/stm32wbxx_hal_rtc_ex.c ****   *           + Extended Control functions
  12:Drivers/STM32WBxx_HAL_Driver/Src/stm32wbxx_hal_rtc_ex.c ****   *           + Extended RTC features functions
  13:Drivers/STM32WBxx_HAL_Driver/Src/stm32wbxx_hal_rtc_ex.c ****   *
  14:Drivers/STM32WBxx_HAL_Driver/Src/stm32wbxx_hal_rtc_ex.c ****   ******************************************************************************
  15:Drivers/STM32WBxx_HAL_Driver/Src/stm32wbxx_hal_rtc_ex.c ****   * @attention
  16:Drivers/STM32WBxx_HAL_Driver/Src/stm32wbxx_hal_rtc_ex.c ****   *
  17:Drivers/STM32WBxx_HAL_Driver/Src/stm32wbxx_hal_rtc_ex.c ****   * Copyright (c) 2019 STMicroelectronics.
  18:Drivers/STM32WBxx_HAL_Driver/Src/stm32wbxx_hal_rtc_ex.c ****   * All rights reserved.
  19:Drivers/STM32WBxx_HAL_Driver/Src/stm32wbxx_hal_rtc_ex.c ****   *
  20:Drivers/STM32WBxx_HAL_Driver/Src/stm32wbxx_hal_rtc_ex.c ****   * This software is licensed under terms that can be found in the LICENSE file
  21:Drivers/STM32WBxx_HAL_Driver/Src/stm32wbxx_hal_rtc_ex.c ****   * in the root directory of this software component.
  22:Drivers/STM32WBxx_HAL_Driver/Src/stm32wbxx_hal_rtc_ex.c ****   * If no LICENSE file comes with this software, it is provided AS-IS.
  23:Drivers/STM32WBxx_HAL_Driver/Src/stm32wbxx_hal_rtc_ex.c ****   *
  24:Drivers/STM32WBxx_HAL_Driver/Src/stm32wbxx_hal_rtc_ex.c ****   ******************************************************************************
  25:Drivers/STM32WBxx_HAL_Driver/Src/stm32wbxx_hal_rtc_ex.c ****   @verbatim
  26:Drivers/STM32WBxx_HAL_Driver/Src/stm32wbxx_hal_rtc_ex.c ****   ==============================================================================
  27:Drivers/STM32WBxx_HAL_Driver/Src/stm32wbxx_hal_rtc_ex.c ****                   ##### How to use this driver #####
  28:Drivers/STM32WBxx_HAL_Driver/Src/stm32wbxx_hal_rtc_ex.c ****   ==============================================================================
  29:Drivers/STM32WBxx_HAL_Driver/Src/stm32wbxx_hal_rtc_ex.c ****   [..]
ARM GAS  /var/folders/lt/l_qrc8c54t93n_phsj7cf5tc0000gn/T//cc0GZz77.s 			page 2


  30:Drivers/STM32WBxx_HAL_Driver/Src/stm32wbxx_hal_rtc_ex.c ****     (+) Enable the RTC domain access.
  31:Drivers/STM32WBxx_HAL_Driver/Src/stm32wbxx_hal_rtc_ex.c ****     (+) Configure the RTC Prescaler (Asynchronous and Synchronous) and RTC hour
  32:Drivers/STM32WBxx_HAL_Driver/Src/stm32wbxx_hal_rtc_ex.c ****         format using the HAL_RTC_Init() function.
  33:Drivers/STM32WBxx_HAL_Driver/Src/stm32wbxx_hal_rtc_ex.c **** 
  34:Drivers/STM32WBxx_HAL_Driver/Src/stm32wbxx_hal_rtc_ex.c ****   *** RTC Wakeup configuration ***
  35:Drivers/STM32WBxx_HAL_Driver/Src/stm32wbxx_hal_rtc_ex.c ****   ================================
  36:Drivers/STM32WBxx_HAL_Driver/Src/stm32wbxx_hal_rtc_ex.c ****   [..]
  37:Drivers/STM32WBxx_HAL_Driver/Src/stm32wbxx_hal_rtc_ex.c ****     (+) To configure the RTC Wakeup Clock source and Counter use the HAL_RTCEx_SetWakeUpTimer()
  38:Drivers/STM32WBxx_HAL_Driver/Src/stm32wbxx_hal_rtc_ex.c ****         function. You can also configure the RTC Wakeup timer with interrupt mode
  39:Drivers/STM32WBxx_HAL_Driver/Src/stm32wbxx_hal_rtc_ex.c ****         using the HAL_RTCEx_SetWakeUpTimer_IT() function.
  40:Drivers/STM32WBxx_HAL_Driver/Src/stm32wbxx_hal_rtc_ex.c ****     (+) To read the RTC WakeUp Counter register, use the HAL_RTCEx_GetWakeUpTimer()
  41:Drivers/STM32WBxx_HAL_Driver/Src/stm32wbxx_hal_rtc_ex.c ****         function.
  42:Drivers/STM32WBxx_HAL_Driver/Src/stm32wbxx_hal_rtc_ex.c **** 
  43:Drivers/STM32WBxx_HAL_Driver/Src/stm32wbxx_hal_rtc_ex.c ****   *** Outputs configuration ***
  44:Drivers/STM32WBxx_HAL_Driver/Src/stm32wbxx_hal_rtc_ex.c ****   =============================
  45:Drivers/STM32WBxx_HAL_Driver/Src/stm32wbxx_hal_rtc_ex.c ****   [..]  The RTC has 2 different outputs:
  46:Drivers/STM32WBxx_HAL_Driver/Src/stm32wbxx_hal_rtc_ex.c ****     (+) RTC_ALARM: this output is used to manage the RTC Alarm A, Alarm B
  47:Drivers/STM32WBxx_HAL_Driver/Src/stm32wbxx_hal_rtc_ex.c ****         and WaKeUp signals.
  48:Drivers/STM32WBxx_HAL_Driver/Src/stm32wbxx_hal_rtc_ex.c ****         To output the selected RTC signal, use the HAL_RTC_Init() function.
  49:Drivers/STM32WBxx_HAL_Driver/Src/stm32wbxx_hal_rtc_ex.c ****     (+) RTC_CALIB: this output is 512Hz signal or 1Hz.
  50:Drivers/STM32WBxx_HAL_Driver/Src/stm32wbxx_hal_rtc_ex.c ****         To enable the RTC_CALIB, use the HAL_RTCEx_SetCalibrationOutPut() function.
  51:Drivers/STM32WBxx_HAL_Driver/Src/stm32wbxx_hal_rtc_ex.c ****     (+) Two pins can be used as RTC_ALARM or RTC_CALIB (PC13, PB2) managed on
  52:Drivers/STM32WBxx_HAL_Driver/Src/stm32wbxx_hal_rtc_ex.c ****         the RTC_OR register.
  53:Drivers/STM32WBxx_HAL_Driver/Src/stm32wbxx_hal_rtc_ex.c ****     (+) When the RTC_CALIB or RTC_ALARM output is selected, the RTC_OUT pin is
  54:Drivers/STM32WBxx_HAL_Driver/Src/stm32wbxx_hal_rtc_ex.c ****         automatically configured in output alternate function.
  55:Drivers/STM32WBxx_HAL_Driver/Src/stm32wbxx_hal_rtc_ex.c **** 
  56:Drivers/STM32WBxx_HAL_Driver/Src/stm32wbxx_hal_rtc_ex.c ****   *** Smooth digital Calibration configuration ***
  57:Drivers/STM32WBxx_HAL_Driver/Src/stm32wbxx_hal_rtc_ex.c ****   ================================================
  58:Drivers/STM32WBxx_HAL_Driver/Src/stm32wbxx_hal_rtc_ex.c ****   [..]
  59:Drivers/STM32WBxx_HAL_Driver/Src/stm32wbxx_hal_rtc_ex.c ****     (+) Configure the RTC Original Digital Calibration Value and the corresponding
  60:Drivers/STM32WBxx_HAL_Driver/Src/stm32wbxx_hal_rtc_ex.c ****         calibration cycle period (32s,16s and 8s) using the HAL_RTCEx_SetSmoothCalib()
  61:Drivers/STM32WBxx_HAL_Driver/Src/stm32wbxx_hal_rtc_ex.c ****         function.
  62:Drivers/STM32WBxx_HAL_Driver/Src/stm32wbxx_hal_rtc_ex.c **** 
  63:Drivers/STM32WBxx_HAL_Driver/Src/stm32wbxx_hal_rtc_ex.c ****   *** TimeStamp configuration ***
  64:Drivers/STM32WBxx_HAL_Driver/Src/stm32wbxx_hal_rtc_ex.c ****   ===============================
  65:Drivers/STM32WBxx_HAL_Driver/Src/stm32wbxx_hal_rtc_ex.c ****   [..]
  66:Drivers/STM32WBxx_HAL_Driver/Src/stm32wbxx_hal_rtc_ex.c ****     (+) Enable the RTC TimeStamp using the HAL_RTCEx_SetTimeStamp() function.
  67:Drivers/STM32WBxx_HAL_Driver/Src/stm32wbxx_hal_rtc_ex.c ****         You can also configure the RTC TimeStamp with interrupt mode using the
  68:Drivers/STM32WBxx_HAL_Driver/Src/stm32wbxx_hal_rtc_ex.c ****         HAL_RTCEx_SetTimeStamp_IT() function.
  69:Drivers/STM32WBxx_HAL_Driver/Src/stm32wbxx_hal_rtc_ex.c ****     (+) To read the RTC TimeStamp Time and Date register, use the HAL_RTCEx_GetTimeStamp()
  70:Drivers/STM32WBxx_HAL_Driver/Src/stm32wbxx_hal_rtc_ex.c ****         function.
  71:Drivers/STM32WBxx_HAL_Driver/Src/stm32wbxx_hal_rtc_ex.c **** 
  72:Drivers/STM32WBxx_HAL_Driver/Src/stm32wbxx_hal_rtc_ex.c ****   *** Internal TimeStamp configuration ***
  73:Drivers/STM32WBxx_HAL_Driver/Src/stm32wbxx_hal_rtc_ex.c ****   ===============================
  74:Drivers/STM32WBxx_HAL_Driver/Src/stm32wbxx_hal_rtc_ex.c ****   [..]
  75:Drivers/STM32WBxx_HAL_Driver/Src/stm32wbxx_hal_rtc_ex.c ****     (+) Enable the RTC internal TimeStamp using the HAL_RTCEx_SetInternalTimeStamp() function.
  76:Drivers/STM32WBxx_HAL_Driver/Src/stm32wbxx_hal_rtc_ex.c ****         User has to check internal timestamp occurrence using __HAL_RTC_INTERNAL_TIMESTAMP_GET_FLAG
  77:Drivers/STM32WBxx_HAL_Driver/Src/stm32wbxx_hal_rtc_ex.c ****     (+) To read the RTC TimeStamp Time and Date register, use the HAL_RTCEx_GetTimeStamp()
  78:Drivers/STM32WBxx_HAL_Driver/Src/stm32wbxx_hal_rtc_ex.c ****         function.
  79:Drivers/STM32WBxx_HAL_Driver/Src/stm32wbxx_hal_rtc_ex.c **** 
  80:Drivers/STM32WBxx_HAL_Driver/Src/stm32wbxx_hal_rtc_ex.c ****   *** Tamper configuration ***
  81:Drivers/STM32WBxx_HAL_Driver/Src/stm32wbxx_hal_rtc_ex.c ****   ============================
  82:Drivers/STM32WBxx_HAL_Driver/Src/stm32wbxx_hal_rtc_ex.c ****   [..]
  83:Drivers/STM32WBxx_HAL_Driver/Src/stm32wbxx_hal_rtc_ex.c ****     (+) Enable the RTC Tamper and configure the Tamper filter count, trigger Edge
  84:Drivers/STM32WBxx_HAL_Driver/Src/stm32wbxx_hal_rtc_ex.c ****         or Level according to the Tamper filter (if equal to 0 Edge else Level)
  85:Drivers/STM32WBxx_HAL_Driver/Src/stm32wbxx_hal_rtc_ex.c ****         value, sampling frequency, NoErase, MaskFlag,  precharge or discharge and
  86:Drivers/STM32WBxx_HAL_Driver/Src/stm32wbxx_hal_rtc_ex.c ****         Pull-UP using the HAL_RTCEx_SetTamper() function. You can configure RTC Tamper
ARM GAS  /var/folders/lt/l_qrc8c54t93n_phsj7cf5tc0000gn/T//cc0GZz77.s 			page 3


  87:Drivers/STM32WBxx_HAL_Driver/Src/stm32wbxx_hal_rtc_ex.c ****         with interrupt mode using HAL_RTCEx_SetTamper_IT() function.
  88:Drivers/STM32WBxx_HAL_Driver/Src/stm32wbxx_hal_rtc_ex.c ****     (+) The default configuration of the Tamper erases the backup registers. To avoid
  89:Drivers/STM32WBxx_HAL_Driver/Src/stm32wbxx_hal_rtc_ex.c ****         erase, enable the NoErase field on the RTC_TAMPCR register.
  90:Drivers/STM32WBxx_HAL_Driver/Src/stm32wbxx_hal_rtc_ex.c **** 
  91:Drivers/STM32WBxx_HAL_Driver/Src/stm32wbxx_hal_rtc_ex.c ****   *** Backup Data Registers configuration ***
  92:Drivers/STM32WBxx_HAL_Driver/Src/stm32wbxx_hal_rtc_ex.c ****   ===========================================
  93:Drivers/STM32WBxx_HAL_Driver/Src/stm32wbxx_hal_rtc_ex.c ****   [..]
  94:Drivers/STM32WBxx_HAL_Driver/Src/stm32wbxx_hal_rtc_ex.c ****     (+) To write to the RTC Backup Data registers, use the HAL_RTCEx_BKUPWrite()
  95:Drivers/STM32WBxx_HAL_Driver/Src/stm32wbxx_hal_rtc_ex.c ****         function.
  96:Drivers/STM32WBxx_HAL_Driver/Src/stm32wbxx_hal_rtc_ex.c ****     (+) To read the RTC Backup Data registers, use the HAL_RTCEx_BKUPRead()
  97:Drivers/STM32WBxx_HAL_Driver/Src/stm32wbxx_hal_rtc_ex.c ****         function.
  98:Drivers/STM32WBxx_HAL_Driver/Src/stm32wbxx_hal_rtc_ex.c **** 
  99:Drivers/STM32WBxx_HAL_Driver/Src/stm32wbxx_hal_rtc_ex.c ****   @endverbatim
 100:Drivers/STM32WBxx_HAL_Driver/Src/stm32wbxx_hal_rtc_ex.c ****   ******************************************************************************
 101:Drivers/STM32WBxx_HAL_Driver/Src/stm32wbxx_hal_rtc_ex.c ****   */
 102:Drivers/STM32WBxx_HAL_Driver/Src/stm32wbxx_hal_rtc_ex.c **** 
 103:Drivers/STM32WBxx_HAL_Driver/Src/stm32wbxx_hal_rtc_ex.c **** /* Includes ------------------------------------------------------------------*/
 104:Drivers/STM32WBxx_HAL_Driver/Src/stm32wbxx_hal_rtc_ex.c **** #include "stm32wbxx_hal.h"
 105:Drivers/STM32WBxx_HAL_Driver/Src/stm32wbxx_hal_rtc_ex.c **** 
 106:Drivers/STM32WBxx_HAL_Driver/Src/stm32wbxx_hal_rtc_ex.c **** /** @addtogroup STM32WBxx_HAL_Driver
 107:Drivers/STM32WBxx_HAL_Driver/Src/stm32wbxx_hal_rtc_ex.c ****   * @{
 108:Drivers/STM32WBxx_HAL_Driver/Src/stm32wbxx_hal_rtc_ex.c ****   */
 109:Drivers/STM32WBxx_HAL_Driver/Src/stm32wbxx_hal_rtc_ex.c **** 
 110:Drivers/STM32WBxx_HAL_Driver/Src/stm32wbxx_hal_rtc_ex.c **** /** @addtogroup RTCEx
 111:Drivers/STM32WBxx_HAL_Driver/Src/stm32wbxx_hal_rtc_ex.c ****   * @brief RTC Extended HAL module driver
 112:Drivers/STM32WBxx_HAL_Driver/Src/stm32wbxx_hal_rtc_ex.c ****   * @{
 113:Drivers/STM32WBxx_HAL_Driver/Src/stm32wbxx_hal_rtc_ex.c ****   */
 114:Drivers/STM32WBxx_HAL_Driver/Src/stm32wbxx_hal_rtc_ex.c **** 
 115:Drivers/STM32WBxx_HAL_Driver/Src/stm32wbxx_hal_rtc_ex.c **** #ifdef HAL_RTC_MODULE_ENABLED
 116:Drivers/STM32WBxx_HAL_Driver/Src/stm32wbxx_hal_rtc_ex.c **** 
 117:Drivers/STM32WBxx_HAL_Driver/Src/stm32wbxx_hal_rtc_ex.c **** /* Private typedef -----------------------------------------------------------*/
 118:Drivers/STM32WBxx_HAL_Driver/Src/stm32wbxx_hal_rtc_ex.c **** /* Private define ------------------------------------------------------------*/
 119:Drivers/STM32WBxx_HAL_Driver/Src/stm32wbxx_hal_rtc_ex.c **** 
 120:Drivers/STM32WBxx_HAL_Driver/Src/stm32wbxx_hal_rtc_ex.c **** /** @defgroup RTCEx_Private_Constants RTCEx Private Constants
 121:Drivers/STM32WBxx_HAL_Driver/Src/stm32wbxx_hal_rtc_ex.c ****   * @{
 122:Drivers/STM32WBxx_HAL_Driver/Src/stm32wbxx_hal_rtc_ex.c ****   */
 123:Drivers/STM32WBxx_HAL_Driver/Src/stm32wbxx_hal_rtc_ex.c **** #if defined(RTC_TAMPER1_SUPPORT) && defined(RTC_TAMPER3_SUPPORT)
 124:Drivers/STM32WBxx_HAL_Driver/Src/stm32wbxx_hal_rtc_ex.c **** #define RTC_TAMPCR_MASK               ((uint32_t)RTC_TAMPCR_TAMPTS    |\
 125:Drivers/STM32WBxx_HAL_Driver/Src/stm32wbxx_hal_rtc_ex.c ****                                        (uint32_t)RTC_TAMPCR_TAMPFREQ  | (uint32_t)RTC_TAMPCR_TAMPFL
 126:Drivers/STM32WBxx_HAL_Driver/Src/stm32wbxx_hal_rtc_ex.c ****                                        (uint32_t)RTC_TAMPCR_TAMPPUDIS | (uint32_t)RTC_TAMPCR_TAMPIE
 127:Drivers/STM32WBxx_HAL_Driver/Src/stm32wbxx_hal_rtc_ex.c ****                                        (uint32_t)RTC_TAMPCR_TAMP1IE   | (uint32_t)RTC_TAMPCR_TAMP1N
 128:Drivers/STM32WBxx_HAL_Driver/Src/stm32wbxx_hal_rtc_ex.c ****                                        (uint32_t)RTC_TAMPCR_TAMP2IE   | (uint32_t)RTC_TAMPCR_TAMP2N
 129:Drivers/STM32WBxx_HAL_Driver/Src/stm32wbxx_hal_rtc_ex.c ****                                        (uint32_t)RTC_TAMPCR_TAMP3IE   | (uint32_t)RTC_TAMPCR_TAMP3N
 130:Drivers/STM32WBxx_HAL_Driver/Src/stm32wbxx_hal_rtc_ex.c **** #elif defined(RTC_TAMPER1_SUPPORT)
 131:Drivers/STM32WBxx_HAL_Driver/Src/stm32wbxx_hal_rtc_ex.c **** #define RTC_TAMPCR_MASK               ((uint32_t)RTC_TAMPCR_TAMPTS    |\
 132:Drivers/STM32WBxx_HAL_Driver/Src/stm32wbxx_hal_rtc_ex.c ****                                        (uint32_t)RTC_TAMPCR_TAMPFREQ  | (uint32_t)RTC_TAMPCR_TAMPFL
 133:Drivers/STM32WBxx_HAL_Driver/Src/stm32wbxx_hal_rtc_ex.c ****                                        (uint32_t)RTC_TAMPCR_TAMPPUDIS | (uint32_t)RTC_TAMPCR_TAMPIE
 134:Drivers/STM32WBxx_HAL_Driver/Src/stm32wbxx_hal_rtc_ex.c ****                                        (uint32_t)RTC_TAMPCR_TAMP1IE   | (uint32_t)RTC_TAMPCR_TAMP1N
 135:Drivers/STM32WBxx_HAL_Driver/Src/stm32wbxx_hal_rtc_ex.c ****                                        (uint32_t)RTC_TAMPCR_TAMP2IE   | (uint32_t)RTC_TAMPCR_TAMP2N
 136:Drivers/STM32WBxx_HAL_Driver/Src/stm32wbxx_hal_rtc_ex.c **** #elif defined(RTC_TAMPER3_SUPPORT)
 137:Drivers/STM32WBxx_HAL_Driver/Src/stm32wbxx_hal_rtc_ex.c **** #define RTC_TAMPCR_MASK               ((uint32_t)RTC_TAMPCR_TAMPTS    |\
 138:Drivers/STM32WBxx_HAL_Driver/Src/stm32wbxx_hal_rtc_ex.c ****                                        (uint32_t)RTC_TAMPCR_TAMPFREQ  | (uint32_t)RTC_TAMPCR_TAMPFL
 139:Drivers/STM32WBxx_HAL_Driver/Src/stm32wbxx_hal_rtc_ex.c ****                                        (uint32_t)RTC_TAMPCR_TAMPPUDIS | (uint32_t)RTC_TAMPCR_TAMPIE
 140:Drivers/STM32WBxx_HAL_Driver/Src/stm32wbxx_hal_rtc_ex.c ****                                        (uint32_t)RTC_TAMPCR_TAMP2IE   | (uint32_t)RTC_TAMPCR_TAMP2N
 141:Drivers/STM32WBxx_HAL_Driver/Src/stm32wbxx_hal_rtc_ex.c ****                                        (uint32_t)RTC_TAMPCR_TAMP3IE   | (uint32_t)RTC_TAMPCR_TAMP3N
 142:Drivers/STM32WBxx_HAL_Driver/Src/stm32wbxx_hal_rtc_ex.c **** #else
 143:Drivers/STM32WBxx_HAL_Driver/Src/stm32wbxx_hal_rtc_ex.c **** #define RTC_TAMPCR_MASK               ((uint32_t)RTC_TAMPCR_TAMPTS    |\
ARM GAS  /var/folders/lt/l_qrc8c54t93n_phsj7cf5tc0000gn/T//cc0GZz77.s 			page 4


 144:Drivers/STM32WBxx_HAL_Driver/Src/stm32wbxx_hal_rtc_ex.c ****                                        (uint32_t)RTC_TAMPCR_TAMPFREQ  | (uint32_t)RTC_TAMPCR_TAMPFL
 145:Drivers/STM32WBxx_HAL_Driver/Src/stm32wbxx_hal_rtc_ex.c ****                                        (uint32_t)RTC_TAMPCR_TAMPPUDIS | (uint32_t)RTC_TAMPCR_TAMPIE
 146:Drivers/STM32WBxx_HAL_Driver/Src/stm32wbxx_hal_rtc_ex.c ****                                        (uint32_t)RTC_TAMPCR_TAMP2IE   | (uint32_t)RTC_TAMPCR_TAMP2N
 147:Drivers/STM32WBxx_HAL_Driver/Src/stm32wbxx_hal_rtc_ex.c **** #endif /* RTC_TAMPER1_SUPPORT && RTC_TAMPER3_SUPPORT */
 148:Drivers/STM32WBxx_HAL_Driver/Src/stm32wbxx_hal_rtc_ex.c **** /**
 149:Drivers/STM32WBxx_HAL_Driver/Src/stm32wbxx_hal_rtc_ex.c ****   * @}
 150:Drivers/STM32WBxx_HAL_Driver/Src/stm32wbxx_hal_rtc_ex.c ****   */
 151:Drivers/STM32WBxx_HAL_Driver/Src/stm32wbxx_hal_rtc_ex.c **** 
 152:Drivers/STM32WBxx_HAL_Driver/Src/stm32wbxx_hal_rtc_ex.c **** /* Private macro -------------------------------------------------------------*/
 153:Drivers/STM32WBxx_HAL_Driver/Src/stm32wbxx_hal_rtc_ex.c **** /* Private variables ---------------------------------------------------------*/
 154:Drivers/STM32WBxx_HAL_Driver/Src/stm32wbxx_hal_rtc_ex.c **** /* Private function prototypes -----------------------------------------------*/
 155:Drivers/STM32WBxx_HAL_Driver/Src/stm32wbxx_hal_rtc_ex.c **** /* Exported functions --------------------------------------------------------*/
 156:Drivers/STM32WBxx_HAL_Driver/Src/stm32wbxx_hal_rtc_ex.c **** 
 157:Drivers/STM32WBxx_HAL_Driver/Src/stm32wbxx_hal_rtc_ex.c **** /** @addtogroup RTCEx_Exported_Functions
 158:Drivers/STM32WBxx_HAL_Driver/Src/stm32wbxx_hal_rtc_ex.c ****   * @{
 159:Drivers/STM32WBxx_HAL_Driver/Src/stm32wbxx_hal_rtc_ex.c ****   */
 160:Drivers/STM32WBxx_HAL_Driver/Src/stm32wbxx_hal_rtc_ex.c **** 
 161:Drivers/STM32WBxx_HAL_Driver/Src/stm32wbxx_hal_rtc_ex.c **** 
 162:Drivers/STM32WBxx_HAL_Driver/Src/stm32wbxx_hal_rtc_ex.c **** /** @addtogroup RTCEx_Exported_Functions_Group1
 163:Drivers/STM32WBxx_HAL_Driver/Src/stm32wbxx_hal_rtc_ex.c ****   *  @brief   RTC TimeStamp and Tamper functions
 164:Drivers/STM32WBxx_HAL_Driver/Src/stm32wbxx_hal_rtc_ex.c ****   *
 165:Drivers/STM32WBxx_HAL_Driver/Src/stm32wbxx_hal_rtc_ex.c **** @verbatim
 166:Drivers/STM32WBxx_HAL_Driver/Src/stm32wbxx_hal_rtc_ex.c ****  ===============================================================================
 167:Drivers/STM32WBxx_HAL_Driver/Src/stm32wbxx_hal_rtc_ex.c ****                  ##### RTC TimeStamp and Tamper functions #####
 168:Drivers/STM32WBxx_HAL_Driver/Src/stm32wbxx_hal_rtc_ex.c ****  ===============================================================================
 169:Drivers/STM32WBxx_HAL_Driver/Src/stm32wbxx_hal_rtc_ex.c **** 
 170:Drivers/STM32WBxx_HAL_Driver/Src/stm32wbxx_hal_rtc_ex.c ****  [..] This section provides functions allowing to configure TimeStamp feature
 171:Drivers/STM32WBxx_HAL_Driver/Src/stm32wbxx_hal_rtc_ex.c **** 
 172:Drivers/STM32WBxx_HAL_Driver/Src/stm32wbxx_hal_rtc_ex.c **** @endverbatim
 173:Drivers/STM32WBxx_HAL_Driver/Src/stm32wbxx_hal_rtc_ex.c ****   * @{
 174:Drivers/STM32WBxx_HAL_Driver/Src/stm32wbxx_hal_rtc_ex.c ****   */
 175:Drivers/STM32WBxx_HAL_Driver/Src/stm32wbxx_hal_rtc_ex.c **** 
 176:Drivers/STM32WBxx_HAL_Driver/Src/stm32wbxx_hal_rtc_ex.c **** /**
 177:Drivers/STM32WBxx_HAL_Driver/Src/stm32wbxx_hal_rtc_ex.c ****   * @brief  Set TimeStamp.
 178:Drivers/STM32WBxx_HAL_Driver/Src/stm32wbxx_hal_rtc_ex.c ****   * @note   This API must be called before enabling the TimeStamp feature.
 179:Drivers/STM32WBxx_HAL_Driver/Src/stm32wbxx_hal_rtc_ex.c ****   * @param hrtc RTC handle
 180:Drivers/STM32WBxx_HAL_Driver/Src/stm32wbxx_hal_rtc_ex.c ****   * @param TimeStampEdge Specifies the pin edge on which the TimeStamp is
 181:Drivers/STM32WBxx_HAL_Driver/Src/stm32wbxx_hal_rtc_ex.c ****   *         activated.
 182:Drivers/STM32WBxx_HAL_Driver/Src/stm32wbxx_hal_rtc_ex.c ****   *          This parameter can be one of the following values:
 183:Drivers/STM32WBxx_HAL_Driver/Src/stm32wbxx_hal_rtc_ex.c ****   *             @arg RTC_TIMESTAMPEDGE_RISING: the Time stamp event occurs on the
 184:Drivers/STM32WBxx_HAL_Driver/Src/stm32wbxx_hal_rtc_ex.c ****   *                                        rising edge of the related pin.
 185:Drivers/STM32WBxx_HAL_Driver/Src/stm32wbxx_hal_rtc_ex.c ****   *             @arg RTC_TIMESTAMPEDGE_FALLING: the Time stamp event occurs on the
 186:Drivers/STM32WBxx_HAL_Driver/Src/stm32wbxx_hal_rtc_ex.c ****   *                                         falling edge of the related pin.
 187:Drivers/STM32WBxx_HAL_Driver/Src/stm32wbxx_hal_rtc_ex.c ****   * @param RTC_TimeStampPin specifies the RTC TimeStamp Pin.
 188:Drivers/STM32WBxx_HAL_Driver/Src/stm32wbxx_hal_rtc_ex.c ****   *          This parameter can be one of the following values:
 189:Drivers/STM32WBxx_HAL_Driver/Src/stm32wbxx_hal_rtc_ex.c ****   *             @arg RTC_TIMESTAMPPIN_DEFAULT: PC13 is selected as RTC TimeStamp Pin.
 190:Drivers/STM32WBxx_HAL_Driver/Src/stm32wbxx_hal_rtc_ex.c ****   *               The RTC TimeStamp Pin is per default PC13, but for reasons of
 191:Drivers/STM32WBxx_HAL_Driver/Src/stm32wbxx_hal_rtc_ex.c ****   *               compatibility, this parameter is required.
 192:Drivers/STM32WBxx_HAL_Driver/Src/stm32wbxx_hal_rtc_ex.c ****   * @retval HAL status
 193:Drivers/STM32WBxx_HAL_Driver/Src/stm32wbxx_hal_rtc_ex.c ****   */
 194:Drivers/STM32WBxx_HAL_Driver/Src/stm32wbxx_hal_rtc_ex.c **** HAL_StatusTypeDef HAL_RTCEx_SetTimeStamp(RTC_HandleTypeDef *hrtc, uint32_t TimeStampEdge, uint32_t 
 195:Drivers/STM32WBxx_HAL_Driver/Src/stm32wbxx_hal_rtc_ex.c **** {
  30              		.loc 1 195 1 view -0
  31              		.cfi_startproc
  32              		@ args = 0, pretend = 0, frame = 0
  33              		@ frame_needed = 0, uses_anonymous_args = 0
  34              		@ link register save eliminated.
ARM GAS  /var/folders/lt/l_qrc8c54t93n_phsj7cf5tc0000gn/T//cc0GZz77.s 			page 5


 196:Drivers/STM32WBxx_HAL_Driver/Src/stm32wbxx_hal_rtc_ex.c ****   uint32_t tmpreg;
  35              		.loc 1 196 3 view .LVU1
 197:Drivers/STM32WBxx_HAL_Driver/Src/stm32wbxx_hal_rtc_ex.c **** 
 198:Drivers/STM32WBxx_HAL_Driver/Src/stm32wbxx_hal_rtc_ex.c ****   /* Check the parameters */
 199:Drivers/STM32WBxx_HAL_Driver/Src/stm32wbxx_hal_rtc_ex.c ****   assert_param(IS_TIMESTAMP_EDGE(TimeStampEdge));
  36              		.loc 1 199 3 view .LVU2
 200:Drivers/STM32WBxx_HAL_Driver/Src/stm32wbxx_hal_rtc_ex.c ****   assert_param(IS_RTC_TIMESTAMP_PIN(RTC_TimeStampPin));
  37              		.loc 1 200 3 view .LVU3
 201:Drivers/STM32WBxx_HAL_Driver/Src/stm32wbxx_hal_rtc_ex.c **** 
 202:Drivers/STM32WBxx_HAL_Driver/Src/stm32wbxx_hal_rtc_ex.c ****   /* Process Locked */
 203:Drivers/STM32WBxx_HAL_Driver/Src/stm32wbxx_hal_rtc_ex.c ****   __HAL_LOCK(hrtc);
  38              		.loc 1 203 3 view .LVU4
  39              		.loc 1 203 3 view .LVU5
  40 0000 90F82030 		ldrb	r3, [r0, #32]	@ zero_extendqisi2
  41 0004 012B     		cmp	r3, #1
  42 0006 31D0     		beq	.L3
 195:Drivers/STM32WBxx_HAL_Driver/Src/stm32wbxx_hal_rtc_ex.c ****   uint32_t tmpreg;
  43              		.loc 1 195 1 is_stmt 0 discriminator 2 view .LVU6
  44 0008 10B4     		push	{r4}
  45              	.LCFI0:
  46              		.cfi_def_cfa_offset 4
  47              		.cfi_offset 4, -4
  48              		.loc 1 203 3 is_stmt 1 discriminator 2 view .LVU7
  49 000a 0122     		movs	r2, #1
  50              	.LVL1:
  51              		.loc 1 203 3 is_stmt 0 discriminator 2 view .LVU8
  52 000c 80F82020 		strb	r2, [r0, #32]
  53              		.loc 1 203 3 is_stmt 1 discriminator 2 view .LVU9
 204:Drivers/STM32WBxx_HAL_Driver/Src/stm32wbxx_hal_rtc_ex.c **** 
 205:Drivers/STM32WBxx_HAL_Driver/Src/stm32wbxx_hal_rtc_ex.c ****   hrtc->State = HAL_RTC_STATE_BUSY;
  54              		.loc 1 205 3 discriminator 2 view .LVU10
  55              		.loc 1 205 15 is_stmt 0 discriminator 2 view .LVU11
  56 0010 0223     		movs	r3, #2
  57 0012 80F82130 		strb	r3, [r0, #33]
 206:Drivers/STM32WBxx_HAL_Driver/Src/stm32wbxx_hal_rtc_ex.c **** 
 207:Drivers/STM32WBxx_HAL_Driver/Src/stm32wbxx_hal_rtc_ex.c ****   /* Get the RTC_CR register and clear the bits to be configured */
 208:Drivers/STM32WBxx_HAL_Driver/Src/stm32wbxx_hal_rtc_ex.c ****   tmpreg = (uint32_t)(hrtc->Instance->CR & (uint32_t)~(RTC_CR_TSEDGE | RTC_CR_TSE));
  58              		.loc 1 208 3 is_stmt 1 discriminator 2 view .LVU12
  59              		.loc 1 208 27 is_stmt 0 discriminator 2 view .LVU13
  60 0016 0468     		ldr	r4, [r0]
  61              		.loc 1 208 37 discriminator 2 view .LVU14
  62 0018 A368     		ldr	r3, [r4, #8]
  63              		.loc 1 208 10 discriminator 2 view .LVU15
  64 001a 23F40063 		bic	r3, r3, #2048
  65 001e 23F00803 		bic	r3, r3, #8
  66              	.LVL2:
 209:Drivers/STM32WBxx_HAL_Driver/Src/stm32wbxx_hal_rtc_ex.c **** 
 210:Drivers/STM32WBxx_HAL_Driver/Src/stm32wbxx_hal_rtc_ex.c ****   tmpreg |= TimeStampEdge;
  67              		.loc 1 210 3 is_stmt 1 discriminator 2 view .LVU16
  68              		.loc 1 210 10 is_stmt 0 discriminator 2 view .LVU17
  69 0022 1943     		orrs	r1, r1, r3
  70              	.LVL3:
 211:Drivers/STM32WBxx_HAL_Driver/Src/stm32wbxx_hal_rtc_ex.c **** 
 212:Drivers/STM32WBxx_HAL_Driver/Src/stm32wbxx_hal_rtc_ex.c ****   /* Disable the write protection for RTC registers */
 213:Drivers/STM32WBxx_HAL_Driver/Src/stm32wbxx_hal_rtc_ex.c ****   __HAL_RTC_WRITEPROTECTION_DISABLE(hrtc);
  71              		.loc 1 213 3 is_stmt 1 discriminator 2 view .LVU18
  72              		.loc 1 213 3 discriminator 2 view .LVU19
ARM GAS  /var/folders/lt/l_qrc8c54t93n_phsj7cf5tc0000gn/T//cc0GZz77.s 			page 6


  73 0024 CA23     		movs	r3, #202
  74 0026 6362     		str	r3, [r4, #36]
  75              		.loc 1 213 3 discriminator 2 view .LVU20
  76 0028 0368     		ldr	r3, [r0]
  77 002a 5324     		movs	r4, #83
  78 002c 5C62     		str	r4, [r3, #36]
  79              		.loc 1 213 3 discriminator 2 view .LVU21
 214:Drivers/STM32WBxx_HAL_Driver/Src/stm32wbxx_hal_rtc_ex.c **** 
 215:Drivers/STM32WBxx_HAL_Driver/Src/stm32wbxx_hal_rtc_ex.c ****   /* Clear the Timestamp Flag */
 216:Drivers/STM32WBxx_HAL_Driver/Src/stm32wbxx_hal_rtc_ex.c ****   __HAL_RTC_TIMESTAMP_CLEAR_FLAG(hrtc, RTC_FLAG_TSF);
  80              		.loc 1 216 3 discriminator 2 view .LVU22
  81 002e 0468     		ldr	r4, [r0]
  82 0030 E368     		ldr	r3, [r4, #12]
  83 0032 DBB2     		uxtb	r3, r3
  84 0034 63F40863 		orn	r3, r3, #2176
  85 0038 E360     		str	r3, [r4, #12]
 217:Drivers/STM32WBxx_HAL_Driver/Src/stm32wbxx_hal_rtc_ex.c **** 
 218:Drivers/STM32WBxx_HAL_Driver/Src/stm32wbxx_hal_rtc_ex.c ****   /* Clear the Timestamp overrun Flag */
 219:Drivers/STM32WBxx_HAL_Driver/Src/stm32wbxx_hal_rtc_ex.c ****   __HAL_RTC_TIMESTAMP_CLEAR_FLAG(hrtc, RTC_FLAG_TSOVF);
  86              		.loc 1 219 3 discriminator 2 view .LVU23
  87 003a 0468     		ldr	r4, [r0]
  88 003c E368     		ldr	r3, [r4, #12]
  89 003e DBB2     		uxtb	r3, r3
  90 0040 63F48453 		orn	r3, r3, #4224
  91 0044 E360     		str	r3, [r4, #12]
 220:Drivers/STM32WBxx_HAL_Driver/Src/stm32wbxx_hal_rtc_ex.c **** 
 221:Drivers/STM32WBxx_HAL_Driver/Src/stm32wbxx_hal_rtc_ex.c ****   /* Configure the Time Stamp TSEDGE and Enable bits */
 222:Drivers/STM32WBxx_HAL_Driver/Src/stm32wbxx_hal_rtc_ex.c ****   hrtc->Instance->CR = (uint32_t)tmpreg;
  92              		.loc 1 222 3 discriminator 2 view .LVU24
  93              		.loc 1 222 7 is_stmt 0 discriminator 2 view .LVU25
  94 0046 0368     		ldr	r3, [r0]
  95              		.loc 1 222 22 discriminator 2 view .LVU26
  96 0048 9960     		str	r1, [r3, #8]
 223:Drivers/STM32WBxx_HAL_Driver/Src/stm32wbxx_hal_rtc_ex.c **** 
 224:Drivers/STM32WBxx_HAL_Driver/Src/stm32wbxx_hal_rtc_ex.c ****   __HAL_RTC_TIMESTAMP_ENABLE(hrtc);
  97              		.loc 1 224 3 is_stmt 1 discriminator 2 view .LVU27
  98 004a 0168     		ldr	r1, [r0]
  99              	.LVL4:
 100              		.loc 1 224 3 is_stmt 0 discriminator 2 view .LVU28
 101 004c 8B68     		ldr	r3, [r1, #8]
 102              	.LVL5:
 103              		.loc 1 224 3 discriminator 2 view .LVU29
 104 004e 43F40063 		orr	r3, r3, #2048
 105 0052 8B60     		str	r3, [r1, #8]
 225:Drivers/STM32WBxx_HAL_Driver/Src/stm32wbxx_hal_rtc_ex.c **** 
 226:Drivers/STM32WBxx_HAL_Driver/Src/stm32wbxx_hal_rtc_ex.c ****   /* Enable the write protection for RTC registers */
 227:Drivers/STM32WBxx_HAL_Driver/Src/stm32wbxx_hal_rtc_ex.c ****   __HAL_RTC_WRITEPROTECTION_ENABLE(hrtc);
 106              		.loc 1 227 3 is_stmt 1 discriminator 2 view .LVU30
 107              		.loc 1 227 3 discriminator 2 view .LVU31
 108 0054 0368     		ldr	r3, [r0]
 109 0056 FF21     		movs	r1, #255
 110 0058 5962     		str	r1, [r3, #36]
 111              		.loc 1 227 3 discriminator 2 view .LVU32
 228:Drivers/STM32WBxx_HAL_Driver/Src/stm32wbxx_hal_rtc_ex.c **** 
 229:Drivers/STM32WBxx_HAL_Driver/Src/stm32wbxx_hal_rtc_ex.c ****   /* Change RTC state */
 230:Drivers/STM32WBxx_HAL_Driver/Src/stm32wbxx_hal_rtc_ex.c ****   hrtc->State = HAL_RTC_STATE_READY;
 112              		.loc 1 230 3 discriminator 2 view .LVU33
ARM GAS  /var/folders/lt/l_qrc8c54t93n_phsj7cf5tc0000gn/T//cc0GZz77.s 			page 7


 113              		.loc 1 230 15 is_stmt 0 discriminator 2 view .LVU34
 114 005a 80F82120 		strb	r2, [r0, #33]
 231:Drivers/STM32WBxx_HAL_Driver/Src/stm32wbxx_hal_rtc_ex.c **** 
 232:Drivers/STM32WBxx_HAL_Driver/Src/stm32wbxx_hal_rtc_ex.c ****   /* Process Unlocked */
 233:Drivers/STM32WBxx_HAL_Driver/Src/stm32wbxx_hal_rtc_ex.c ****   __HAL_UNLOCK(hrtc);
 115              		.loc 1 233 3 is_stmt 1 discriminator 2 view .LVU35
 116              		.loc 1 233 3 discriminator 2 view .LVU36
 117 005e 0023     		movs	r3, #0
 118 0060 80F82030 		strb	r3, [r0, #32]
 119              		.loc 1 233 3 discriminator 2 view .LVU37
 234:Drivers/STM32WBxx_HAL_Driver/Src/stm32wbxx_hal_rtc_ex.c **** 
 235:Drivers/STM32WBxx_HAL_Driver/Src/stm32wbxx_hal_rtc_ex.c ****   return HAL_OK;
 120              		.loc 1 235 3 discriminator 2 view .LVU38
 121              		.loc 1 235 10 is_stmt 0 discriminator 2 view .LVU39
 122 0064 1846     		mov	r0, r3
 123              	.LVL6:
 236:Drivers/STM32WBxx_HAL_Driver/Src/stm32wbxx_hal_rtc_ex.c **** }
 124              		.loc 1 236 1 discriminator 2 view .LVU40
 125 0066 5DF8044B 		ldr	r4, [sp], #4
 126              	.LCFI1:
 127              		.cfi_restore 4
 128              		.cfi_def_cfa_offset 0
 129 006a 7047     		bx	lr
 130              	.LVL7:
 131              	.L3:
 203:Drivers/STM32WBxx_HAL_Driver/Src/stm32wbxx_hal_rtc_ex.c **** 
 132              		.loc 1 203 3 view .LVU41
 133 006c 0220     		movs	r0, #2
 134              	.LVL8:
 135              		.loc 1 236 1 view .LVU42
 136 006e 7047     		bx	lr
 137              		.cfi_endproc
 138              	.LFE1104:
 140              		.section	.text.HAL_RTCEx_SetTimeStamp_IT,"ax",%progbits
 141              		.align	1
 142              		.global	HAL_RTCEx_SetTimeStamp_IT
 143              		.syntax unified
 144              		.thumb
 145              		.thumb_func
 146              		.fpu fpv4-sp-d16
 148              	HAL_RTCEx_SetTimeStamp_IT:
 149              	.LVL9:
 150              	.LFB1105:
 237:Drivers/STM32WBxx_HAL_Driver/Src/stm32wbxx_hal_rtc_ex.c **** 
 238:Drivers/STM32WBxx_HAL_Driver/Src/stm32wbxx_hal_rtc_ex.c **** /**
 239:Drivers/STM32WBxx_HAL_Driver/Src/stm32wbxx_hal_rtc_ex.c ****   * @brief  Set TimeStamp with Interrupt.
 240:Drivers/STM32WBxx_HAL_Driver/Src/stm32wbxx_hal_rtc_ex.c ****   * @param hrtc RTC handle
 241:Drivers/STM32WBxx_HAL_Driver/Src/stm32wbxx_hal_rtc_ex.c ****   * @note   This API must be called before enabling the TimeStamp feature.
 242:Drivers/STM32WBxx_HAL_Driver/Src/stm32wbxx_hal_rtc_ex.c ****   * @param TimeStampEdge Specifies the pin edge on which the TimeStamp is
 243:Drivers/STM32WBxx_HAL_Driver/Src/stm32wbxx_hal_rtc_ex.c ****   *         activated.
 244:Drivers/STM32WBxx_HAL_Driver/Src/stm32wbxx_hal_rtc_ex.c ****   *          This parameter can be one of the following values:
 245:Drivers/STM32WBxx_HAL_Driver/Src/stm32wbxx_hal_rtc_ex.c ****   *             @arg RTC_TIMESTAMPEDGE_RISING: the Time stamp event occurs on the
 246:Drivers/STM32WBxx_HAL_Driver/Src/stm32wbxx_hal_rtc_ex.c ****   *                                        rising edge of the related pin.
 247:Drivers/STM32WBxx_HAL_Driver/Src/stm32wbxx_hal_rtc_ex.c ****   *             @arg RTC_TIMESTAMPEDGE_FALLING: the Time stamp event occurs on the
 248:Drivers/STM32WBxx_HAL_Driver/Src/stm32wbxx_hal_rtc_ex.c ****   *                                         falling edge of the related pin.
 249:Drivers/STM32WBxx_HAL_Driver/Src/stm32wbxx_hal_rtc_ex.c ****   * @param RTC_TimeStampPin Specifies the RTC TimeStamp Pin.
 250:Drivers/STM32WBxx_HAL_Driver/Src/stm32wbxx_hal_rtc_ex.c ****   *          This parameter can be one of the following values:
ARM GAS  /var/folders/lt/l_qrc8c54t93n_phsj7cf5tc0000gn/T//cc0GZz77.s 			page 8


 251:Drivers/STM32WBxx_HAL_Driver/Src/stm32wbxx_hal_rtc_ex.c ****   *             @arg RTC_TIMESTAMPPIN_DEFAULT: PC13 is selected as RTC TimeStamp Pin.
 252:Drivers/STM32WBxx_HAL_Driver/Src/stm32wbxx_hal_rtc_ex.c ****   *               The RTC TimeStamp Pin is per default PC13, but for reasons of
 253:Drivers/STM32WBxx_HAL_Driver/Src/stm32wbxx_hal_rtc_ex.c ****   *               compatibility, this parameter is required.
 254:Drivers/STM32WBxx_HAL_Driver/Src/stm32wbxx_hal_rtc_ex.c ****   * @retval HAL status
 255:Drivers/STM32WBxx_HAL_Driver/Src/stm32wbxx_hal_rtc_ex.c ****   */
 256:Drivers/STM32WBxx_HAL_Driver/Src/stm32wbxx_hal_rtc_ex.c **** HAL_StatusTypeDef HAL_RTCEx_SetTimeStamp_IT(RTC_HandleTypeDef *hrtc, uint32_t TimeStampEdge, uint32
 257:Drivers/STM32WBxx_HAL_Driver/Src/stm32wbxx_hal_rtc_ex.c **** {
 151              		.loc 1 257 1 is_stmt 1 view -0
 152              		.cfi_startproc
 153              		@ args = 0, pretend = 0, frame = 0
 154              		@ frame_needed = 0, uses_anonymous_args = 0
 155              		@ link register save eliminated.
 258:Drivers/STM32WBxx_HAL_Driver/Src/stm32wbxx_hal_rtc_ex.c ****   uint32_t tmpreg;
 156              		.loc 1 258 3 view .LVU44
 259:Drivers/STM32WBxx_HAL_Driver/Src/stm32wbxx_hal_rtc_ex.c **** 
 260:Drivers/STM32WBxx_HAL_Driver/Src/stm32wbxx_hal_rtc_ex.c ****   /* Check the parameters */
 261:Drivers/STM32WBxx_HAL_Driver/Src/stm32wbxx_hal_rtc_ex.c ****   assert_param(IS_TIMESTAMP_EDGE(TimeStampEdge));
 157              		.loc 1 261 3 view .LVU45
 262:Drivers/STM32WBxx_HAL_Driver/Src/stm32wbxx_hal_rtc_ex.c ****   assert_param(IS_RTC_TIMESTAMP_PIN(RTC_TimeStampPin));
 158              		.loc 1 262 3 view .LVU46
 263:Drivers/STM32WBxx_HAL_Driver/Src/stm32wbxx_hal_rtc_ex.c **** 
 264:Drivers/STM32WBxx_HAL_Driver/Src/stm32wbxx_hal_rtc_ex.c ****   /* Process Locked */
 265:Drivers/STM32WBxx_HAL_Driver/Src/stm32wbxx_hal_rtc_ex.c ****   __HAL_LOCK(hrtc);
 159              		.loc 1 265 3 view .LVU47
 160              		.loc 1 265 3 view .LVU48
 161 0000 90F82030 		ldrb	r3, [r0, #32]	@ zero_extendqisi2
 162 0004 012B     		cmp	r3, #1
 163 0006 41D0     		beq	.L10
 257:Drivers/STM32WBxx_HAL_Driver/Src/stm32wbxx_hal_rtc_ex.c ****   uint32_t tmpreg;
 164              		.loc 1 257 1 is_stmt 0 discriminator 2 view .LVU49
 165 0008 10B4     		push	{r4}
 166              	.LCFI2:
 167              		.cfi_def_cfa_offset 4
 168              		.cfi_offset 4, -4
 169              		.loc 1 265 3 is_stmt 1 discriminator 2 view .LVU50
 170 000a 0124     		movs	r4, #1
 171 000c 80F82040 		strb	r4, [r0, #32]
 172              		.loc 1 265 3 discriminator 2 view .LVU51
 266:Drivers/STM32WBxx_HAL_Driver/Src/stm32wbxx_hal_rtc_ex.c **** 
 267:Drivers/STM32WBxx_HAL_Driver/Src/stm32wbxx_hal_rtc_ex.c ****   hrtc->State = HAL_RTC_STATE_BUSY;
 173              		.loc 1 267 3 discriminator 2 view .LVU52
 174              		.loc 1 267 15 is_stmt 0 discriminator 2 view .LVU53
 175 0010 0223     		movs	r3, #2
 176 0012 80F82130 		strb	r3, [r0, #33]
 268:Drivers/STM32WBxx_HAL_Driver/Src/stm32wbxx_hal_rtc_ex.c **** 
 269:Drivers/STM32WBxx_HAL_Driver/Src/stm32wbxx_hal_rtc_ex.c ****   /* Get the RTC_CR register and clear the bits to be configured */
 270:Drivers/STM32WBxx_HAL_Driver/Src/stm32wbxx_hal_rtc_ex.c ****   tmpreg = (uint32_t)(hrtc->Instance->CR & (uint32_t)~(RTC_CR_TSEDGE | RTC_CR_TSE));
 177              		.loc 1 270 3 is_stmt 1 discriminator 2 view .LVU54
 178              		.loc 1 270 27 is_stmt 0 discriminator 2 view .LVU55
 179 0016 0268     		ldr	r2, [r0]
 180              	.LVL10:
 181              		.loc 1 270 37 discriminator 2 view .LVU56
 182 0018 9368     		ldr	r3, [r2, #8]
 183              		.loc 1 270 10 discriminator 2 view .LVU57
 184 001a 23F40063 		bic	r3, r3, #2048
 185 001e 23F00803 		bic	r3, r3, #8
 186              	.LVL11:
ARM GAS  /var/folders/lt/l_qrc8c54t93n_phsj7cf5tc0000gn/T//cc0GZz77.s 			page 9


 271:Drivers/STM32WBxx_HAL_Driver/Src/stm32wbxx_hal_rtc_ex.c **** 
 272:Drivers/STM32WBxx_HAL_Driver/Src/stm32wbxx_hal_rtc_ex.c ****   tmpreg |= TimeStampEdge;
 187              		.loc 1 272 3 is_stmt 1 discriminator 2 view .LVU58
 188              		.loc 1 272 10 is_stmt 0 discriminator 2 view .LVU59
 189 0022 1943     		orrs	r1, r1, r3
 190              	.LVL12:
 273:Drivers/STM32WBxx_HAL_Driver/Src/stm32wbxx_hal_rtc_ex.c **** 
 274:Drivers/STM32WBxx_HAL_Driver/Src/stm32wbxx_hal_rtc_ex.c ****   /* Disable the write protection for RTC registers */
 275:Drivers/STM32WBxx_HAL_Driver/Src/stm32wbxx_hal_rtc_ex.c ****   __HAL_RTC_WRITEPROTECTION_DISABLE(hrtc);
 191              		.loc 1 275 3 is_stmt 1 discriminator 2 view .LVU60
 192              		.loc 1 275 3 discriminator 2 view .LVU61
 193 0024 CA23     		movs	r3, #202
 194 0026 5362     		str	r3, [r2, #36]
 195              		.loc 1 275 3 discriminator 2 view .LVU62
 196 0028 0368     		ldr	r3, [r0]
 197 002a 5322     		movs	r2, #83
 198 002c 5A62     		str	r2, [r3, #36]
 199              		.loc 1 275 3 discriminator 2 view .LVU63
 276:Drivers/STM32WBxx_HAL_Driver/Src/stm32wbxx_hal_rtc_ex.c **** 
 277:Drivers/STM32WBxx_HAL_Driver/Src/stm32wbxx_hal_rtc_ex.c ****   /* Clear the Timestamp Flag */
 278:Drivers/STM32WBxx_HAL_Driver/Src/stm32wbxx_hal_rtc_ex.c ****   __HAL_RTC_TIMESTAMP_CLEAR_FLAG(hrtc, RTC_FLAG_TSF);
 200              		.loc 1 278 3 discriminator 2 view .LVU64
 201 002e 0268     		ldr	r2, [r0]
 202 0030 D368     		ldr	r3, [r2, #12]
 203 0032 DBB2     		uxtb	r3, r3
 204 0034 63F40863 		orn	r3, r3, #2176
 205 0038 D360     		str	r3, [r2, #12]
 279:Drivers/STM32WBxx_HAL_Driver/Src/stm32wbxx_hal_rtc_ex.c **** 
 280:Drivers/STM32WBxx_HAL_Driver/Src/stm32wbxx_hal_rtc_ex.c ****   /* Clear the Timestamp overrun Flag */
 281:Drivers/STM32WBxx_HAL_Driver/Src/stm32wbxx_hal_rtc_ex.c ****   __HAL_RTC_TIMESTAMP_CLEAR_FLAG(hrtc, RTC_FLAG_TSOVF);
 206              		.loc 1 281 3 discriminator 2 view .LVU65
 207 003a 0268     		ldr	r2, [r0]
 208 003c D368     		ldr	r3, [r2, #12]
 209 003e DBB2     		uxtb	r3, r3
 210 0040 63F48453 		orn	r3, r3, #4224
 211 0044 D360     		str	r3, [r2, #12]
 282:Drivers/STM32WBxx_HAL_Driver/Src/stm32wbxx_hal_rtc_ex.c **** 
 283:Drivers/STM32WBxx_HAL_Driver/Src/stm32wbxx_hal_rtc_ex.c ****   /* Configure the Time Stamp TSEDGE and Enable bits */
 284:Drivers/STM32WBxx_HAL_Driver/Src/stm32wbxx_hal_rtc_ex.c ****   hrtc->Instance->CR = (uint32_t)tmpreg;
 212              		.loc 1 284 3 discriminator 2 view .LVU66
 213              		.loc 1 284 7 is_stmt 0 discriminator 2 view .LVU67
 214 0046 0368     		ldr	r3, [r0]
 215              		.loc 1 284 22 discriminator 2 view .LVU68
 216 0048 9960     		str	r1, [r3, #8]
 285:Drivers/STM32WBxx_HAL_Driver/Src/stm32wbxx_hal_rtc_ex.c **** 
 286:Drivers/STM32WBxx_HAL_Driver/Src/stm32wbxx_hal_rtc_ex.c ****   __HAL_RTC_TIMESTAMP_ENABLE(hrtc);
 217              		.loc 1 286 3 is_stmt 1 discriminator 2 view .LVU69
 218 004a 0268     		ldr	r2, [r0]
 219 004c 9368     		ldr	r3, [r2, #8]
 220 004e 43F40063 		orr	r3, r3, #2048
 221 0052 9360     		str	r3, [r2, #8]
 287:Drivers/STM32WBxx_HAL_Driver/Src/stm32wbxx_hal_rtc_ex.c **** 
 288:Drivers/STM32WBxx_HAL_Driver/Src/stm32wbxx_hal_rtc_ex.c ****   /* Enable IT timestamp */
 289:Drivers/STM32WBxx_HAL_Driver/Src/stm32wbxx_hal_rtc_ex.c ****   __HAL_RTC_TIMESTAMP_ENABLE_IT(hrtc, RTC_IT_TS);
 222              		.loc 1 289 3 discriminator 2 view .LVU70
 223 0054 0268     		ldr	r2, [r0]
 224 0056 9368     		ldr	r3, [r2, #8]
ARM GAS  /var/folders/lt/l_qrc8c54t93n_phsj7cf5tc0000gn/T//cc0GZz77.s 			page 10


 225 0058 43F40043 		orr	r3, r3, #32768
 226 005c 9360     		str	r3, [r2, #8]
 290:Drivers/STM32WBxx_HAL_Driver/Src/stm32wbxx_hal_rtc_ex.c **** 
 291:Drivers/STM32WBxx_HAL_Driver/Src/stm32wbxx_hal_rtc_ex.c ****   /* RTC timestamp Interrupt Configuration: EXTI configuration */
 292:Drivers/STM32WBxx_HAL_Driver/Src/stm32wbxx_hal_rtc_ex.c ****   __HAL_RTC_TAMPER_TIMESTAMP_EXTI_ENABLE_IT();
 227              		.loc 1 292 3 discriminator 2 view .LVU71
 228 005e 0C4B     		ldr	r3, .L15
 229 0060 D3F88020 		ldr	r2, [r3, #128]
 230 0064 42F48022 		orr	r2, r2, #262144
 231 0068 C3F88020 		str	r2, [r3, #128]
 293:Drivers/STM32WBxx_HAL_Driver/Src/stm32wbxx_hal_rtc_ex.c **** 
 294:Drivers/STM32WBxx_HAL_Driver/Src/stm32wbxx_hal_rtc_ex.c ****   __HAL_RTC_TAMPER_TIMESTAMP_EXTI_ENABLE_RISING_EDGE();
 232              		.loc 1 294 3 discriminator 2 view .LVU72
 233 006c 1A68     		ldr	r2, [r3]
 234 006e 42F48022 		orr	r2, r2, #262144
 235 0072 1A60     		str	r2, [r3]
 295:Drivers/STM32WBxx_HAL_Driver/Src/stm32wbxx_hal_rtc_ex.c **** 
 296:Drivers/STM32WBxx_HAL_Driver/Src/stm32wbxx_hal_rtc_ex.c ****   /* Enable the write protection for RTC registers */
 297:Drivers/STM32WBxx_HAL_Driver/Src/stm32wbxx_hal_rtc_ex.c ****   __HAL_RTC_WRITEPROTECTION_ENABLE(hrtc);
 236              		.loc 1 297 3 discriminator 2 view .LVU73
 237              		.loc 1 297 3 discriminator 2 view .LVU74
 238 0074 0368     		ldr	r3, [r0]
 239 0076 FF22     		movs	r2, #255
 240 0078 5A62     		str	r2, [r3, #36]
 241              		.loc 1 297 3 discriminator 2 view .LVU75
 298:Drivers/STM32WBxx_HAL_Driver/Src/stm32wbxx_hal_rtc_ex.c **** 
 299:Drivers/STM32WBxx_HAL_Driver/Src/stm32wbxx_hal_rtc_ex.c ****   hrtc->State = HAL_RTC_STATE_READY;
 242              		.loc 1 299 3 discriminator 2 view .LVU76
 243              		.loc 1 299 15 is_stmt 0 discriminator 2 view .LVU77
 244 007a 80F82140 		strb	r4, [r0, #33]
 300:Drivers/STM32WBxx_HAL_Driver/Src/stm32wbxx_hal_rtc_ex.c **** 
 301:Drivers/STM32WBxx_HAL_Driver/Src/stm32wbxx_hal_rtc_ex.c ****   /* Process Unlocked */
 302:Drivers/STM32WBxx_HAL_Driver/Src/stm32wbxx_hal_rtc_ex.c ****   __HAL_UNLOCK(hrtc);
 245              		.loc 1 302 3 is_stmt 1 discriminator 2 view .LVU78
 246              		.loc 1 302 3 discriminator 2 view .LVU79
 247 007e 0023     		movs	r3, #0
 248 0080 80F82030 		strb	r3, [r0, #32]
 249              		.loc 1 302 3 discriminator 2 view .LVU80
 303:Drivers/STM32WBxx_HAL_Driver/Src/stm32wbxx_hal_rtc_ex.c **** 
 304:Drivers/STM32WBxx_HAL_Driver/Src/stm32wbxx_hal_rtc_ex.c ****   return HAL_OK;
 250              		.loc 1 304 3 discriminator 2 view .LVU81
 251              		.loc 1 304 10 is_stmt 0 discriminator 2 view .LVU82
 252 0084 1846     		mov	r0, r3
 253              	.LVL13:
 305:Drivers/STM32WBxx_HAL_Driver/Src/stm32wbxx_hal_rtc_ex.c **** }
 254              		.loc 1 305 1 discriminator 2 view .LVU83
 255 0086 5DF8044B 		ldr	r4, [sp], #4
 256              	.LCFI3:
 257              		.cfi_restore 4
 258              		.cfi_def_cfa_offset 0
 259 008a 7047     		bx	lr
 260              	.LVL14:
 261              	.L10:
 265:Drivers/STM32WBxx_HAL_Driver/Src/stm32wbxx_hal_rtc_ex.c **** 
 262              		.loc 1 265 3 view .LVU84
 263 008c 0220     		movs	r0, #2
 264              	.LVL15:
ARM GAS  /var/folders/lt/l_qrc8c54t93n_phsj7cf5tc0000gn/T//cc0GZz77.s 			page 11


 265              		.loc 1 305 1 view .LVU85
 266 008e 7047     		bx	lr
 267              	.L16:
 268              		.align	2
 269              	.L15:
 270 0090 00080058 		.word	1476397056
 271              		.cfi_endproc
 272              	.LFE1105:
 274              		.section	.text.HAL_RTCEx_DeactivateTimeStamp,"ax",%progbits
 275              		.align	1
 276              		.global	HAL_RTCEx_DeactivateTimeStamp
 277              		.syntax unified
 278              		.thumb
 279              		.thumb_func
 280              		.fpu fpv4-sp-d16
 282              	HAL_RTCEx_DeactivateTimeStamp:
 283              	.LVL16:
 284              	.LFB1106:
 306:Drivers/STM32WBxx_HAL_Driver/Src/stm32wbxx_hal_rtc_ex.c **** 
 307:Drivers/STM32WBxx_HAL_Driver/Src/stm32wbxx_hal_rtc_ex.c **** /**
 308:Drivers/STM32WBxx_HAL_Driver/Src/stm32wbxx_hal_rtc_ex.c ****   * @brief  Deactivate TimeStamp.
 309:Drivers/STM32WBxx_HAL_Driver/Src/stm32wbxx_hal_rtc_ex.c ****   * @param hrtc RTC handle
 310:Drivers/STM32WBxx_HAL_Driver/Src/stm32wbxx_hal_rtc_ex.c ****   * @retval HAL status
 311:Drivers/STM32WBxx_HAL_Driver/Src/stm32wbxx_hal_rtc_ex.c ****   */
 312:Drivers/STM32WBxx_HAL_Driver/Src/stm32wbxx_hal_rtc_ex.c **** HAL_StatusTypeDef HAL_RTCEx_DeactivateTimeStamp(RTC_HandleTypeDef *hrtc)
 313:Drivers/STM32WBxx_HAL_Driver/Src/stm32wbxx_hal_rtc_ex.c **** {
 285              		.loc 1 313 1 is_stmt 1 view -0
 286              		.cfi_startproc
 287              		@ args = 0, pretend = 0, frame = 0
 288              		@ frame_needed = 0, uses_anonymous_args = 0
 289              		@ link register save eliminated.
 314:Drivers/STM32WBxx_HAL_Driver/Src/stm32wbxx_hal_rtc_ex.c ****   uint32_t tmpreg;
 290              		.loc 1 314 3 view .LVU87
 315:Drivers/STM32WBxx_HAL_Driver/Src/stm32wbxx_hal_rtc_ex.c **** 
 316:Drivers/STM32WBxx_HAL_Driver/Src/stm32wbxx_hal_rtc_ex.c ****   /* Process Locked */
 317:Drivers/STM32WBxx_HAL_Driver/Src/stm32wbxx_hal_rtc_ex.c ****   __HAL_LOCK(hrtc);
 291              		.loc 1 317 3 view .LVU88
 292              		.loc 1 317 3 view .LVU89
 293 0000 90F82030 		ldrb	r3, [r0, #32]	@ zero_extendqisi2
 294 0004 012B     		cmp	r3, #1
 295 0006 21D0     		beq	.L19
 296              		.loc 1 317 3 discriminator 2 view .LVU90
 297 0008 0122     		movs	r2, #1
 298 000a 80F82020 		strb	r2, [r0, #32]
 299              		.loc 1 317 3 discriminator 2 view .LVU91
 318:Drivers/STM32WBxx_HAL_Driver/Src/stm32wbxx_hal_rtc_ex.c **** 
 319:Drivers/STM32WBxx_HAL_Driver/Src/stm32wbxx_hal_rtc_ex.c ****   hrtc->State = HAL_RTC_STATE_BUSY;
 300              		.loc 1 319 3 discriminator 2 view .LVU92
 301              		.loc 1 319 15 is_stmt 0 discriminator 2 view .LVU93
 302 000e 0223     		movs	r3, #2
 303 0010 80F82130 		strb	r3, [r0, #33]
 320:Drivers/STM32WBxx_HAL_Driver/Src/stm32wbxx_hal_rtc_ex.c **** 
 321:Drivers/STM32WBxx_HAL_Driver/Src/stm32wbxx_hal_rtc_ex.c ****   /* Disable the write protection for RTC registers */
 322:Drivers/STM32WBxx_HAL_Driver/Src/stm32wbxx_hal_rtc_ex.c ****   __HAL_RTC_WRITEPROTECTION_DISABLE(hrtc);
 304              		.loc 1 322 3 is_stmt 1 discriminator 2 view .LVU94
 305              		.loc 1 322 3 discriminator 2 view .LVU95
 306 0014 0368     		ldr	r3, [r0]
ARM GAS  /var/folders/lt/l_qrc8c54t93n_phsj7cf5tc0000gn/T//cc0GZz77.s 			page 12


 307 0016 CA21     		movs	r1, #202
 308 0018 5962     		str	r1, [r3, #36]
 309              		.loc 1 322 3 discriminator 2 view .LVU96
 310 001a 0368     		ldr	r3, [r0]
 311 001c 5321     		movs	r1, #83
 312 001e 5962     		str	r1, [r3, #36]
 313              		.loc 1 322 3 discriminator 2 view .LVU97
 323:Drivers/STM32WBxx_HAL_Driver/Src/stm32wbxx_hal_rtc_ex.c **** 
 324:Drivers/STM32WBxx_HAL_Driver/Src/stm32wbxx_hal_rtc_ex.c ****   /* In case of interrupt mode is used, the interrupt source must disabled */
 325:Drivers/STM32WBxx_HAL_Driver/Src/stm32wbxx_hal_rtc_ex.c ****   __HAL_RTC_TIMESTAMP_DISABLE_IT(hrtc, RTC_IT_TS);
 314              		.loc 1 325 3 discriminator 2 view .LVU98
 315 0020 0168     		ldr	r1, [r0]
 316 0022 8B68     		ldr	r3, [r1, #8]
 317 0024 23F40043 		bic	r3, r3, #32768
 318 0028 8B60     		str	r3, [r1, #8]
 326:Drivers/STM32WBxx_HAL_Driver/Src/stm32wbxx_hal_rtc_ex.c **** 
 327:Drivers/STM32WBxx_HAL_Driver/Src/stm32wbxx_hal_rtc_ex.c ****   /* Get the RTC_CR register and clear the bits to be configured */
 328:Drivers/STM32WBxx_HAL_Driver/Src/stm32wbxx_hal_rtc_ex.c ****   tmpreg = (uint32_t)(hrtc->Instance->CR & (uint32_t)~(RTC_CR_TSEDGE | RTC_CR_TSE));
 319              		.loc 1 328 3 discriminator 2 view .LVU99
 320              		.loc 1 328 27 is_stmt 0 discriminator 2 view .LVU100
 321 002a 0168     		ldr	r1, [r0]
 322              		.loc 1 328 37 discriminator 2 view .LVU101
 323 002c 8B68     		ldr	r3, [r1, #8]
 324              		.loc 1 328 10 discriminator 2 view .LVU102
 325 002e 23F40063 		bic	r3, r3, #2048
 326 0032 23F00803 		bic	r3, r3, #8
 327              	.LVL17:
 329:Drivers/STM32WBxx_HAL_Driver/Src/stm32wbxx_hal_rtc_ex.c **** 
 330:Drivers/STM32WBxx_HAL_Driver/Src/stm32wbxx_hal_rtc_ex.c ****   /* Configure the Time Stamp TSEDGE and Enable bits */
 331:Drivers/STM32WBxx_HAL_Driver/Src/stm32wbxx_hal_rtc_ex.c ****   hrtc->Instance->CR = (uint32_t)tmpreg;
 328              		.loc 1 331 3 is_stmt 1 discriminator 2 view .LVU103
 329              		.loc 1 331 22 is_stmt 0 discriminator 2 view .LVU104
 330 0036 8B60     		str	r3, [r1, #8]
 332:Drivers/STM32WBxx_HAL_Driver/Src/stm32wbxx_hal_rtc_ex.c **** 
 333:Drivers/STM32WBxx_HAL_Driver/Src/stm32wbxx_hal_rtc_ex.c ****   /* Enable the write protection for RTC registers */
 334:Drivers/STM32WBxx_HAL_Driver/Src/stm32wbxx_hal_rtc_ex.c ****   __HAL_RTC_WRITEPROTECTION_ENABLE(hrtc);
 331              		.loc 1 334 3 is_stmt 1 discriminator 2 view .LVU105
 332              		.loc 1 334 3 discriminator 2 view .LVU106
 333 0038 0368     		ldr	r3, [r0]
 334              	.LVL18:
 335              		.loc 1 334 3 is_stmt 0 discriminator 2 view .LVU107
 336 003a FF21     		movs	r1, #255
 337              	.LVL19:
 338              		.loc 1 334 3 discriminator 2 view .LVU108
 339 003c 5962     		str	r1, [r3, #36]
 340              		.loc 1 334 3 is_stmt 1 discriminator 2 view .LVU109
 335:Drivers/STM32WBxx_HAL_Driver/Src/stm32wbxx_hal_rtc_ex.c **** 
 336:Drivers/STM32WBxx_HAL_Driver/Src/stm32wbxx_hal_rtc_ex.c ****   hrtc->State = HAL_RTC_STATE_READY;
 341              		.loc 1 336 3 discriminator 2 view .LVU110
 342              		.loc 1 336 15 is_stmt 0 discriminator 2 view .LVU111
 343 003e 80F82120 		strb	r2, [r0, #33]
 337:Drivers/STM32WBxx_HAL_Driver/Src/stm32wbxx_hal_rtc_ex.c **** 
 338:Drivers/STM32WBxx_HAL_Driver/Src/stm32wbxx_hal_rtc_ex.c ****   /* Process Unlocked */
 339:Drivers/STM32WBxx_HAL_Driver/Src/stm32wbxx_hal_rtc_ex.c ****   __HAL_UNLOCK(hrtc);
 344              		.loc 1 339 3 is_stmt 1 discriminator 2 view .LVU112
 345              		.loc 1 339 3 discriminator 2 view .LVU113
 346 0042 0023     		movs	r3, #0
ARM GAS  /var/folders/lt/l_qrc8c54t93n_phsj7cf5tc0000gn/T//cc0GZz77.s 			page 13


 347 0044 80F82030 		strb	r3, [r0, #32]
 348              		.loc 1 339 3 discriminator 2 view .LVU114
 340:Drivers/STM32WBxx_HAL_Driver/Src/stm32wbxx_hal_rtc_ex.c **** 
 341:Drivers/STM32WBxx_HAL_Driver/Src/stm32wbxx_hal_rtc_ex.c ****   return HAL_OK;
 349              		.loc 1 341 3 discriminator 2 view .LVU115
 350              		.loc 1 341 10 is_stmt 0 discriminator 2 view .LVU116
 351 0048 1846     		mov	r0, r3
 352              	.LVL20:
 353              		.loc 1 341 10 discriminator 2 view .LVU117
 354 004a 7047     		bx	lr
 355              	.LVL21:
 356              	.L19:
 317:Drivers/STM32WBxx_HAL_Driver/Src/stm32wbxx_hal_rtc_ex.c **** 
 357              		.loc 1 317 3 view .LVU118
 358 004c 0220     		movs	r0, #2
 359              	.LVL22:
 342:Drivers/STM32WBxx_HAL_Driver/Src/stm32wbxx_hal_rtc_ex.c **** }
 360              		.loc 1 342 1 view .LVU119
 361 004e 7047     		bx	lr
 362              		.cfi_endproc
 363              	.LFE1106:
 365              		.section	.text.HAL_RTCEx_SetInternalTimeStamp,"ax",%progbits
 366              		.align	1
 367              		.global	HAL_RTCEx_SetInternalTimeStamp
 368              		.syntax unified
 369              		.thumb
 370              		.thumb_func
 371              		.fpu fpv4-sp-d16
 373              	HAL_RTCEx_SetInternalTimeStamp:
 374              	.LVL23:
 375              	.LFB1107:
 343:Drivers/STM32WBxx_HAL_Driver/Src/stm32wbxx_hal_rtc_ex.c **** 
 344:Drivers/STM32WBxx_HAL_Driver/Src/stm32wbxx_hal_rtc_ex.c **** #if defined(RTC_INTERNALTS_SUPPORT)
 345:Drivers/STM32WBxx_HAL_Driver/Src/stm32wbxx_hal_rtc_ex.c **** /**
 346:Drivers/STM32WBxx_HAL_Driver/Src/stm32wbxx_hal_rtc_ex.c ****   * @brief  Set Internal TimeStamp.
 347:Drivers/STM32WBxx_HAL_Driver/Src/stm32wbxx_hal_rtc_ex.c ****   * @note   This API must be called before enabling the internal TimeStamp feature.
 348:Drivers/STM32WBxx_HAL_Driver/Src/stm32wbxx_hal_rtc_ex.c ****   * @param hrtc pointer to a RTC_HandleTypeDef structure that contains
 349:Drivers/STM32WBxx_HAL_Driver/Src/stm32wbxx_hal_rtc_ex.c ****   *                the configuration information for RTC.
 350:Drivers/STM32WBxx_HAL_Driver/Src/stm32wbxx_hal_rtc_ex.c ****   * @retval HAL status
 351:Drivers/STM32WBxx_HAL_Driver/Src/stm32wbxx_hal_rtc_ex.c ****   */
 352:Drivers/STM32WBxx_HAL_Driver/Src/stm32wbxx_hal_rtc_ex.c **** HAL_StatusTypeDef HAL_RTCEx_SetInternalTimeStamp(RTC_HandleTypeDef *hrtc)
 353:Drivers/STM32WBxx_HAL_Driver/Src/stm32wbxx_hal_rtc_ex.c **** {
 376              		.loc 1 353 1 is_stmt 1 view -0
 377              		.cfi_startproc
 378              		@ args = 0, pretend = 0, frame = 0
 379              		@ frame_needed = 0, uses_anonymous_args = 0
 380              		@ link register save eliminated.
 354:Drivers/STM32WBxx_HAL_Driver/Src/stm32wbxx_hal_rtc_ex.c ****   /* Process Locked */
 355:Drivers/STM32WBxx_HAL_Driver/Src/stm32wbxx_hal_rtc_ex.c ****   __HAL_LOCK(hrtc);
 381              		.loc 1 355 3 view .LVU121
 382              		.loc 1 355 3 view .LVU122
 383 0000 90F82030 		ldrb	r3, [r0, #32]	@ zero_extendqisi2
 384 0004 012B     		cmp	r3, #1
 385 0006 23D0     		beq	.L22
 353:Drivers/STM32WBxx_HAL_Driver/Src/stm32wbxx_hal_rtc_ex.c ****   /* Process Locked */
 386              		.loc 1 353 1 is_stmt 0 discriminator 2 view .LVU123
 387 0008 10B4     		push	{r4}
ARM GAS  /var/folders/lt/l_qrc8c54t93n_phsj7cf5tc0000gn/T//cc0GZz77.s 			page 14


 388              	.LCFI4:
 389              		.cfi_def_cfa_offset 4
 390              		.cfi_offset 4, -4
 391              		.loc 1 355 3 is_stmt 1 discriminator 2 view .LVU124
 392 000a 0121     		movs	r1, #1
 393 000c 80F82010 		strb	r1, [r0, #32]
 394              		.loc 1 355 3 discriminator 2 view .LVU125
 356:Drivers/STM32WBxx_HAL_Driver/Src/stm32wbxx_hal_rtc_ex.c **** 
 357:Drivers/STM32WBxx_HAL_Driver/Src/stm32wbxx_hal_rtc_ex.c ****   hrtc->State = HAL_RTC_STATE_BUSY;
 395              		.loc 1 357 3 discriminator 2 view .LVU126
 396              		.loc 1 357 15 is_stmt 0 discriminator 2 view .LVU127
 397 0010 0223     		movs	r3, #2
 398 0012 80F82130 		strb	r3, [r0, #33]
 358:Drivers/STM32WBxx_HAL_Driver/Src/stm32wbxx_hal_rtc_ex.c **** 
 359:Drivers/STM32WBxx_HAL_Driver/Src/stm32wbxx_hal_rtc_ex.c ****   /* Disable the write protection for RTC registers */
 360:Drivers/STM32WBxx_HAL_Driver/Src/stm32wbxx_hal_rtc_ex.c ****   __HAL_RTC_WRITEPROTECTION_DISABLE(hrtc);
 399              		.loc 1 360 3 is_stmt 1 discriminator 2 view .LVU128
 400              		.loc 1 360 3 discriminator 2 view .LVU129
 401 0016 0368     		ldr	r3, [r0]
 402 0018 CA22     		movs	r2, #202
 403 001a 5A62     		str	r2, [r3, #36]
 404              		.loc 1 360 3 discriminator 2 view .LVU130
 405 001c 0368     		ldr	r3, [r0]
 406 001e 5322     		movs	r2, #83
 407 0020 5A62     		str	r2, [r3, #36]
 408              		.loc 1 360 3 discriminator 2 view .LVU131
 361:Drivers/STM32WBxx_HAL_Driver/Src/stm32wbxx_hal_rtc_ex.c **** 
 362:Drivers/STM32WBxx_HAL_Driver/Src/stm32wbxx_hal_rtc_ex.c ****   /* Clear the TIMESTAMP Flags */
 363:Drivers/STM32WBxx_HAL_Driver/Src/stm32wbxx_hal_rtc_ex.c ****   __HAL_RTC_INTERNAL_TIMESTAMP_CLEAR_FLAG(hrtc, RTC_FLAG_ITSF);
 409              		.loc 1 363 3 discriminator 2 view .LVU132
 410 0022 0468     		ldr	r4, [r0]
 411 0024 E268     		ldr	r2, [r4, #12]
 412 0026 D2B2     		uxtb	r2, r2
 413 0028 0A4B     		ldr	r3, .L27
 414 002a 1343     		orrs	r3, r3, r2
 415 002c E360     		str	r3, [r4, #12]
 364:Drivers/STM32WBxx_HAL_Driver/Src/stm32wbxx_hal_rtc_ex.c **** 
 365:Drivers/STM32WBxx_HAL_Driver/Src/stm32wbxx_hal_rtc_ex.c ****   /* Configure the internal Time Stamp Enable bits */
 366:Drivers/STM32WBxx_HAL_Driver/Src/stm32wbxx_hal_rtc_ex.c ****   __HAL_RTC_INTERNAL_TIMESTAMP_ENABLE(hrtc);
 416              		.loc 1 366 3 discriminator 2 view .LVU133
 417 002e 0268     		ldr	r2, [r0]
 418 0030 9368     		ldr	r3, [r2, #8]
 419 0032 43F08073 		orr	r3, r3, #16777216
 420 0036 9360     		str	r3, [r2, #8]
 367:Drivers/STM32WBxx_HAL_Driver/Src/stm32wbxx_hal_rtc_ex.c **** 
 368:Drivers/STM32WBxx_HAL_Driver/Src/stm32wbxx_hal_rtc_ex.c ****   /* Enable the write protection for RTC registers */
 369:Drivers/STM32WBxx_HAL_Driver/Src/stm32wbxx_hal_rtc_ex.c ****   __HAL_RTC_WRITEPROTECTION_ENABLE(hrtc);
 421              		.loc 1 369 3 discriminator 2 view .LVU134
 422              		.loc 1 369 3 discriminator 2 view .LVU135
 423 0038 0368     		ldr	r3, [r0]
 424 003a FF22     		movs	r2, #255
 425 003c 5A62     		str	r2, [r3, #36]
 426              		.loc 1 369 3 discriminator 2 view .LVU136
 370:Drivers/STM32WBxx_HAL_Driver/Src/stm32wbxx_hal_rtc_ex.c **** 
 371:Drivers/STM32WBxx_HAL_Driver/Src/stm32wbxx_hal_rtc_ex.c ****   /* Change RTC state */
 372:Drivers/STM32WBxx_HAL_Driver/Src/stm32wbxx_hal_rtc_ex.c ****   hrtc->State = HAL_RTC_STATE_READY;
 427              		.loc 1 372 3 discriminator 2 view .LVU137
ARM GAS  /var/folders/lt/l_qrc8c54t93n_phsj7cf5tc0000gn/T//cc0GZz77.s 			page 15


 428              		.loc 1 372 15 is_stmt 0 discriminator 2 view .LVU138
 429 003e 80F82110 		strb	r1, [r0, #33]
 373:Drivers/STM32WBxx_HAL_Driver/Src/stm32wbxx_hal_rtc_ex.c **** 
 374:Drivers/STM32WBxx_HAL_Driver/Src/stm32wbxx_hal_rtc_ex.c ****   /* Process Unlocked */
 375:Drivers/STM32WBxx_HAL_Driver/Src/stm32wbxx_hal_rtc_ex.c ****   __HAL_UNLOCK(hrtc);
 430              		.loc 1 375 3 is_stmt 1 discriminator 2 view .LVU139
 431              		.loc 1 375 3 discriminator 2 view .LVU140
 432 0042 0023     		movs	r3, #0
 433 0044 80F82030 		strb	r3, [r0, #32]
 434              		.loc 1 375 3 discriminator 2 view .LVU141
 376:Drivers/STM32WBxx_HAL_Driver/Src/stm32wbxx_hal_rtc_ex.c **** 
 377:Drivers/STM32WBxx_HAL_Driver/Src/stm32wbxx_hal_rtc_ex.c ****   return HAL_OK;
 435              		.loc 1 377 3 discriminator 2 view .LVU142
 436              		.loc 1 377 10 is_stmt 0 discriminator 2 view .LVU143
 437 0048 1846     		mov	r0, r3
 438              	.LVL24:
 378:Drivers/STM32WBxx_HAL_Driver/Src/stm32wbxx_hal_rtc_ex.c **** }
 439              		.loc 1 378 1 discriminator 2 view .LVU144
 440 004a 5DF8044B 		ldr	r4, [sp], #4
 441              	.LCFI5:
 442              		.cfi_restore 4
 443              		.cfi_def_cfa_offset 0
 444 004e 7047     		bx	lr
 445              	.LVL25:
 446              	.L22:
 355:Drivers/STM32WBxx_HAL_Driver/Src/stm32wbxx_hal_rtc_ex.c **** 
 447              		.loc 1 355 3 view .LVU145
 448 0050 0220     		movs	r0, #2
 449              	.LVL26:
 450              		.loc 1 378 1 view .LVU146
 451 0052 7047     		bx	lr
 452              	.L28:
 453              		.align	2
 454              	.L27:
 455 0054 7FFFFDFF 		.word	-131201
 456              		.cfi_endproc
 457              	.LFE1107:
 459              		.section	.text.HAL_RTCEx_DeactivateInternalTimeStamp,"ax",%progbits
 460              		.align	1
 461              		.global	HAL_RTCEx_DeactivateInternalTimeStamp
 462              		.syntax unified
 463              		.thumb
 464              		.thumb_func
 465              		.fpu fpv4-sp-d16
 467              	HAL_RTCEx_DeactivateInternalTimeStamp:
 468              	.LVL27:
 469              	.LFB1108:
 379:Drivers/STM32WBxx_HAL_Driver/Src/stm32wbxx_hal_rtc_ex.c **** 
 380:Drivers/STM32WBxx_HAL_Driver/Src/stm32wbxx_hal_rtc_ex.c **** /**
 381:Drivers/STM32WBxx_HAL_Driver/Src/stm32wbxx_hal_rtc_ex.c ****   * @brief  Deactivate Internal TimeStamp.
 382:Drivers/STM32WBxx_HAL_Driver/Src/stm32wbxx_hal_rtc_ex.c ****   * @param hrtc pointer to a RTC_HandleTypeDef structure that contains
 383:Drivers/STM32WBxx_HAL_Driver/Src/stm32wbxx_hal_rtc_ex.c ****   *                the configuration information for RTC.
 384:Drivers/STM32WBxx_HAL_Driver/Src/stm32wbxx_hal_rtc_ex.c ****   * @retval HAL status
 385:Drivers/STM32WBxx_HAL_Driver/Src/stm32wbxx_hal_rtc_ex.c ****   */
 386:Drivers/STM32WBxx_HAL_Driver/Src/stm32wbxx_hal_rtc_ex.c **** HAL_StatusTypeDef HAL_RTCEx_DeactivateInternalTimeStamp(RTC_HandleTypeDef *hrtc)
 387:Drivers/STM32WBxx_HAL_Driver/Src/stm32wbxx_hal_rtc_ex.c **** {
 470              		.loc 1 387 1 is_stmt 1 view -0
ARM GAS  /var/folders/lt/l_qrc8c54t93n_phsj7cf5tc0000gn/T//cc0GZz77.s 			page 16


 471              		.cfi_startproc
 472              		@ args = 0, pretend = 0, frame = 0
 473              		@ frame_needed = 0, uses_anonymous_args = 0
 474              		@ link register save eliminated.
 388:Drivers/STM32WBxx_HAL_Driver/Src/stm32wbxx_hal_rtc_ex.c ****   /* Process Locked */
 389:Drivers/STM32WBxx_HAL_Driver/Src/stm32wbxx_hal_rtc_ex.c ****   __HAL_LOCK(hrtc);
 475              		.loc 1 389 3 view .LVU148
 476              		.loc 1 389 3 view .LVU149
 477 0000 90F82030 		ldrb	r3, [r0, #32]	@ zero_extendqisi2
 478 0004 012B     		cmp	r3, #1
 479 0006 1AD0     		beq	.L31
 480              		.loc 1 389 3 discriminator 2 view .LVU150
 481 0008 0122     		movs	r2, #1
 482 000a 80F82020 		strb	r2, [r0, #32]
 483              		.loc 1 389 3 discriminator 2 view .LVU151
 390:Drivers/STM32WBxx_HAL_Driver/Src/stm32wbxx_hal_rtc_ex.c **** 
 391:Drivers/STM32WBxx_HAL_Driver/Src/stm32wbxx_hal_rtc_ex.c ****   hrtc->State = HAL_RTC_STATE_BUSY;
 484              		.loc 1 391 3 discriminator 2 view .LVU152
 485              		.loc 1 391 15 is_stmt 0 discriminator 2 view .LVU153
 486 000e 0223     		movs	r3, #2
 487 0010 80F82130 		strb	r3, [r0, #33]
 392:Drivers/STM32WBxx_HAL_Driver/Src/stm32wbxx_hal_rtc_ex.c **** 
 393:Drivers/STM32WBxx_HAL_Driver/Src/stm32wbxx_hal_rtc_ex.c ****   /* Disable the write protection for RTC registers */
 394:Drivers/STM32WBxx_HAL_Driver/Src/stm32wbxx_hal_rtc_ex.c ****   __HAL_RTC_WRITEPROTECTION_DISABLE(hrtc);
 488              		.loc 1 394 3 is_stmt 1 discriminator 2 view .LVU154
 489              		.loc 1 394 3 discriminator 2 view .LVU155
 490 0014 0368     		ldr	r3, [r0]
 491 0016 CA21     		movs	r1, #202
 492 0018 5962     		str	r1, [r3, #36]
 493              		.loc 1 394 3 discriminator 2 view .LVU156
 494 001a 0368     		ldr	r3, [r0]
 495 001c 5321     		movs	r1, #83
 496 001e 5962     		str	r1, [r3, #36]
 497              		.loc 1 394 3 discriminator 2 view .LVU157
 395:Drivers/STM32WBxx_HAL_Driver/Src/stm32wbxx_hal_rtc_ex.c **** 
 396:Drivers/STM32WBxx_HAL_Driver/Src/stm32wbxx_hal_rtc_ex.c ****   /* Configure the internal Time Stamp Enable bits */
 397:Drivers/STM32WBxx_HAL_Driver/Src/stm32wbxx_hal_rtc_ex.c ****   __HAL_RTC_INTERNAL_TIMESTAMP_DISABLE(hrtc);
 498              		.loc 1 397 3 discriminator 2 view .LVU158
 499 0020 0168     		ldr	r1, [r0]
 500 0022 8B68     		ldr	r3, [r1, #8]
 501 0024 23F08073 		bic	r3, r3, #16777216
 502 0028 8B60     		str	r3, [r1, #8]
 398:Drivers/STM32WBxx_HAL_Driver/Src/stm32wbxx_hal_rtc_ex.c **** 
 399:Drivers/STM32WBxx_HAL_Driver/Src/stm32wbxx_hal_rtc_ex.c ****   /* Enable the write protection for RTC registers */
 400:Drivers/STM32WBxx_HAL_Driver/Src/stm32wbxx_hal_rtc_ex.c ****   __HAL_RTC_WRITEPROTECTION_ENABLE(hrtc);
 503              		.loc 1 400 3 discriminator 2 view .LVU159
 504              		.loc 1 400 3 discriminator 2 view .LVU160
 505 002a 0368     		ldr	r3, [r0]
 506 002c FF21     		movs	r1, #255
 507 002e 5962     		str	r1, [r3, #36]
 508              		.loc 1 400 3 discriminator 2 view .LVU161
 401:Drivers/STM32WBxx_HAL_Driver/Src/stm32wbxx_hal_rtc_ex.c **** 
 402:Drivers/STM32WBxx_HAL_Driver/Src/stm32wbxx_hal_rtc_ex.c ****   hrtc->State = HAL_RTC_STATE_READY;
 509              		.loc 1 402 3 discriminator 2 view .LVU162
 510              		.loc 1 402 15 is_stmt 0 discriminator 2 view .LVU163
 511 0030 80F82120 		strb	r2, [r0, #33]
 403:Drivers/STM32WBxx_HAL_Driver/Src/stm32wbxx_hal_rtc_ex.c **** 
ARM GAS  /var/folders/lt/l_qrc8c54t93n_phsj7cf5tc0000gn/T//cc0GZz77.s 			page 17


 404:Drivers/STM32WBxx_HAL_Driver/Src/stm32wbxx_hal_rtc_ex.c ****   /* Process Unlocked */
 405:Drivers/STM32WBxx_HAL_Driver/Src/stm32wbxx_hal_rtc_ex.c ****   __HAL_UNLOCK(hrtc);
 512              		.loc 1 405 3 is_stmt 1 discriminator 2 view .LVU164
 513              		.loc 1 405 3 discriminator 2 view .LVU165
 514 0034 0023     		movs	r3, #0
 515 0036 80F82030 		strb	r3, [r0, #32]
 516              		.loc 1 405 3 discriminator 2 view .LVU166
 406:Drivers/STM32WBxx_HAL_Driver/Src/stm32wbxx_hal_rtc_ex.c **** 
 407:Drivers/STM32WBxx_HAL_Driver/Src/stm32wbxx_hal_rtc_ex.c ****   return HAL_OK;
 517              		.loc 1 407 3 discriminator 2 view .LVU167
 518              		.loc 1 407 10 is_stmt 0 discriminator 2 view .LVU168
 519 003a 1846     		mov	r0, r3
 520              	.LVL28:
 521              		.loc 1 407 10 discriminator 2 view .LVU169
 522 003c 7047     		bx	lr
 523              	.LVL29:
 524              	.L31:
 389:Drivers/STM32WBxx_HAL_Driver/Src/stm32wbxx_hal_rtc_ex.c **** 
 525              		.loc 1 389 3 view .LVU170
 526 003e 0220     		movs	r0, #2
 527              	.LVL30:
 408:Drivers/STM32WBxx_HAL_Driver/Src/stm32wbxx_hal_rtc_ex.c **** }
 528              		.loc 1 408 1 view .LVU171
 529 0040 7047     		bx	lr
 530              		.cfi_endproc
 531              	.LFE1108:
 533              		.section	.text.HAL_RTCEx_GetTimeStamp,"ax",%progbits
 534              		.align	1
 535              		.global	HAL_RTCEx_GetTimeStamp
 536              		.syntax unified
 537              		.thumb
 538              		.thumb_func
 539              		.fpu fpv4-sp-d16
 541              	HAL_RTCEx_GetTimeStamp:
 542              	.LVL31:
 543              	.LFB1109:
 409:Drivers/STM32WBxx_HAL_Driver/Src/stm32wbxx_hal_rtc_ex.c **** #endif
 410:Drivers/STM32WBxx_HAL_Driver/Src/stm32wbxx_hal_rtc_ex.c **** 
 411:Drivers/STM32WBxx_HAL_Driver/Src/stm32wbxx_hal_rtc_ex.c **** /**
 412:Drivers/STM32WBxx_HAL_Driver/Src/stm32wbxx_hal_rtc_ex.c ****   * @brief  Get the RTC TimeStamp value.
 413:Drivers/STM32WBxx_HAL_Driver/Src/stm32wbxx_hal_rtc_ex.c ****   * @param hrtc RTC handle
 414:Drivers/STM32WBxx_HAL_Driver/Src/stm32wbxx_hal_rtc_ex.c ****   * @param sTimeStamp Pointer to Time structure
 415:Drivers/STM32WBxx_HAL_Driver/Src/stm32wbxx_hal_rtc_ex.c ****   * @param sTimeStampDate Pointer to Date structure
 416:Drivers/STM32WBxx_HAL_Driver/Src/stm32wbxx_hal_rtc_ex.c ****   * @param Format specifies the format of the entered parameters.
 417:Drivers/STM32WBxx_HAL_Driver/Src/stm32wbxx_hal_rtc_ex.c ****   *          This parameter can be one of the following values:
 418:Drivers/STM32WBxx_HAL_Driver/Src/stm32wbxx_hal_rtc_ex.c ****   *             @arg RTC_FORMAT_BIN: Binary data format
 419:Drivers/STM32WBxx_HAL_Driver/Src/stm32wbxx_hal_rtc_ex.c ****   *             @arg RTC_FORMAT_BCD: BCD data format
 420:Drivers/STM32WBxx_HAL_Driver/Src/stm32wbxx_hal_rtc_ex.c ****   * @retval HAL status
 421:Drivers/STM32WBxx_HAL_Driver/Src/stm32wbxx_hal_rtc_ex.c ****   */
 422:Drivers/STM32WBxx_HAL_Driver/Src/stm32wbxx_hal_rtc_ex.c **** HAL_StatusTypeDef HAL_RTCEx_GetTimeStamp(RTC_HandleTypeDef *hrtc, RTC_TimeTypeDef *sTimeStamp,
 423:Drivers/STM32WBxx_HAL_Driver/Src/stm32wbxx_hal_rtc_ex.c ****                                          RTC_DateTypeDef *sTimeStampDate, uint32_t Format)
 424:Drivers/STM32WBxx_HAL_Driver/Src/stm32wbxx_hal_rtc_ex.c **** {
 544              		.loc 1 424 1 is_stmt 1 view -0
 545              		.cfi_startproc
 546              		@ args = 0, pretend = 0, frame = 0
 547              		@ frame_needed = 0, uses_anonymous_args = 0
 548              		.loc 1 424 1 is_stmt 0 view .LVU173
ARM GAS  /var/folders/lt/l_qrc8c54t93n_phsj7cf5tc0000gn/T//cc0GZz77.s 			page 18


 549 0000 F8B5     		push	{r3, r4, r5, r6, r7, lr}
 550              	.LCFI6:
 551              		.cfi_def_cfa_offset 24
 552              		.cfi_offset 3, -24
 553              		.cfi_offset 4, -20
 554              		.cfi_offset 5, -16
 555              		.cfi_offset 6, -12
 556              		.cfi_offset 7, -8
 557              		.cfi_offset 14, -4
 558 0002 0646     		mov	r6, r0
 559 0004 0C46     		mov	r4, r1
 560 0006 1546     		mov	r5, r2
 425:Drivers/STM32WBxx_HAL_Driver/Src/stm32wbxx_hal_rtc_ex.c ****   uint32_t tmptime, tmpdate;
 561              		.loc 1 425 3 is_stmt 1 view .LVU174
 426:Drivers/STM32WBxx_HAL_Driver/Src/stm32wbxx_hal_rtc_ex.c **** 
 427:Drivers/STM32WBxx_HAL_Driver/Src/stm32wbxx_hal_rtc_ex.c ****   /* Check the parameters */
 428:Drivers/STM32WBxx_HAL_Driver/Src/stm32wbxx_hal_rtc_ex.c ****   assert_param(IS_RTC_FORMAT(Format));
 562              		.loc 1 428 3 view .LVU175
 429:Drivers/STM32WBxx_HAL_Driver/Src/stm32wbxx_hal_rtc_ex.c **** 
 430:Drivers/STM32WBxx_HAL_Driver/Src/stm32wbxx_hal_rtc_ex.c ****   /* Get the TimeStamp time and date registers values */
 431:Drivers/STM32WBxx_HAL_Driver/Src/stm32wbxx_hal_rtc_ex.c ****   tmptime = (uint32_t)(hrtc->Instance->TSTR & RTC_TR_RESERVED_MASK);
 563              		.loc 1 431 3 view .LVU176
 564              		.loc 1 431 28 is_stmt 0 view .LVU177
 565 0008 0168     		ldr	r1, [r0]
 566              	.LVL32:
 567              		.loc 1 431 38 view .LVU178
 568 000a 0A6B     		ldr	r2, [r1, #48]
 569              	.LVL33:
 432:Drivers/STM32WBxx_HAL_Driver/Src/stm32wbxx_hal_rtc_ex.c ****   tmpdate = (uint32_t)(hrtc->Instance->TSDR & RTC_DR_RESERVED_MASK);
 570              		.loc 1 432 3 is_stmt 1 view .LVU179
 571              		.loc 1 432 38 is_stmt 0 view .LVU180
 572 000c 496B     		ldr	r1, [r1, #52]
 573              	.LVL34:
 433:Drivers/STM32WBxx_HAL_Driver/Src/stm32wbxx_hal_rtc_ex.c **** 
 434:Drivers/STM32WBxx_HAL_Driver/Src/stm32wbxx_hal_rtc_ex.c ****   /* Fill the Time structure fields with the read parameters */
 435:Drivers/STM32WBxx_HAL_Driver/Src/stm32wbxx_hal_rtc_ex.c ****   sTimeStamp->Hours = (uint8_t)((tmptime & (RTC_TR_HT | RTC_TR_HU)) >> 16U);
 574              		.loc 1 435 3 is_stmt 1 view .LVU181
 575              		.loc 1 435 23 is_stmt 0 view .LVU182
 576 000e C2F30640 		ubfx	r0, r2, #16, #7
 577              	.LVL35:
 578              		.loc 1 435 23 view .LVU183
 579 0012 C2F30547 		ubfx	r7, r2, #16, #6
 580              		.loc 1 435 21 view .LVU184
 581 0016 2770     		strb	r7, [r4]
 436:Drivers/STM32WBxx_HAL_Driver/Src/stm32wbxx_hal_rtc_ex.c ****   sTimeStamp->Minutes = (uint8_t)((tmptime & (RTC_TR_MNT | RTC_TR_MNU)) >> 8U);
 582              		.loc 1 436 3 is_stmt 1 view .LVU185
 583              		.loc 1 436 25 is_stmt 0 view .LVU186
 584 0018 C2F30627 		ubfx	r7, r2, #8, #7
 585              		.loc 1 436 23 view .LVU187
 586 001c 6770     		strb	r7, [r4, #1]
 437:Drivers/STM32WBxx_HAL_Driver/Src/stm32wbxx_hal_rtc_ex.c ****   sTimeStamp->Seconds = (uint8_t)(tmptime & (RTC_TR_ST | RTC_TR_SU));
 587              		.loc 1 437 3 is_stmt 1 view .LVU188
 588              		.loc 1 437 25 is_stmt 0 view .LVU189
 589 001e 02F07F02 		and	r2, r2, #127
 590              	.LVL36:
 591              		.loc 1 437 23 view .LVU190
 592 0022 A270     		strb	r2, [r4, #2]
ARM GAS  /var/folders/lt/l_qrc8c54t93n_phsj7cf5tc0000gn/T//cc0GZz77.s 			page 19


 438:Drivers/STM32WBxx_HAL_Driver/Src/stm32wbxx_hal_rtc_ex.c ****   sTimeStamp->TimeFormat = (uint8_t)((tmptime & (RTC_TR_PM)) >> 16U);
 593              		.loc 1 438 3 is_stmt 1 view .LVU191
 594              		.loc 1 438 28 is_stmt 0 view .LVU192
 595 0024 00F04002 		and	r2, r0, #64
 596              		.loc 1 438 26 view .LVU193
 597 0028 E270     		strb	r2, [r4, #3]
 439:Drivers/STM32WBxx_HAL_Driver/Src/stm32wbxx_hal_rtc_ex.c ****   sTimeStamp->SubSeconds = (uint32_t) hrtc->Instance->TSSSR;
 598              		.loc 1 439 3 is_stmt 1 view .LVU194
 599              		.loc 1 439 43 is_stmt 0 view .LVU195
 600 002a 3268     		ldr	r2, [r6]
 601              		.loc 1 439 53 view .LVU196
 602 002c 926B     		ldr	r2, [r2, #56]
 603              		.loc 1 439 26 view .LVU197
 604 002e 6260     		str	r2, [r4, #4]
 440:Drivers/STM32WBxx_HAL_Driver/Src/stm32wbxx_hal_rtc_ex.c **** 
 441:Drivers/STM32WBxx_HAL_Driver/Src/stm32wbxx_hal_rtc_ex.c ****   /* Fill the Date structure fields with the read parameters */
 442:Drivers/STM32WBxx_HAL_Driver/Src/stm32wbxx_hal_rtc_ex.c ****   sTimeStampDate->Year = 0U;
 605              		.loc 1 442 3 is_stmt 1 view .LVU198
 606              		.loc 1 442 24 is_stmt 0 view .LVU199
 607 0030 0022     		movs	r2, #0
 608 0032 EA70     		strb	r2, [r5, #3]
 443:Drivers/STM32WBxx_HAL_Driver/Src/stm32wbxx_hal_rtc_ex.c ****   sTimeStampDate->Month = (uint8_t)((tmpdate & (RTC_DR_MT | RTC_DR_MU)) >> 8U);
 609              		.loc 1 443 3 is_stmt 1 view .LVU200
 610              		.loc 1 443 27 is_stmt 0 view .LVU201
 611 0034 C1F30422 		ubfx	r2, r1, #8, #5
 612              		.loc 1 443 25 view .LVU202
 613 0038 6A70     		strb	r2, [r5, #1]
 444:Drivers/STM32WBxx_HAL_Driver/Src/stm32wbxx_hal_rtc_ex.c ****   sTimeStampDate->Date = (uint8_t)(tmpdate & (RTC_DR_DT | RTC_DR_DU));
 614              		.loc 1 444 3 is_stmt 1 view .LVU203
 615              		.loc 1 444 26 is_stmt 0 view .LVU204
 616 003a 01F03F02 		and	r2, r1, #63
 617              		.loc 1 444 24 view .LVU205
 618 003e AA70     		strb	r2, [r5, #2]
 445:Drivers/STM32WBxx_HAL_Driver/Src/stm32wbxx_hal_rtc_ex.c ****   sTimeStampDate->WeekDay = (uint8_t)((tmpdate & (RTC_DR_WDU)) >> 13U);
 619              		.loc 1 445 3 is_stmt 1 view .LVU206
 620              		.loc 1 445 29 is_stmt 0 view .LVU207
 621 0040 C1F34231 		ubfx	r1, r1, #13, #3
 622              	.LVL37:
 623              		.loc 1 445 27 view .LVU208
 624 0044 2970     		strb	r1, [r5]
 446:Drivers/STM32WBxx_HAL_Driver/Src/stm32wbxx_hal_rtc_ex.c **** 
 447:Drivers/STM32WBxx_HAL_Driver/Src/stm32wbxx_hal_rtc_ex.c ****   /* Check the input parameters format */
 448:Drivers/STM32WBxx_HAL_Driver/Src/stm32wbxx_hal_rtc_ex.c ****   if (Format == RTC_FORMAT_BIN)
 625              		.loc 1 448 3 is_stmt 1 view .LVU209
 626              		.loc 1 448 6 is_stmt 0 view .LVU210
 627 0046 6BB1     		cbz	r3, .L35
 628              	.LVL38:
 629              	.L33:
 449:Drivers/STM32WBxx_HAL_Driver/Src/stm32wbxx_hal_rtc_ex.c ****   {
 450:Drivers/STM32WBxx_HAL_Driver/Src/stm32wbxx_hal_rtc_ex.c ****     /* Convert the TimeStamp structure parameters to Binary format */
 451:Drivers/STM32WBxx_HAL_Driver/Src/stm32wbxx_hal_rtc_ex.c ****     sTimeStamp->Hours = (uint8_t)RTC_Bcd2ToByte(sTimeStamp->Hours);
 452:Drivers/STM32WBxx_HAL_Driver/Src/stm32wbxx_hal_rtc_ex.c ****     sTimeStamp->Minutes = (uint8_t)RTC_Bcd2ToByte(sTimeStamp->Minutes);
 453:Drivers/STM32WBxx_HAL_Driver/Src/stm32wbxx_hal_rtc_ex.c ****     sTimeStamp->Seconds = (uint8_t)RTC_Bcd2ToByte(sTimeStamp->Seconds);
 454:Drivers/STM32WBxx_HAL_Driver/Src/stm32wbxx_hal_rtc_ex.c **** 
 455:Drivers/STM32WBxx_HAL_Driver/Src/stm32wbxx_hal_rtc_ex.c ****     /* Convert the DateTimeStamp structure parameters to Binary format */
 456:Drivers/STM32WBxx_HAL_Driver/Src/stm32wbxx_hal_rtc_ex.c ****     sTimeStampDate->Month = (uint8_t)RTC_Bcd2ToByte(sTimeStampDate->Month);
 457:Drivers/STM32WBxx_HAL_Driver/Src/stm32wbxx_hal_rtc_ex.c ****     sTimeStampDate->Date = (uint8_t)RTC_Bcd2ToByte(sTimeStampDate->Date);
ARM GAS  /var/folders/lt/l_qrc8c54t93n_phsj7cf5tc0000gn/T//cc0GZz77.s 			page 20


 458:Drivers/STM32WBxx_HAL_Driver/Src/stm32wbxx_hal_rtc_ex.c ****     sTimeStampDate->WeekDay = (uint8_t)RTC_Bcd2ToByte(sTimeStampDate->WeekDay);
 459:Drivers/STM32WBxx_HAL_Driver/Src/stm32wbxx_hal_rtc_ex.c ****   }
 460:Drivers/STM32WBxx_HAL_Driver/Src/stm32wbxx_hal_rtc_ex.c **** 
 461:Drivers/STM32WBxx_HAL_Driver/Src/stm32wbxx_hal_rtc_ex.c ****   /* Clear the TIMESTAMP Flags */
 462:Drivers/STM32WBxx_HAL_Driver/Src/stm32wbxx_hal_rtc_ex.c **** #if defined(RTC_INTERNALTS_SUPPORT)
 463:Drivers/STM32WBxx_HAL_Driver/Src/stm32wbxx_hal_rtc_ex.c ****   __HAL_RTC_INTERNAL_TIMESTAMP_CLEAR_FLAG(hrtc, RTC_FLAG_ITSF);
 630              		.loc 1 463 3 is_stmt 1 view .LVU211
 631 0048 3168     		ldr	r1, [r6]
 632 004a CA68     		ldr	r2, [r1, #12]
 633 004c D2B2     		uxtb	r2, r2
 634 004e 124B     		ldr	r3, .L36
 635 0050 1343     		orrs	r3, r3, r2
 636 0052 CB60     		str	r3, [r1, #12]
 464:Drivers/STM32WBxx_HAL_Driver/Src/stm32wbxx_hal_rtc_ex.c **** #endif
 465:Drivers/STM32WBxx_HAL_Driver/Src/stm32wbxx_hal_rtc_ex.c **** 
 466:Drivers/STM32WBxx_HAL_Driver/Src/stm32wbxx_hal_rtc_ex.c ****   __HAL_RTC_TIMESTAMP_CLEAR_FLAG(hrtc, RTC_FLAG_TSF);
 637              		.loc 1 466 3 view .LVU212
 638 0054 3268     		ldr	r2, [r6]
 639 0056 D368     		ldr	r3, [r2, #12]
 640 0058 DBB2     		uxtb	r3, r3
 641 005a 63F40863 		orn	r3, r3, #2176
 642 005e D360     		str	r3, [r2, #12]
 467:Drivers/STM32WBxx_HAL_Driver/Src/stm32wbxx_hal_rtc_ex.c **** 
 468:Drivers/STM32WBxx_HAL_Driver/Src/stm32wbxx_hal_rtc_ex.c ****   return HAL_OK;
 643              		.loc 1 468 3 view .LVU213
 469:Drivers/STM32WBxx_HAL_Driver/Src/stm32wbxx_hal_rtc_ex.c **** }
 644              		.loc 1 469 1 is_stmt 0 view .LVU214
 645 0060 0020     		movs	r0, #0
 646 0062 F8BD     		pop	{r3, r4, r5, r6, r7, pc}
 647              	.LVL39:
 648              	.L35:
 451:Drivers/STM32WBxx_HAL_Driver/Src/stm32wbxx_hal_rtc_ex.c ****     sTimeStamp->Minutes = (uint8_t)RTC_Bcd2ToByte(sTimeStamp->Minutes);
 649              		.loc 1 451 5 is_stmt 1 view .LVU215
 451:Drivers/STM32WBxx_HAL_Driver/Src/stm32wbxx_hal_rtc_ex.c ****     sTimeStamp->Minutes = (uint8_t)RTC_Bcd2ToByte(sTimeStamp->Minutes);
 650              		.loc 1 451 34 is_stmt 0 view .LVU216
 651 0064 2078     		ldrb	r0, [r4]	@ zero_extendqisi2
 652 0066 FFF7FEFF 		bl	RTC_Bcd2ToByte
 653              	.LVL40:
 451:Drivers/STM32WBxx_HAL_Driver/Src/stm32wbxx_hal_rtc_ex.c ****     sTimeStamp->Minutes = (uint8_t)RTC_Bcd2ToByte(sTimeStamp->Minutes);
 654              		.loc 1 451 23 view .LVU217
 655 006a 2070     		strb	r0, [r4]
 452:Drivers/STM32WBxx_HAL_Driver/Src/stm32wbxx_hal_rtc_ex.c ****     sTimeStamp->Seconds = (uint8_t)RTC_Bcd2ToByte(sTimeStamp->Seconds);
 656              		.loc 1 452 5 is_stmt 1 view .LVU218
 452:Drivers/STM32WBxx_HAL_Driver/Src/stm32wbxx_hal_rtc_ex.c ****     sTimeStamp->Seconds = (uint8_t)RTC_Bcd2ToByte(sTimeStamp->Seconds);
 657              		.loc 1 452 36 is_stmt 0 view .LVU219
 658 006c 6078     		ldrb	r0, [r4, #1]	@ zero_extendqisi2
 659 006e FFF7FEFF 		bl	RTC_Bcd2ToByte
 660              	.LVL41:
 452:Drivers/STM32WBxx_HAL_Driver/Src/stm32wbxx_hal_rtc_ex.c ****     sTimeStamp->Seconds = (uint8_t)RTC_Bcd2ToByte(sTimeStamp->Seconds);
 661              		.loc 1 452 25 view .LVU220
 662 0072 6070     		strb	r0, [r4, #1]
 453:Drivers/STM32WBxx_HAL_Driver/Src/stm32wbxx_hal_rtc_ex.c **** 
 663              		.loc 1 453 5 is_stmt 1 view .LVU221
 453:Drivers/STM32WBxx_HAL_Driver/Src/stm32wbxx_hal_rtc_ex.c **** 
 664              		.loc 1 453 36 is_stmt 0 view .LVU222
 665 0074 A078     		ldrb	r0, [r4, #2]	@ zero_extendqisi2
 666 0076 FFF7FEFF 		bl	RTC_Bcd2ToByte
ARM GAS  /var/folders/lt/l_qrc8c54t93n_phsj7cf5tc0000gn/T//cc0GZz77.s 			page 21


 667              	.LVL42:
 453:Drivers/STM32WBxx_HAL_Driver/Src/stm32wbxx_hal_rtc_ex.c **** 
 668              		.loc 1 453 25 view .LVU223
 669 007a A070     		strb	r0, [r4, #2]
 456:Drivers/STM32WBxx_HAL_Driver/Src/stm32wbxx_hal_rtc_ex.c ****     sTimeStampDate->Date = (uint8_t)RTC_Bcd2ToByte(sTimeStampDate->Date);
 670              		.loc 1 456 5 is_stmt 1 view .LVU224
 456:Drivers/STM32WBxx_HAL_Driver/Src/stm32wbxx_hal_rtc_ex.c ****     sTimeStampDate->Date = (uint8_t)RTC_Bcd2ToByte(sTimeStampDate->Date);
 671              		.loc 1 456 38 is_stmt 0 view .LVU225
 672 007c 6878     		ldrb	r0, [r5, #1]	@ zero_extendqisi2
 673 007e FFF7FEFF 		bl	RTC_Bcd2ToByte
 674              	.LVL43:
 456:Drivers/STM32WBxx_HAL_Driver/Src/stm32wbxx_hal_rtc_ex.c ****     sTimeStampDate->Date = (uint8_t)RTC_Bcd2ToByte(sTimeStampDate->Date);
 675              		.loc 1 456 27 view .LVU226
 676 0082 6870     		strb	r0, [r5, #1]
 457:Drivers/STM32WBxx_HAL_Driver/Src/stm32wbxx_hal_rtc_ex.c ****     sTimeStampDate->WeekDay = (uint8_t)RTC_Bcd2ToByte(sTimeStampDate->WeekDay);
 677              		.loc 1 457 5 is_stmt 1 view .LVU227
 457:Drivers/STM32WBxx_HAL_Driver/Src/stm32wbxx_hal_rtc_ex.c ****     sTimeStampDate->WeekDay = (uint8_t)RTC_Bcd2ToByte(sTimeStampDate->WeekDay);
 678              		.loc 1 457 37 is_stmt 0 view .LVU228
 679 0084 A878     		ldrb	r0, [r5, #2]	@ zero_extendqisi2
 680 0086 FFF7FEFF 		bl	RTC_Bcd2ToByte
 681              	.LVL44:
 457:Drivers/STM32WBxx_HAL_Driver/Src/stm32wbxx_hal_rtc_ex.c ****     sTimeStampDate->WeekDay = (uint8_t)RTC_Bcd2ToByte(sTimeStampDate->WeekDay);
 682              		.loc 1 457 26 view .LVU229
 683 008a A870     		strb	r0, [r5, #2]
 458:Drivers/STM32WBxx_HAL_Driver/Src/stm32wbxx_hal_rtc_ex.c ****   }
 684              		.loc 1 458 5 is_stmt 1 view .LVU230
 458:Drivers/STM32WBxx_HAL_Driver/Src/stm32wbxx_hal_rtc_ex.c ****   }
 685              		.loc 1 458 40 is_stmt 0 view .LVU231
 686 008c 2878     		ldrb	r0, [r5]	@ zero_extendqisi2
 687 008e FFF7FEFF 		bl	RTC_Bcd2ToByte
 688              	.LVL45:
 458:Drivers/STM32WBxx_HAL_Driver/Src/stm32wbxx_hal_rtc_ex.c ****   }
 689              		.loc 1 458 29 view .LVU232
 690 0092 2870     		strb	r0, [r5]
 691 0094 D8E7     		b	.L33
 692              	.L37:
 693 0096 00BF     		.align	2
 694              	.L36:
 695 0098 7FFFFDFF 		.word	-131201
 696              		.cfi_endproc
 697              	.LFE1109:
 699              		.section	.text.HAL_RTCEx_SetTamper,"ax",%progbits
 700              		.align	1
 701              		.global	HAL_RTCEx_SetTamper
 702              		.syntax unified
 703              		.thumb
 704              		.thumb_func
 705              		.fpu fpv4-sp-d16
 707              	HAL_RTCEx_SetTamper:
 708              	.LVL46:
 709              	.LFB1110:
 470:Drivers/STM32WBxx_HAL_Driver/Src/stm32wbxx_hal_rtc_ex.c **** 
 471:Drivers/STM32WBxx_HAL_Driver/Src/stm32wbxx_hal_rtc_ex.c **** /**
 472:Drivers/STM32WBxx_HAL_Driver/Src/stm32wbxx_hal_rtc_ex.c ****   * @brief  Set Tamper
 473:Drivers/STM32WBxx_HAL_Driver/Src/stm32wbxx_hal_rtc_ex.c ****   * @note   By calling this API we disable the tamper interrupt for all tampers.
 474:Drivers/STM32WBxx_HAL_Driver/Src/stm32wbxx_hal_rtc_ex.c ****   * @param hrtc RTC handle
 475:Drivers/STM32WBxx_HAL_Driver/Src/stm32wbxx_hal_rtc_ex.c ****   * @param sTamper Pointer to Tamper Structure.
ARM GAS  /var/folders/lt/l_qrc8c54t93n_phsj7cf5tc0000gn/T//cc0GZz77.s 			page 22


 476:Drivers/STM32WBxx_HAL_Driver/Src/stm32wbxx_hal_rtc_ex.c ****   * @retval HAL status
 477:Drivers/STM32WBxx_HAL_Driver/Src/stm32wbxx_hal_rtc_ex.c ****   */
 478:Drivers/STM32WBxx_HAL_Driver/Src/stm32wbxx_hal_rtc_ex.c **** HAL_StatusTypeDef HAL_RTCEx_SetTamper(RTC_HandleTypeDef *hrtc, RTC_TamperTypeDef *sTamper)
 479:Drivers/STM32WBxx_HAL_Driver/Src/stm32wbxx_hal_rtc_ex.c **** {
 710              		.loc 1 479 1 is_stmt 1 view -0
 711              		.cfi_startproc
 712              		@ args = 0, pretend = 0, frame = 0
 713              		@ frame_needed = 0, uses_anonymous_args = 0
 714              		@ link register save eliminated.
 480:Drivers/STM32WBxx_HAL_Driver/Src/stm32wbxx_hal_rtc_ex.c ****   uint32_t tmpreg;
 715              		.loc 1 480 3 view .LVU234
 481:Drivers/STM32WBxx_HAL_Driver/Src/stm32wbxx_hal_rtc_ex.c **** 
 482:Drivers/STM32WBxx_HAL_Driver/Src/stm32wbxx_hal_rtc_ex.c ****   /* Check the parameters */
 483:Drivers/STM32WBxx_HAL_Driver/Src/stm32wbxx_hal_rtc_ex.c ****   assert_param(IS_RTC_TAMPER(sTamper->Tamper));
 716              		.loc 1 483 3 view .LVU235
 484:Drivers/STM32WBxx_HAL_Driver/Src/stm32wbxx_hal_rtc_ex.c ****   assert_param(IS_RTC_TAMPER_TRIGGER(sTamper->Trigger));
 717              		.loc 1 484 3 view .LVU236
 485:Drivers/STM32WBxx_HAL_Driver/Src/stm32wbxx_hal_rtc_ex.c ****   assert_param(IS_RTC_TAMPER_ERASE_MODE(sTamper->NoErase));
 718              		.loc 1 485 3 view .LVU237
 486:Drivers/STM32WBxx_HAL_Driver/Src/stm32wbxx_hal_rtc_ex.c ****   assert_param(IS_RTC_TAMPER_MASKFLAG_STATE(sTamper->MaskFlag));
 719              		.loc 1 486 3 view .LVU238
 487:Drivers/STM32WBxx_HAL_Driver/Src/stm32wbxx_hal_rtc_ex.c ****   assert_param(IS_RTC_TAMPER_FILTER(sTamper->Filter));
 720              		.loc 1 487 3 view .LVU239
 488:Drivers/STM32WBxx_HAL_Driver/Src/stm32wbxx_hal_rtc_ex.c ****   assert_param(IS_RTC_TAMPER_SAMPLING_FREQ(sTamper->SamplingFrequency));
 721              		.loc 1 488 3 view .LVU240
 489:Drivers/STM32WBxx_HAL_Driver/Src/stm32wbxx_hal_rtc_ex.c ****   assert_param(IS_RTC_TAMPER_PRECHARGE_DURATION(sTamper->PrechargeDuration));
 722              		.loc 1 489 3 view .LVU241
 490:Drivers/STM32WBxx_HAL_Driver/Src/stm32wbxx_hal_rtc_ex.c ****   assert_param(IS_RTC_TAMPER_PULLUP_STATE(sTamper->TamperPullUp));
 723              		.loc 1 490 3 view .LVU242
 491:Drivers/STM32WBxx_HAL_Driver/Src/stm32wbxx_hal_rtc_ex.c ****   assert_param(IS_RTC_TAMPER_TIMESTAMPONTAMPER_DETECTION(sTamper->TimeStampOnTamperDetection));
 724              		.loc 1 491 3 view .LVU243
 492:Drivers/STM32WBxx_HAL_Driver/Src/stm32wbxx_hal_rtc_ex.c **** 
 493:Drivers/STM32WBxx_HAL_Driver/Src/stm32wbxx_hal_rtc_ex.c ****   /* Process Locked */
 494:Drivers/STM32WBxx_HAL_Driver/Src/stm32wbxx_hal_rtc_ex.c ****   __HAL_LOCK(hrtc);
 725              		.loc 1 494 3 view .LVU244
 726              		.loc 1 494 3 view .LVU245
 727 0000 90F82030 		ldrb	r3, [r0, #32]	@ zero_extendqisi2
 728 0004 012B     		cmp	r3, #1
 729 0006 64D0     		beq	.L47
 479:Drivers/STM32WBxx_HAL_Driver/Src/stm32wbxx_hal_rtc_ex.c ****   uint32_t tmpreg;
 730              		.loc 1 479 1 is_stmt 0 discriminator 2 view .LVU246
 731 0008 30B4     		push	{r4, r5}
 732              	.LCFI7:
 733              		.cfi_def_cfa_offset 8
 734              		.cfi_offset 4, -8
 735              		.cfi_offset 5, -4
 736              		.loc 1 494 3 is_stmt 1 discriminator 2 view .LVU247
 737 000a 0123     		movs	r3, #1
 738 000c 80F82030 		strb	r3, [r0, #32]
 739              		.loc 1 494 3 discriminator 2 view .LVU248
 495:Drivers/STM32WBxx_HAL_Driver/Src/stm32wbxx_hal_rtc_ex.c **** 
 496:Drivers/STM32WBxx_HAL_Driver/Src/stm32wbxx_hal_rtc_ex.c ****   hrtc->State = HAL_RTC_STATE_BUSY;
 740              		.loc 1 496 3 discriminator 2 view .LVU249
 741              		.loc 1 496 15 is_stmt 0 discriminator 2 view .LVU250
 742 0010 0223     		movs	r3, #2
 743 0012 80F82130 		strb	r3, [r0, #33]
 497:Drivers/STM32WBxx_HAL_Driver/Src/stm32wbxx_hal_rtc_ex.c **** 
ARM GAS  /var/folders/lt/l_qrc8c54t93n_phsj7cf5tc0000gn/T//cc0GZz77.s 			page 23


 498:Drivers/STM32WBxx_HAL_Driver/Src/stm32wbxx_hal_rtc_ex.c ****   /* Configure the tamper trigger */
 499:Drivers/STM32WBxx_HAL_Driver/Src/stm32wbxx_hal_rtc_ex.c ****   if (sTamper->Trigger != RTC_TAMPERTRIGGER_RISINGEDGE)
 744              		.loc 1 499 3 is_stmt 1 discriminator 2 view .LVU251
 745              		.loc 1 499 14 is_stmt 0 discriminator 2 view .LVU252
 746 0016 8B68     		ldr	r3, [r1, #8]
 747              		.loc 1 499 6 discriminator 2 view .LVU253
 748 0018 13B1     		cbz	r3, .L40
 500:Drivers/STM32WBxx_HAL_Driver/Src/stm32wbxx_hal_rtc_ex.c ****   {
 501:Drivers/STM32WBxx_HAL_Driver/Src/stm32wbxx_hal_rtc_ex.c ****     sTamper->Trigger = (uint32_t)(sTamper->Tamper << 1U);
 749              		.loc 1 501 5 is_stmt 1 view .LVU254
 750              		.loc 1 501 42 is_stmt 0 view .LVU255
 751 001a 0B68     		ldr	r3, [r1]
 752              		.loc 1 501 51 view .LVU256
 753 001c 5B00     		lsls	r3, r3, #1
 754              		.loc 1 501 22 view .LVU257
 755 001e 8B60     		str	r3, [r1, #8]
 756              	.L40:
 502:Drivers/STM32WBxx_HAL_Driver/Src/stm32wbxx_hal_rtc_ex.c ****   }
 503:Drivers/STM32WBxx_HAL_Driver/Src/stm32wbxx_hal_rtc_ex.c **** 
 504:Drivers/STM32WBxx_HAL_Driver/Src/stm32wbxx_hal_rtc_ex.c ****   if (sTamper->NoErase != RTC_TAMPER_ERASE_BACKUP_ENABLE)
 757              		.loc 1 504 3 is_stmt 1 view .LVU258
 758              		.loc 1 504 14 is_stmt 0 view .LVU259
 759 0020 CB68     		ldr	r3, [r1, #12]
 760              		.loc 1 504 6 view .LVU260
 761 0022 B3B1     		cbz	r3, .L41
 505:Drivers/STM32WBxx_HAL_Driver/Src/stm32wbxx_hal_rtc_ex.c ****   {
 506:Drivers/STM32WBxx_HAL_Driver/Src/stm32wbxx_hal_rtc_ex.c ****     sTamper->NoErase = 0U;
 762              		.loc 1 506 5 is_stmt 1 view .LVU261
 763              		.loc 1 506 22 is_stmt 0 view .LVU262
 764 0024 0023     		movs	r3, #0
 765 0026 CB60     		str	r3, [r1, #12]
 507:Drivers/STM32WBxx_HAL_Driver/Src/stm32wbxx_hal_rtc_ex.c **** #if defined(RTC_TAMPER1_SUPPORT)
 508:Drivers/STM32WBxx_HAL_Driver/Src/stm32wbxx_hal_rtc_ex.c ****     if ((sTamper->Tamper & RTC_TAMPER_1) != 0U)
 766              		.loc 1 508 5 is_stmt 1 view .LVU263
 767              		.loc 1 508 17 is_stmt 0 view .LVU264
 768 0028 0B68     		ldr	r3, [r1]
 769              		.loc 1 508 8 view .LVU265
 770 002a 13F0010F 		tst	r3, #1
 771 002e 02D0     		beq	.L42
 509:Drivers/STM32WBxx_HAL_Driver/Src/stm32wbxx_hal_rtc_ex.c ****     {
 510:Drivers/STM32WBxx_HAL_Driver/Src/stm32wbxx_hal_rtc_ex.c ****       sTamper->NoErase |= RTC_TAMPCR_TAMP1NOERASE;
 772              		.loc 1 510 7 is_stmt 1 view .LVU266
 773              		.loc 1 510 24 is_stmt 0 view .LVU267
 774 0030 4FF40032 		mov	r2, #131072
 775 0034 CA60     		str	r2, [r1, #12]
 776              	.L42:
 511:Drivers/STM32WBxx_HAL_Driver/Src/stm32wbxx_hal_rtc_ex.c ****     }
 512:Drivers/STM32WBxx_HAL_Driver/Src/stm32wbxx_hal_rtc_ex.c **** #endif /* RTC_TAMPER1_SUPPORT */
 513:Drivers/STM32WBxx_HAL_Driver/Src/stm32wbxx_hal_rtc_ex.c ****     if ((sTamper->Tamper & RTC_TAMPER_2) != 0U)
 777              		.loc 1 513 5 is_stmt 1 view .LVU268
 778              		.loc 1 513 8 is_stmt 0 view .LVU269
 779 0036 13F0080F 		tst	r3, #8
 780 003a 03D0     		beq	.L43
 514:Drivers/STM32WBxx_HAL_Driver/Src/stm32wbxx_hal_rtc_ex.c ****     {
 515:Drivers/STM32WBxx_HAL_Driver/Src/stm32wbxx_hal_rtc_ex.c ****       sTamper->NoErase |= RTC_TAMPCR_TAMP2NOERASE;
 781              		.loc 1 515 7 is_stmt 1 view .LVU270
 782              		.loc 1 515 24 is_stmt 0 view .LVU271
ARM GAS  /var/folders/lt/l_qrc8c54t93n_phsj7cf5tc0000gn/T//cc0GZz77.s 			page 24


 783 003c CA68     		ldr	r2, [r1, #12]
 784 003e 42F48012 		orr	r2, r2, #1048576
 785 0042 CA60     		str	r2, [r1, #12]
 786              	.L43:
 516:Drivers/STM32WBxx_HAL_Driver/Src/stm32wbxx_hal_rtc_ex.c ****     }
 517:Drivers/STM32WBxx_HAL_Driver/Src/stm32wbxx_hal_rtc_ex.c **** #if defined(RTC_TAMPER3_SUPPORT)
 518:Drivers/STM32WBxx_HAL_Driver/Src/stm32wbxx_hal_rtc_ex.c ****     if ((sTamper->Tamper & RTC_TAMPER_3) != 0U)
 787              		.loc 1 518 5 is_stmt 1 view .LVU272
 788              		.loc 1 518 8 is_stmt 0 view .LVU273
 789 0044 13F0200F 		tst	r3, #32
 790 0048 03D0     		beq	.L41
 519:Drivers/STM32WBxx_HAL_Driver/Src/stm32wbxx_hal_rtc_ex.c ****     {
 520:Drivers/STM32WBxx_HAL_Driver/Src/stm32wbxx_hal_rtc_ex.c ****       sTamper->NoErase |= RTC_TAMPCR_TAMP3NOERASE;
 791              		.loc 1 520 7 is_stmt 1 view .LVU274
 792              		.loc 1 520 24 is_stmt 0 view .LVU275
 793 004a CB68     		ldr	r3, [r1, #12]
 794 004c 43F40003 		orr	r3, r3, #8388608
 795 0050 CB60     		str	r3, [r1, #12]
 796              	.L41:
 521:Drivers/STM32WBxx_HAL_Driver/Src/stm32wbxx_hal_rtc_ex.c ****     }
 522:Drivers/STM32WBxx_HAL_Driver/Src/stm32wbxx_hal_rtc_ex.c **** #endif /* RTC_TAMPER3_SUPPORT */
 523:Drivers/STM32WBxx_HAL_Driver/Src/stm32wbxx_hal_rtc_ex.c ****   }
 524:Drivers/STM32WBxx_HAL_Driver/Src/stm32wbxx_hal_rtc_ex.c **** 
 525:Drivers/STM32WBxx_HAL_Driver/Src/stm32wbxx_hal_rtc_ex.c ****   if (sTamper->MaskFlag != RTC_TAMPERMASK_FLAG_DISABLE)
 797              		.loc 1 525 3 is_stmt 1 view .LVU276
 798              		.loc 1 525 14 is_stmt 0 view .LVU277
 799 0052 0B69     		ldr	r3, [r1, #16]
 800              		.loc 1 525 6 view .LVU278
 801 0054 B3B1     		cbz	r3, .L44
 526:Drivers/STM32WBxx_HAL_Driver/Src/stm32wbxx_hal_rtc_ex.c ****   {
 527:Drivers/STM32WBxx_HAL_Driver/Src/stm32wbxx_hal_rtc_ex.c ****     sTamper->MaskFlag = 0U;
 802              		.loc 1 527 5 is_stmt 1 view .LVU279
 803              		.loc 1 527 23 is_stmt 0 view .LVU280
 804 0056 0023     		movs	r3, #0
 805 0058 0B61     		str	r3, [r1, #16]
 528:Drivers/STM32WBxx_HAL_Driver/Src/stm32wbxx_hal_rtc_ex.c **** #if defined(RTC_TAMPER1_SUPPORT)
 529:Drivers/STM32WBxx_HAL_Driver/Src/stm32wbxx_hal_rtc_ex.c ****     if ((sTamper->Tamper & RTC_TAMPER_1) != 0U)
 806              		.loc 1 529 5 is_stmt 1 view .LVU281
 807              		.loc 1 529 17 is_stmt 0 view .LVU282
 808 005a 0B68     		ldr	r3, [r1]
 809              		.loc 1 529 8 view .LVU283
 810 005c 13F0010F 		tst	r3, #1
 811 0060 02D0     		beq	.L45
 530:Drivers/STM32WBxx_HAL_Driver/Src/stm32wbxx_hal_rtc_ex.c ****     {
 531:Drivers/STM32WBxx_HAL_Driver/Src/stm32wbxx_hal_rtc_ex.c ****       sTamper->MaskFlag |= RTC_TAMPCR_TAMP1MF;
 812              		.loc 1 531 7 is_stmt 1 view .LVU284
 813              		.loc 1 531 25 is_stmt 0 view .LVU285
 814 0062 4FF48022 		mov	r2, #262144
 815 0066 0A61     		str	r2, [r1, #16]
 816              	.L45:
 532:Drivers/STM32WBxx_HAL_Driver/Src/stm32wbxx_hal_rtc_ex.c ****     }
 533:Drivers/STM32WBxx_HAL_Driver/Src/stm32wbxx_hal_rtc_ex.c **** #endif /* RTC_TAMPER1_SUPPORT */
 534:Drivers/STM32WBxx_HAL_Driver/Src/stm32wbxx_hal_rtc_ex.c ****     if ((sTamper->Tamper & RTC_TAMPER_2) != 0U)
 817              		.loc 1 534 5 is_stmt 1 view .LVU286
 818              		.loc 1 534 8 is_stmt 0 view .LVU287
 819 0068 13F0080F 		tst	r3, #8
 820 006c 03D0     		beq	.L46
ARM GAS  /var/folders/lt/l_qrc8c54t93n_phsj7cf5tc0000gn/T//cc0GZz77.s 			page 25


 535:Drivers/STM32WBxx_HAL_Driver/Src/stm32wbxx_hal_rtc_ex.c ****     {
 536:Drivers/STM32WBxx_HAL_Driver/Src/stm32wbxx_hal_rtc_ex.c ****       sTamper->MaskFlag |= RTC_TAMPCR_TAMP2MF;
 821              		.loc 1 536 7 is_stmt 1 view .LVU288
 822              		.loc 1 536 25 is_stmt 0 view .LVU289
 823 006e 0A69     		ldr	r2, [r1, #16]
 824 0070 42F40012 		orr	r2, r2, #2097152
 825 0074 0A61     		str	r2, [r1, #16]
 826              	.L46:
 537:Drivers/STM32WBxx_HAL_Driver/Src/stm32wbxx_hal_rtc_ex.c ****     }
 538:Drivers/STM32WBxx_HAL_Driver/Src/stm32wbxx_hal_rtc_ex.c **** #if defined(RTC_TAMPER3_SUPPORT)
 539:Drivers/STM32WBxx_HAL_Driver/Src/stm32wbxx_hal_rtc_ex.c ****     if ((sTamper->Tamper & RTC_TAMPER_3) != 0U)
 827              		.loc 1 539 5 is_stmt 1 view .LVU290
 828              		.loc 1 539 8 is_stmt 0 view .LVU291
 829 0076 13F0200F 		tst	r3, #32
 830 007a 03D0     		beq	.L44
 540:Drivers/STM32WBxx_HAL_Driver/Src/stm32wbxx_hal_rtc_ex.c ****     {
 541:Drivers/STM32WBxx_HAL_Driver/Src/stm32wbxx_hal_rtc_ex.c ****       sTamper->MaskFlag |= RTC_TAMPCR_TAMP3MF;
 831              		.loc 1 541 7 is_stmt 1 view .LVU292
 832              		.loc 1 541 25 is_stmt 0 view .LVU293
 833 007c 0B69     		ldr	r3, [r1, #16]
 834 007e 43F08073 		orr	r3, r3, #16777216
 835 0082 0B61     		str	r3, [r1, #16]
 836              	.L44:
 542:Drivers/STM32WBxx_HAL_Driver/Src/stm32wbxx_hal_rtc_ex.c ****     }
 543:Drivers/STM32WBxx_HAL_Driver/Src/stm32wbxx_hal_rtc_ex.c **** #endif /* RTC_TAMPER3_SUPPORT */
 544:Drivers/STM32WBxx_HAL_Driver/Src/stm32wbxx_hal_rtc_ex.c ****   }
 545:Drivers/STM32WBxx_HAL_Driver/Src/stm32wbxx_hal_rtc_ex.c **** 
 546:Drivers/STM32WBxx_HAL_Driver/Src/stm32wbxx_hal_rtc_ex.c ****   /* Configure the RTC_TAMPCR register */
 547:Drivers/STM32WBxx_HAL_Driver/Src/stm32wbxx_hal_rtc_ex.c ****   tmpreg = (uint32_t)((uint32_t)sTamper->Tamper | (uint32_t)sTamper->Trigger  | (uint32_t)sTamper->
 837              		.loc 1 547 3 is_stmt 1 view .LVU294
 838              		.loc 1 547 40 is_stmt 0 view .LVU295
 839 0084 0A68     		ldr	r2, [r1]
 840              		.loc 1 547 68 view .LVU296
 841 0086 8B68     		ldr	r3, [r1, #8]
 842              		.loc 1 547 49 view .LVU297
 843 0088 1343     		orrs	r3, r3, r2
 844              		.loc 1 547 98 view .LVU298
 845 008a CC68     		ldr	r4, [r1, #12]
 846              		.loc 1 547 79 view .LVU299
 847 008c 2343     		orrs	r3, r3, r4
 548:Drivers/STM32WBxx_HAL_Driver/Src/stm32wbxx_hal_rtc_ex.c ****                       (uint32_t)sTamper->MaskFlag | (uint32_t)sTamper->Filter | (uint32_t)sTamper->
 848              		.loc 1 548 40 view .LVU300
 849 008e 0C69     		ldr	r4, [r1, #16]
 547:Drivers/STM32WBxx_HAL_Driver/Src/stm32wbxx_hal_rtc_ex.c ****                       (uint32_t)sTamper->MaskFlag | (uint32_t)sTamper->Filter | (uint32_t)sTamper->
 850              		.loc 1 547 108 view .LVU301
 851 0090 2343     		orrs	r3, r3, r4
 852              		.loc 1 548 70 view .LVU302
 853 0092 4C69     		ldr	r4, [r1, #20]
 854              		.loc 1 548 51 view .LVU303
 855 0094 2343     		orrs	r3, r3, r4
 856              		.loc 1 548 98 view .LVU304
 857 0096 8C69     		ldr	r4, [r1, #24]
 858              		.loc 1 548 79 view .LVU305
 859 0098 2343     		orrs	r3, r3, r4
 549:Drivers/STM32WBxx_HAL_Driver/Src/stm32wbxx_hal_rtc_ex.c ****                       (uint32_t)sTamper->PrechargeDuration | (uint32_t)sTamper->TamperPullUp | (uin
 860              		.loc 1 549 40 view .LVU306
 861 009a CC69     		ldr	r4, [r1, #28]
ARM GAS  /var/folders/lt/l_qrc8c54t93n_phsj7cf5tc0000gn/T//cc0GZz77.s 			page 26


 548:Drivers/STM32WBxx_HAL_Driver/Src/stm32wbxx_hal_rtc_ex.c ****                       (uint32_t)sTamper->MaskFlag | (uint32_t)sTamper->Filter | (uint32_t)sTamper->
 862              		.loc 1 548 118 view .LVU307
 863 009c 2343     		orrs	r3, r3, r4
 864              		.loc 1 549 79 view .LVU308
 865 009e 0C6A     		ldr	r4, [r1, #32]
 866              		.loc 1 549 60 view .LVU309
 867 00a0 2343     		orrs	r3, r3, r4
 868              		.loc 1 549 113 view .LVU310
 869 00a2 496A     		ldr	r1, [r1, #36]
 870              	.LVL47:
 547:Drivers/STM32WBxx_HAL_Driver/Src/stm32wbxx_hal_rtc_ex.c ****                       (uint32_t)sTamper->MaskFlag | (uint32_t)sTamper->Filter | (uint32_t)sTamper->
 871              		.loc 1 547 10 view .LVU311
 872 00a4 0B43     		orrs	r3, r3, r1
 873              	.LVL48:
 550:Drivers/STM32WBxx_HAL_Driver/Src/stm32wbxx_hal_rtc_ex.c **** 
 551:Drivers/STM32WBxx_HAL_Driver/Src/stm32wbxx_hal_rtc_ex.c ****   hrtc->Instance->TAMPCR &= (uint32_t)~((uint32_t)sTamper->Tamper | (uint32_t)(sTamper->Tamper << 1
 874              		.loc 1 551 3 is_stmt 1 view .LVU312
 875              		.loc 1 551 7 is_stmt 0 view .LVU313
 876 00a6 0568     		ldr	r5, [r0]
 877              		.loc 1 551 26 view .LVU314
 878 00a8 296C     		ldr	r1, [r5, #64]
 879              		.loc 1 551 67 view .LVU315
 880 00aa 42EA4202 		orr	r2, r2, r2, lsl #1
 881              		.loc 1 551 102 view .LVU316
 882 00ae 0A4C     		ldr	r4, .L52
 883 00b0 1443     		orrs	r4, r4, r2
 884              		.loc 1 551 26 view .LVU317
 885 00b2 21EA0401 		bic	r1, r1, r4
 886 00b6 2964     		str	r1, [r5, #64]
 552:Drivers/STM32WBxx_HAL_Driver/Src/stm32wbxx_hal_rtc_ex.c **** 
 553:Drivers/STM32WBxx_HAL_Driver/Src/stm32wbxx_hal_rtc_ex.c ****   hrtc->Instance->TAMPCR |= tmpreg;
 887              		.loc 1 553 3 is_stmt 1 view .LVU318
 888              		.loc 1 553 7 is_stmt 0 view .LVU319
 889 00b8 0168     		ldr	r1, [r0]
 890              		.loc 1 553 26 view .LVU320
 891 00ba 0A6C     		ldr	r2, [r1, #64]
 892 00bc 1343     		orrs	r3, r3, r2
 893              	.LVL49:
 894              		.loc 1 553 26 view .LVU321
 895 00be 0B64     		str	r3, [r1, #64]
 554:Drivers/STM32WBxx_HAL_Driver/Src/stm32wbxx_hal_rtc_ex.c **** 
 555:Drivers/STM32WBxx_HAL_Driver/Src/stm32wbxx_hal_rtc_ex.c ****   hrtc->State = HAL_RTC_STATE_READY;
 896              		.loc 1 555 3 is_stmt 1 view .LVU322
 897              		.loc 1 555 15 is_stmt 0 view .LVU323
 898 00c0 0123     		movs	r3, #1
 899 00c2 80F82130 		strb	r3, [r0, #33]
 556:Drivers/STM32WBxx_HAL_Driver/Src/stm32wbxx_hal_rtc_ex.c **** 
 557:Drivers/STM32WBxx_HAL_Driver/Src/stm32wbxx_hal_rtc_ex.c ****   /* Process Unlocked */
 558:Drivers/STM32WBxx_HAL_Driver/Src/stm32wbxx_hal_rtc_ex.c ****   __HAL_UNLOCK(hrtc);
 900              		.loc 1 558 3 is_stmt 1 view .LVU324
 901              		.loc 1 558 3 view .LVU325
 902 00c6 0023     		movs	r3, #0
 903 00c8 80F82030 		strb	r3, [r0, #32]
 904              		.loc 1 558 3 view .LVU326
 559:Drivers/STM32WBxx_HAL_Driver/Src/stm32wbxx_hal_rtc_ex.c **** 
 560:Drivers/STM32WBxx_HAL_Driver/Src/stm32wbxx_hal_rtc_ex.c ****   return HAL_OK;
 905              		.loc 1 560 3 view .LVU327
ARM GAS  /var/folders/lt/l_qrc8c54t93n_phsj7cf5tc0000gn/T//cc0GZz77.s 			page 27


 906              		.loc 1 560 10 is_stmt 0 view .LVU328
 907 00cc 1846     		mov	r0, r3
 908              	.LVL50:
 561:Drivers/STM32WBxx_HAL_Driver/Src/stm32wbxx_hal_rtc_ex.c **** }
 909              		.loc 1 561 1 view .LVU329
 910 00ce 30BC     		pop	{r4, r5}
 911              	.LCFI8:
 912              		.cfi_restore 5
 913              		.cfi_restore 4
 914              		.cfi_def_cfa_offset 0
 915 00d0 7047     		bx	lr
 916              	.LVL51:
 917              	.L47:
 494:Drivers/STM32WBxx_HAL_Driver/Src/stm32wbxx_hal_rtc_ex.c **** 
 918              		.loc 1 494 3 view .LVU330
 919 00d2 0220     		movs	r0, #2
 920              	.LVL52:
 921              		.loc 1 561 1 view .LVU331
 922 00d4 7047     		bx	lr
 923              	.L53:
 924 00d6 00BF     		.align	2
 925              	.L52:
 926 00d8 84FFFF01 		.word	33554308
 927              		.cfi_endproc
 928              	.LFE1110:
 930              		.section	.text.HAL_RTCEx_SetTamper_IT,"ax",%progbits
 931              		.align	1
 932              		.global	HAL_RTCEx_SetTamper_IT
 933              		.syntax unified
 934              		.thumb
 935              		.thumb_func
 936              		.fpu fpv4-sp-d16
 938              	HAL_RTCEx_SetTamper_IT:
 939              	.LVL53:
 940              	.LFB1111:
 562:Drivers/STM32WBxx_HAL_Driver/Src/stm32wbxx_hal_rtc_ex.c **** 
 563:Drivers/STM32WBxx_HAL_Driver/Src/stm32wbxx_hal_rtc_ex.c **** /**
 564:Drivers/STM32WBxx_HAL_Driver/Src/stm32wbxx_hal_rtc_ex.c ****   * @brief  Set Tamper with interrupt.
 565:Drivers/STM32WBxx_HAL_Driver/Src/stm32wbxx_hal_rtc_ex.c ****   * @note   By calling this API we force the tamper interrupt for all tampers.
 566:Drivers/STM32WBxx_HAL_Driver/Src/stm32wbxx_hal_rtc_ex.c ****   * @param hrtc RTC handle
 567:Drivers/STM32WBxx_HAL_Driver/Src/stm32wbxx_hal_rtc_ex.c ****   * @param sTamper Pointer to RTC Tamper.
 568:Drivers/STM32WBxx_HAL_Driver/Src/stm32wbxx_hal_rtc_ex.c ****   * @retval HAL status
 569:Drivers/STM32WBxx_HAL_Driver/Src/stm32wbxx_hal_rtc_ex.c ****   */
 570:Drivers/STM32WBxx_HAL_Driver/Src/stm32wbxx_hal_rtc_ex.c **** HAL_StatusTypeDef HAL_RTCEx_SetTamper_IT(RTC_HandleTypeDef *hrtc, RTC_TamperTypeDef *sTamper)
 571:Drivers/STM32WBxx_HAL_Driver/Src/stm32wbxx_hal_rtc_ex.c **** {
 941              		.loc 1 571 1 is_stmt 1 view -0
 942              		.cfi_startproc
 943              		@ args = 0, pretend = 0, frame = 0
 944              		@ frame_needed = 0, uses_anonymous_args = 0
 945              		@ link register save eliminated.
 572:Drivers/STM32WBxx_HAL_Driver/Src/stm32wbxx_hal_rtc_ex.c ****   uint32_t tmpreg;
 946              		.loc 1 572 3 view .LVU333
 573:Drivers/STM32WBxx_HAL_Driver/Src/stm32wbxx_hal_rtc_ex.c **** 
 574:Drivers/STM32WBxx_HAL_Driver/Src/stm32wbxx_hal_rtc_ex.c ****   /* Check the parameters */
 575:Drivers/STM32WBxx_HAL_Driver/Src/stm32wbxx_hal_rtc_ex.c ****   assert_param(IS_RTC_TAMPER(sTamper->Tamper));
 947              		.loc 1 575 3 view .LVU334
 576:Drivers/STM32WBxx_HAL_Driver/Src/stm32wbxx_hal_rtc_ex.c ****   assert_param(IS_RTC_TAMPER_INTERRUPT(sTamper->Interrupt));
ARM GAS  /var/folders/lt/l_qrc8c54t93n_phsj7cf5tc0000gn/T//cc0GZz77.s 			page 28


 948              		.loc 1 576 3 view .LVU335
 577:Drivers/STM32WBxx_HAL_Driver/Src/stm32wbxx_hal_rtc_ex.c ****   assert_param(IS_RTC_TAMPER_TRIGGER(sTamper->Trigger));
 949              		.loc 1 577 3 view .LVU336
 578:Drivers/STM32WBxx_HAL_Driver/Src/stm32wbxx_hal_rtc_ex.c ****   assert_param(IS_RTC_TAMPER_ERASE_MODE(sTamper->NoErase));
 950              		.loc 1 578 3 view .LVU337
 579:Drivers/STM32WBxx_HAL_Driver/Src/stm32wbxx_hal_rtc_ex.c ****   assert_param(IS_RTC_TAMPER_MASKFLAG_STATE(sTamper->MaskFlag));
 951              		.loc 1 579 3 view .LVU338
 580:Drivers/STM32WBxx_HAL_Driver/Src/stm32wbxx_hal_rtc_ex.c ****   assert_param(IS_RTC_TAMPER_FILTER(sTamper->Filter));
 952              		.loc 1 580 3 view .LVU339
 581:Drivers/STM32WBxx_HAL_Driver/Src/stm32wbxx_hal_rtc_ex.c ****   assert_param(IS_RTC_TAMPER_SAMPLING_FREQ(sTamper->SamplingFrequency));
 953              		.loc 1 581 3 view .LVU340
 582:Drivers/STM32WBxx_HAL_Driver/Src/stm32wbxx_hal_rtc_ex.c ****   assert_param(IS_RTC_TAMPER_PRECHARGE_DURATION(sTamper->PrechargeDuration));
 954              		.loc 1 582 3 view .LVU341
 583:Drivers/STM32WBxx_HAL_Driver/Src/stm32wbxx_hal_rtc_ex.c ****   assert_param(IS_RTC_TAMPER_PULLUP_STATE(sTamper->TamperPullUp));
 955              		.loc 1 583 3 view .LVU342
 584:Drivers/STM32WBxx_HAL_Driver/Src/stm32wbxx_hal_rtc_ex.c ****   assert_param(IS_RTC_TAMPER_TIMESTAMPONTAMPER_DETECTION(sTamper->TimeStampOnTamperDetection));
 956              		.loc 1 584 3 view .LVU343
 585:Drivers/STM32WBxx_HAL_Driver/Src/stm32wbxx_hal_rtc_ex.c **** 
 586:Drivers/STM32WBxx_HAL_Driver/Src/stm32wbxx_hal_rtc_ex.c ****   /* Process Locked */
 587:Drivers/STM32WBxx_HAL_Driver/Src/stm32wbxx_hal_rtc_ex.c ****   __HAL_LOCK(hrtc);
 957              		.loc 1 587 3 view .LVU344
 958              		.loc 1 587 3 view .LVU345
 959 0000 90F82030 		ldrb	r3, [r0, #32]	@ zero_extendqisi2
 960 0004 012B     		cmp	r3, #1
 961 0006 71D0     		beq	.L63
 571:Drivers/STM32WBxx_HAL_Driver/Src/stm32wbxx_hal_rtc_ex.c ****   uint32_t tmpreg;
 962              		.loc 1 571 1 is_stmt 0 discriminator 2 view .LVU346
 963 0008 30B4     		push	{r4, r5}
 964              	.LCFI9:
 965              		.cfi_def_cfa_offset 8
 966              		.cfi_offset 4, -8
 967              		.cfi_offset 5, -4
 968              		.loc 1 587 3 is_stmt 1 discriminator 2 view .LVU347
 969 000a 0123     		movs	r3, #1
 970 000c 80F82030 		strb	r3, [r0, #32]
 971              		.loc 1 587 3 discriminator 2 view .LVU348
 588:Drivers/STM32WBxx_HAL_Driver/Src/stm32wbxx_hal_rtc_ex.c **** 
 589:Drivers/STM32WBxx_HAL_Driver/Src/stm32wbxx_hal_rtc_ex.c ****   hrtc->State = HAL_RTC_STATE_BUSY;
 972              		.loc 1 589 3 discriminator 2 view .LVU349
 973              		.loc 1 589 15 is_stmt 0 discriminator 2 view .LVU350
 974 0010 0223     		movs	r3, #2
 975 0012 80F82130 		strb	r3, [r0, #33]
 590:Drivers/STM32WBxx_HAL_Driver/Src/stm32wbxx_hal_rtc_ex.c **** 
 591:Drivers/STM32WBxx_HAL_Driver/Src/stm32wbxx_hal_rtc_ex.c ****   /* Configure the tamper trigger */
 592:Drivers/STM32WBxx_HAL_Driver/Src/stm32wbxx_hal_rtc_ex.c ****   if (sTamper->Trigger != RTC_TAMPERTRIGGER_RISINGEDGE)
 976              		.loc 1 592 3 is_stmt 1 discriminator 2 view .LVU351
 977              		.loc 1 592 14 is_stmt 0 discriminator 2 view .LVU352
 978 0016 8B68     		ldr	r3, [r1, #8]
 979              		.loc 1 592 6 discriminator 2 view .LVU353
 980 0018 13B1     		cbz	r3, .L56
 593:Drivers/STM32WBxx_HAL_Driver/Src/stm32wbxx_hal_rtc_ex.c ****   {
 594:Drivers/STM32WBxx_HAL_Driver/Src/stm32wbxx_hal_rtc_ex.c ****     sTamper->Trigger = (uint32_t)(sTamper->Tamper << 1U);
 981              		.loc 1 594 5 is_stmt 1 view .LVU354
 982              		.loc 1 594 42 is_stmt 0 view .LVU355
 983 001a 0B68     		ldr	r3, [r1]
 984              		.loc 1 594 51 view .LVU356
 985 001c 5B00     		lsls	r3, r3, #1
ARM GAS  /var/folders/lt/l_qrc8c54t93n_phsj7cf5tc0000gn/T//cc0GZz77.s 			page 29


 986              		.loc 1 594 22 view .LVU357
 987 001e 8B60     		str	r3, [r1, #8]
 988              	.L56:
 595:Drivers/STM32WBxx_HAL_Driver/Src/stm32wbxx_hal_rtc_ex.c ****   }
 596:Drivers/STM32WBxx_HAL_Driver/Src/stm32wbxx_hal_rtc_ex.c **** 
 597:Drivers/STM32WBxx_HAL_Driver/Src/stm32wbxx_hal_rtc_ex.c ****   if (sTamper->NoErase != RTC_TAMPER_ERASE_BACKUP_ENABLE)
 989              		.loc 1 597 3 is_stmt 1 view .LVU358
 990              		.loc 1 597 14 is_stmt 0 view .LVU359
 991 0020 CB68     		ldr	r3, [r1, #12]
 992              		.loc 1 597 6 view .LVU360
 993 0022 B3B1     		cbz	r3, .L57
 598:Drivers/STM32WBxx_HAL_Driver/Src/stm32wbxx_hal_rtc_ex.c ****   {
 599:Drivers/STM32WBxx_HAL_Driver/Src/stm32wbxx_hal_rtc_ex.c ****     sTamper->NoErase = 0U;
 994              		.loc 1 599 5 is_stmt 1 view .LVU361
 995              		.loc 1 599 22 is_stmt 0 view .LVU362
 996 0024 0023     		movs	r3, #0
 997 0026 CB60     		str	r3, [r1, #12]
 600:Drivers/STM32WBxx_HAL_Driver/Src/stm32wbxx_hal_rtc_ex.c **** #if defined(RTC_TAMPER1_SUPPORT)
 601:Drivers/STM32WBxx_HAL_Driver/Src/stm32wbxx_hal_rtc_ex.c ****     if ((sTamper->Tamper & RTC_TAMPER_1) != 0U)
 998              		.loc 1 601 5 is_stmt 1 view .LVU363
 999              		.loc 1 601 17 is_stmt 0 view .LVU364
 1000 0028 0B68     		ldr	r3, [r1]
 1001              		.loc 1 601 8 view .LVU365
 1002 002a 13F0010F 		tst	r3, #1
 1003 002e 02D0     		beq	.L58
 602:Drivers/STM32WBxx_HAL_Driver/Src/stm32wbxx_hal_rtc_ex.c ****     {
 603:Drivers/STM32WBxx_HAL_Driver/Src/stm32wbxx_hal_rtc_ex.c ****       sTamper->NoErase |= RTC_TAMPCR_TAMP1NOERASE;
 1004              		.loc 1 603 7 is_stmt 1 view .LVU366
 1005              		.loc 1 603 24 is_stmt 0 view .LVU367
 1006 0030 4FF40032 		mov	r2, #131072
 1007 0034 CA60     		str	r2, [r1, #12]
 1008              	.L58:
 604:Drivers/STM32WBxx_HAL_Driver/Src/stm32wbxx_hal_rtc_ex.c ****     }
 605:Drivers/STM32WBxx_HAL_Driver/Src/stm32wbxx_hal_rtc_ex.c **** #endif /* RTC_TAMPER1_SUPPORT */
 606:Drivers/STM32WBxx_HAL_Driver/Src/stm32wbxx_hal_rtc_ex.c ****     if ((sTamper->Tamper & RTC_TAMPER_2) != 0U)
 1009              		.loc 1 606 5 is_stmt 1 view .LVU368
 1010              		.loc 1 606 8 is_stmt 0 view .LVU369
 1011 0036 13F0080F 		tst	r3, #8
 1012 003a 03D0     		beq	.L59
 607:Drivers/STM32WBxx_HAL_Driver/Src/stm32wbxx_hal_rtc_ex.c ****     {
 608:Drivers/STM32WBxx_HAL_Driver/Src/stm32wbxx_hal_rtc_ex.c ****       sTamper->NoErase |= RTC_TAMPCR_TAMP2NOERASE;
 1013              		.loc 1 608 7 is_stmt 1 view .LVU370
 1014              		.loc 1 608 24 is_stmt 0 view .LVU371
 1015 003c CA68     		ldr	r2, [r1, #12]
 1016 003e 42F48012 		orr	r2, r2, #1048576
 1017 0042 CA60     		str	r2, [r1, #12]
 1018              	.L59:
 609:Drivers/STM32WBxx_HAL_Driver/Src/stm32wbxx_hal_rtc_ex.c ****     }
 610:Drivers/STM32WBxx_HAL_Driver/Src/stm32wbxx_hal_rtc_ex.c **** #if defined(RTC_TAMPER3_SUPPORT)
 611:Drivers/STM32WBxx_HAL_Driver/Src/stm32wbxx_hal_rtc_ex.c ****     if ((sTamper->Tamper & RTC_TAMPER_3) != 0U)
 1019              		.loc 1 611 5 is_stmt 1 view .LVU372
 1020              		.loc 1 611 8 is_stmt 0 view .LVU373
 1021 0044 13F0200F 		tst	r3, #32
 1022 0048 03D0     		beq	.L57
 612:Drivers/STM32WBxx_HAL_Driver/Src/stm32wbxx_hal_rtc_ex.c ****     {
 613:Drivers/STM32WBxx_HAL_Driver/Src/stm32wbxx_hal_rtc_ex.c ****       sTamper->NoErase |= RTC_TAMPCR_TAMP3NOERASE;
 1023              		.loc 1 613 7 is_stmt 1 view .LVU374
ARM GAS  /var/folders/lt/l_qrc8c54t93n_phsj7cf5tc0000gn/T//cc0GZz77.s 			page 30


 1024              		.loc 1 613 24 is_stmt 0 view .LVU375
 1025 004a CB68     		ldr	r3, [r1, #12]
 1026 004c 43F40003 		orr	r3, r3, #8388608
 1027 0050 CB60     		str	r3, [r1, #12]
 1028              	.L57:
 614:Drivers/STM32WBxx_HAL_Driver/Src/stm32wbxx_hal_rtc_ex.c ****     }
 615:Drivers/STM32WBxx_HAL_Driver/Src/stm32wbxx_hal_rtc_ex.c **** #endif /* RTC_TAMPER3_SUPPORT */
 616:Drivers/STM32WBxx_HAL_Driver/Src/stm32wbxx_hal_rtc_ex.c ****   }
 617:Drivers/STM32WBxx_HAL_Driver/Src/stm32wbxx_hal_rtc_ex.c **** 
 618:Drivers/STM32WBxx_HAL_Driver/Src/stm32wbxx_hal_rtc_ex.c ****   if (sTamper->MaskFlag != RTC_TAMPERMASK_FLAG_DISABLE)
 1029              		.loc 1 618 3 is_stmt 1 view .LVU376
 1030              		.loc 1 618 14 is_stmt 0 view .LVU377
 1031 0052 0B69     		ldr	r3, [r1, #16]
 1032              		.loc 1 618 6 view .LVU378
 1033 0054 B3B1     		cbz	r3, .L60
 619:Drivers/STM32WBxx_HAL_Driver/Src/stm32wbxx_hal_rtc_ex.c ****   {
 620:Drivers/STM32WBxx_HAL_Driver/Src/stm32wbxx_hal_rtc_ex.c ****     sTamper->MaskFlag = 0U;
 1034              		.loc 1 620 5 is_stmt 1 view .LVU379
 1035              		.loc 1 620 23 is_stmt 0 view .LVU380
 1036 0056 0023     		movs	r3, #0
 1037 0058 0B61     		str	r3, [r1, #16]
 621:Drivers/STM32WBxx_HAL_Driver/Src/stm32wbxx_hal_rtc_ex.c **** #if defined(RTC_TAMPER1_SUPPORT)
 622:Drivers/STM32WBxx_HAL_Driver/Src/stm32wbxx_hal_rtc_ex.c ****     if ((sTamper->Tamper & RTC_TAMPER_1) != 0U)
 1038              		.loc 1 622 5 is_stmt 1 view .LVU381
 1039              		.loc 1 622 17 is_stmt 0 view .LVU382
 1040 005a 0B68     		ldr	r3, [r1]
 1041              		.loc 1 622 8 view .LVU383
 1042 005c 13F0010F 		tst	r3, #1
 1043 0060 02D0     		beq	.L61
 623:Drivers/STM32WBxx_HAL_Driver/Src/stm32wbxx_hal_rtc_ex.c ****     {
 624:Drivers/STM32WBxx_HAL_Driver/Src/stm32wbxx_hal_rtc_ex.c ****       sTamper->MaskFlag |= RTC_TAMPCR_TAMP1MF;
 1044              		.loc 1 624 7 is_stmt 1 view .LVU384
 1045              		.loc 1 624 25 is_stmt 0 view .LVU385
 1046 0062 4FF48022 		mov	r2, #262144
 1047 0066 0A61     		str	r2, [r1, #16]
 1048              	.L61:
 625:Drivers/STM32WBxx_HAL_Driver/Src/stm32wbxx_hal_rtc_ex.c ****     }
 626:Drivers/STM32WBxx_HAL_Driver/Src/stm32wbxx_hal_rtc_ex.c **** #endif /* RTC_TAMPER1_SUPPORT */
 627:Drivers/STM32WBxx_HAL_Driver/Src/stm32wbxx_hal_rtc_ex.c ****     if ((sTamper->Tamper & RTC_TAMPER_2) != 0U)
 1049              		.loc 1 627 5 is_stmt 1 view .LVU386
 1050              		.loc 1 627 8 is_stmt 0 view .LVU387
 1051 0068 13F0080F 		tst	r3, #8
 1052 006c 03D0     		beq	.L62
 628:Drivers/STM32WBxx_HAL_Driver/Src/stm32wbxx_hal_rtc_ex.c ****     {
 629:Drivers/STM32WBxx_HAL_Driver/Src/stm32wbxx_hal_rtc_ex.c ****       sTamper->MaskFlag |= RTC_TAMPCR_TAMP2MF;
 1053              		.loc 1 629 7 is_stmt 1 view .LVU388
 1054              		.loc 1 629 25 is_stmt 0 view .LVU389
 1055 006e 0A69     		ldr	r2, [r1, #16]
 1056 0070 42F40012 		orr	r2, r2, #2097152
 1057 0074 0A61     		str	r2, [r1, #16]
 1058              	.L62:
 630:Drivers/STM32WBxx_HAL_Driver/Src/stm32wbxx_hal_rtc_ex.c ****     }
 631:Drivers/STM32WBxx_HAL_Driver/Src/stm32wbxx_hal_rtc_ex.c **** #if defined(RTC_TAMPER3_SUPPORT)
 632:Drivers/STM32WBxx_HAL_Driver/Src/stm32wbxx_hal_rtc_ex.c ****     if ((sTamper->Tamper & RTC_TAMPER_3) != 0U)
 1059              		.loc 1 632 5 is_stmt 1 view .LVU390
 1060              		.loc 1 632 8 is_stmt 0 view .LVU391
 1061 0076 13F0200F 		tst	r3, #32
ARM GAS  /var/folders/lt/l_qrc8c54t93n_phsj7cf5tc0000gn/T//cc0GZz77.s 			page 31


 1062 007a 03D0     		beq	.L60
 633:Drivers/STM32WBxx_HAL_Driver/Src/stm32wbxx_hal_rtc_ex.c ****     {
 634:Drivers/STM32WBxx_HAL_Driver/Src/stm32wbxx_hal_rtc_ex.c ****       sTamper->MaskFlag |= RTC_TAMPCR_TAMP3MF;
 1063              		.loc 1 634 7 is_stmt 1 view .LVU392
 1064              		.loc 1 634 25 is_stmt 0 view .LVU393
 1065 007c 0B69     		ldr	r3, [r1, #16]
 1066 007e 43F08073 		orr	r3, r3, #16777216
 1067 0082 0B61     		str	r3, [r1, #16]
 1068              	.L60:
 635:Drivers/STM32WBxx_HAL_Driver/Src/stm32wbxx_hal_rtc_ex.c ****     }
 636:Drivers/STM32WBxx_HAL_Driver/Src/stm32wbxx_hal_rtc_ex.c **** #endif /* RTC_TAMPER3_SUPPORT */
 637:Drivers/STM32WBxx_HAL_Driver/Src/stm32wbxx_hal_rtc_ex.c ****   }
 638:Drivers/STM32WBxx_HAL_Driver/Src/stm32wbxx_hal_rtc_ex.c **** 
 639:Drivers/STM32WBxx_HAL_Driver/Src/stm32wbxx_hal_rtc_ex.c ****   /* Configure the RTC_TAMPCR register */
 640:Drivers/STM32WBxx_HAL_Driver/Src/stm32wbxx_hal_rtc_ex.c ****   tmpreg = (uint32_t)((uint32_t)sTamper->Tamper | (uint32_t)sTamper->Interrupt | (uint32_t)sTamper-
 1069              		.loc 1 640 3 is_stmt 1 view .LVU394
 1070              		.loc 1 640 40 is_stmt 0 view .LVU395
 1071 0084 0A68     		ldr	r2, [r1]
 1072              		.loc 1 640 68 view .LVU396
 1073 0086 4B68     		ldr	r3, [r1, #4]
 1074              		.loc 1 640 49 view .LVU397
 1075 0088 1343     		orrs	r3, r3, r2
 1076              		.loc 1 640 99 view .LVU398
 1077 008a 8C68     		ldr	r4, [r1, #8]
 1078              		.loc 1 640 80 view .LVU399
 1079 008c 2343     		orrs	r3, r3, r4
 1080              		.loc 1 640 129 view .LVU400
 1081 008e CC68     		ldr	r4, [r1, #12]
 1082              		.loc 1 640 110 view .LVU401
 1083 0090 2343     		orrs	r3, r3, r4
 641:Drivers/STM32WBxx_HAL_Driver/Src/stm32wbxx_hal_rtc_ex.c ****                       (uint32_t)sTamper->MaskFlag | (uint32_t)sTamper->Filter | (uint32_t)sTamper->
 1084              		.loc 1 641 40 view .LVU402
 1085 0092 0C69     		ldr	r4, [r1, #16]
 640:Drivers/STM32WBxx_HAL_Driver/Src/stm32wbxx_hal_rtc_ex.c ****                       (uint32_t)sTamper->MaskFlag | (uint32_t)sTamper->Filter | (uint32_t)sTamper->
 1086              		.loc 1 640 139 view .LVU403
 1087 0094 2343     		orrs	r3, r3, r4
 1088              		.loc 1 641 70 view .LVU404
 1089 0096 4C69     		ldr	r4, [r1, #20]
 1090              		.loc 1 641 51 view .LVU405
 1091 0098 2343     		orrs	r3, r3, r4
 1092              		.loc 1 641 98 view .LVU406
 1093 009a 8C69     		ldr	r4, [r1, #24]
 1094              		.loc 1 641 79 view .LVU407
 1095 009c 2343     		orrs	r3, r3, r4
 642:Drivers/STM32WBxx_HAL_Driver/Src/stm32wbxx_hal_rtc_ex.c ****                       | \
 643:Drivers/STM32WBxx_HAL_Driver/Src/stm32wbxx_hal_rtc_ex.c ****                       (uint32_t)sTamper->PrechargeDuration | (uint32_t)sTamper->TamperPullUp | (uin
 1096              		.loc 1 643 40 view .LVU408
 1097 009e CC69     		ldr	r4, [r1, #28]
 642:Drivers/STM32WBxx_HAL_Driver/Src/stm32wbxx_hal_rtc_ex.c ****                       | \
 1098              		.loc 1 642 23 view .LVU409
 1099 00a0 2343     		orrs	r3, r3, r4
 1100              		.loc 1 643 79 view .LVU410
 1101 00a2 0C6A     		ldr	r4, [r1, #32]
 1102              		.loc 1 643 60 view .LVU411
 1103 00a4 2343     		orrs	r3, r3, r4
 1104              		.loc 1 643 113 view .LVU412
 1105 00a6 496A     		ldr	r1, [r1, #36]
ARM GAS  /var/folders/lt/l_qrc8c54t93n_phsj7cf5tc0000gn/T//cc0GZz77.s 			page 32


 1106              	.LVL54:
 640:Drivers/STM32WBxx_HAL_Driver/Src/stm32wbxx_hal_rtc_ex.c ****                       (uint32_t)sTamper->MaskFlag | (uint32_t)sTamper->Filter | (uint32_t)sTamper->
 1107              		.loc 1 640 10 view .LVU413
 1108 00a8 0B43     		orrs	r3, r3, r1
 1109              	.LVL55:
 644:Drivers/STM32WBxx_HAL_Driver/Src/stm32wbxx_hal_rtc_ex.c **** 
 645:Drivers/STM32WBxx_HAL_Driver/Src/stm32wbxx_hal_rtc_ex.c ****   hrtc->Instance->TAMPCR &= (uint32_t)~((uint32_t)sTamper->Tamper | (uint32_t)(sTamper->Tamper << 1
 1110              		.loc 1 645 3 is_stmt 1 view .LVU414
 1111              		.loc 1 645 7 is_stmt 0 view .LVU415
 1112 00aa 0568     		ldr	r5, [r0]
 1113              		.loc 1 645 26 view .LVU416
 1114 00ac 296C     		ldr	r1, [r5, #64]
 1115              		.loc 1 645 67 view .LVU417
 1116 00ae 42EA4202 		orr	r2, r2, r2, lsl #1
 1117              		.loc 1 645 102 view .LVU418
 1118 00b2 0F4C     		ldr	r4, .L68
 1119 00b4 1443     		orrs	r4, r4, r2
 1120              		.loc 1 645 26 view .LVU419
 1121 00b6 21EA0401 		bic	r1, r1, r4
 1122 00ba 2964     		str	r1, [r5, #64]
 646:Drivers/STM32WBxx_HAL_Driver/Src/stm32wbxx_hal_rtc_ex.c **** 
 647:Drivers/STM32WBxx_HAL_Driver/Src/stm32wbxx_hal_rtc_ex.c ****   hrtc->Instance->TAMPCR |= tmpreg;
 1123              		.loc 1 647 3 is_stmt 1 view .LVU420
 1124              		.loc 1 647 7 is_stmt 0 view .LVU421
 1125 00bc 0168     		ldr	r1, [r0]
 1126              		.loc 1 647 26 view .LVU422
 1127 00be 0A6C     		ldr	r2, [r1, #64]
 1128 00c0 1343     		orrs	r3, r3, r2
 1129              	.LVL56:
 1130              		.loc 1 647 26 view .LVU423
 1131 00c2 0B64     		str	r3, [r1, #64]
 648:Drivers/STM32WBxx_HAL_Driver/Src/stm32wbxx_hal_rtc_ex.c **** 
 649:Drivers/STM32WBxx_HAL_Driver/Src/stm32wbxx_hal_rtc_ex.c ****   /* RTC Tamper Interrupt Configuration: EXTI configuration */
 650:Drivers/STM32WBxx_HAL_Driver/Src/stm32wbxx_hal_rtc_ex.c ****   __HAL_RTC_TAMPER_TIMESTAMP_EXTI_ENABLE_IT();
 1132              		.loc 1 650 3 is_stmt 1 view .LVU424
 1133 00c4 0B4B     		ldr	r3, .L68+4
 1134 00c6 D3F88020 		ldr	r2, [r3, #128]
 1135 00ca 42F48022 		orr	r2, r2, #262144
 1136 00ce C3F88020 		str	r2, [r3, #128]
 651:Drivers/STM32WBxx_HAL_Driver/Src/stm32wbxx_hal_rtc_ex.c **** 
 652:Drivers/STM32WBxx_HAL_Driver/Src/stm32wbxx_hal_rtc_ex.c ****   __HAL_RTC_TAMPER_TIMESTAMP_EXTI_ENABLE_RISING_EDGE();
 1137              		.loc 1 652 3 view .LVU425
 1138 00d2 1A68     		ldr	r2, [r3]
 1139 00d4 42F48022 		orr	r2, r2, #262144
 1140 00d8 1A60     		str	r2, [r3]
 653:Drivers/STM32WBxx_HAL_Driver/Src/stm32wbxx_hal_rtc_ex.c **** 
 654:Drivers/STM32WBxx_HAL_Driver/Src/stm32wbxx_hal_rtc_ex.c ****   hrtc->State = HAL_RTC_STATE_READY;
 1141              		.loc 1 654 3 view .LVU426
 1142              		.loc 1 654 15 is_stmt 0 view .LVU427
 1143 00da 0123     		movs	r3, #1
 1144 00dc 80F82130 		strb	r3, [r0, #33]
 655:Drivers/STM32WBxx_HAL_Driver/Src/stm32wbxx_hal_rtc_ex.c **** 
 656:Drivers/STM32WBxx_HAL_Driver/Src/stm32wbxx_hal_rtc_ex.c ****   /* Process Unlocked */
 657:Drivers/STM32WBxx_HAL_Driver/Src/stm32wbxx_hal_rtc_ex.c ****   __HAL_UNLOCK(hrtc);
 1145              		.loc 1 657 3 is_stmt 1 view .LVU428
 1146              		.loc 1 657 3 view .LVU429
 1147 00e0 0023     		movs	r3, #0
ARM GAS  /var/folders/lt/l_qrc8c54t93n_phsj7cf5tc0000gn/T//cc0GZz77.s 			page 33


 1148 00e2 80F82030 		strb	r3, [r0, #32]
 1149              		.loc 1 657 3 view .LVU430
 658:Drivers/STM32WBxx_HAL_Driver/Src/stm32wbxx_hal_rtc_ex.c **** 
 659:Drivers/STM32WBxx_HAL_Driver/Src/stm32wbxx_hal_rtc_ex.c ****   return HAL_OK;
 1150              		.loc 1 659 3 view .LVU431
 1151              		.loc 1 659 10 is_stmt 0 view .LVU432
 1152 00e6 1846     		mov	r0, r3
 1153              	.LVL57:
 660:Drivers/STM32WBxx_HAL_Driver/Src/stm32wbxx_hal_rtc_ex.c **** }
 1154              		.loc 1 660 1 view .LVU433
 1155 00e8 30BC     		pop	{r4, r5}
 1156              	.LCFI10:
 1157              		.cfi_restore 5
 1158              		.cfi_restore 4
 1159              		.cfi_def_cfa_offset 0
 1160 00ea 7047     		bx	lr
 1161              	.LVL58:
 1162              	.L63:
 587:Drivers/STM32WBxx_HAL_Driver/Src/stm32wbxx_hal_rtc_ex.c **** 
 1163              		.loc 1 587 3 view .LVU434
 1164 00ec 0220     		movs	r0, #2
 1165              	.LVL59:
 1166              		.loc 1 660 1 view .LVU435
 1167 00ee 7047     		bx	lr
 1168              	.L69:
 1169              		.align	2
 1170              	.L68:
 1171 00f0 84FFFF01 		.word	33554308
 1172 00f4 00080058 		.word	1476397056
 1173              		.cfi_endproc
 1174              	.LFE1111:
 1176              		.section	.text.HAL_RTCEx_DeactivateTamper,"ax",%progbits
 1177              		.align	1
 1178              		.global	HAL_RTCEx_DeactivateTamper
 1179              		.syntax unified
 1180              		.thumb
 1181              		.thumb_func
 1182              		.fpu fpv4-sp-d16
 1184              	HAL_RTCEx_DeactivateTamper:
 1185              	.LVL60:
 1186              	.LFB1112:
 661:Drivers/STM32WBxx_HAL_Driver/Src/stm32wbxx_hal_rtc_ex.c **** 
 662:Drivers/STM32WBxx_HAL_Driver/Src/stm32wbxx_hal_rtc_ex.c **** /**
 663:Drivers/STM32WBxx_HAL_Driver/Src/stm32wbxx_hal_rtc_ex.c ****   * @brief  Deactivate Tamper.
 664:Drivers/STM32WBxx_HAL_Driver/Src/stm32wbxx_hal_rtc_ex.c ****   * @param hrtc RTC handle
 665:Drivers/STM32WBxx_HAL_Driver/Src/stm32wbxx_hal_rtc_ex.c ****   * @param Tamper Selected tamper pin.
 666:Drivers/STM32WBxx_HAL_Driver/Src/stm32wbxx_hal_rtc_ex.c ****   *          This parameter can be any combination of RTC_TAMPER_1, RTC_TAMPER_2 and RTC_TAMPER_3.
 667:Drivers/STM32WBxx_HAL_Driver/Src/stm32wbxx_hal_rtc_ex.c ****   * @retval HAL status
 668:Drivers/STM32WBxx_HAL_Driver/Src/stm32wbxx_hal_rtc_ex.c ****   */
 669:Drivers/STM32WBxx_HAL_Driver/Src/stm32wbxx_hal_rtc_ex.c **** HAL_StatusTypeDef HAL_RTCEx_DeactivateTamper(RTC_HandleTypeDef *hrtc, uint32_t Tamper)
 670:Drivers/STM32WBxx_HAL_Driver/Src/stm32wbxx_hal_rtc_ex.c **** {
 1187              		.loc 1 670 1 is_stmt 1 view -0
 1188              		.cfi_startproc
 1189              		@ args = 0, pretend = 0, frame = 0
 1190              		@ frame_needed = 0, uses_anonymous_args = 0
 1191              		@ link register save eliminated.
 671:Drivers/STM32WBxx_HAL_Driver/Src/stm32wbxx_hal_rtc_ex.c ****   assert_param(IS_RTC_TAMPER(Tamper));
ARM GAS  /var/folders/lt/l_qrc8c54t93n_phsj7cf5tc0000gn/T//cc0GZz77.s 			page 34


 1192              		.loc 1 671 3 view .LVU437
 672:Drivers/STM32WBxx_HAL_Driver/Src/stm32wbxx_hal_rtc_ex.c **** 
 673:Drivers/STM32WBxx_HAL_Driver/Src/stm32wbxx_hal_rtc_ex.c ****   /* Process Locked */
 674:Drivers/STM32WBxx_HAL_Driver/Src/stm32wbxx_hal_rtc_ex.c ****   __HAL_LOCK(hrtc);
 1193              		.loc 1 674 3 view .LVU438
 1194              		.loc 1 674 3 view .LVU439
 1195 0000 90F82030 		ldrb	r3, [r0, #32]	@ zero_extendqisi2
 1196 0004 012B     		cmp	r3, #1
 1197 0006 30D0     		beq	.L75
 1198              		.loc 1 674 3 discriminator 2 view .LVU440
 1199 0008 0123     		movs	r3, #1
 1200 000a 80F82030 		strb	r3, [r0, #32]
 1201              		.loc 1 674 3 discriminator 2 view .LVU441
 675:Drivers/STM32WBxx_HAL_Driver/Src/stm32wbxx_hal_rtc_ex.c **** 
 676:Drivers/STM32WBxx_HAL_Driver/Src/stm32wbxx_hal_rtc_ex.c ****   hrtc->State = HAL_RTC_STATE_BUSY;
 1202              		.loc 1 676 3 discriminator 2 view .LVU442
 1203              		.loc 1 676 15 is_stmt 0 discriminator 2 view .LVU443
 1204 000e 0223     		movs	r3, #2
 1205 0010 80F82130 		strb	r3, [r0, #33]
 677:Drivers/STM32WBxx_HAL_Driver/Src/stm32wbxx_hal_rtc_ex.c **** 
 678:Drivers/STM32WBxx_HAL_Driver/Src/stm32wbxx_hal_rtc_ex.c ****   /* Disable the selected Tamper pin */
 679:Drivers/STM32WBxx_HAL_Driver/Src/stm32wbxx_hal_rtc_ex.c ****   hrtc->Instance->TAMPCR &= ((uint32_t)~Tamper);
 1206              		.loc 1 679 3 is_stmt 1 discriminator 2 view .LVU444
 1207              		.loc 1 679 7 is_stmt 0 discriminator 2 view .LVU445
 1208 0014 0268     		ldr	r2, [r0]
 1209              		.loc 1 679 26 discriminator 2 view .LVU446
 1210 0016 136C     		ldr	r3, [r2, #64]
 1211 0018 23EA0103 		bic	r3, r3, r1
 1212 001c 1364     		str	r3, [r2, #64]
 680:Drivers/STM32WBxx_HAL_Driver/Src/stm32wbxx_hal_rtc_ex.c **** 
 681:Drivers/STM32WBxx_HAL_Driver/Src/stm32wbxx_hal_rtc_ex.c **** #if defined(RTC_TAMPER1_SUPPORT)
 682:Drivers/STM32WBxx_HAL_Driver/Src/stm32wbxx_hal_rtc_ex.c ****   if ((Tamper & RTC_TAMPER_1) != 0U)
 1213              		.loc 1 682 3 is_stmt 1 discriminator 2 view .LVU447
 1214              		.loc 1 682 6 is_stmt 0 discriminator 2 view .LVU448
 1215 001e 11F0010F 		tst	r1, #1
 1216 0022 06D0     		beq	.L72
 683:Drivers/STM32WBxx_HAL_Driver/Src/stm32wbxx_hal_rtc_ex.c ****   {
 684:Drivers/STM32WBxx_HAL_Driver/Src/stm32wbxx_hal_rtc_ex.c ****     /* Disable the Tamper1 interrupt */
 685:Drivers/STM32WBxx_HAL_Driver/Src/stm32wbxx_hal_rtc_ex.c ****     hrtc->Instance->TAMPCR &= ((uint32_t)~(RTC_IT_TAMP | RTC_IT_TAMP1));
 1217              		.loc 1 685 5 is_stmt 1 view .LVU449
 1218              		.loc 1 685 9 is_stmt 0 view .LVU450
 1219 0024 0268     		ldr	r2, [r0]
 1220              		.loc 1 685 28 view .LVU451
 1221 0026 136C     		ldr	r3, [r2, #64]
 1222 0028 23F48033 		bic	r3, r3, #65536
 1223 002c 23F00403 		bic	r3, r3, #4
 1224 0030 1364     		str	r3, [r2, #64]
 1225              	.L72:
 686:Drivers/STM32WBxx_HAL_Driver/Src/stm32wbxx_hal_rtc_ex.c ****   }
 687:Drivers/STM32WBxx_HAL_Driver/Src/stm32wbxx_hal_rtc_ex.c **** #endif /* RTC_TAMPER1_SUPPORT */
 688:Drivers/STM32WBxx_HAL_Driver/Src/stm32wbxx_hal_rtc_ex.c ****   if ((Tamper & RTC_TAMPER_2) != 0U)
 1226              		.loc 1 688 3 is_stmt 1 view .LVU452
 1227              		.loc 1 688 6 is_stmt 0 view .LVU453
 1228 0032 11F0080F 		tst	r1, #8
 1229 0036 06D0     		beq	.L73
 689:Drivers/STM32WBxx_HAL_Driver/Src/stm32wbxx_hal_rtc_ex.c ****   {
 690:Drivers/STM32WBxx_HAL_Driver/Src/stm32wbxx_hal_rtc_ex.c ****     /* Disable the Tamper2 interrupt */
ARM GAS  /var/folders/lt/l_qrc8c54t93n_phsj7cf5tc0000gn/T//cc0GZz77.s 			page 35


 691:Drivers/STM32WBxx_HAL_Driver/Src/stm32wbxx_hal_rtc_ex.c ****     hrtc->Instance->TAMPCR &= ((uint32_t)~(RTC_IT_TAMP | RTC_IT_TAMP2));
 1230              		.loc 1 691 5 is_stmt 1 view .LVU454
 1231              		.loc 1 691 9 is_stmt 0 view .LVU455
 1232 0038 0268     		ldr	r2, [r0]
 1233              		.loc 1 691 28 view .LVU456
 1234 003a 136C     		ldr	r3, [r2, #64]
 1235 003c 23F40023 		bic	r3, r3, #524288
 1236 0040 23F00403 		bic	r3, r3, #4
 1237 0044 1364     		str	r3, [r2, #64]
 1238              	.L73:
 692:Drivers/STM32WBxx_HAL_Driver/Src/stm32wbxx_hal_rtc_ex.c ****   }
 693:Drivers/STM32WBxx_HAL_Driver/Src/stm32wbxx_hal_rtc_ex.c **** #if defined(RTC_TAMPER3_SUPPORT)
 694:Drivers/STM32WBxx_HAL_Driver/Src/stm32wbxx_hal_rtc_ex.c ****   if ((Tamper & RTC_TAMPER_3) != 0U)
 1239              		.loc 1 694 3 is_stmt 1 view .LVU457
 1240              		.loc 1 694 6 is_stmt 0 view .LVU458
 1241 0046 11F0200F 		tst	r1, #32
 1242 004a 06D0     		beq	.L74
 695:Drivers/STM32WBxx_HAL_Driver/Src/stm32wbxx_hal_rtc_ex.c ****   {
 696:Drivers/STM32WBxx_HAL_Driver/Src/stm32wbxx_hal_rtc_ex.c ****     /* Disable the Tamper3 interrupt */
 697:Drivers/STM32WBxx_HAL_Driver/Src/stm32wbxx_hal_rtc_ex.c ****     hrtc->Instance->TAMPCR &= ((uint32_t)~(RTC_IT_TAMP | RTC_IT_TAMP3));
 1243              		.loc 1 697 5 is_stmt 1 view .LVU459
 1244              		.loc 1 697 9 is_stmt 0 view .LVU460
 1245 004c 0268     		ldr	r2, [r0]
 1246              		.loc 1 697 28 view .LVU461
 1247 004e 136C     		ldr	r3, [r2, #64]
 1248 0050 23F48003 		bic	r3, r3, #4194304
 1249 0054 23F00403 		bic	r3, r3, #4
 1250 0058 1364     		str	r3, [r2, #64]
 1251              	.L74:
 698:Drivers/STM32WBxx_HAL_Driver/Src/stm32wbxx_hal_rtc_ex.c ****   }
 699:Drivers/STM32WBxx_HAL_Driver/Src/stm32wbxx_hal_rtc_ex.c **** 
 700:Drivers/STM32WBxx_HAL_Driver/Src/stm32wbxx_hal_rtc_ex.c **** #endif /* RTC_TAMPER3_SUPPORT */
 701:Drivers/STM32WBxx_HAL_Driver/Src/stm32wbxx_hal_rtc_ex.c **** 
 702:Drivers/STM32WBxx_HAL_Driver/Src/stm32wbxx_hal_rtc_ex.c ****   hrtc->State = HAL_RTC_STATE_READY;
 1252              		.loc 1 702 3 is_stmt 1 view .LVU462
 1253              		.loc 1 702 15 is_stmt 0 view .LVU463
 1254 005a 0123     		movs	r3, #1
 1255 005c 80F82130 		strb	r3, [r0, #33]
 703:Drivers/STM32WBxx_HAL_Driver/Src/stm32wbxx_hal_rtc_ex.c **** 
 704:Drivers/STM32WBxx_HAL_Driver/Src/stm32wbxx_hal_rtc_ex.c ****   /* Process Unlocked */
 705:Drivers/STM32WBxx_HAL_Driver/Src/stm32wbxx_hal_rtc_ex.c ****   __HAL_UNLOCK(hrtc);
 1256              		.loc 1 705 3 is_stmt 1 view .LVU464
 1257              		.loc 1 705 3 view .LVU465
 1258 0060 0023     		movs	r3, #0
 1259 0062 80F82030 		strb	r3, [r0, #32]
 1260              		.loc 1 705 3 view .LVU466
 706:Drivers/STM32WBxx_HAL_Driver/Src/stm32wbxx_hal_rtc_ex.c **** 
 707:Drivers/STM32WBxx_HAL_Driver/Src/stm32wbxx_hal_rtc_ex.c ****   return HAL_OK;
 1261              		.loc 1 707 3 view .LVU467
 1262              		.loc 1 707 10 is_stmt 0 view .LVU468
 1263 0066 1846     		mov	r0, r3
 1264              	.LVL61:
 1265              		.loc 1 707 10 view .LVU469
 1266 0068 7047     		bx	lr
 1267              	.LVL62:
 1268              	.L75:
 674:Drivers/STM32WBxx_HAL_Driver/Src/stm32wbxx_hal_rtc_ex.c **** 
ARM GAS  /var/folders/lt/l_qrc8c54t93n_phsj7cf5tc0000gn/T//cc0GZz77.s 			page 36


 1269              		.loc 1 674 3 view .LVU470
 1270 006a 0220     		movs	r0, #2
 1271              	.LVL63:
 708:Drivers/STM32WBxx_HAL_Driver/Src/stm32wbxx_hal_rtc_ex.c **** }
 1272              		.loc 1 708 1 view .LVU471
 1273 006c 7047     		bx	lr
 1274              		.cfi_endproc
 1275              	.LFE1112:
 1277              		.section	.text.HAL_RTCEx_TimeStampEventCallback,"ax",%progbits
 1278              		.align	1
 1279              		.weak	HAL_RTCEx_TimeStampEventCallback
 1280              		.syntax unified
 1281              		.thumb
 1282              		.thumb_func
 1283              		.fpu fpv4-sp-d16
 1285              	HAL_RTCEx_TimeStampEventCallback:
 1286              	.LVL64:
 1287              	.LFB1114:
 709:Drivers/STM32WBxx_HAL_Driver/Src/stm32wbxx_hal_rtc_ex.c **** 
 710:Drivers/STM32WBxx_HAL_Driver/Src/stm32wbxx_hal_rtc_ex.c **** /**
 711:Drivers/STM32WBxx_HAL_Driver/Src/stm32wbxx_hal_rtc_ex.c ****   * @brief  Handle TimeStamp interrupt request.
 712:Drivers/STM32WBxx_HAL_Driver/Src/stm32wbxx_hal_rtc_ex.c ****   * @param hrtc RTC handle
 713:Drivers/STM32WBxx_HAL_Driver/Src/stm32wbxx_hal_rtc_ex.c ****   * @retval None
 714:Drivers/STM32WBxx_HAL_Driver/Src/stm32wbxx_hal_rtc_ex.c ****   */
 715:Drivers/STM32WBxx_HAL_Driver/Src/stm32wbxx_hal_rtc_ex.c **** void HAL_RTCEx_TamperTimeStampIRQHandler(RTC_HandleTypeDef *hrtc)
 716:Drivers/STM32WBxx_HAL_Driver/Src/stm32wbxx_hal_rtc_ex.c **** {
 717:Drivers/STM32WBxx_HAL_Driver/Src/stm32wbxx_hal_rtc_ex.c ****   /* Get the TimeStamp interrupt source enable status */
 718:Drivers/STM32WBxx_HAL_Driver/Src/stm32wbxx_hal_rtc_ex.c ****   if (__HAL_RTC_TIMESTAMP_GET_IT_SOURCE(hrtc, RTC_IT_TS) != 0U)
 719:Drivers/STM32WBxx_HAL_Driver/Src/stm32wbxx_hal_rtc_ex.c ****   {
 720:Drivers/STM32WBxx_HAL_Driver/Src/stm32wbxx_hal_rtc_ex.c ****     /* Get the pending status of the TIMESTAMP Interrupt */
 721:Drivers/STM32WBxx_HAL_Driver/Src/stm32wbxx_hal_rtc_ex.c ****     if (__HAL_RTC_TIMESTAMP_GET_FLAG(hrtc, RTC_FLAG_TSF) != 0U)
 722:Drivers/STM32WBxx_HAL_Driver/Src/stm32wbxx_hal_rtc_ex.c ****     {
 723:Drivers/STM32WBxx_HAL_Driver/Src/stm32wbxx_hal_rtc_ex.c ****       /* TIMESTAMP callback */
 724:Drivers/STM32WBxx_HAL_Driver/Src/stm32wbxx_hal_rtc_ex.c **** #if (USE_HAL_RTC_REGISTER_CALLBACKS == 1)
 725:Drivers/STM32WBxx_HAL_Driver/Src/stm32wbxx_hal_rtc_ex.c ****       hrtc->TimeStampEventCallback(hrtc);
 726:Drivers/STM32WBxx_HAL_Driver/Src/stm32wbxx_hal_rtc_ex.c **** #else
 727:Drivers/STM32WBxx_HAL_Driver/Src/stm32wbxx_hal_rtc_ex.c ****       HAL_RTCEx_TimeStampEventCallback(hrtc);
 728:Drivers/STM32WBxx_HAL_Driver/Src/stm32wbxx_hal_rtc_ex.c **** #endif /* USE_HAL_RTC_REGISTER_CALLBACKS */
 729:Drivers/STM32WBxx_HAL_Driver/Src/stm32wbxx_hal_rtc_ex.c **** 
 730:Drivers/STM32WBxx_HAL_Driver/Src/stm32wbxx_hal_rtc_ex.c ****       /* Clear the TIMESTAMP interrupt pending bit */
 731:Drivers/STM32WBxx_HAL_Driver/Src/stm32wbxx_hal_rtc_ex.c ****       __HAL_RTC_TIMESTAMP_CLEAR_FLAG(hrtc, RTC_FLAG_TSF);
 732:Drivers/STM32WBxx_HAL_Driver/Src/stm32wbxx_hal_rtc_ex.c ****     }
 733:Drivers/STM32WBxx_HAL_Driver/Src/stm32wbxx_hal_rtc_ex.c ****   }
 734:Drivers/STM32WBxx_HAL_Driver/Src/stm32wbxx_hal_rtc_ex.c **** 
 735:Drivers/STM32WBxx_HAL_Driver/Src/stm32wbxx_hal_rtc_ex.c **** #if defined(RTC_TAMPER1_SUPPORT)
 736:Drivers/STM32WBxx_HAL_Driver/Src/stm32wbxx_hal_rtc_ex.c ****   /* Get the Tamper1 interrupts source enable status */
 737:Drivers/STM32WBxx_HAL_Driver/Src/stm32wbxx_hal_rtc_ex.c ****   if (__HAL_RTC_TAMPER_GET_IT_SOURCE(hrtc, RTC_IT_TAMP | RTC_IT_TAMP1) != 0U)
 738:Drivers/STM32WBxx_HAL_Driver/Src/stm32wbxx_hal_rtc_ex.c ****   {
 739:Drivers/STM32WBxx_HAL_Driver/Src/stm32wbxx_hal_rtc_ex.c ****     /* Get the pending status of the Tamper1 Interrupt */
 740:Drivers/STM32WBxx_HAL_Driver/Src/stm32wbxx_hal_rtc_ex.c ****     if (__HAL_RTC_TAMPER_GET_FLAG(hrtc, RTC_FLAG_TAMP1F) != 0U)
 741:Drivers/STM32WBxx_HAL_Driver/Src/stm32wbxx_hal_rtc_ex.c ****     {
 742:Drivers/STM32WBxx_HAL_Driver/Src/stm32wbxx_hal_rtc_ex.c ****       /* Tamper1 callback */
 743:Drivers/STM32WBxx_HAL_Driver/Src/stm32wbxx_hal_rtc_ex.c **** #if (USE_HAL_RTC_REGISTER_CALLBACKS == 1)
 744:Drivers/STM32WBxx_HAL_Driver/Src/stm32wbxx_hal_rtc_ex.c ****       hrtc->Tamper1EventCallback(hrtc);
 745:Drivers/STM32WBxx_HAL_Driver/Src/stm32wbxx_hal_rtc_ex.c **** #else
 746:Drivers/STM32WBxx_HAL_Driver/Src/stm32wbxx_hal_rtc_ex.c ****       HAL_RTCEx_Tamper1EventCallback(hrtc);
 747:Drivers/STM32WBxx_HAL_Driver/Src/stm32wbxx_hal_rtc_ex.c **** #endif /* USE_HAL_RTC_REGISTER_CALLBACKS */
ARM GAS  /var/folders/lt/l_qrc8c54t93n_phsj7cf5tc0000gn/T//cc0GZz77.s 			page 37


 748:Drivers/STM32WBxx_HAL_Driver/Src/stm32wbxx_hal_rtc_ex.c **** 
 749:Drivers/STM32WBxx_HAL_Driver/Src/stm32wbxx_hal_rtc_ex.c ****       /* Clear the Tamper1 interrupt pending bit */
 750:Drivers/STM32WBxx_HAL_Driver/Src/stm32wbxx_hal_rtc_ex.c ****       __HAL_RTC_TAMPER_CLEAR_FLAG(hrtc, RTC_FLAG_TAMP1F);
 751:Drivers/STM32WBxx_HAL_Driver/Src/stm32wbxx_hal_rtc_ex.c ****     }
 752:Drivers/STM32WBxx_HAL_Driver/Src/stm32wbxx_hal_rtc_ex.c ****   }
 753:Drivers/STM32WBxx_HAL_Driver/Src/stm32wbxx_hal_rtc_ex.c **** #endif /* RTC_TAMPER1_SUPPORT */
 754:Drivers/STM32WBxx_HAL_Driver/Src/stm32wbxx_hal_rtc_ex.c **** 
 755:Drivers/STM32WBxx_HAL_Driver/Src/stm32wbxx_hal_rtc_ex.c **** 
 756:Drivers/STM32WBxx_HAL_Driver/Src/stm32wbxx_hal_rtc_ex.c ****   /* Get the Tamper2 interrupts source enable status */
 757:Drivers/STM32WBxx_HAL_Driver/Src/stm32wbxx_hal_rtc_ex.c ****   if (__HAL_RTC_TAMPER_GET_IT_SOURCE(hrtc, RTC_IT_TAMP | RTC_IT_TAMP2) != 0U)
 758:Drivers/STM32WBxx_HAL_Driver/Src/stm32wbxx_hal_rtc_ex.c ****   {
 759:Drivers/STM32WBxx_HAL_Driver/Src/stm32wbxx_hal_rtc_ex.c ****     /* Get the pending status of the Tamper2 Interrupt */
 760:Drivers/STM32WBxx_HAL_Driver/Src/stm32wbxx_hal_rtc_ex.c ****     if (__HAL_RTC_TAMPER_GET_FLAG(hrtc, RTC_FLAG_TAMP2F) != 0U)
 761:Drivers/STM32WBxx_HAL_Driver/Src/stm32wbxx_hal_rtc_ex.c ****     {
 762:Drivers/STM32WBxx_HAL_Driver/Src/stm32wbxx_hal_rtc_ex.c ****       /* Tamper2 callback */
 763:Drivers/STM32WBxx_HAL_Driver/Src/stm32wbxx_hal_rtc_ex.c **** #if (USE_HAL_RTC_REGISTER_CALLBACKS == 1)
 764:Drivers/STM32WBxx_HAL_Driver/Src/stm32wbxx_hal_rtc_ex.c ****       hrtc->Tamper2EventCallback(hrtc);
 765:Drivers/STM32WBxx_HAL_Driver/Src/stm32wbxx_hal_rtc_ex.c **** #else
 766:Drivers/STM32WBxx_HAL_Driver/Src/stm32wbxx_hal_rtc_ex.c ****       HAL_RTCEx_Tamper2EventCallback(hrtc);
 767:Drivers/STM32WBxx_HAL_Driver/Src/stm32wbxx_hal_rtc_ex.c **** #endif /* USE_HAL_RTC_REGISTER_CALLBACKS */
 768:Drivers/STM32WBxx_HAL_Driver/Src/stm32wbxx_hal_rtc_ex.c **** 
 769:Drivers/STM32WBxx_HAL_Driver/Src/stm32wbxx_hal_rtc_ex.c ****       /* Clear the Tamper2 interrupt pending bit */
 770:Drivers/STM32WBxx_HAL_Driver/Src/stm32wbxx_hal_rtc_ex.c ****       __HAL_RTC_TAMPER_CLEAR_FLAG(hrtc, RTC_FLAG_TAMP2F);
 771:Drivers/STM32WBxx_HAL_Driver/Src/stm32wbxx_hal_rtc_ex.c ****     }
 772:Drivers/STM32WBxx_HAL_Driver/Src/stm32wbxx_hal_rtc_ex.c ****   }
 773:Drivers/STM32WBxx_HAL_Driver/Src/stm32wbxx_hal_rtc_ex.c **** 
 774:Drivers/STM32WBxx_HAL_Driver/Src/stm32wbxx_hal_rtc_ex.c **** #if defined(RTC_TAMPER3_SUPPORT)
 775:Drivers/STM32WBxx_HAL_Driver/Src/stm32wbxx_hal_rtc_ex.c ****   /* Get the Tamper3 interrupts source enable status */
 776:Drivers/STM32WBxx_HAL_Driver/Src/stm32wbxx_hal_rtc_ex.c ****   if (__HAL_RTC_TAMPER_GET_IT_SOURCE(hrtc, RTC_IT_TAMP | RTC_IT_TAMP3) != 0U)
 777:Drivers/STM32WBxx_HAL_Driver/Src/stm32wbxx_hal_rtc_ex.c ****   {
 778:Drivers/STM32WBxx_HAL_Driver/Src/stm32wbxx_hal_rtc_ex.c ****     /* Get the pending status of the Tamper3 Interrupt */
 779:Drivers/STM32WBxx_HAL_Driver/Src/stm32wbxx_hal_rtc_ex.c ****     if (__HAL_RTC_TAMPER_GET_FLAG(hrtc, RTC_FLAG_TAMP3F) != 0U)
 780:Drivers/STM32WBxx_HAL_Driver/Src/stm32wbxx_hal_rtc_ex.c ****     {
 781:Drivers/STM32WBxx_HAL_Driver/Src/stm32wbxx_hal_rtc_ex.c ****       /* Tamper3 callback */
 782:Drivers/STM32WBxx_HAL_Driver/Src/stm32wbxx_hal_rtc_ex.c **** #if (USE_HAL_RTC_REGISTER_CALLBACKS == 1)
 783:Drivers/STM32WBxx_HAL_Driver/Src/stm32wbxx_hal_rtc_ex.c ****       hrtc->Tamper3EventCallback(hrtc);
 784:Drivers/STM32WBxx_HAL_Driver/Src/stm32wbxx_hal_rtc_ex.c **** #else
 785:Drivers/STM32WBxx_HAL_Driver/Src/stm32wbxx_hal_rtc_ex.c ****       HAL_RTCEx_Tamper3EventCallback(hrtc);
 786:Drivers/STM32WBxx_HAL_Driver/Src/stm32wbxx_hal_rtc_ex.c **** #endif /* USE_HAL_RTC_REGISTER_CALLBACKS */
 787:Drivers/STM32WBxx_HAL_Driver/Src/stm32wbxx_hal_rtc_ex.c **** 
 788:Drivers/STM32WBxx_HAL_Driver/Src/stm32wbxx_hal_rtc_ex.c ****       /* Clear the Tamper3 interrupt pending bit */
 789:Drivers/STM32WBxx_HAL_Driver/Src/stm32wbxx_hal_rtc_ex.c ****       __HAL_RTC_TAMPER_CLEAR_FLAG(hrtc, RTC_FLAG_TAMP3F);
 790:Drivers/STM32WBxx_HAL_Driver/Src/stm32wbxx_hal_rtc_ex.c ****     }
 791:Drivers/STM32WBxx_HAL_Driver/Src/stm32wbxx_hal_rtc_ex.c ****   }
 792:Drivers/STM32WBxx_HAL_Driver/Src/stm32wbxx_hal_rtc_ex.c **** #endif /* RTC_TAMPER3_SUPPORT */
 793:Drivers/STM32WBxx_HAL_Driver/Src/stm32wbxx_hal_rtc_ex.c **** 
 794:Drivers/STM32WBxx_HAL_Driver/Src/stm32wbxx_hal_rtc_ex.c ****   /* Clear the EXTI's Flag for RTC TimeStamp and Tamper */
 795:Drivers/STM32WBxx_HAL_Driver/Src/stm32wbxx_hal_rtc_ex.c ****   __HAL_RTC_TAMPER_TIMESTAMP_EXTI_CLEAR_FLAG();
 796:Drivers/STM32WBxx_HAL_Driver/Src/stm32wbxx_hal_rtc_ex.c **** 
 797:Drivers/STM32WBxx_HAL_Driver/Src/stm32wbxx_hal_rtc_ex.c ****   /* Change RTC state */
 798:Drivers/STM32WBxx_HAL_Driver/Src/stm32wbxx_hal_rtc_ex.c ****   hrtc->State = HAL_RTC_STATE_READY;
 799:Drivers/STM32WBxx_HAL_Driver/Src/stm32wbxx_hal_rtc_ex.c **** }
 800:Drivers/STM32WBxx_HAL_Driver/Src/stm32wbxx_hal_rtc_ex.c **** 
 801:Drivers/STM32WBxx_HAL_Driver/Src/stm32wbxx_hal_rtc_ex.c **** /**
 802:Drivers/STM32WBxx_HAL_Driver/Src/stm32wbxx_hal_rtc_ex.c ****   * @brief  TimeStamp callback.
 803:Drivers/STM32WBxx_HAL_Driver/Src/stm32wbxx_hal_rtc_ex.c ****   * @param hrtc RTC handle
 804:Drivers/STM32WBxx_HAL_Driver/Src/stm32wbxx_hal_rtc_ex.c ****   * @retval None
ARM GAS  /var/folders/lt/l_qrc8c54t93n_phsj7cf5tc0000gn/T//cc0GZz77.s 			page 38


 805:Drivers/STM32WBxx_HAL_Driver/Src/stm32wbxx_hal_rtc_ex.c ****   */
 806:Drivers/STM32WBxx_HAL_Driver/Src/stm32wbxx_hal_rtc_ex.c **** __weak void HAL_RTCEx_TimeStampEventCallback(RTC_HandleTypeDef *hrtc)
 807:Drivers/STM32WBxx_HAL_Driver/Src/stm32wbxx_hal_rtc_ex.c **** {
 1288              		.loc 1 807 1 is_stmt 1 view -0
 1289              		.cfi_startproc
 1290              		@ args = 0, pretend = 0, frame = 0
 1291              		@ frame_needed = 0, uses_anonymous_args = 0
 1292              		@ link register save eliminated.
 808:Drivers/STM32WBxx_HAL_Driver/Src/stm32wbxx_hal_rtc_ex.c ****   /* Prevent unused argument(s) compilation warning */
 809:Drivers/STM32WBxx_HAL_Driver/Src/stm32wbxx_hal_rtc_ex.c ****   UNUSED(hrtc);
 1293              		.loc 1 809 3 view .LVU473
 810:Drivers/STM32WBxx_HAL_Driver/Src/stm32wbxx_hal_rtc_ex.c **** 
 811:Drivers/STM32WBxx_HAL_Driver/Src/stm32wbxx_hal_rtc_ex.c ****   /* NOTE : This function should not be modified, when the callback is needed,
 812:Drivers/STM32WBxx_HAL_Driver/Src/stm32wbxx_hal_rtc_ex.c ****             the HAL_RTCEx_TimeStampEventCallback could be implemented in the user file
 813:Drivers/STM32WBxx_HAL_Driver/Src/stm32wbxx_hal_rtc_ex.c ****   */
 814:Drivers/STM32WBxx_HAL_Driver/Src/stm32wbxx_hal_rtc_ex.c **** }
 1294              		.loc 1 814 1 is_stmt 0 view .LVU474
 1295 0000 7047     		bx	lr
 1296              		.cfi_endproc
 1297              	.LFE1114:
 1299              		.section	.text.HAL_RTCEx_Tamper1EventCallback,"ax",%progbits
 1300              		.align	1
 1301              		.weak	HAL_RTCEx_Tamper1EventCallback
 1302              		.syntax unified
 1303              		.thumb
 1304              		.thumb_func
 1305              		.fpu fpv4-sp-d16
 1307              	HAL_RTCEx_Tamper1EventCallback:
 1308              	.LVL65:
 1309              	.LFB1115:
 815:Drivers/STM32WBxx_HAL_Driver/Src/stm32wbxx_hal_rtc_ex.c **** 
 816:Drivers/STM32WBxx_HAL_Driver/Src/stm32wbxx_hal_rtc_ex.c **** #if defined(RTC_TAMPER1_SUPPORT)
 817:Drivers/STM32WBxx_HAL_Driver/Src/stm32wbxx_hal_rtc_ex.c **** /**
 818:Drivers/STM32WBxx_HAL_Driver/Src/stm32wbxx_hal_rtc_ex.c ****   * @brief  Tamper 1 callback.
 819:Drivers/STM32WBxx_HAL_Driver/Src/stm32wbxx_hal_rtc_ex.c ****   * @param hrtc RTC handle
 820:Drivers/STM32WBxx_HAL_Driver/Src/stm32wbxx_hal_rtc_ex.c ****   * @retval None
 821:Drivers/STM32WBxx_HAL_Driver/Src/stm32wbxx_hal_rtc_ex.c ****   */
 822:Drivers/STM32WBxx_HAL_Driver/Src/stm32wbxx_hal_rtc_ex.c **** __weak void HAL_RTCEx_Tamper1EventCallback(RTC_HandleTypeDef *hrtc)
 823:Drivers/STM32WBxx_HAL_Driver/Src/stm32wbxx_hal_rtc_ex.c **** {
 1310              		.loc 1 823 1 is_stmt 1 view -0
 1311              		.cfi_startproc
 1312              		@ args = 0, pretend = 0, frame = 0
 1313              		@ frame_needed = 0, uses_anonymous_args = 0
 1314              		@ link register save eliminated.
 824:Drivers/STM32WBxx_HAL_Driver/Src/stm32wbxx_hal_rtc_ex.c ****   /* Prevent unused argument(s) compilation warning */
 825:Drivers/STM32WBxx_HAL_Driver/Src/stm32wbxx_hal_rtc_ex.c ****   UNUSED(hrtc);
 1315              		.loc 1 825 3 view .LVU476
 826:Drivers/STM32WBxx_HAL_Driver/Src/stm32wbxx_hal_rtc_ex.c **** 
 827:Drivers/STM32WBxx_HAL_Driver/Src/stm32wbxx_hal_rtc_ex.c ****   /* NOTE : This function should not be modified, when the callback is needed,
 828:Drivers/STM32WBxx_HAL_Driver/Src/stm32wbxx_hal_rtc_ex.c ****             the HAL_RTCEx_Tamper1EventCallback could be implemented in the user file
 829:Drivers/STM32WBxx_HAL_Driver/Src/stm32wbxx_hal_rtc_ex.c ****    */
 830:Drivers/STM32WBxx_HAL_Driver/Src/stm32wbxx_hal_rtc_ex.c **** }
 1316              		.loc 1 830 1 is_stmt 0 view .LVU477
 1317 0000 7047     		bx	lr
 1318              		.cfi_endproc
 1319              	.LFE1115:
 1321              		.section	.text.HAL_RTCEx_Tamper2EventCallback,"ax",%progbits
ARM GAS  /var/folders/lt/l_qrc8c54t93n_phsj7cf5tc0000gn/T//cc0GZz77.s 			page 39


 1322              		.align	1
 1323              		.weak	HAL_RTCEx_Tamper2EventCallback
 1324              		.syntax unified
 1325              		.thumb
 1326              		.thumb_func
 1327              		.fpu fpv4-sp-d16
 1329              	HAL_RTCEx_Tamper2EventCallback:
 1330              	.LVL66:
 1331              	.LFB1116:
 831:Drivers/STM32WBxx_HAL_Driver/Src/stm32wbxx_hal_rtc_ex.c **** #endif /* RTC_TAMPER1_SUPPORT */
 832:Drivers/STM32WBxx_HAL_Driver/Src/stm32wbxx_hal_rtc_ex.c **** 
 833:Drivers/STM32WBxx_HAL_Driver/Src/stm32wbxx_hal_rtc_ex.c **** /**
 834:Drivers/STM32WBxx_HAL_Driver/Src/stm32wbxx_hal_rtc_ex.c ****   * @brief  Tamper 2 callback.
 835:Drivers/STM32WBxx_HAL_Driver/Src/stm32wbxx_hal_rtc_ex.c ****   * @param hrtc RTC handle
 836:Drivers/STM32WBxx_HAL_Driver/Src/stm32wbxx_hal_rtc_ex.c ****   * @retval None
 837:Drivers/STM32WBxx_HAL_Driver/Src/stm32wbxx_hal_rtc_ex.c ****   */
 838:Drivers/STM32WBxx_HAL_Driver/Src/stm32wbxx_hal_rtc_ex.c **** __weak void HAL_RTCEx_Tamper2EventCallback(RTC_HandleTypeDef *hrtc)
 839:Drivers/STM32WBxx_HAL_Driver/Src/stm32wbxx_hal_rtc_ex.c **** {
 1332              		.loc 1 839 1 is_stmt 1 view -0
 1333              		.cfi_startproc
 1334              		@ args = 0, pretend = 0, frame = 0
 1335              		@ frame_needed = 0, uses_anonymous_args = 0
 1336              		@ link register save eliminated.
 840:Drivers/STM32WBxx_HAL_Driver/Src/stm32wbxx_hal_rtc_ex.c ****   /* Prevent unused argument(s) compilation warning */
 841:Drivers/STM32WBxx_HAL_Driver/Src/stm32wbxx_hal_rtc_ex.c ****   UNUSED(hrtc);
 1337              		.loc 1 841 3 view .LVU479
 842:Drivers/STM32WBxx_HAL_Driver/Src/stm32wbxx_hal_rtc_ex.c **** 
 843:Drivers/STM32WBxx_HAL_Driver/Src/stm32wbxx_hal_rtc_ex.c ****   /* NOTE : This function should not be modified, when the callback is needed,
 844:Drivers/STM32WBxx_HAL_Driver/Src/stm32wbxx_hal_rtc_ex.c ****             the HAL_RTCEx_Tamper2EventCallback could be implemented in the user file
 845:Drivers/STM32WBxx_HAL_Driver/Src/stm32wbxx_hal_rtc_ex.c ****    */
 846:Drivers/STM32WBxx_HAL_Driver/Src/stm32wbxx_hal_rtc_ex.c **** }
 1338              		.loc 1 846 1 is_stmt 0 view .LVU480
 1339 0000 7047     		bx	lr
 1340              		.cfi_endproc
 1341              	.LFE1116:
 1343              		.section	.text.HAL_RTCEx_Tamper3EventCallback,"ax",%progbits
 1344              		.align	1
 1345              		.weak	HAL_RTCEx_Tamper3EventCallback
 1346              		.syntax unified
 1347              		.thumb
 1348              		.thumb_func
 1349              		.fpu fpv4-sp-d16
 1351              	HAL_RTCEx_Tamper3EventCallback:
 1352              	.LVL67:
 1353              	.LFB1117:
 847:Drivers/STM32WBxx_HAL_Driver/Src/stm32wbxx_hal_rtc_ex.c **** 
 848:Drivers/STM32WBxx_HAL_Driver/Src/stm32wbxx_hal_rtc_ex.c **** #if defined(RTC_TAMPER3_SUPPORT)
 849:Drivers/STM32WBxx_HAL_Driver/Src/stm32wbxx_hal_rtc_ex.c **** /**
 850:Drivers/STM32WBxx_HAL_Driver/Src/stm32wbxx_hal_rtc_ex.c ****   * @brief  Tamper 3 callback.
 851:Drivers/STM32WBxx_HAL_Driver/Src/stm32wbxx_hal_rtc_ex.c ****   * @param hrtc RTC handle
 852:Drivers/STM32WBxx_HAL_Driver/Src/stm32wbxx_hal_rtc_ex.c ****   * @retval None
 853:Drivers/STM32WBxx_HAL_Driver/Src/stm32wbxx_hal_rtc_ex.c ****   */
 854:Drivers/STM32WBxx_HAL_Driver/Src/stm32wbxx_hal_rtc_ex.c **** __weak void HAL_RTCEx_Tamper3EventCallback(RTC_HandleTypeDef *hrtc)
 855:Drivers/STM32WBxx_HAL_Driver/Src/stm32wbxx_hal_rtc_ex.c **** {
 1354              		.loc 1 855 1 is_stmt 1 view -0
 1355              		.cfi_startproc
 1356              		@ args = 0, pretend = 0, frame = 0
ARM GAS  /var/folders/lt/l_qrc8c54t93n_phsj7cf5tc0000gn/T//cc0GZz77.s 			page 40


 1357              		@ frame_needed = 0, uses_anonymous_args = 0
 1358              		@ link register save eliminated.
 856:Drivers/STM32WBxx_HAL_Driver/Src/stm32wbxx_hal_rtc_ex.c ****   /* Prevent unused argument(s) compilation warning */
 857:Drivers/STM32WBxx_HAL_Driver/Src/stm32wbxx_hal_rtc_ex.c ****   UNUSED(hrtc);
 1359              		.loc 1 857 3 view .LVU482
 858:Drivers/STM32WBxx_HAL_Driver/Src/stm32wbxx_hal_rtc_ex.c **** 
 859:Drivers/STM32WBxx_HAL_Driver/Src/stm32wbxx_hal_rtc_ex.c ****   /* NOTE : This function should not be modified, when the callback is needed,
 860:Drivers/STM32WBxx_HAL_Driver/Src/stm32wbxx_hal_rtc_ex.c ****             the HAL_RTCEx_Tamper3EventCallback could be implemented in the user file
 861:Drivers/STM32WBxx_HAL_Driver/Src/stm32wbxx_hal_rtc_ex.c ****    */
 862:Drivers/STM32WBxx_HAL_Driver/Src/stm32wbxx_hal_rtc_ex.c **** }
 1360              		.loc 1 862 1 is_stmt 0 view .LVU483
 1361 0000 7047     		bx	lr
 1362              		.cfi_endproc
 1363              	.LFE1117:
 1365              		.section	.text.HAL_RTCEx_TamperTimeStampIRQHandler,"ax",%progbits
 1366              		.align	1
 1367              		.global	HAL_RTCEx_TamperTimeStampIRQHandler
 1368              		.syntax unified
 1369              		.thumb
 1370              		.thumb_func
 1371              		.fpu fpv4-sp-d16
 1373              	HAL_RTCEx_TamperTimeStampIRQHandler:
 1374              	.LVL68:
 1375              	.LFB1113:
 716:Drivers/STM32WBxx_HAL_Driver/Src/stm32wbxx_hal_rtc_ex.c ****   /* Get the TimeStamp interrupt source enable status */
 1376              		.loc 1 716 1 is_stmt 1 view -0
 1377              		.cfi_startproc
 1378              		@ args = 0, pretend = 0, frame = 0
 1379              		@ frame_needed = 0, uses_anonymous_args = 0
 716:Drivers/STM32WBxx_HAL_Driver/Src/stm32wbxx_hal_rtc_ex.c ****   /* Get the TimeStamp interrupt source enable status */
 1380              		.loc 1 716 1 is_stmt 0 view .LVU485
 1381 0000 10B5     		push	{r4, lr}
 1382              	.LCFI11:
 1383              		.cfi_def_cfa_offset 8
 1384              		.cfi_offset 4, -8
 1385              		.cfi_offset 14, -4
 1386 0002 0446     		mov	r4, r0
 718:Drivers/STM32WBxx_HAL_Driver/Src/stm32wbxx_hal_rtc_ex.c ****   {
 1387              		.loc 1 718 3 is_stmt 1 view .LVU486
 718:Drivers/STM32WBxx_HAL_Driver/Src/stm32wbxx_hal_rtc_ex.c ****   {
 1388              		.loc 1 718 7 is_stmt 0 view .LVU487
 1389 0004 0368     		ldr	r3, [r0]
 1390 0006 9A68     		ldr	r2, [r3, #8]
 718:Drivers/STM32WBxx_HAL_Driver/Src/stm32wbxx_hal_rtc_ex.c ****   {
 1391              		.loc 1 718 6 view .LVU488
 1392 0008 12F4004F 		tst	r2, #32768
 1393 000c 03D0     		beq	.L81
 721:Drivers/STM32WBxx_HAL_Driver/Src/stm32wbxx_hal_rtc_ex.c ****     {
 1394              		.loc 1 721 5 is_stmt 1 view .LVU489
 721:Drivers/STM32WBxx_HAL_Driver/Src/stm32wbxx_hal_rtc_ex.c ****     {
 1395              		.loc 1 721 9 is_stmt 0 view .LVU490
 1396 000e DB68     		ldr	r3, [r3, #12]
 721:Drivers/STM32WBxx_HAL_Driver/Src/stm32wbxx_hal_rtc_ex.c ****     {
 1397              		.loc 1 721 8 view .LVU491
 1398 0010 13F4006F 		tst	r3, #2048
 1399 0014 22D1     		bne	.L86
 1400              	.LVL69:
ARM GAS  /var/folders/lt/l_qrc8c54t93n_phsj7cf5tc0000gn/T//cc0GZz77.s 			page 41


 1401              	.L81:
 737:Drivers/STM32WBxx_HAL_Driver/Src/stm32wbxx_hal_rtc_ex.c ****   {
 1402              		.loc 1 737 3 is_stmt 1 view .LVU492
 737:Drivers/STM32WBxx_HAL_Driver/Src/stm32wbxx_hal_rtc_ex.c ****   {
 1403              		.loc 1 737 7 is_stmt 0 view .LVU493
 1404 0016 2268     		ldr	r2, [r4]
 1405 0018 116C     		ldr	r1, [r2, #64]
 1406 001a 274B     		ldr	r3, .L90
 1407 001c 0B40     		ands	r3, r3, r1
 737:Drivers/STM32WBxx_HAL_Driver/Src/stm32wbxx_hal_rtc_ex.c ****   {
 1408              		.loc 1 737 6 view .LVU494
 1409 001e 1BB1     		cbz	r3, .L82
 740:Drivers/STM32WBxx_HAL_Driver/Src/stm32wbxx_hal_rtc_ex.c ****     {
 1410              		.loc 1 740 5 is_stmt 1 view .LVU495
 740:Drivers/STM32WBxx_HAL_Driver/Src/stm32wbxx_hal_rtc_ex.c ****     {
 1411              		.loc 1 740 9 is_stmt 0 view .LVU496
 1412 0020 D368     		ldr	r3, [r2, #12]
 740:Drivers/STM32WBxx_HAL_Driver/Src/stm32wbxx_hal_rtc_ex.c ****     {
 1413              		.loc 1 740 8 view .LVU497
 1414 0022 13F4005F 		tst	r3, #8192
 1415 0026 22D1     		bne	.L87
 1416              	.L82:
 757:Drivers/STM32WBxx_HAL_Driver/Src/stm32wbxx_hal_rtc_ex.c ****   {
 1417              		.loc 1 757 3 is_stmt 1 view .LVU498
 757:Drivers/STM32WBxx_HAL_Driver/Src/stm32wbxx_hal_rtc_ex.c ****   {
 1418              		.loc 1 757 7 is_stmt 0 view .LVU499
 1419 0028 2268     		ldr	r2, [r4]
 1420 002a 116C     		ldr	r1, [r2, #64]
 1421 002c 234B     		ldr	r3, .L90+4
 1422 002e 0B40     		ands	r3, r3, r1
 757:Drivers/STM32WBxx_HAL_Driver/Src/stm32wbxx_hal_rtc_ex.c ****   {
 1423              		.loc 1 757 6 view .LVU500
 1424 0030 1BB1     		cbz	r3, .L83
 760:Drivers/STM32WBxx_HAL_Driver/Src/stm32wbxx_hal_rtc_ex.c ****     {
 1425              		.loc 1 760 5 is_stmt 1 view .LVU501
 760:Drivers/STM32WBxx_HAL_Driver/Src/stm32wbxx_hal_rtc_ex.c ****     {
 1426              		.loc 1 760 9 is_stmt 0 view .LVU502
 1427 0032 D368     		ldr	r3, [r2, #12]
 760:Drivers/STM32WBxx_HAL_Driver/Src/stm32wbxx_hal_rtc_ex.c ****     {
 1428              		.loc 1 760 8 view .LVU503
 1429 0034 13F4804F 		tst	r3, #16384
 1430 0038 23D1     		bne	.L88
 1431              	.L83:
 776:Drivers/STM32WBxx_HAL_Driver/Src/stm32wbxx_hal_rtc_ex.c ****   {
 1432              		.loc 1 776 3 is_stmt 1 view .LVU504
 776:Drivers/STM32WBxx_HAL_Driver/Src/stm32wbxx_hal_rtc_ex.c ****   {
 1433              		.loc 1 776 7 is_stmt 0 view .LVU505
 1434 003a 2268     		ldr	r2, [r4]
 1435 003c 116C     		ldr	r1, [r2, #64]
 1436 003e 204B     		ldr	r3, .L90+8
 1437 0040 0B40     		ands	r3, r3, r1
 776:Drivers/STM32WBxx_HAL_Driver/Src/stm32wbxx_hal_rtc_ex.c ****   {
 1438              		.loc 1 776 6 view .LVU506
 1439 0042 1BB1     		cbz	r3, .L84
 779:Drivers/STM32WBxx_HAL_Driver/Src/stm32wbxx_hal_rtc_ex.c ****     {
 1440              		.loc 1 779 5 is_stmt 1 view .LVU507
 779:Drivers/STM32WBxx_HAL_Driver/Src/stm32wbxx_hal_rtc_ex.c ****     {
ARM GAS  /var/folders/lt/l_qrc8c54t93n_phsj7cf5tc0000gn/T//cc0GZz77.s 			page 42


 1441              		.loc 1 779 9 is_stmt 0 view .LVU508
 1442 0044 D368     		ldr	r3, [r2, #12]
 779:Drivers/STM32WBxx_HAL_Driver/Src/stm32wbxx_hal_rtc_ex.c ****     {
 1443              		.loc 1 779 8 view .LVU509
 1444 0046 13F4004F 		tst	r3, #32768
 1445 004a 24D1     		bne	.L89
 1446              	.L84:
 795:Drivers/STM32WBxx_HAL_Driver/Src/stm32wbxx_hal_rtc_ex.c **** 
 1447              		.loc 1 795 3 is_stmt 1 view .LVU510
 1448 004c 1D4B     		ldr	r3, .L90+12
 1449 004e 4FF48022 		mov	r2, #262144
 1450 0052 DA60     		str	r2, [r3, #12]
 798:Drivers/STM32WBxx_HAL_Driver/Src/stm32wbxx_hal_rtc_ex.c **** }
 1451              		.loc 1 798 3 view .LVU511
 798:Drivers/STM32WBxx_HAL_Driver/Src/stm32wbxx_hal_rtc_ex.c **** }
 1452              		.loc 1 798 15 is_stmt 0 view .LVU512
 1453 0054 0123     		movs	r3, #1
 1454 0056 84F82130 		strb	r3, [r4, #33]
 799:Drivers/STM32WBxx_HAL_Driver/Src/stm32wbxx_hal_rtc_ex.c **** 
 1455              		.loc 1 799 1 view .LVU513
 1456 005a 10BD     		pop	{r4, pc}
 1457              	.LVL70:
 1458              	.L86:
 727:Drivers/STM32WBxx_HAL_Driver/Src/stm32wbxx_hal_rtc_ex.c **** #endif /* USE_HAL_RTC_REGISTER_CALLBACKS */
 1459              		.loc 1 727 7 is_stmt 1 view .LVU514
 1460 005c FFF7FEFF 		bl	HAL_RTCEx_TimeStampEventCallback
 1461              	.LVL71:
 731:Drivers/STM32WBxx_HAL_Driver/Src/stm32wbxx_hal_rtc_ex.c ****     }
 1462              		.loc 1 731 7 view .LVU515
 1463 0060 2268     		ldr	r2, [r4]
 1464 0062 D368     		ldr	r3, [r2, #12]
 1465 0064 DBB2     		uxtb	r3, r3
 1466 0066 63F40863 		orn	r3, r3, #2176
 1467 006a D360     		str	r3, [r2, #12]
 1468 006c D3E7     		b	.L81
 1469              	.L87:
 746:Drivers/STM32WBxx_HAL_Driver/Src/stm32wbxx_hal_rtc_ex.c **** #endif /* USE_HAL_RTC_REGISTER_CALLBACKS */
 1470              		.loc 1 746 7 view .LVU516
 1471 006e 2046     		mov	r0, r4
 1472 0070 FFF7FEFF 		bl	HAL_RTCEx_Tamper1EventCallback
 1473              	.LVL72:
 750:Drivers/STM32WBxx_HAL_Driver/Src/stm32wbxx_hal_rtc_ex.c ****     }
 1474              		.loc 1 750 7 view .LVU517
 1475 0074 2268     		ldr	r2, [r4]
 1476 0076 D368     		ldr	r3, [r2, #12]
 1477 0078 DBB2     		uxtb	r3, r3
 1478 007a 63F40253 		orn	r3, r3, #8320
 1479 007e D360     		str	r3, [r2, #12]
 1480 0080 D2E7     		b	.L82
 1481              	.L88:
 766:Drivers/STM32WBxx_HAL_Driver/Src/stm32wbxx_hal_rtc_ex.c **** #endif /* USE_HAL_RTC_REGISTER_CALLBACKS */
 1482              		.loc 1 766 7 view .LVU518
 1483 0082 2046     		mov	r0, r4
 1484 0084 FFF7FEFF 		bl	HAL_RTCEx_Tamper2EventCallback
 1485              	.LVL73:
 770:Drivers/STM32WBxx_HAL_Driver/Src/stm32wbxx_hal_rtc_ex.c ****     }
 1486              		.loc 1 770 7 view .LVU519
ARM GAS  /var/folders/lt/l_qrc8c54t93n_phsj7cf5tc0000gn/T//cc0GZz77.s 			page 43


 1487 0088 2268     		ldr	r2, [r4]
 1488 008a D368     		ldr	r3, [r2, #12]
 1489 008c DBB2     		uxtb	r3, r3
 1490 008e 63F48143 		orn	r3, r3, #16512
 1491 0092 D360     		str	r3, [r2, #12]
 1492 0094 D1E7     		b	.L83
 1493              	.L89:
 785:Drivers/STM32WBxx_HAL_Driver/Src/stm32wbxx_hal_rtc_ex.c **** #endif /* USE_HAL_RTC_REGISTER_CALLBACKS */
 1494              		.loc 1 785 7 view .LVU520
 1495 0096 2046     		mov	r0, r4
 1496 0098 FFF7FEFF 		bl	HAL_RTCEx_Tamper3EventCallback
 1497              	.LVL74:
 789:Drivers/STM32WBxx_HAL_Driver/Src/stm32wbxx_hal_rtc_ex.c ****     }
 1498              		.loc 1 789 7 view .LVU521
 1499 009c 2268     		ldr	r2, [r4]
 1500 009e D368     		ldr	r3, [r2, #12]
 1501 00a0 DBB2     		uxtb	r3, r3
 1502 00a2 43F07F43 		orr	r3, r3, #-16777216
 1503 00a6 43F47F03 		orr	r3, r3, #16711680
 1504 00aa 43F4FE43 		orr	r3, r3, #32512
 1505 00ae 43F07F03 		orr	r3, r3, #127
 1506 00b2 D360     		str	r3, [r2, #12]
 1507 00b4 CAE7     		b	.L84
 1508              	.L91:
 1509 00b6 00BF     		.align	2
 1510              	.L90:
 1511 00b8 04000100 		.word	65540
 1512 00bc 04000800 		.word	524292
 1513 00c0 04004000 		.word	4194308
 1514 00c4 00080058 		.word	1476397056
 1515              		.cfi_endproc
 1516              	.LFE1113:
 1518              		.section	.text.HAL_RTCEx_PollForTimeStampEvent,"ax",%progbits
 1519              		.align	1
 1520              		.global	HAL_RTCEx_PollForTimeStampEvent
 1521              		.syntax unified
 1522              		.thumb
 1523              		.thumb_func
 1524              		.fpu fpv4-sp-d16
 1526              	HAL_RTCEx_PollForTimeStampEvent:
 1527              	.LVL75:
 1528              	.LFB1118:
 863:Drivers/STM32WBxx_HAL_Driver/Src/stm32wbxx_hal_rtc_ex.c **** #endif /* RTC_TAMPER3_SUPPORT */
 864:Drivers/STM32WBxx_HAL_Driver/Src/stm32wbxx_hal_rtc_ex.c **** 
 865:Drivers/STM32WBxx_HAL_Driver/Src/stm32wbxx_hal_rtc_ex.c **** /**
 866:Drivers/STM32WBxx_HAL_Driver/Src/stm32wbxx_hal_rtc_ex.c ****   * @brief  Handle TimeStamp polling request.
 867:Drivers/STM32WBxx_HAL_Driver/Src/stm32wbxx_hal_rtc_ex.c ****   * @param hrtc RTC handle
 868:Drivers/STM32WBxx_HAL_Driver/Src/stm32wbxx_hal_rtc_ex.c ****   * @param Timeout Timeout duration
 869:Drivers/STM32WBxx_HAL_Driver/Src/stm32wbxx_hal_rtc_ex.c ****   * @retval HAL status
 870:Drivers/STM32WBxx_HAL_Driver/Src/stm32wbxx_hal_rtc_ex.c ****   */
 871:Drivers/STM32WBxx_HAL_Driver/Src/stm32wbxx_hal_rtc_ex.c **** HAL_StatusTypeDef HAL_RTCEx_PollForTimeStampEvent(RTC_HandleTypeDef *hrtc, uint32_t Timeout)
 872:Drivers/STM32WBxx_HAL_Driver/Src/stm32wbxx_hal_rtc_ex.c **** {
 1529              		.loc 1 872 1 view -0
 1530              		.cfi_startproc
 1531              		@ args = 0, pretend = 0, frame = 0
 1532              		@ frame_needed = 0, uses_anonymous_args = 0
 1533              		.loc 1 872 1 is_stmt 0 view .LVU523
ARM GAS  /var/folders/lt/l_qrc8c54t93n_phsj7cf5tc0000gn/T//cc0GZz77.s 			page 44


 1534 0000 70B5     		push	{r4, r5, r6, lr}
 1535              	.LCFI12:
 1536              		.cfi_def_cfa_offset 16
 1537              		.cfi_offset 4, -16
 1538              		.cfi_offset 5, -12
 1539              		.cfi_offset 6, -8
 1540              		.cfi_offset 14, -4
 1541 0002 0446     		mov	r4, r0
 1542 0004 0D46     		mov	r5, r1
 873:Drivers/STM32WBxx_HAL_Driver/Src/stm32wbxx_hal_rtc_ex.c ****   uint32_t tickstart = HAL_GetTick();
 1543              		.loc 1 873 3 is_stmt 1 view .LVU524
 1544              		.loc 1 873 24 is_stmt 0 view .LVU525
 1545 0006 FFF7FEFF 		bl	HAL_GetTick
 1546              	.LVL76:
 1547              		.loc 1 873 24 view .LVU526
 1548 000a 0646     		mov	r6, r0
 1549              	.LVL77:
 874:Drivers/STM32WBxx_HAL_Driver/Src/stm32wbxx_hal_rtc_ex.c **** 
 875:Drivers/STM32WBxx_HAL_Driver/Src/stm32wbxx_hal_rtc_ex.c ****   while (__HAL_RTC_TIMESTAMP_GET_FLAG(hrtc, RTC_FLAG_TSF) == 0U)
 1550              		.loc 1 875 3 is_stmt 1 view .LVU527
 1551              	.L96:
 1552              		.loc 1 875 9 view .LVU528
 1553              		.loc 1 875 10 is_stmt 0 view .LVU529
 1554 000c 2368     		ldr	r3, [r4]
 1555 000e DA68     		ldr	r2, [r3, #12]
 1556              		.loc 1 875 9 view .LVU530
 1557 0010 12F4006F 		tst	r2, #2048
 1558 0014 1BD1     		bne	.L100
 876:Drivers/STM32WBxx_HAL_Driver/Src/stm32wbxx_hal_rtc_ex.c ****   {
 877:Drivers/STM32WBxx_HAL_Driver/Src/stm32wbxx_hal_rtc_ex.c ****     if (__HAL_RTC_TIMESTAMP_GET_FLAG(hrtc, RTC_FLAG_TSOVF) != 0U)
 1559              		.loc 1 877 5 is_stmt 1 view .LVU531
 1560              		.loc 1 877 9 is_stmt 0 view .LVU532
 1561 0016 DA68     		ldr	r2, [r3, #12]
 1562              		.loc 1 877 8 view .LVU533
 1563 0018 12F4805F 		tst	r2, #4096
 1564 001c 0DD1     		bne	.L101
 878:Drivers/STM32WBxx_HAL_Driver/Src/stm32wbxx_hal_rtc_ex.c ****     {
 879:Drivers/STM32WBxx_HAL_Driver/Src/stm32wbxx_hal_rtc_ex.c ****       /* Clear the TIMESTAMP OverRun Flag */
 880:Drivers/STM32WBxx_HAL_Driver/Src/stm32wbxx_hal_rtc_ex.c ****       __HAL_RTC_TIMESTAMP_CLEAR_FLAG(hrtc, RTC_FLAG_TSOVF);
 881:Drivers/STM32WBxx_HAL_Driver/Src/stm32wbxx_hal_rtc_ex.c **** 
 882:Drivers/STM32WBxx_HAL_Driver/Src/stm32wbxx_hal_rtc_ex.c ****       /* Change TIMESTAMP state */
 883:Drivers/STM32WBxx_HAL_Driver/Src/stm32wbxx_hal_rtc_ex.c ****       hrtc->State = HAL_RTC_STATE_ERROR;
 884:Drivers/STM32WBxx_HAL_Driver/Src/stm32wbxx_hal_rtc_ex.c **** 
 885:Drivers/STM32WBxx_HAL_Driver/Src/stm32wbxx_hal_rtc_ex.c ****       return HAL_ERROR;
 886:Drivers/STM32WBxx_HAL_Driver/Src/stm32wbxx_hal_rtc_ex.c ****     }
 887:Drivers/STM32WBxx_HAL_Driver/Src/stm32wbxx_hal_rtc_ex.c **** 
 888:Drivers/STM32WBxx_HAL_Driver/Src/stm32wbxx_hal_rtc_ex.c ****     if (Timeout != HAL_MAX_DELAY)
 1565              		.loc 1 888 5 is_stmt 1 view .LVU534
 1566              		.loc 1 888 8 is_stmt 0 view .LVU535
 1567 001e B5F1FF3F 		cmp	r5, #-1
 1568 0022 F3D0     		beq	.L96
 889:Drivers/STM32WBxx_HAL_Driver/Src/stm32wbxx_hal_rtc_ex.c ****     {
 890:Drivers/STM32WBxx_HAL_Driver/Src/stm32wbxx_hal_rtc_ex.c ****       if (((HAL_GetTick() - tickstart) > Timeout) || (Timeout == 0U))
 1569              		.loc 1 890 7 is_stmt 1 view .LVU536
 1570              		.loc 1 890 13 is_stmt 0 view .LVU537
 1571 0024 FFF7FEFF 		bl	HAL_GetTick
 1572              	.LVL78:
ARM GAS  /var/folders/lt/l_qrc8c54t93n_phsj7cf5tc0000gn/T//cc0GZz77.s 			page 45


 1573              		.loc 1 890 27 view .LVU538
 1574 0028 801B     		subs	r0, r0, r6
 1575              		.loc 1 890 10 view .LVU539
 1576 002a A842     		cmp	r0, r5
 1577 002c 01D8     		bhi	.L97
 1578              		.loc 1 890 51 discriminator 1 view .LVU540
 1579 002e 002D     		cmp	r5, #0
 1580 0030 ECD1     		bne	.L96
 1581              	.L97:
 891:Drivers/STM32WBxx_HAL_Driver/Src/stm32wbxx_hal_rtc_ex.c ****       {
 892:Drivers/STM32WBxx_HAL_Driver/Src/stm32wbxx_hal_rtc_ex.c ****         hrtc->State = HAL_RTC_STATE_TIMEOUT;
 1582              		.loc 1 892 9 is_stmt 1 view .LVU541
 1583              		.loc 1 892 21 is_stmt 0 view .LVU542
 1584 0032 0320     		movs	r0, #3
 1585 0034 84F82100 		strb	r0, [r4, #33]
 893:Drivers/STM32WBxx_HAL_Driver/Src/stm32wbxx_hal_rtc_ex.c ****         return HAL_TIMEOUT;
 1586              		.loc 1 893 9 is_stmt 1 view .LVU543
 1587              		.loc 1 893 16 is_stmt 0 view .LVU544
 1588 0038 0DE0     		b	.L95
 1589              	.L101:
 880:Drivers/STM32WBxx_HAL_Driver/Src/stm32wbxx_hal_rtc_ex.c **** 
 1590              		.loc 1 880 7 is_stmt 1 view .LVU545
 1591 003a DA68     		ldr	r2, [r3, #12]
 1592 003c D2B2     		uxtb	r2, r2
 1593 003e 62F48452 		orn	r2, r2, #4224
 1594 0042 DA60     		str	r2, [r3, #12]
 883:Drivers/STM32WBxx_HAL_Driver/Src/stm32wbxx_hal_rtc_ex.c **** 
 1595              		.loc 1 883 7 view .LVU546
 883:Drivers/STM32WBxx_HAL_Driver/Src/stm32wbxx_hal_rtc_ex.c **** 
 1596              		.loc 1 883 19 is_stmt 0 view .LVU547
 1597 0044 0423     		movs	r3, #4
 1598 0046 84F82130 		strb	r3, [r4, #33]
 885:Drivers/STM32WBxx_HAL_Driver/Src/stm32wbxx_hal_rtc_ex.c ****     }
 1599              		.loc 1 885 7 is_stmt 1 view .LVU548
 885:Drivers/STM32WBxx_HAL_Driver/Src/stm32wbxx_hal_rtc_ex.c ****     }
 1600              		.loc 1 885 14 is_stmt 0 view .LVU549
 1601 004a 0120     		movs	r0, #1
 1602 004c 03E0     		b	.L95
 1603              	.L100:
 894:Drivers/STM32WBxx_HAL_Driver/Src/stm32wbxx_hal_rtc_ex.c ****       }
 895:Drivers/STM32WBxx_HAL_Driver/Src/stm32wbxx_hal_rtc_ex.c ****     }
 896:Drivers/STM32WBxx_HAL_Driver/Src/stm32wbxx_hal_rtc_ex.c ****   }
 897:Drivers/STM32WBxx_HAL_Driver/Src/stm32wbxx_hal_rtc_ex.c **** 
 898:Drivers/STM32WBxx_HAL_Driver/Src/stm32wbxx_hal_rtc_ex.c ****   /* Change RTC state */
 899:Drivers/STM32WBxx_HAL_Driver/Src/stm32wbxx_hal_rtc_ex.c ****   hrtc->State = HAL_RTC_STATE_READY;
 1604              		.loc 1 899 3 is_stmt 1 view .LVU550
 1605              		.loc 1 899 15 is_stmt 0 view .LVU551
 1606 004e 0123     		movs	r3, #1
 1607 0050 84F82130 		strb	r3, [r4, #33]
 900:Drivers/STM32WBxx_HAL_Driver/Src/stm32wbxx_hal_rtc_ex.c **** 
 901:Drivers/STM32WBxx_HAL_Driver/Src/stm32wbxx_hal_rtc_ex.c ****   return HAL_OK;
 1608              		.loc 1 901 3 is_stmt 1 view .LVU552
 1609              		.loc 1 901 10 is_stmt 0 view .LVU553
 1610 0054 0020     		movs	r0, #0
 1611              	.L95:
 902:Drivers/STM32WBxx_HAL_Driver/Src/stm32wbxx_hal_rtc_ex.c **** }
 1612              		.loc 1 902 1 view .LVU554
ARM GAS  /var/folders/lt/l_qrc8c54t93n_phsj7cf5tc0000gn/T//cc0GZz77.s 			page 46


 1613 0056 70BD     		pop	{r4, r5, r6, pc}
 1614              		.loc 1 902 1 view .LVU555
 1615              		.cfi_endproc
 1616              	.LFE1118:
 1618              		.section	.text.HAL_RTCEx_PollForTamper1Event,"ax",%progbits
 1619              		.align	1
 1620              		.global	HAL_RTCEx_PollForTamper1Event
 1621              		.syntax unified
 1622              		.thumb
 1623              		.thumb_func
 1624              		.fpu fpv4-sp-d16
 1626              	HAL_RTCEx_PollForTamper1Event:
 1627              	.LVL79:
 1628              	.LFB1119:
 903:Drivers/STM32WBxx_HAL_Driver/Src/stm32wbxx_hal_rtc_ex.c **** 
 904:Drivers/STM32WBxx_HAL_Driver/Src/stm32wbxx_hal_rtc_ex.c **** #if defined(RTC_TAMPER1_SUPPORT)
 905:Drivers/STM32WBxx_HAL_Driver/Src/stm32wbxx_hal_rtc_ex.c **** /**
 906:Drivers/STM32WBxx_HAL_Driver/Src/stm32wbxx_hal_rtc_ex.c ****   * @brief  Handle Tamper 1 Polling.
 907:Drivers/STM32WBxx_HAL_Driver/Src/stm32wbxx_hal_rtc_ex.c ****   * @param hrtc RTC handle
 908:Drivers/STM32WBxx_HAL_Driver/Src/stm32wbxx_hal_rtc_ex.c ****   * @param Timeout Timeout duration
 909:Drivers/STM32WBxx_HAL_Driver/Src/stm32wbxx_hal_rtc_ex.c ****   * @retval HAL status
 910:Drivers/STM32WBxx_HAL_Driver/Src/stm32wbxx_hal_rtc_ex.c ****   */
 911:Drivers/STM32WBxx_HAL_Driver/Src/stm32wbxx_hal_rtc_ex.c **** HAL_StatusTypeDef HAL_RTCEx_PollForTamper1Event(RTC_HandleTypeDef *hrtc, uint32_t Timeout)
 912:Drivers/STM32WBxx_HAL_Driver/Src/stm32wbxx_hal_rtc_ex.c **** {
 1629              		.loc 1 912 1 is_stmt 1 view -0
 1630              		.cfi_startproc
 1631              		@ args = 0, pretend = 0, frame = 0
 1632              		@ frame_needed = 0, uses_anonymous_args = 0
 1633              		.loc 1 912 1 is_stmt 0 view .LVU557
 1634 0000 70B5     		push	{r4, r5, r6, lr}
 1635              	.LCFI13:
 1636              		.cfi_def_cfa_offset 16
 1637              		.cfi_offset 4, -16
 1638              		.cfi_offset 5, -12
 1639              		.cfi_offset 6, -8
 1640              		.cfi_offset 14, -4
 1641 0002 0446     		mov	r4, r0
 1642 0004 0D46     		mov	r5, r1
 913:Drivers/STM32WBxx_HAL_Driver/Src/stm32wbxx_hal_rtc_ex.c ****   uint32_t tickstart = HAL_GetTick();
 1643              		.loc 1 913 3 is_stmt 1 view .LVU558
 1644              		.loc 1 913 24 is_stmt 0 view .LVU559
 1645 0006 FFF7FEFF 		bl	HAL_GetTick
 1646              	.LVL80:
 1647              		.loc 1 913 24 view .LVU560
 1648 000a 0646     		mov	r6, r0
 1649              	.LVL81:
 914:Drivers/STM32WBxx_HAL_Driver/Src/stm32wbxx_hal_rtc_ex.c **** 
 915:Drivers/STM32WBxx_HAL_Driver/Src/stm32wbxx_hal_rtc_ex.c ****   /* Get the status of the Interrupt */
 916:Drivers/STM32WBxx_HAL_Driver/Src/stm32wbxx_hal_rtc_ex.c ****   while (__HAL_RTC_TAMPER_GET_FLAG(hrtc, RTC_FLAG_TAMP1F) == 0U)
 1650              		.loc 1 916 3 is_stmt 1 view .LVU561
 1651              	.L104:
 1652              		.loc 1 916 9 view .LVU562
 1653              		.loc 1 916 10 is_stmt 0 view .LVU563
 1654 000c 2368     		ldr	r3, [r4]
 1655 000e DA68     		ldr	r2, [r3, #12]
 1656              		.loc 1 916 9 view .LVU564
 1657 0010 12F4005F 		tst	r2, #8192
ARM GAS  /var/folders/lt/l_qrc8c54t93n_phsj7cf5tc0000gn/T//cc0GZz77.s 			page 47


 1658 0014 0DD1     		bne	.L109
 917:Drivers/STM32WBxx_HAL_Driver/Src/stm32wbxx_hal_rtc_ex.c ****   {
 918:Drivers/STM32WBxx_HAL_Driver/Src/stm32wbxx_hal_rtc_ex.c ****     if (Timeout != HAL_MAX_DELAY)
 1659              		.loc 1 918 5 is_stmt 1 view .LVU565
 1660              		.loc 1 918 8 is_stmt 0 view .LVU566
 1661 0016 B5F1FF3F 		cmp	r5, #-1
 1662 001a F7D0     		beq	.L104
 919:Drivers/STM32WBxx_HAL_Driver/Src/stm32wbxx_hal_rtc_ex.c ****     {
 920:Drivers/STM32WBxx_HAL_Driver/Src/stm32wbxx_hal_rtc_ex.c ****       if (((HAL_GetTick() - tickstart) > Timeout) || (Timeout == 0U))
 1663              		.loc 1 920 7 is_stmt 1 view .LVU567
 1664              		.loc 1 920 13 is_stmt 0 view .LVU568
 1665 001c FFF7FEFF 		bl	HAL_GetTick
 1666              	.LVL82:
 1667              		.loc 1 920 27 view .LVU569
 1668 0020 801B     		subs	r0, r0, r6
 1669              		.loc 1 920 10 view .LVU570
 1670 0022 A842     		cmp	r0, r5
 1671 0024 01D8     		bhi	.L105
 1672              		.loc 1 920 51 discriminator 1 view .LVU571
 1673 0026 002D     		cmp	r5, #0
 1674 0028 F0D1     		bne	.L104
 1675              	.L105:
 921:Drivers/STM32WBxx_HAL_Driver/Src/stm32wbxx_hal_rtc_ex.c ****       {
 922:Drivers/STM32WBxx_HAL_Driver/Src/stm32wbxx_hal_rtc_ex.c ****         hrtc->State = HAL_RTC_STATE_TIMEOUT;
 1676              		.loc 1 922 9 is_stmt 1 view .LVU572
 1677              		.loc 1 922 21 is_stmt 0 view .LVU573
 1678 002a 0320     		movs	r0, #3
 1679 002c 84F82100 		strb	r0, [r4, #33]
 923:Drivers/STM32WBxx_HAL_Driver/Src/stm32wbxx_hal_rtc_ex.c ****         return HAL_TIMEOUT;
 1680              		.loc 1 923 9 is_stmt 1 view .LVU574
 1681              		.loc 1 923 16 is_stmt 0 view .LVU575
 1682 0030 08E0     		b	.L106
 1683              	.L109:
 924:Drivers/STM32WBxx_HAL_Driver/Src/stm32wbxx_hal_rtc_ex.c ****       }
 925:Drivers/STM32WBxx_HAL_Driver/Src/stm32wbxx_hal_rtc_ex.c ****     }
 926:Drivers/STM32WBxx_HAL_Driver/Src/stm32wbxx_hal_rtc_ex.c ****   }
 927:Drivers/STM32WBxx_HAL_Driver/Src/stm32wbxx_hal_rtc_ex.c **** 
 928:Drivers/STM32WBxx_HAL_Driver/Src/stm32wbxx_hal_rtc_ex.c ****   /* Clear the Tamper Flag */
 929:Drivers/STM32WBxx_HAL_Driver/Src/stm32wbxx_hal_rtc_ex.c ****   __HAL_RTC_TAMPER_CLEAR_FLAG(hrtc, RTC_FLAG_TAMP1F);
 1684              		.loc 1 929 3 is_stmt 1 view .LVU576
 1685 0032 DA68     		ldr	r2, [r3, #12]
 1686 0034 D2B2     		uxtb	r2, r2
 1687 0036 62F40252 		orn	r2, r2, #8320
 1688 003a DA60     		str	r2, [r3, #12]
 930:Drivers/STM32WBxx_HAL_Driver/Src/stm32wbxx_hal_rtc_ex.c **** 
 931:Drivers/STM32WBxx_HAL_Driver/Src/stm32wbxx_hal_rtc_ex.c ****   /* Change RTC state */
 932:Drivers/STM32WBxx_HAL_Driver/Src/stm32wbxx_hal_rtc_ex.c ****   hrtc->State = HAL_RTC_STATE_READY;
 1689              		.loc 1 932 3 view .LVU577
 1690              		.loc 1 932 15 is_stmt 0 view .LVU578
 1691 003c 0123     		movs	r3, #1
 1692 003e 84F82130 		strb	r3, [r4, #33]
 933:Drivers/STM32WBxx_HAL_Driver/Src/stm32wbxx_hal_rtc_ex.c **** 
 934:Drivers/STM32WBxx_HAL_Driver/Src/stm32wbxx_hal_rtc_ex.c ****   return HAL_OK;
 1693              		.loc 1 934 3 is_stmt 1 view .LVU579
 1694              		.loc 1 934 10 is_stmt 0 view .LVU580
 1695 0042 0020     		movs	r0, #0
 1696              	.L106:
ARM GAS  /var/folders/lt/l_qrc8c54t93n_phsj7cf5tc0000gn/T//cc0GZz77.s 			page 48


 935:Drivers/STM32WBxx_HAL_Driver/Src/stm32wbxx_hal_rtc_ex.c **** }
 1697              		.loc 1 935 1 view .LVU581
 1698 0044 70BD     		pop	{r4, r5, r6, pc}
 1699              		.loc 1 935 1 view .LVU582
 1700              		.cfi_endproc
 1701              	.LFE1119:
 1703              		.section	.text.HAL_RTCEx_PollForTamper2Event,"ax",%progbits
 1704              		.align	1
 1705              		.global	HAL_RTCEx_PollForTamper2Event
 1706              		.syntax unified
 1707              		.thumb
 1708              		.thumb_func
 1709              		.fpu fpv4-sp-d16
 1711              	HAL_RTCEx_PollForTamper2Event:
 1712              	.LVL83:
 1713              	.LFB1120:
 936:Drivers/STM32WBxx_HAL_Driver/Src/stm32wbxx_hal_rtc_ex.c **** #endif /* RTC_TAMPER1_SUPPORT */
 937:Drivers/STM32WBxx_HAL_Driver/Src/stm32wbxx_hal_rtc_ex.c **** 
 938:Drivers/STM32WBxx_HAL_Driver/Src/stm32wbxx_hal_rtc_ex.c **** /**
 939:Drivers/STM32WBxx_HAL_Driver/Src/stm32wbxx_hal_rtc_ex.c ****   * @brief  Handle Tamper 2 Polling.
 940:Drivers/STM32WBxx_HAL_Driver/Src/stm32wbxx_hal_rtc_ex.c ****   * @param hrtc RTC handle
 941:Drivers/STM32WBxx_HAL_Driver/Src/stm32wbxx_hal_rtc_ex.c ****   * @param Timeout Timeout duration
 942:Drivers/STM32WBxx_HAL_Driver/Src/stm32wbxx_hal_rtc_ex.c ****   * @retval HAL status
 943:Drivers/STM32WBxx_HAL_Driver/Src/stm32wbxx_hal_rtc_ex.c ****   */
 944:Drivers/STM32WBxx_HAL_Driver/Src/stm32wbxx_hal_rtc_ex.c **** HAL_StatusTypeDef HAL_RTCEx_PollForTamper2Event(RTC_HandleTypeDef *hrtc, uint32_t Timeout)
 945:Drivers/STM32WBxx_HAL_Driver/Src/stm32wbxx_hal_rtc_ex.c **** {
 1714              		.loc 1 945 1 is_stmt 1 view -0
 1715              		.cfi_startproc
 1716              		@ args = 0, pretend = 0, frame = 0
 1717              		@ frame_needed = 0, uses_anonymous_args = 0
 1718              		.loc 1 945 1 is_stmt 0 view .LVU584
 1719 0000 70B5     		push	{r4, r5, r6, lr}
 1720              	.LCFI14:
 1721              		.cfi_def_cfa_offset 16
 1722              		.cfi_offset 4, -16
 1723              		.cfi_offset 5, -12
 1724              		.cfi_offset 6, -8
 1725              		.cfi_offset 14, -4
 1726 0002 0446     		mov	r4, r0
 1727 0004 0D46     		mov	r5, r1
 946:Drivers/STM32WBxx_HAL_Driver/Src/stm32wbxx_hal_rtc_ex.c ****   uint32_t tickstart = HAL_GetTick();
 1728              		.loc 1 946 3 is_stmt 1 view .LVU585
 1729              		.loc 1 946 24 is_stmt 0 view .LVU586
 1730 0006 FFF7FEFF 		bl	HAL_GetTick
 1731              	.LVL84:
 1732              		.loc 1 946 24 view .LVU587
 1733 000a 0646     		mov	r6, r0
 1734              	.LVL85:
 947:Drivers/STM32WBxx_HAL_Driver/Src/stm32wbxx_hal_rtc_ex.c **** 
 948:Drivers/STM32WBxx_HAL_Driver/Src/stm32wbxx_hal_rtc_ex.c ****   /* Get the status of the Interrupt */
 949:Drivers/STM32WBxx_HAL_Driver/Src/stm32wbxx_hal_rtc_ex.c ****   while (__HAL_RTC_TAMPER_GET_FLAG(hrtc, RTC_FLAG_TAMP2F) == 0U)
 1735              		.loc 1 949 3 is_stmt 1 view .LVU588
 1736              	.L112:
 1737              		.loc 1 949 9 view .LVU589
 1738              		.loc 1 949 10 is_stmt 0 view .LVU590
 1739 000c 2368     		ldr	r3, [r4]
 1740 000e DA68     		ldr	r2, [r3, #12]
ARM GAS  /var/folders/lt/l_qrc8c54t93n_phsj7cf5tc0000gn/T//cc0GZz77.s 			page 49


 1741              		.loc 1 949 9 view .LVU591
 1742 0010 12F4804F 		tst	r2, #16384
 1743 0014 0DD1     		bne	.L117
 950:Drivers/STM32WBxx_HAL_Driver/Src/stm32wbxx_hal_rtc_ex.c ****   {
 951:Drivers/STM32WBxx_HAL_Driver/Src/stm32wbxx_hal_rtc_ex.c ****     if (Timeout != HAL_MAX_DELAY)
 1744              		.loc 1 951 5 is_stmt 1 view .LVU592
 1745              		.loc 1 951 8 is_stmt 0 view .LVU593
 1746 0016 B5F1FF3F 		cmp	r5, #-1
 1747 001a F7D0     		beq	.L112
 952:Drivers/STM32WBxx_HAL_Driver/Src/stm32wbxx_hal_rtc_ex.c ****     {
 953:Drivers/STM32WBxx_HAL_Driver/Src/stm32wbxx_hal_rtc_ex.c ****       if (((HAL_GetTick() - tickstart) > Timeout) || (Timeout == 0U))
 1748              		.loc 1 953 7 is_stmt 1 view .LVU594
 1749              		.loc 1 953 13 is_stmt 0 view .LVU595
 1750 001c FFF7FEFF 		bl	HAL_GetTick
 1751              	.LVL86:
 1752              		.loc 1 953 27 view .LVU596
 1753 0020 801B     		subs	r0, r0, r6
 1754              		.loc 1 953 10 view .LVU597
 1755 0022 A842     		cmp	r0, r5
 1756 0024 01D8     		bhi	.L113
 1757              		.loc 1 953 51 discriminator 1 view .LVU598
 1758 0026 002D     		cmp	r5, #0
 1759 0028 F0D1     		bne	.L112
 1760              	.L113:
 954:Drivers/STM32WBxx_HAL_Driver/Src/stm32wbxx_hal_rtc_ex.c ****       {
 955:Drivers/STM32WBxx_HAL_Driver/Src/stm32wbxx_hal_rtc_ex.c ****         hrtc->State = HAL_RTC_STATE_TIMEOUT;
 1761              		.loc 1 955 9 is_stmt 1 view .LVU599
 1762              		.loc 1 955 21 is_stmt 0 view .LVU600
 1763 002a 0320     		movs	r0, #3
 1764 002c 84F82100 		strb	r0, [r4, #33]
 956:Drivers/STM32WBxx_HAL_Driver/Src/stm32wbxx_hal_rtc_ex.c ****         return HAL_TIMEOUT;
 1765              		.loc 1 956 9 is_stmt 1 view .LVU601
 1766              		.loc 1 956 16 is_stmt 0 view .LVU602
 1767 0030 08E0     		b	.L114
 1768              	.L117:
 957:Drivers/STM32WBxx_HAL_Driver/Src/stm32wbxx_hal_rtc_ex.c ****       }
 958:Drivers/STM32WBxx_HAL_Driver/Src/stm32wbxx_hal_rtc_ex.c ****     }
 959:Drivers/STM32WBxx_HAL_Driver/Src/stm32wbxx_hal_rtc_ex.c ****   }
 960:Drivers/STM32WBxx_HAL_Driver/Src/stm32wbxx_hal_rtc_ex.c **** 
 961:Drivers/STM32WBxx_HAL_Driver/Src/stm32wbxx_hal_rtc_ex.c ****   /* Clear the Tamper Flag */
 962:Drivers/STM32WBxx_HAL_Driver/Src/stm32wbxx_hal_rtc_ex.c ****   __HAL_RTC_TAMPER_CLEAR_FLAG(hrtc, RTC_FLAG_TAMP2F);
 1769              		.loc 1 962 3 is_stmt 1 view .LVU603
 1770 0032 DA68     		ldr	r2, [r3, #12]
 1771 0034 D2B2     		uxtb	r2, r2
 1772 0036 62F48142 		orn	r2, r2, #16512
 1773 003a DA60     		str	r2, [r3, #12]
 963:Drivers/STM32WBxx_HAL_Driver/Src/stm32wbxx_hal_rtc_ex.c **** 
 964:Drivers/STM32WBxx_HAL_Driver/Src/stm32wbxx_hal_rtc_ex.c ****   /* Change RTC state */
 965:Drivers/STM32WBxx_HAL_Driver/Src/stm32wbxx_hal_rtc_ex.c ****   hrtc->State = HAL_RTC_STATE_READY;
 1774              		.loc 1 965 3 view .LVU604
 1775              		.loc 1 965 15 is_stmt 0 view .LVU605
 1776 003c 0123     		movs	r3, #1
 1777 003e 84F82130 		strb	r3, [r4, #33]
 966:Drivers/STM32WBxx_HAL_Driver/Src/stm32wbxx_hal_rtc_ex.c **** 
 967:Drivers/STM32WBxx_HAL_Driver/Src/stm32wbxx_hal_rtc_ex.c ****   return HAL_OK;
 1778              		.loc 1 967 3 is_stmt 1 view .LVU606
 1779              		.loc 1 967 10 is_stmt 0 view .LVU607
ARM GAS  /var/folders/lt/l_qrc8c54t93n_phsj7cf5tc0000gn/T//cc0GZz77.s 			page 50


 1780 0042 0020     		movs	r0, #0
 1781              	.L114:
 968:Drivers/STM32WBxx_HAL_Driver/Src/stm32wbxx_hal_rtc_ex.c **** }
 1782              		.loc 1 968 1 view .LVU608
 1783 0044 70BD     		pop	{r4, r5, r6, pc}
 1784              		.loc 1 968 1 view .LVU609
 1785              		.cfi_endproc
 1786              	.LFE1120:
 1788              		.section	.text.HAL_RTCEx_PollForTamper3Event,"ax",%progbits
 1789              		.align	1
 1790              		.global	HAL_RTCEx_PollForTamper3Event
 1791              		.syntax unified
 1792              		.thumb
 1793              		.thumb_func
 1794              		.fpu fpv4-sp-d16
 1796              	HAL_RTCEx_PollForTamper3Event:
 1797              	.LVL87:
 1798              	.LFB1121:
 969:Drivers/STM32WBxx_HAL_Driver/Src/stm32wbxx_hal_rtc_ex.c **** 
 970:Drivers/STM32WBxx_HAL_Driver/Src/stm32wbxx_hal_rtc_ex.c **** #if defined(RTC_TAMPER3_SUPPORT)
 971:Drivers/STM32WBxx_HAL_Driver/Src/stm32wbxx_hal_rtc_ex.c **** /**
 972:Drivers/STM32WBxx_HAL_Driver/Src/stm32wbxx_hal_rtc_ex.c ****   * @brief  Handle Tamper 3 Polling.
 973:Drivers/STM32WBxx_HAL_Driver/Src/stm32wbxx_hal_rtc_ex.c ****   * @param hrtc RTC handle
 974:Drivers/STM32WBxx_HAL_Driver/Src/stm32wbxx_hal_rtc_ex.c ****   * @param Timeout Timeout duration
 975:Drivers/STM32WBxx_HAL_Driver/Src/stm32wbxx_hal_rtc_ex.c ****   * @retval HAL status
 976:Drivers/STM32WBxx_HAL_Driver/Src/stm32wbxx_hal_rtc_ex.c ****   */
 977:Drivers/STM32WBxx_HAL_Driver/Src/stm32wbxx_hal_rtc_ex.c **** HAL_StatusTypeDef HAL_RTCEx_PollForTamper3Event(RTC_HandleTypeDef *hrtc, uint32_t Timeout)
 978:Drivers/STM32WBxx_HAL_Driver/Src/stm32wbxx_hal_rtc_ex.c **** {
 1799              		.loc 1 978 1 is_stmt 1 view -0
 1800              		.cfi_startproc
 1801              		@ args = 0, pretend = 0, frame = 0
 1802              		@ frame_needed = 0, uses_anonymous_args = 0
 1803              		.loc 1 978 1 is_stmt 0 view .LVU611
 1804 0000 70B5     		push	{r4, r5, r6, lr}
 1805              	.LCFI15:
 1806              		.cfi_def_cfa_offset 16
 1807              		.cfi_offset 4, -16
 1808              		.cfi_offset 5, -12
 1809              		.cfi_offset 6, -8
 1810              		.cfi_offset 14, -4
 1811 0002 0446     		mov	r4, r0
 1812 0004 0D46     		mov	r5, r1
 979:Drivers/STM32WBxx_HAL_Driver/Src/stm32wbxx_hal_rtc_ex.c ****   uint32_t tickstart = HAL_GetTick();
 1813              		.loc 1 979 3 is_stmt 1 view .LVU612
 1814              		.loc 1 979 24 is_stmt 0 view .LVU613
 1815 0006 FFF7FEFF 		bl	HAL_GetTick
 1816              	.LVL88:
 1817              		.loc 1 979 24 view .LVU614
 1818 000a 0646     		mov	r6, r0
 1819              	.LVL89:
 980:Drivers/STM32WBxx_HAL_Driver/Src/stm32wbxx_hal_rtc_ex.c **** 
 981:Drivers/STM32WBxx_HAL_Driver/Src/stm32wbxx_hal_rtc_ex.c ****   /* Get the status of the Interrupt */
 982:Drivers/STM32WBxx_HAL_Driver/Src/stm32wbxx_hal_rtc_ex.c ****   while (__HAL_RTC_TAMPER_GET_FLAG(hrtc, RTC_FLAG_TAMP3F) == 0U)
 1820              		.loc 1 982 3 is_stmt 1 view .LVU615
 1821              	.L120:
 1822              		.loc 1 982 9 view .LVU616
 1823              		.loc 1 982 10 is_stmt 0 view .LVU617
ARM GAS  /var/folders/lt/l_qrc8c54t93n_phsj7cf5tc0000gn/T//cc0GZz77.s 			page 51


 1824 000c 2368     		ldr	r3, [r4]
 1825 000e DA68     		ldr	r2, [r3, #12]
 1826              		.loc 1 982 9 view .LVU618
 1827 0010 12F4004F 		tst	r2, #32768
 1828 0014 0DD1     		bne	.L125
 983:Drivers/STM32WBxx_HAL_Driver/Src/stm32wbxx_hal_rtc_ex.c ****   {
 984:Drivers/STM32WBxx_HAL_Driver/Src/stm32wbxx_hal_rtc_ex.c ****     if (Timeout != HAL_MAX_DELAY)
 1829              		.loc 1 984 5 is_stmt 1 view .LVU619
 1830              		.loc 1 984 8 is_stmt 0 view .LVU620
 1831 0016 B5F1FF3F 		cmp	r5, #-1
 1832 001a F7D0     		beq	.L120
 985:Drivers/STM32WBxx_HAL_Driver/Src/stm32wbxx_hal_rtc_ex.c ****     {
 986:Drivers/STM32WBxx_HAL_Driver/Src/stm32wbxx_hal_rtc_ex.c ****       if (((HAL_GetTick() - tickstart) > Timeout) || (Timeout == 0U))
 1833              		.loc 1 986 7 is_stmt 1 view .LVU621
 1834              		.loc 1 986 13 is_stmt 0 view .LVU622
 1835 001c FFF7FEFF 		bl	HAL_GetTick
 1836              	.LVL90:
 1837              		.loc 1 986 27 view .LVU623
 1838 0020 801B     		subs	r0, r0, r6
 1839              		.loc 1 986 10 view .LVU624
 1840 0022 A842     		cmp	r0, r5
 1841 0024 01D8     		bhi	.L121
 1842              		.loc 1 986 51 discriminator 1 view .LVU625
 1843 0026 002D     		cmp	r5, #0
 1844 0028 F0D1     		bne	.L120
 1845              	.L121:
 987:Drivers/STM32WBxx_HAL_Driver/Src/stm32wbxx_hal_rtc_ex.c ****       {
 988:Drivers/STM32WBxx_HAL_Driver/Src/stm32wbxx_hal_rtc_ex.c ****         hrtc->State = HAL_RTC_STATE_TIMEOUT;
 1846              		.loc 1 988 9 is_stmt 1 view .LVU626
 1847              		.loc 1 988 21 is_stmt 0 view .LVU627
 1848 002a 0320     		movs	r0, #3
 1849 002c 84F82100 		strb	r0, [r4, #33]
 989:Drivers/STM32WBxx_HAL_Driver/Src/stm32wbxx_hal_rtc_ex.c ****         return HAL_TIMEOUT;
 1850              		.loc 1 989 9 is_stmt 1 view .LVU628
 1851              		.loc 1 989 16 is_stmt 0 view .LVU629
 1852 0030 0EE0     		b	.L122
 1853              	.L125:
 990:Drivers/STM32WBxx_HAL_Driver/Src/stm32wbxx_hal_rtc_ex.c ****       }
 991:Drivers/STM32WBxx_HAL_Driver/Src/stm32wbxx_hal_rtc_ex.c ****     }
 992:Drivers/STM32WBxx_HAL_Driver/Src/stm32wbxx_hal_rtc_ex.c ****   }
 993:Drivers/STM32WBxx_HAL_Driver/Src/stm32wbxx_hal_rtc_ex.c **** 
 994:Drivers/STM32WBxx_HAL_Driver/Src/stm32wbxx_hal_rtc_ex.c ****   /* Clear the Tamper Flag */
 995:Drivers/STM32WBxx_HAL_Driver/Src/stm32wbxx_hal_rtc_ex.c ****   __HAL_RTC_TAMPER_CLEAR_FLAG(hrtc, RTC_FLAG_TAMP3F);
 1854              		.loc 1 995 3 is_stmt 1 view .LVU630
 1855 0032 DA68     		ldr	r2, [r3, #12]
 1856 0034 D2B2     		uxtb	r2, r2
 1857 0036 42F07F42 		orr	r2, r2, #-16777216
 1858 003a 42F47F02 		orr	r2, r2, #16711680
 1859 003e 42F4FE42 		orr	r2, r2, #32512
 1860 0042 42F07F02 		orr	r2, r2, #127
 1861 0046 DA60     		str	r2, [r3, #12]
 996:Drivers/STM32WBxx_HAL_Driver/Src/stm32wbxx_hal_rtc_ex.c **** 
 997:Drivers/STM32WBxx_HAL_Driver/Src/stm32wbxx_hal_rtc_ex.c ****   /* Change RTC state */
 998:Drivers/STM32WBxx_HAL_Driver/Src/stm32wbxx_hal_rtc_ex.c ****   hrtc->State = HAL_RTC_STATE_READY;
 1862              		.loc 1 998 3 view .LVU631
 1863              		.loc 1 998 15 is_stmt 0 view .LVU632
 1864 0048 0123     		movs	r3, #1
ARM GAS  /var/folders/lt/l_qrc8c54t93n_phsj7cf5tc0000gn/T//cc0GZz77.s 			page 52


 1865 004a 84F82130 		strb	r3, [r4, #33]
 999:Drivers/STM32WBxx_HAL_Driver/Src/stm32wbxx_hal_rtc_ex.c **** 
1000:Drivers/STM32WBxx_HAL_Driver/Src/stm32wbxx_hal_rtc_ex.c ****   return HAL_OK;
 1866              		.loc 1 1000 3 is_stmt 1 view .LVU633
 1867              		.loc 1 1000 10 is_stmt 0 view .LVU634
 1868 004e 0020     		movs	r0, #0
 1869              	.L122:
1001:Drivers/STM32WBxx_HAL_Driver/Src/stm32wbxx_hal_rtc_ex.c **** }
 1870              		.loc 1 1001 1 view .LVU635
 1871 0050 70BD     		pop	{r4, r5, r6, pc}
 1872              		.loc 1 1001 1 view .LVU636
 1873              		.cfi_endproc
 1874              	.LFE1121:
 1876              		.section	.text.HAL_RTCEx_SetWakeUpTimer,"ax",%progbits
 1877              		.align	1
 1878              		.global	HAL_RTCEx_SetWakeUpTimer
 1879              		.syntax unified
 1880              		.thumb
 1881              		.thumb_func
 1882              		.fpu fpv4-sp-d16
 1884              	HAL_RTCEx_SetWakeUpTimer:
 1885              	.LVL91:
 1886              	.LFB1122:
1002:Drivers/STM32WBxx_HAL_Driver/Src/stm32wbxx_hal_rtc_ex.c **** #endif /* RTC_TAMPER3_SUPPORT */
1003:Drivers/STM32WBxx_HAL_Driver/Src/stm32wbxx_hal_rtc_ex.c **** 
1004:Drivers/STM32WBxx_HAL_Driver/Src/stm32wbxx_hal_rtc_ex.c **** /**
1005:Drivers/STM32WBxx_HAL_Driver/Src/stm32wbxx_hal_rtc_ex.c ****   * @}
1006:Drivers/STM32WBxx_HAL_Driver/Src/stm32wbxx_hal_rtc_ex.c ****   */
1007:Drivers/STM32WBxx_HAL_Driver/Src/stm32wbxx_hal_rtc_ex.c **** 
1008:Drivers/STM32WBxx_HAL_Driver/Src/stm32wbxx_hal_rtc_ex.c **** /** @addtogroup RTCEx_Exported_Functions_Group2
1009:Drivers/STM32WBxx_HAL_Driver/Src/stm32wbxx_hal_rtc_ex.c ****   * @brief    RTC Wake-up functions
1010:Drivers/STM32WBxx_HAL_Driver/Src/stm32wbxx_hal_rtc_ex.c ****   *
1011:Drivers/STM32WBxx_HAL_Driver/Src/stm32wbxx_hal_rtc_ex.c **** @verbatim
1012:Drivers/STM32WBxx_HAL_Driver/Src/stm32wbxx_hal_rtc_ex.c ****  ===============================================================================
1013:Drivers/STM32WBxx_HAL_Driver/Src/stm32wbxx_hal_rtc_ex.c ****                         ##### RTC Wake-up functions #####
1014:Drivers/STM32WBxx_HAL_Driver/Src/stm32wbxx_hal_rtc_ex.c ****  ===============================================================================
1015:Drivers/STM32WBxx_HAL_Driver/Src/stm32wbxx_hal_rtc_ex.c **** 
1016:Drivers/STM32WBxx_HAL_Driver/Src/stm32wbxx_hal_rtc_ex.c ****  [..] This section provides functions allowing to configure Wake-up feature
1017:Drivers/STM32WBxx_HAL_Driver/Src/stm32wbxx_hal_rtc_ex.c **** 
1018:Drivers/STM32WBxx_HAL_Driver/Src/stm32wbxx_hal_rtc_ex.c **** @endverbatim
1019:Drivers/STM32WBxx_HAL_Driver/Src/stm32wbxx_hal_rtc_ex.c ****   * @{
1020:Drivers/STM32WBxx_HAL_Driver/Src/stm32wbxx_hal_rtc_ex.c ****   */
1021:Drivers/STM32WBxx_HAL_Driver/Src/stm32wbxx_hal_rtc_ex.c **** 
1022:Drivers/STM32WBxx_HAL_Driver/Src/stm32wbxx_hal_rtc_ex.c **** /**
1023:Drivers/STM32WBxx_HAL_Driver/Src/stm32wbxx_hal_rtc_ex.c ****   * @brief  Set wake up timer.
1024:Drivers/STM32WBxx_HAL_Driver/Src/stm32wbxx_hal_rtc_ex.c ****   * @param hrtc RTC handle
1025:Drivers/STM32WBxx_HAL_Driver/Src/stm32wbxx_hal_rtc_ex.c ****   * @param WakeUpCounter Wake up counter
1026:Drivers/STM32WBxx_HAL_Driver/Src/stm32wbxx_hal_rtc_ex.c ****   * @param WakeUpClock Wake up clock
1027:Drivers/STM32WBxx_HAL_Driver/Src/stm32wbxx_hal_rtc_ex.c ****   * @retval HAL status
1028:Drivers/STM32WBxx_HAL_Driver/Src/stm32wbxx_hal_rtc_ex.c ****   */
1029:Drivers/STM32WBxx_HAL_Driver/Src/stm32wbxx_hal_rtc_ex.c **** HAL_StatusTypeDef HAL_RTCEx_SetWakeUpTimer(RTC_HandleTypeDef *hrtc, uint32_t WakeUpCounter, uint32_
1030:Drivers/STM32WBxx_HAL_Driver/Src/stm32wbxx_hal_rtc_ex.c **** {
 1887              		.loc 1 1030 1 is_stmt 1 view -0
 1888              		.cfi_startproc
 1889              		@ args = 0, pretend = 0, frame = 0
 1890              		@ frame_needed = 0, uses_anonymous_args = 0
 1891              		.loc 1 1030 1 is_stmt 0 view .LVU638
ARM GAS  /var/folders/lt/l_qrc8c54t93n_phsj7cf5tc0000gn/T//cc0GZz77.s 			page 53


 1892 0000 F8B5     		push	{r3, r4, r5, r6, r7, lr}
 1893              	.LCFI16:
 1894              		.cfi_def_cfa_offset 24
 1895              		.cfi_offset 3, -24
 1896              		.cfi_offset 4, -20
 1897              		.cfi_offset 5, -16
 1898              		.cfi_offset 6, -12
 1899              		.cfi_offset 7, -8
 1900              		.cfi_offset 14, -4
1031:Drivers/STM32WBxx_HAL_Driver/Src/stm32wbxx_hal_rtc_ex.c ****   uint32_t tickstart;
 1901              		.loc 1 1031 3 is_stmt 1 view .LVU639
1032:Drivers/STM32WBxx_HAL_Driver/Src/stm32wbxx_hal_rtc_ex.c **** 
1033:Drivers/STM32WBxx_HAL_Driver/Src/stm32wbxx_hal_rtc_ex.c ****   /* Check the parameters */
1034:Drivers/STM32WBxx_HAL_Driver/Src/stm32wbxx_hal_rtc_ex.c ****   assert_param(IS_RTC_WAKEUP_CLOCK(WakeUpClock));
 1902              		.loc 1 1034 3 view .LVU640
1035:Drivers/STM32WBxx_HAL_Driver/Src/stm32wbxx_hal_rtc_ex.c ****   assert_param(IS_RTC_WAKEUP_COUNTER(WakeUpCounter));
 1903              		.loc 1 1035 3 view .LVU641
1036:Drivers/STM32WBxx_HAL_Driver/Src/stm32wbxx_hal_rtc_ex.c **** 
1037:Drivers/STM32WBxx_HAL_Driver/Src/stm32wbxx_hal_rtc_ex.c ****   /* Process Locked */
1038:Drivers/STM32WBxx_HAL_Driver/Src/stm32wbxx_hal_rtc_ex.c ****   __HAL_LOCK(hrtc);
 1904              		.loc 1 1038 3 view .LVU642
 1905              		.loc 1 1038 3 view .LVU643
 1906 0002 90F82030 		ldrb	r3, [r0, #32]	@ zero_extendqisi2
 1907 0006 012B     		cmp	r3, #1
 1908 0008 61D0     		beq	.L133
 1909 000a 0446     		mov	r4, r0
 1910 000c 0D46     		mov	r5, r1
 1911 000e 1646     		mov	r6, r2
 1912              		.loc 1 1038 3 discriminator 2 view .LVU644
 1913 0010 0123     		movs	r3, #1
 1914 0012 80F82030 		strb	r3, [r0, #32]
 1915              		.loc 1 1038 3 discriminator 2 view .LVU645
1039:Drivers/STM32WBxx_HAL_Driver/Src/stm32wbxx_hal_rtc_ex.c **** 
1040:Drivers/STM32WBxx_HAL_Driver/Src/stm32wbxx_hal_rtc_ex.c ****   hrtc->State = HAL_RTC_STATE_BUSY;
 1916              		.loc 1 1040 3 discriminator 2 view .LVU646
 1917              		.loc 1 1040 15 is_stmt 0 discriminator 2 view .LVU647
 1918 0016 0223     		movs	r3, #2
 1919 0018 80F82130 		strb	r3, [r0, #33]
1041:Drivers/STM32WBxx_HAL_Driver/Src/stm32wbxx_hal_rtc_ex.c **** 
1042:Drivers/STM32WBxx_HAL_Driver/Src/stm32wbxx_hal_rtc_ex.c ****   /* Disable the write protection for RTC registers */
1043:Drivers/STM32WBxx_HAL_Driver/Src/stm32wbxx_hal_rtc_ex.c ****   __HAL_RTC_WRITEPROTECTION_DISABLE(hrtc);
 1920              		.loc 1 1043 3 is_stmt 1 discriminator 2 view .LVU648
 1921              		.loc 1 1043 3 discriminator 2 view .LVU649
 1922 001c 0368     		ldr	r3, [r0]
 1923 001e CA22     		movs	r2, #202
 1924              	.LVL92:
 1925              		.loc 1 1043 3 is_stmt 0 discriminator 2 view .LVU650
 1926 0020 5A62     		str	r2, [r3, #36]
 1927              		.loc 1 1043 3 is_stmt 1 discriminator 2 view .LVU651
 1928 0022 0368     		ldr	r3, [r0]
 1929 0024 5322     		movs	r2, #83
 1930 0026 5A62     		str	r2, [r3, #36]
 1931              		.loc 1 1043 3 discriminator 2 view .LVU652
1044:Drivers/STM32WBxx_HAL_Driver/Src/stm32wbxx_hal_rtc_ex.c **** 
1045:Drivers/STM32WBxx_HAL_Driver/Src/stm32wbxx_hal_rtc_ex.c ****   /*Check RTC WUTWF flag is reset only when wake up timer enabled*/
1046:Drivers/STM32WBxx_HAL_Driver/Src/stm32wbxx_hal_rtc_ex.c ****   if ((hrtc->Instance->CR & RTC_CR_WUTE) != 0U)
 1932              		.loc 1 1046 3 discriminator 2 view .LVU653
ARM GAS  /var/folders/lt/l_qrc8c54t93n_phsj7cf5tc0000gn/T//cc0GZz77.s 			page 54


 1933              		.loc 1 1046 12 is_stmt 0 discriminator 2 view .LVU654
 1934 0028 0368     		ldr	r3, [r0]
 1935              		.loc 1 1046 22 discriminator 2 view .LVU655
 1936 002a 9B68     		ldr	r3, [r3, #8]
 1937              		.loc 1 1046 6 discriminator 2 view .LVU656
 1938 002c 13F4806F 		tst	r3, #1024
 1939 0030 17D0     		beq	.L128
1047:Drivers/STM32WBxx_HAL_Driver/Src/stm32wbxx_hal_rtc_ex.c ****   {
1048:Drivers/STM32WBxx_HAL_Driver/Src/stm32wbxx_hal_rtc_ex.c ****     tickstart = HAL_GetTick();
 1940              		.loc 1 1048 5 is_stmt 1 view .LVU657
 1941              		.loc 1 1048 17 is_stmt 0 view .LVU658
 1942 0032 FFF7FEFF 		bl	HAL_GetTick
 1943              	.LVL93:
 1944              		.loc 1 1048 17 view .LVU659
 1945 0036 0746     		mov	r7, r0
 1946              	.LVL94:
1049:Drivers/STM32WBxx_HAL_Driver/Src/stm32wbxx_hal_rtc_ex.c **** 
1050:Drivers/STM32WBxx_HAL_Driver/Src/stm32wbxx_hal_rtc_ex.c ****     /* Wait till RTC WUTWF flag is reset and if Time out is reached exit */
1051:Drivers/STM32WBxx_HAL_Driver/Src/stm32wbxx_hal_rtc_ex.c ****     while (__HAL_RTC_WAKEUPTIMER_GET_FLAG(hrtc, RTC_FLAG_WUTWF) == 1U)
 1947              		.loc 1 1051 5 is_stmt 1 view .LVU660
 1948              	.L129:
 1949              		.loc 1 1051 11 view .LVU661
 1950              		.loc 1 1051 12 is_stmt 0 view .LVU662
 1951 0038 2368     		ldr	r3, [r4]
 1952 003a DB68     		ldr	r3, [r3, #12]
 1953              		.loc 1 1051 11 view .LVU663
 1954 003c 13F0040F 		tst	r3, #4
 1955 0040 0FD0     		beq	.L128
1052:Drivers/STM32WBxx_HAL_Driver/Src/stm32wbxx_hal_rtc_ex.c ****     {
1053:Drivers/STM32WBxx_HAL_Driver/Src/stm32wbxx_hal_rtc_ex.c ****       if ((HAL_GetTick() - tickstart) > RTC_TIMEOUT_VALUE)
 1956              		.loc 1 1053 7 is_stmt 1 view .LVU664
 1957              		.loc 1 1053 12 is_stmt 0 view .LVU665
 1958 0042 FFF7FEFF 		bl	HAL_GetTick
 1959              	.LVL95:
 1960              		.loc 1 1053 26 view .LVU666
 1961 0046 C01B     		subs	r0, r0, r7
 1962              		.loc 1 1053 10 view .LVU667
 1963 0048 B0F57A7F 		cmp	r0, #1000
 1964 004c F4D9     		bls	.L129
1054:Drivers/STM32WBxx_HAL_Driver/Src/stm32wbxx_hal_rtc_ex.c ****       {
1055:Drivers/STM32WBxx_HAL_Driver/Src/stm32wbxx_hal_rtc_ex.c ****         /* Enable the write protection for RTC registers */
1056:Drivers/STM32WBxx_HAL_Driver/Src/stm32wbxx_hal_rtc_ex.c ****         __HAL_RTC_WRITEPROTECTION_ENABLE(hrtc);
 1965              		.loc 1 1056 9 is_stmt 1 view .LVU668
 1966              		.loc 1 1056 9 view .LVU669
 1967 004e 2368     		ldr	r3, [r4]
 1968 0050 FF22     		movs	r2, #255
 1969 0052 5A62     		str	r2, [r3, #36]
 1970              		.loc 1 1056 9 view .LVU670
1057:Drivers/STM32WBxx_HAL_Driver/Src/stm32wbxx_hal_rtc_ex.c **** 
1058:Drivers/STM32WBxx_HAL_Driver/Src/stm32wbxx_hal_rtc_ex.c ****         hrtc->State = HAL_RTC_STATE_TIMEOUT;
 1971              		.loc 1 1058 9 view .LVU671
 1972              		.loc 1 1058 21 is_stmt 0 view .LVU672
 1973 0054 0320     		movs	r0, #3
 1974 0056 84F82100 		strb	r0, [r4, #33]
1059:Drivers/STM32WBxx_HAL_Driver/Src/stm32wbxx_hal_rtc_ex.c **** 
1060:Drivers/STM32WBxx_HAL_Driver/Src/stm32wbxx_hal_rtc_ex.c ****         /* Process Unlocked */
1061:Drivers/STM32WBxx_HAL_Driver/Src/stm32wbxx_hal_rtc_ex.c ****         __HAL_UNLOCK(hrtc);
ARM GAS  /var/folders/lt/l_qrc8c54t93n_phsj7cf5tc0000gn/T//cc0GZz77.s 			page 55


 1975              		.loc 1 1061 9 is_stmt 1 view .LVU673
 1976              		.loc 1 1061 9 view .LVU674
 1977 005a 0023     		movs	r3, #0
 1978 005c 84F82030 		strb	r3, [r4, #32]
 1979              		.loc 1 1061 9 view .LVU675
1062:Drivers/STM32WBxx_HAL_Driver/Src/stm32wbxx_hal_rtc_ex.c **** 
1063:Drivers/STM32WBxx_HAL_Driver/Src/stm32wbxx_hal_rtc_ex.c ****         return HAL_TIMEOUT;
 1980              		.loc 1 1063 9 view .LVU676
 1981              		.loc 1 1063 16 is_stmt 0 view .LVU677
 1982 0060 34E0     		b	.L127
 1983              	.LVL96:
 1984              	.L128:
1064:Drivers/STM32WBxx_HAL_Driver/Src/stm32wbxx_hal_rtc_ex.c ****       }
1065:Drivers/STM32WBxx_HAL_Driver/Src/stm32wbxx_hal_rtc_ex.c ****     }
1066:Drivers/STM32WBxx_HAL_Driver/Src/stm32wbxx_hal_rtc_ex.c ****   }
1067:Drivers/STM32WBxx_HAL_Driver/Src/stm32wbxx_hal_rtc_ex.c **** 
1068:Drivers/STM32WBxx_HAL_Driver/Src/stm32wbxx_hal_rtc_ex.c ****   __HAL_RTC_WAKEUPTIMER_DISABLE(hrtc);
 1985              		.loc 1 1068 3 is_stmt 1 view .LVU678
 1986 0062 2268     		ldr	r2, [r4]
 1987 0064 9368     		ldr	r3, [r2, #8]
 1988 0066 23F48063 		bic	r3, r3, #1024
 1989 006a 9360     		str	r3, [r2, #8]
1069:Drivers/STM32WBxx_HAL_Driver/Src/stm32wbxx_hal_rtc_ex.c **** 
1070:Drivers/STM32WBxx_HAL_Driver/Src/stm32wbxx_hal_rtc_ex.c ****   tickstart = HAL_GetTick();
 1990              		.loc 1 1070 3 view .LVU679
 1991              		.loc 1 1070 15 is_stmt 0 view .LVU680
 1992 006c FFF7FEFF 		bl	HAL_GetTick
 1993              	.LVL97:
 1994 0070 0746     		mov	r7, r0
 1995              	.LVL98:
1071:Drivers/STM32WBxx_HAL_Driver/Src/stm32wbxx_hal_rtc_ex.c **** 
1072:Drivers/STM32WBxx_HAL_Driver/Src/stm32wbxx_hal_rtc_ex.c ****   /* Wait till RTC WUTWF flag is set and if Time out is reached exit */
1073:Drivers/STM32WBxx_HAL_Driver/Src/stm32wbxx_hal_rtc_ex.c ****   while (__HAL_RTC_WAKEUPTIMER_GET_FLAG(hrtc, RTC_FLAG_WUTWF) == 0U)
 1996              		.loc 1 1073 3 is_stmt 1 view .LVU681
 1997              	.L131:
 1998              		.loc 1 1073 9 view .LVU682
 1999              		.loc 1 1073 10 is_stmt 0 view .LVU683
 2000 0072 2368     		ldr	r3, [r4]
 2001 0074 DA68     		ldr	r2, [r3, #12]
 2002              		.loc 1 1073 9 view .LVU684
 2003 0076 12F0040F 		tst	r2, #4
 2004 007a 0FD1     		bne	.L135
1074:Drivers/STM32WBxx_HAL_Driver/Src/stm32wbxx_hal_rtc_ex.c ****   {
1075:Drivers/STM32WBxx_HAL_Driver/Src/stm32wbxx_hal_rtc_ex.c ****     if ((HAL_GetTick() - tickstart) > RTC_TIMEOUT_VALUE)
 2005              		.loc 1 1075 5 is_stmt 1 view .LVU685
 2006              		.loc 1 1075 10 is_stmt 0 view .LVU686
 2007 007c FFF7FEFF 		bl	HAL_GetTick
 2008              	.LVL99:
 2009              		.loc 1 1075 24 view .LVU687
 2010 0080 C31B     		subs	r3, r0, r7
 2011              		.loc 1 1075 8 view .LVU688
 2012 0082 B3F57A7F 		cmp	r3, #1000
 2013 0086 F4D9     		bls	.L131
1076:Drivers/STM32WBxx_HAL_Driver/Src/stm32wbxx_hal_rtc_ex.c ****     {
1077:Drivers/STM32WBxx_HAL_Driver/Src/stm32wbxx_hal_rtc_ex.c ****       /* Enable the write protection for RTC registers */
1078:Drivers/STM32WBxx_HAL_Driver/Src/stm32wbxx_hal_rtc_ex.c ****       __HAL_RTC_WRITEPROTECTION_ENABLE(hrtc);
 2014              		.loc 1 1078 7 is_stmt 1 view .LVU689
ARM GAS  /var/folders/lt/l_qrc8c54t93n_phsj7cf5tc0000gn/T//cc0GZz77.s 			page 56


 2015              		.loc 1 1078 7 view .LVU690
 2016 0088 2368     		ldr	r3, [r4]
 2017 008a FF22     		movs	r2, #255
 2018 008c 5A62     		str	r2, [r3, #36]
 2019              		.loc 1 1078 7 view .LVU691
1079:Drivers/STM32WBxx_HAL_Driver/Src/stm32wbxx_hal_rtc_ex.c **** 
1080:Drivers/STM32WBxx_HAL_Driver/Src/stm32wbxx_hal_rtc_ex.c ****       hrtc->State = HAL_RTC_STATE_TIMEOUT;
 2020              		.loc 1 1080 7 view .LVU692
 2021              		.loc 1 1080 19 is_stmt 0 view .LVU693
 2022 008e 0320     		movs	r0, #3
 2023 0090 84F82100 		strb	r0, [r4, #33]
1081:Drivers/STM32WBxx_HAL_Driver/Src/stm32wbxx_hal_rtc_ex.c **** 
1082:Drivers/STM32WBxx_HAL_Driver/Src/stm32wbxx_hal_rtc_ex.c ****       /* Process Unlocked */
1083:Drivers/STM32WBxx_HAL_Driver/Src/stm32wbxx_hal_rtc_ex.c ****       __HAL_UNLOCK(hrtc);
 2024              		.loc 1 1083 7 is_stmt 1 view .LVU694
 2025              		.loc 1 1083 7 view .LVU695
 2026 0094 0023     		movs	r3, #0
 2027 0096 84F82030 		strb	r3, [r4, #32]
 2028              		.loc 1 1083 7 view .LVU696
1084:Drivers/STM32WBxx_HAL_Driver/Src/stm32wbxx_hal_rtc_ex.c **** 
1085:Drivers/STM32WBxx_HAL_Driver/Src/stm32wbxx_hal_rtc_ex.c ****       return HAL_TIMEOUT;
 2029              		.loc 1 1085 7 view .LVU697
 2030              		.loc 1 1085 14 is_stmt 0 view .LVU698
 2031 009a 17E0     		b	.L127
 2032              	.L135:
1086:Drivers/STM32WBxx_HAL_Driver/Src/stm32wbxx_hal_rtc_ex.c ****     }
1087:Drivers/STM32WBxx_HAL_Driver/Src/stm32wbxx_hal_rtc_ex.c ****   }
1088:Drivers/STM32WBxx_HAL_Driver/Src/stm32wbxx_hal_rtc_ex.c **** 
1089:Drivers/STM32WBxx_HAL_Driver/Src/stm32wbxx_hal_rtc_ex.c ****   /* Clear the Wakeup Timer clock source bits in CR register */
1090:Drivers/STM32WBxx_HAL_Driver/Src/stm32wbxx_hal_rtc_ex.c ****   hrtc->Instance->CR &= (uint32_t)~RTC_CR_WUCKSEL;
 2033              		.loc 1 1090 3 is_stmt 1 view .LVU699
 2034              		.loc 1 1090 22 is_stmt 0 view .LVU700
 2035 009c 9A68     		ldr	r2, [r3, #8]
 2036 009e 22F00702 		bic	r2, r2, #7
 2037 00a2 9A60     		str	r2, [r3, #8]
1091:Drivers/STM32WBxx_HAL_Driver/Src/stm32wbxx_hal_rtc_ex.c **** 
1092:Drivers/STM32WBxx_HAL_Driver/Src/stm32wbxx_hal_rtc_ex.c ****   /* Configure the clock source */
1093:Drivers/STM32WBxx_HAL_Driver/Src/stm32wbxx_hal_rtc_ex.c ****   hrtc->Instance->CR |= (uint32_t)WakeUpClock;
 2038              		.loc 1 1093 3 is_stmt 1 view .LVU701
 2039              		.loc 1 1093 7 is_stmt 0 view .LVU702
 2040 00a4 2268     		ldr	r2, [r4]
 2041              		.loc 1 1093 22 view .LVU703
 2042 00a6 9368     		ldr	r3, [r2, #8]
 2043 00a8 1E43     		orrs	r6, r6, r3
 2044              	.LVL100:
 2045              		.loc 1 1093 22 view .LVU704
 2046 00aa 9660     		str	r6, [r2, #8]
1094:Drivers/STM32WBxx_HAL_Driver/Src/stm32wbxx_hal_rtc_ex.c **** 
1095:Drivers/STM32WBxx_HAL_Driver/Src/stm32wbxx_hal_rtc_ex.c ****   /* Configure the Wakeup Timer counter */
1096:Drivers/STM32WBxx_HAL_Driver/Src/stm32wbxx_hal_rtc_ex.c ****   hrtc->Instance->WUTR = (uint32_t)WakeUpCounter;
 2047              		.loc 1 1096 3 is_stmt 1 view .LVU705
 2048              		.loc 1 1096 7 is_stmt 0 view .LVU706
 2049 00ac 2368     		ldr	r3, [r4]
 2050              		.loc 1 1096 24 view .LVU707
 2051 00ae 5D61     		str	r5, [r3, #20]
1097:Drivers/STM32WBxx_HAL_Driver/Src/stm32wbxx_hal_rtc_ex.c **** 
1098:Drivers/STM32WBxx_HAL_Driver/Src/stm32wbxx_hal_rtc_ex.c ****   /* Enable the Wakeup Timer */
ARM GAS  /var/folders/lt/l_qrc8c54t93n_phsj7cf5tc0000gn/T//cc0GZz77.s 			page 57


1099:Drivers/STM32WBxx_HAL_Driver/Src/stm32wbxx_hal_rtc_ex.c ****   __HAL_RTC_WAKEUPTIMER_ENABLE(hrtc);
 2052              		.loc 1 1099 3 is_stmt 1 view .LVU708
 2053 00b0 2268     		ldr	r2, [r4]
 2054 00b2 9368     		ldr	r3, [r2, #8]
 2055 00b4 43F48063 		orr	r3, r3, #1024
 2056 00b8 9360     		str	r3, [r2, #8]
1100:Drivers/STM32WBxx_HAL_Driver/Src/stm32wbxx_hal_rtc_ex.c **** 
1101:Drivers/STM32WBxx_HAL_Driver/Src/stm32wbxx_hal_rtc_ex.c ****   /* Enable the write protection for RTC registers */
1102:Drivers/STM32WBxx_HAL_Driver/Src/stm32wbxx_hal_rtc_ex.c ****   __HAL_RTC_WRITEPROTECTION_ENABLE(hrtc);
 2057              		.loc 1 1102 3 view .LVU709
 2058              		.loc 1 1102 3 view .LVU710
 2059 00ba 2368     		ldr	r3, [r4]
 2060 00bc FF22     		movs	r2, #255
 2061 00be 5A62     		str	r2, [r3, #36]
 2062              		.loc 1 1102 3 view .LVU711
1103:Drivers/STM32WBxx_HAL_Driver/Src/stm32wbxx_hal_rtc_ex.c **** 
1104:Drivers/STM32WBxx_HAL_Driver/Src/stm32wbxx_hal_rtc_ex.c ****   hrtc->State = HAL_RTC_STATE_READY;
 2063              		.loc 1 1104 3 view .LVU712
 2064              		.loc 1 1104 15 is_stmt 0 view .LVU713
 2065 00c0 0123     		movs	r3, #1
 2066 00c2 84F82130 		strb	r3, [r4, #33]
1105:Drivers/STM32WBxx_HAL_Driver/Src/stm32wbxx_hal_rtc_ex.c **** 
1106:Drivers/STM32WBxx_HAL_Driver/Src/stm32wbxx_hal_rtc_ex.c ****   /* Process Unlocked */
1107:Drivers/STM32WBxx_HAL_Driver/Src/stm32wbxx_hal_rtc_ex.c ****   __HAL_UNLOCK(hrtc);
 2067              		.loc 1 1107 3 is_stmt 1 view .LVU714
 2068              		.loc 1 1107 3 view .LVU715
 2069 00c6 0020     		movs	r0, #0
 2070 00c8 84F82000 		strb	r0, [r4, #32]
 2071              		.loc 1 1107 3 view .LVU716
1108:Drivers/STM32WBxx_HAL_Driver/Src/stm32wbxx_hal_rtc_ex.c **** 
1109:Drivers/STM32WBxx_HAL_Driver/Src/stm32wbxx_hal_rtc_ex.c ****   return HAL_OK;
 2072              		.loc 1 1109 3 view .LVU717
 2073              	.LVL101:
 2074              	.L127:
1110:Drivers/STM32WBxx_HAL_Driver/Src/stm32wbxx_hal_rtc_ex.c **** }
 2075              		.loc 1 1110 1 is_stmt 0 view .LVU718
 2076 00cc F8BD     		pop	{r3, r4, r5, r6, r7, pc}
 2077              	.LVL102:
 2078              	.L133:
1038:Drivers/STM32WBxx_HAL_Driver/Src/stm32wbxx_hal_rtc_ex.c **** 
 2079              		.loc 1 1038 3 view .LVU719
 2080 00ce 0220     		movs	r0, #2
 2081              	.LVL103:
1038:Drivers/STM32WBxx_HAL_Driver/Src/stm32wbxx_hal_rtc_ex.c **** 
 2082              		.loc 1 1038 3 view .LVU720
 2083 00d0 FCE7     		b	.L127
 2084              		.cfi_endproc
 2085              	.LFE1122:
 2087              		.section	.text.HAL_RTCEx_SetWakeUpTimer_IT,"ax",%progbits
 2088              		.align	1
 2089              		.global	HAL_RTCEx_SetWakeUpTimer_IT
 2090              		.syntax unified
 2091              		.thumb
 2092              		.thumb_func
 2093              		.fpu fpv4-sp-d16
 2095              	HAL_RTCEx_SetWakeUpTimer_IT:
 2096              	.LVL104:
ARM GAS  /var/folders/lt/l_qrc8c54t93n_phsj7cf5tc0000gn/T//cc0GZz77.s 			page 58


 2097              	.LFB1123:
1111:Drivers/STM32WBxx_HAL_Driver/Src/stm32wbxx_hal_rtc_ex.c **** 
1112:Drivers/STM32WBxx_HAL_Driver/Src/stm32wbxx_hal_rtc_ex.c **** /**
1113:Drivers/STM32WBxx_HAL_Driver/Src/stm32wbxx_hal_rtc_ex.c ****   * @brief  Set wake up timer with interrupt.
1114:Drivers/STM32WBxx_HAL_Driver/Src/stm32wbxx_hal_rtc_ex.c ****   * @param hrtc RTC handle
1115:Drivers/STM32WBxx_HAL_Driver/Src/stm32wbxx_hal_rtc_ex.c ****   * @param WakeUpCounter Wake up counter
1116:Drivers/STM32WBxx_HAL_Driver/Src/stm32wbxx_hal_rtc_ex.c ****   * @param WakeUpClock Wake up clock
1117:Drivers/STM32WBxx_HAL_Driver/Src/stm32wbxx_hal_rtc_ex.c ****   * @retval HAL status
1118:Drivers/STM32WBxx_HAL_Driver/Src/stm32wbxx_hal_rtc_ex.c ****   */
1119:Drivers/STM32WBxx_HAL_Driver/Src/stm32wbxx_hal_rtc_ex.c **** HAL_StatusTypeDef HAL_RTCEx_SetWakeUpTimer_IT(RTC_HandleTypeDef *hrtc, uint32_t WakeUpCounter, uint
1120:Drivers/STM32WBxx_HAL_Driver/Src/stm32wbxx_hal_rtc_ex.c **** {
 2098              		.loc 1 1120 1 is_stmt 1 view -0
 2099              		.cfi_startproc
 2100              		@ args = 0, pretend = 0, frame = 0
 2101              		@ frame_needed = 0, uses_anonymous_args = 0
 2102              		.loc 1 1120 1 is_stmt 0 view .LVU722
 2103 0000 F8B5     		push	{r3, r4, r5, r6, r7, lr}
 2104              	.LCFI17:
 2105              		.cfi_def_cfa_offset 24
 2106              		.cfi_offset 3, -24
 2107              		.cfi_offset 4, -20
 2108              		.cfi_offset 5, -16
 2109              		.cfi_offset 6, -12
 2110              		.cfi_offset 7, -8
 2111              		.cfi_offset 14, -4
1121:Drivers/STM32WBxx_HAL_Driver/Src/stm32wbxx_hal_rtc_ex.c ****   uint32_t tickstart;
 2112              		.loc 1 1121 3 is_stmt 1 view .LVU723
1122:Drivers/STM32WBxx_HAL_Driver/Src/stm32wbxx_hal_rtc_ex.c **** 
1123:Drivers/STM32WBxx_HAL_Driver/Src/stm32wbxx_hal_rtc_ex.c ****   /* Check the parameters */
1124:Drivers/STM32WBxx_HAL_Driver/Src/stm32wbxx_hal_rtc_ex.c ****   assert_param(IS_RTC_WAKEUP_CLOCK(WakeUpClock));
 2113              		.loc 1 1124 3 view .LVU724
1125:Drivers/STM32WBxx_HAL_Driver/Src/stm32wbxx_hal_rtc_ex.c ****   assert_param(IS_RTC_WAKEUP_COUNTER(WakeUpCounter));
 2114              		.loc 1 1125 3 view .LVU725
1126:Drivers/STM32WBxx_HAL_Driver/Src/stm32wbxx_hal_rtc_ex.c **** 
1127:Drivers/STM32WBxx_HAL_Driver/Src/stm32wbxx_hal_rtc_ex.c ****   /* Process Locked */
1128:Drivers/STM32WBxx_HAL_Driver/Src/stm32wbxx_hal_rtc_ex.c ****   __HAL_LOCK(hrtc);
 2115              		.loc 1 1128 3 view .LVU726
 2116              		.loc 1 1128 3 view .LVU727
 2117 0002 90F82030 		ldrb	r3, [r0, #32]	@ zero_extendqisi2
 2118 0006 012B     		cmp	r3, #1
 2119 0008 77D0     		beq	.L143
 2120 000a 0446     		mov	r4, r0
 2121 000c 0E46     		mov	r6, r1
 2122 000e 1546     		mov	r5, r2
 2123              		.loc 1 1128 3 discriminator 2 view .LVU728
 2124 0010 0123     		movs	r3, #1
 2125 0012 80F82030 		strb	r3, [r0, #32]
 2126              		.loc 1 1128 3 discriminator 2 view .LVU729
1129:Drivers/STM32WBxx_HAL_Driver/Src/stm32wbxx_hal_rtc_ex.c **** 
1130:Drivers/STM32WBxx_HAL_Driver/Src/stm32wbxx_hal_rtc_ex.c ****   hrtc->State = HAL_RTC_STATE_BUSY;
 2127              		.loc 1 1130 3 discriminator 2 view .LVU730
 2128              		.loc 1 1130 15 is_stmt 0 discriminator 2 view .LVU731
 2129 0016 0223     		movs	r3, #2
 2130 0018 80F82130 		strb	r3, [r0, #33]
1131:Drivers/STM32WBxx_HAL_Driver/Src/stm32wbxx_hal_rtc_ex.c **** 
1132:Drivers/STM32WBxx_HAL_Driver/Src/stm32wbxx_hal_rtc_ex.c ****   /* Disable the write protection for RTC registers */
1133:Drivers/STM32WBxx_HAL_Driver/Src/stm32wbxx_hal_rtc_ex.c ****   __HAL_RTC_WRITEPROTECTION_DISABLE(hrtc);
ARM GAS  /var/folders/lt/l_qrc8c54t93n_phsj7cf5tc0000gn/T//cc0GZz77.s 			page 59


 2131              		.loc 1 1133 3 is_stmt 1 discriminator 2 view .LVU732
 2132              		.loc 1 1133 3 discriminator 2 view .LVU733
 2133 001c 0368     		ldr	r3, [r0]
 2134 001e CA22     		movs	r2, #202
 2135              	.LVL105:
 2136              		.loc 1 1133 3 is_stmt 0 discriminator 2 view .LVU734
 2137 0020 5A62     		str	r2, [r3, #36]
 2138              		.loc 1 1133 3 is_stmt 1 discriminator 2 view .LVU735
 2139 0022 0368     		ldr	r3, [r0]
 2140 0024 5322     		movs	r2, #83
 2141 0026 5A62     		str	r2, [r3, #36]
 2142              		.loc 1 1133 3 discriminator 2 view .LVU736
1134:Drivers/STM32WBxx_HAL_Driver/Src/stm32wbxx_hal_rtc_ex.c **** 
1135:Drivers/STM32WBxx_HAL_Driver/Src/stm32wbxx_hal_rtc_ex.c ****   /*Check RTC WUTWF flag is reset only when wake up timer enabled*/
1136:Drivers/STM32WBxx_HAL_Driver/Src/stm32wbxx_hal_rtc_ex.c ****   if ((hrtc->Instance->CR & RTC_CR_WUTE) != 0U)
 2143              		.loc 1 1136 3 discriminator 2 view .LVU737
 2144              		.loc 1 1136 12 is_stmt 0 discriminator 2 view .LVU738
 2145 0028 0368     		ldr	r3, [r0]
 2146              		.loc 1 1136 22 discriminator 2 view .LVU739
 2147 002a 9B68     		ldr	r3, [r3, #8]
 2148              		.loc 1 1136 6 discriminator 2 view .LVU740
 2149 002c 13F4806F 		tst	r3, #1024
 2150 0030 17D0     		beq	.L138
1137:Drivers/STM32WBxx_HAL_Driver/Src/stm32wbxx_hal_rtc_ex.c ****   {
1138:Drivers/STM32WBxx_HAL_Driver/Src/stm32wbxx_hal_rtc_ex.c ****     tickstart = HAL_GetTick();
 2151              		.loc 1 1138 5 is_stmt 1 view .LVU741
 2152              		.loc 1 1138 17 is_stmt 0 view .LVU742
 2153 0032 FFF7FEFF 		bl	HAL_GetTick
 2154              	.LVL106:
 2155              		.loc 1 1138 17 view .LVU743
 2156 0036 0746     		mov	r7, r0
 2157              	.LVL107:
1139:Drivers/STM32WBxx_HAL_Driver/Src/stm32wbxx_hal_rtc_ex.c **** 
1140:Drivers/STM32WBxx_HAL_Driver/Src/stm32wbxx_hal_rtc_ex.c ****     /* Wait till RTC WUTWF flag is reset and if Time out is reached exit */
1141:Drivers/STM32WBxx_HAL_Driver/Src/stm32wbxx_hal_rtc_ex.c ****     while (__HAL_RTC_WAKEUPTIMER_GET_FLAG(hrtc, RTC_FLAG_WUTWF) == 1U)
 2158              		.loc 1 1141 5 is_stmt 1 view .LVU744
 2159              	.L139:
 2160              		.loc 1 1141 11 view .LVU745
 2161              		.loc 1 1141 12 is_stmt 0 view .LVU746
 2162 0038 2368     		ldr	r3, [r4]
 2163 003a DB68     		ldr	r3, [r3, #12]
 2164              		.loc 1 1141 11 view .LVU747
 2165 003c 13F0040F 		tst	r3, #4
 2166 0040 0FD0     		beq	.L138
1142:Drivers/STM32WBxx_HAL_Driver/Src/stm32wbxx_hal_rtc_ex.c ****     {
1143:Drivers/STM32WBxx_HAL_Driver/Src/stm32wbxx_hal_rtc_ex.c ****       if ((HAL_GetTick() - tickstart) > RTC_TIMEOUT_VALUE)
 2167              		.loc 1 1143 7 is_stmt 1 view .LVU748
 2168              		.loc 1 1143 12 is_stmt 0 view .LVU749
 2169 0042 FFF7FEFF 		bl	HAL_GetTick
 2170              	.LVL108:
 2171              		.loc 1 1143 26 view .LVU750
 2172 0046 C01B     		subs	r0, r0, r7
 2173              		.loc 1 1143 10 view .LVU751
 2174 0048 B0F57A7F 		cmp	r0, #1000
 2175 004c F4D9     		bls	.L139
1144:Drivers/STM32WBxx_HAL_Driver/Src/stm32wbxx_hal_rtc_ex.c ****       {
1145:Drivers/STM32WBxx_HAL_Driver/Src/stm32wbxx_hal_rtc_ex.c ****         /* Enable the write protection for RTC registers */
ARM GAS  /var/folders/lt/l_qrc8c54t93n_phsj7cf5tc0000gn/T//cc0GZz77.s 			page 60


1146:Drivers/STM32WBxx_HAL_Driver/Src/stm32wbxx_hal_rtc_ex.c ****         __HAL_RTC_WRITEPROTECTION_ENABLE(hrtc);
 2176              		.loc 1 1146 9 is_stmt 1 view .LVU752
 2177              		.loc 1 1146 9 view .LVU753
 2178 004e 2368     		ldr	r3, [r4]
 2179 0050 FF22     		movs	r2, #255
 2180 0052 5A62     		str	r2, [r3, #36]
 2181              		.loc 1 1146 9 view .LVU754
1147:Drivers/STM32WBxx_HAL_Driver/Src/stm32wbxx_hal_rtc_ex.c **** 
1148:Drivers/STM32WBxx_HAL_Driver/Src/stm32wbxx_hal_rtc_ex.c ****         hrtc->State = HAL_RTC_STATE_TIMEOUT;
 2182              		.loc 1 1148 9 view .LVU755
 2183              		.loc 1 1148 21 is_stmt 0 view .LVU756
 2184 0054 0320     		movs	r0, #3
 2185 0056 84F82100 		strb	r0, [r4, #33]
1149:Drivers/STM32WBxx_HAL_Driver/Src/stm32wbxx_hal_rtc_ex.c **** 
1150:Drivers/STM32WBxx_HAL_Driver/Src/stm32wbxx_hal_rtc_ex.c ****         /* Process Unlocked */
1151:Drivers/STM32WBxx_HAL_Driver/Src/stm32wbxx_hal_rtc_ex.c ****         __HAL_UNLOCK(hrtc);
 2186              		.loc 1 1151 9 is_stmt 1 view .LVU757
 2187              		.loc 1 1151 9 view .LVU758
 2188 005a 0023     		movs	r3, #0
 2189 005c 84F82030 		strb	r3, [r4, #32]
 2190              		.loc 1 1151 9 view .LVU759
1152:Drivers/STM32WBxx_HAL_Driver/Src/stm32wbxx_hal_rtc_ex.c **** 
1153:Drivers/STM32WBxx_HAL_Driver/Src/stm32wbxx_hal_rtc_ex.c ****         return HAL_TIMEOUT;
 2191              		.loc 1 1153 9 view .LVU760
 2192              		.loc 1 1153 16 is_stmt 0 view .LVU761
 2193 0060 4AE0     		b	.L137
 2194              	.LVL109:
 2195              	.L138:
1154:Drivers/STM32WBxx_HAL_Driver/Src/stm32wbxx_hal_rtc_ex.c ****       }
1155:Drivers/STM32WBxx_HAL_Driver/Src/stm32wbxx_hal_rtc_ex.c ****     }
1156:Drivers/STM32WBxx_HAL_Driver/Src/stm32wbxx_hal_rtc_ex.c ****   }
1157:Drivers/STM32WBxx_HAL_Driver/Src/stm32wbxx_hal_rtc_ex.c ****   /* Disable the Wake-Up timer */
1158:Drivers/STM32WBxx_HAL_Driver/Src/stm32wbxx_hal_rtc_ex.c ****   __HAL_RTC_WAKEUPTIMER_DISABLE(hrtc);
 2196              		.loc 1 1158 3 is_stmt 1 view .LVU762
 2197 0062 2268     		ldr	r2, [r4]
 2198 0064 9368     		ldr	r3, [r2, #8]
 2199 0066 23F48063 		bic	r3, r3, #1024
 2200 006a 9360     		str	r3, [r2, #8]
1159:Drivers/STM32WBxx_HAL_Driver/Src/stm32wbxx_hal_rtc_ex.c **** 
1160:Drivers/STM32WBxx_HAL_Driver/Src/stm32wbxx_hal_rtc_ex.c ****   /* Clear flag Wake-Up */
1161:Drivers/STM32WBxx_HAL_Driver/Src/stm32wbxx_hal_rtc_ex.c ****   __HAL_RTC_WAKEUPTIMER_CLEAR_FLAG(hrtc, RTC_FLAG_WUTF);
 2201              		.loc 1 1161 3 view .LVU763
 2202 006c 2268     		ldr	r2, [r4]
 2203 006e D368     		ldr	r3, [r2, #12]
 2204 0070 DBB2     		uxtb	r3, r3
 2205 0072 63F49063 		orn	r3, r3, #1152
 2206 0076 D360     		str	r3, [r2, #12]
1162:Drivers/STM32WBxx_HAL_Driver/Src/stm32wbxx_hal_rtc_ex.c **** 
1163:Drivers/STM32WBxx_HAL_Driver/Src/stm32wbxx_hal_rtc_ex.c ****   tickstart = HAL_GetTick();
 2207              		.loc 1 1163 3 view .LVU764
 2208              		.loc 1 1163 15 is_stmt 0 view .LVU765
 2209 0078 FFF7FEFF 		bl	HAL_GetTick
 2210              	.LVL110:
 2211 007c 0746     		mov	r7, r0
 2212              	.LVL111:
1164:Drivers/STM32WBxx_HAL_Driver/Src/stm32wbxx_hal_rtc_ex.c **** 
1165:Drivers/STM32WBxx_HAL_Driver/Src/stm32wbxx_hal_rtc_ex.c ****   /* Wait till RTC WUTWF flag is set and if Time out is reached exit */
ARM GAS  /var/folders/lt/l_qrc8c54t93n_phsj7cf5tc0000gn/T//cc0GZz77.s 			page 61


1166:Drivers/STM32WBxx_HAL_Driver/Src/stm32wbxx_hal_rtc_ex.c ****   while (__HAL_RTC_WAKEUPTIMER_GET_FLAG(hrtc, RTC_FLAG_WUTWF) == 0U)
 2213              		.loc 1 1166 3 is_stmt 1 view .LVU766
 2214              	.L141:
 2215              		.loc 1 1166 9 view .LVU767
 2216              		.loc 1 1166 10 is_stmt 0 view .LVU768
 2217 007e 2368     		ldr	r3, [r4]
 2218 0080 DA68     		ldr	r2, [r3, #12]
 2219              		.loc 1 1166 9 view .LVU769
 2220 0082 12F0040F 		tst	r2, #4
 2221 0086 0FD1     		bne	.L145
1167:Drivers/STM32WBxx_HAL_Driver/Src/stm32wbxx_hal_rtc_ex.c ****   {
1168:Drivers/STM32WBxx_HAL_Driver/Src/stm32wbxx_hal_rtc_ex.c ****     if ((HAL_GetTick() - tickstart) > RTC_TIMEOUT_VALUE)
 2222              		.loc 1 1168 5 is_stmt 1 view .LVU770
 2223              		.loc 1 1168 10 is_stmt 0 view .LVU771
 2224 0088 FFF7FEFF 		bl	HAL_GetTick
 2225              	.LVL112:
 2226              		.loc 1 1168 24 view .LVU772
 2227 008c C01B     		subs	r0, r0, r7
 2228              		.loc 1 1168 8 view .LVU773
 2229 008e B0F57A7F 		cmp	r0, #1000
 2230 0092 F4D9     		bls	.L141
1169:Drivers/STM32WBxx_HAL_Driver/Src/stm32wbxx_hal_rtc_ex.c ****     {
1170:Drivers/STM32WBxx_HAL_Driver/Src/stm32wbxx_hal_rtc_ex.c ****       /* Enable the write protection for RTC registers */
1171:Drivers/STM32WBxx_HAL_Driver/Src/stm32wbxx_hal_rtc_ex.c ****       __HAL_RTC_WRITEPROTECTION_ENABLE(hrtc);
 2231              		.loc 1 1171 7 is_stmt 1 view .LVU774
 2232              		.loc 1 1171 7 view .LVU775
 2233 0094 2368     		ldr	r3, [r4]
 2234 0096 FF22     		movs	r2, #255
 2235 0098 5A62     		str	r2, [r3, #36]
 2236              		.loc 1 1171 7 view .LVU776
1172:Drivers/STM32WBxx_HAL_Driver/Src/stm32wbxx_hal_rtc_ex.c **** 
1173:Drivers/STM32WBxx_HAL_Driver/Src/stm32wbxx_hal_rtc_ex.c ****       hrtc->State = HAL_RTC_STATE_TIMEOUT;
 2237              		.loc 1 1173 7 view .LVU777
 2238              		.loc 1 1173 19 is_stmt 0 view .LVU778
 2239 009a 0320     		movs	r0, #3
 2240 009c 84F82100 		strb	r0, [r4, #33]
1174:Drivers/STM32WBxx_HAL_Driver/Src/stm32wbxx_hal_rtc_ex.c **** 
1175:Drivers/STM32WBxx_HAL_Driver/Src/stm32wbxx_hal_rtc_ex.c ****       /* Process Unlocked */
1176:Drivers/STM32WBxx_HAL_Driver/Src/stm32wbxx_hal_rtc_ex.c ****       __HAL_UNLOCK(hrtc);
 2241              		.loc 1 1176 7 is_stmt 1 view .LVU779
 2242              		.loc 1 1176 7 view .LVU780
 2243 00a0 0023     		movs	r3, #0
 2244 00a2 84F82030 		strb	r3, [r4, #32]
 2245              		.loc 1 1176 7 view .LVU781
1177:Drivers/STM32WBxx_HAL_Driver/Src/stm32wbxx_hal_rtc_ex.c **** 
1178:Drivers/STM32WBxx_HAL_Driver/Src/stm32wbxx_hal_rtc_ex.c ****       return HAL_TIMEOUT;
 2246              		.loc 1 1178 7 view .LVU782
 2247              		.loc 1 1178 14 is_stmt 0 view .LVU783
 2248 00a6 27E0     		b	.L137
 2249              	.L145:
1179:Drivers/STM32WBxx_HAL_Driver/Src/stm32wbxx_hal_rtc_ex.c ****     }
1180:Drivers/STM32WBxx_HAL_Driver/Src/stm32wbxx_hal_rtc_ex.c ****   }
1181:Drivers/STM32WBxx_HAL_Driver/Src/stm32wbxx_hal_rtc_ex.c **** 
1182:Drivers/STM32WBxx_HAL_Driver/Src/stm32wbxx_hal_rtc_ex.c ****   /* Configure the Wakeup Timer counter */
1183:Drivers/STM32WBxx_HAL_Driver/Src/stm32wbxx_hal_rtc_ex.c ****   hrtc->Instance->WUTR = (uint32_t)WakeUpCounter;
 2250              		.loc 1 1183 3 is_stmt 1 view .LVU784
 2251              		.loc 1 1183 24 is_stmt 0 view .LVU785
ARM GAS  /var/folders/lt/l_qrc8c54t93n_phsj7cf5tc0000gn/T//cc0GZz77.s 			page 62


 2252 00a8 5E61     		str	r6, [r3, #20]
1184:Drivers/STM32WBxx_HAL_Driver/Src/stm32wbxx_hal_rtc_ex.c **** 
1185:Drivers/STM32WBxx_HAL_Driver/Src/stm32wbxx_hal_rtc_ex.c ****   /* Clear the Wakeup Timer clock source bits in CR register */
1186:Drivers/STM32WBxx_HAL_Driver/Src/stm32wbxx_hal_rtc_ex.c ****   hrtc->Instance->CR &= (uint32_t)~RTC_CR_WUCKSEL;
 2253              		.loc 1 1186 3 is_stmt 1 view .LVU786
 2254              		.loc 1 1186 7 is_stmt 0 view .LVU787
 2255 00aa 2268     		ldr	r2, [r4]
 2256              		.loc 1 1186 22 view .LVU788
 2257 00ac 9368     		ldr	r3, [r2, #8]
 2258 00ae 23F00703 		bic	r3, r3, #7
 2259 00b2 9360     		str	r3, [r2, #8]
1187:Drivers/STM32WBxx_HAL_Driver/Src/stm32wbxx_hal_rtc_ex.c **** 
1188:Drivers/STM32WBxx_HAL_Driver/Src/stm32wbxx_hal_rtc_ex.c ****   /* Configure the clock source */
1189:Drivers/STM32WBxx_HAL_Driver/Src/stm32wbxx_hal_rtc_ex.c ****   hrtc->Instance->CR |= (uint32_t)WakeUpClock;
 2260              		.loc 1 1189 3 is_stmt 1 view .LVU789
 2261              		.loc 1 1189 7 is_stmt 0 view .LVU790
 2262 00b4 2268     		ldr	r2, [r4]
 2263              		.loc 1 1189 22 view .LVU791
 2264 00b6 9368     		ldr	r3, [r2, #8]
 2265 00b8 1D43     		orrs	r5, r5, r3
 2266              	.LVL113:
 2267              		.loc 1 1189 22 view .LVU792
 2268 00ba 9560     		str	r5, [r2, #8]
1190:Drivers/STM32WBxx_HAL_Driver/Src/stm32wbxx_hal_rtc_ex.c **** 
1191:Drivers/STM32WBxx_HAL_Driver/Src/stm32wbxx_hal_rtc_ex.c ****   /* RTC WakeUpTimer Interrupt Configuration: EXTI configuration */
1192:Drivers/STM32WBxx_HAL_Driver/Src/stm32wbxx_hal_rtc_ex.c ****   __HAL_RTC_WAKEUPTIMER_EXTI_ENABLE_IT();
 2269              		.loc 1 1192 3 is_stmt 1 view .LVU793
 2270 00bc 104B     		ldr	r3, .L146
 2271 00be D3F88020 		ldr	r2, [r3, #128]
 2272 00c2 42F40022 		orr	r2, r2, #524288
 2273 00c6 C3F88020 		str	r2, [r3, #128]
1193:Drivers/STM32WBxx_HAL_Driver/Src/stm32wbxx_hal_rtc_ex.c **** 
1194:Drivers/STM32WBxx_HAL_Driver/Src/stm32wbxx_hal_rtc_ex.c ****   __HAL_RTC_WAKEUPTIMER_EXTI_ENABLE_RISING_EDGE();
 2274              		.loc 1 1194 3 view .LVU794
 2275 00ca 1A68     		ldr	r2, [r3]
 2276 00cc 42F40022 		orr	r2, r2, #524288
 2277 00d0 1A60     		str	r2, [r3]
1195:Drivers/STM32WBxx_HAL_Driver/Src/stm32wbxx_hal_rtc_ex.c **** 
1196:Drivers/STM32WBxx_HAL_Driver/Src/stm32wbxx_hal_rtc_ex.c ****   /* Configure the Interrupt in the RTC_CR register */
1197:Drivers/STM32WBxx_HAL_Driver/Src/stm32wbxx_hal_rtc_ex.c ****   __HAL_RTC_WAKEUPTIMER_ENABLE_IT(hrtc, RTC_IT_WUT);
 2278              		.loc 1 1197 3 view .LVU795
 2279 00d2 2268     		ldr	r2, [r4]
 2280 00d4 9368     		ldr	r3, [r2, #8]
 2281 00d6 43F48043 		orr	r3, r3, #16384
 2282 00da 9360     		str	r3, [r2, #8]
1198:Drivers/STM32WBxx_HAL_Driver/Src/stm32wbxx_hal_rtc_ex.c **** 
1199:Drivers/STM32WBxx_HAL_Driver/Src/stm32wbxx_hal_rtc_ex.c ****   /* Enable the Wakeup Timer */
1200:Drivers/STM32WBxx_HAL_Driver/Src/stm32wbxx_hal_rtc_ex.c ****   __HAL_RTC_WAKEUPTIMER_ENABLE(hrtc);
 2283              		.loc 1 1200 3 view .LVU796
 2284 00dc 2268     		ldr	r2, [r4]
 2285 00de 9368     		ldr	r3, [r2, #8]
 2286 00e0 43F48063 		orr	r3, r3, #1024
 2287 00e4 9360     		str	r3, [r2, #8]
1201:Drivers/STM32WBxx_HAL_Driver/Src/stm32wbxx_hal_rtc_ex.c **** 
1202:Drivers/STM32WBxx_HAL_Driver/Src/stm32wbxx_hal_rtc_ex.c ****   /* Enable the write protection for RTC registers */
1203:Drivers/STM32WBxx_HAL_Driver/Src/stm32wbxx_hal_rtc_ex.c ****   __HAL_RTC_WRITEPROTECTION_ENABLE(hrtc);
 2288              		.loc 1 1203 3 view .LVU797
ARM GAS  /var/folders/lt/l_qrc8c54t93n_phsj7cf5tc0000gn/T//cc0GZz77.s 			page 63


 2289              		.loc 1 1203 3 view .LVU798
 2290 00e6 2368     		ldr	r3, [r4]
 2291 00e8 FF22     		movs	r2, #255
 2292 00ea 5A62     		str	r2, [r3, #36]
 2293              		.loc 1 1203 3 view .LVU799
1204:Drivers/STM32WBxx_HAL_Driver/Src/stm32wbxx_hal_rtc_ex.c **** 
1205:Drivers/STM32WBxx_HAL_Driver/Src/stm32wbxx_hal_rtc_ex.c ****   hrtc->State = HAL_RTC_STATE_READY;
 2294              		.loc 1 1205 3 view .LVU800
 2295              		.loc 1 1205 15 is_stmt 0 view .LVU801
 2296 00ec 0123     		movs	r3, #1
 2297 00ee 84F82130 		strb	r3, [r4, #33]
1206:Drivers/STM32WBxx_HAL_Driver/Src/stm32wbxx_hal_rtc_ex.c **** 
1207:Drivers/STM32WBxx_HAL_Driver/Src/stm32wbxx_hal_rtc_ex.c ****   /* Process Unlocked */
1208:Drivers/STM32WBxx_HAL_Driver/Src/stm32wbxx_hal_rtc_ex.c ****   __HAL_UNLOCK(hrtc);
 2298              		.loc 1 1208 3 is_stmt 1 view .LVU802
 2299              		.loc 1 1208 3 view .LVU803
 2300 00f2 0020     		movs	r0, #0
 2301 00f4 84F82000 		strb	r0, [r4, #32]
 2302              		.loc 1 1208 3 view .LVU804
1209:Drivers/STM32WBxx_HAL_Driver/Src/stm32wbxx_hal_rtc_ex.c **** 
1210:Drivers/STM32WBxx_HAL_Driver/Src/stm32wbxx_hal_rtc_ex.c ****   return HAL_OK;
 2303              		.loc 1 1210 3 view .LVU805
 2304              	.LVL114:
 2305              	.L137:
1211:Drivers/STM32WBxx_HAL_Driver/Src/stm32wbxx_hal_rtc_ex.c **** }
 2306              		.loc 1 1211 1 is_stmt 0 view .LVU806
 2307 00f8 F8BD     		pop	{r3, r4, r5, r6, r7, pc}
 2308              	.LVL115:
 2309              	.L143:
1128:Drivers/STM32WBxx_HAL_Driver/Src/stm32wbxx_hal_rtc_ex.c **** 
 2310              		.loc 1 1128 3 view .LVU807
 2311 00fa 0220     		movs	r0, #2
 2312              	.LVL116:
1128:Drivers/STM32WBxx_HAL_Driver/Src/stm32wbxx_hal_rtc_ex.c **** 
 2313              		.loc 1 1128 3 view .LVU808
 2314 00fc FCE7     		b	.L137
 2315              	.L147:
 2316 00fe 00BF     		.align	2
 2317              	.L146:
 2318 0100 00080058 		.word	1476397056
 2319              		.cfi_endproc
 2320              	.LFE1123:
 2322              		.section	.text.HAL_RTCEx_DeactivateWakeUpTimer,"ax",%progbits
 2323              		.align	1
 2324              		.global	HAL_RTCEx_DeactivateWakeUpTimer
 2325              		.syntax unified
 2326              		.thumb
 2327              		.thumb_func
 2328              		.fpu fpv4-sp-d16
 2330              	HAL_RTCEx_DeactivateWakeUpTimer:
 2331              	.LVL117:
 2332              	.LFB1124:
1212:Drivers/STM32WBxx_HAL_Driver/Src/stm32wbxx_hal_rtc_ex.c **** 
1213:Drivers/STM32WBxx_HAL_Driver/Src/stm32wbxx_hal_rtc_ex.c **** /**
1214:Drivers/STM32WBxx_HAL_Driver/Src/stm32wbxx_hal_rtc_ex.c ****   * @brief  Deactivate wake up timer counter.
1215:Drivers/STM32WBxx_HAL_Driver/Src/stm32wbxx_hal_rtc_ex.c ****   * @param hrtc RTC handle
1216:Drivers/STM32WBxx_HAL_Driver/Src/stm32wbxx_hal_rtc_ex.c ****   * @retval HAL status
ARM GAS  /var/folders/lt/l_qrc8c54t93n_phsj7cf5tc0000gn/T//cc0GZz77.s 			page 64


1217:Drivers/STM32WBxx_HAL_Driver/Src/stm32wbxx_hal_rtc_ex.c ****   */
1218:Drivers/STM32WBxx_HAL_Driver/Src/stm32wbxx_hal_rtc_ex.c **** HAL_StatusTypeDef HAL_RTCEx_DeactivateWakeUpTimer(RTC_HandleTypeDef *hrtc)
1219:Drivers/STM32WBxx_HAL_Driver/Src/stm32wbxx_hal_rtc_ex.c **** {
 2333              		.loc 1 1219 1 is_stmt 1 view -0
 2334              		.cfi_startproc
 2335              		@ args = 0, pretend = 0, frame = 0
 2336              		@ frame_needed = 0, uses_anonymous_args = 0
 2337              		.loc 1 1219 1 is_stmt 0 view .LVU810
 2338 0000 38B5     		push	{r3, r4, r5, lr}
 2339              	.LCFI18:
 2340              		.cfi_def_cfa_offset 16
 2341              		.cfi_offset 3, -16
 2342              		.cfi_offset 4, -12
 2343              		.cfi_offset 5, -8
 2344              		.cfi_offset 14, -4
1220:Drivers/STM32WBxx_HAL_Driver/Src/stm32wbxx_hal_rtc_ex.c ****   uint32_t tickstart;
 2345              		.loc 1 1220 3 is_stmt 1 view .LVU811
1221:Drivers/STM32WBxx_HAL_Driver/Src/stm32wbxx_hal_rtc_ex.c **** 
1222:Drivers/STM32WBxx_HAL_Driver/Src/stm32wbxx_hal_rtc_ex.c ****   /* Process Locked */
1223:Drivers/STM32WBxx_HAL_Driver/Src/stm32wbxx_hal_rtc_ex.c ****   __HAL_LOCK(hrtc);
 2346              		.loc 1 1223 3 view .LVU812
 2347              		.loc 1 1223 3 view .LVU813
 2348 0002 90F82030 		ldrb	r3, [r0, #32]	@ zero_extendqisi2
 2349 0006 012B     		cmp	r3, #1
 2350 0008 37D0     		beq	.L152
 2351 000a 0446     		mov	r4, r0
 2352              		.loc 1 1223 3 discriminator 2 view .LVU814
 2353 000c 0123     		movs	r3, #1
 2354 000e 80F82030 		strb	r3, [r0, #32]
 2355              		.loc 1 1223 3 discriminator 2 view .LVU815
1224:Drivers/STM32WBxx_HAL_Driver/Src/stm32wbxx_hal_rtc_ex.c **** 
1225:Drivers/STM32WBxx_HAL_Driver/Src/stm32wbxx_hal_rtc_ex.c ****   hrtc->State = HAL_RTC_STATE_BUSY;
 2356              		.loc 1 1225 3 discriminator 2 view .LVU816
 2357              		.loc 1 1225 15 is_stmt 0 discriminator 2 view .LVU817
 2358 0012 0223     		movs	r3, #2
 2359 0014 80F82130 		strb	r3, [r0, #33]
1226:Drivers/STM32WBxx_HAL_Driver/Src/stm32wbxx_hal_rtc_ex.c **** 
1227:Drivers/STM32WBxx_HAL_Driver/Src/stm32wbxx_hal_rtc_ex.c ****   /* Disable the write protection for RTC registers */
1228:Drivers/STM32WBxx_HAL_Driver/Src/stm32wbxx_hal_rtc_ex.c ****   __HAL_RTC_WRITEPROTECTION_DISABLE(hrtc);
 2360              		.loc 1 1228 3 is_stmt 1 discriminator 2 view .LVU818
 2361              		.loc 1 1228 3 discriminator 2 view .LVU819
 2362 0018 0368     		ldr	r3, [r0]
 2363 001a CA22     		movs	r2, #202
 2364 001c 5A62     		str	r2, [r3, #36]
 2365              		.loc 1 1228 3 discriminator 2 view .LVU820
 2366 001e 0368     		ldr	r3, [r0]
 2367 0020 5322     		movs	r2, #83
 2368 0022 5A62     		str	r2, [r3, #36]
 2369              		.loc 1 1228 3 discriminator 2 view .LVU821
1229:Drivers/STM32WBxx_HAL_Driver/Src/stm32wbxx_hal_rtc_ex.c **** 
1230:Drivers/STM32WBxx_HAL_Driver/Src/stm32wbxx_hal_rtc_ex.c ****   /* Disable the Wakeup Timer */
1231:Drivers/STM32WBxx_HAL_Driver/Src/stm32wbxx_hal_rtc_ex.c ****   __HAL_RTC_WAKEUPTIMER_DISABLE(hrtc);
 2370              		.loc 1 1231 3 discriminator 2 view .LVU822
 2371 0024 0268     		ldr	r2, [r0]
 2372 0026 9368     		ldr	r3, [r2, #8]
 2373 0028 23F48063 		bic	r3, r3, #1024
 2374 002c 9360     		str	r3, [r2, #8]
ARM GAS  /var/folders/lt/l_qrc8c54t93n_phsj7cf5tc0000gn/T//cc0GZz77.s 			page 65


1232:Drivers/STM32WBxx_HAL_Driver/Src/stm32wbxx_hal_rtc_ex.c **** 
1233:Drivers/STM32WBxx_HAL_Driver/Src/stm32wbxx_hal_rtc_ex.c ****   /* In case of interrupt mode is used, the interrupt source must disabled */
1234:Drivers/STM32WBxx_HAL_Driver/Src/stm32wbxx_hal_rtc_ex.c ****   __HAL_RTC_WAKEUPTIMER_DISABLE_IT(hrtc, RTC_IT_WUT);
 2375              		.loc 1 1234 3 discriminator 2 view .LVU823
 2376 002e 0268     		ldr	r2, [r0]
 2377 0030 9368     		ldr	r3, [r2, #8]
 2378 0032 23F48043 		bic	r3, r3, #16384
 2379 0036 9360     		str	r3, [r2, #8]
1235:Drivers/STM32WBxx_HAL_Driver/Src/stm32wbxx_hal_rtc_ex.c **** 
1236:Drivers/STM32WBxx_HAL_Driver/Src/stm32wbxx_hal_rtc_ex.c ****   tickstart = HAL_GetTick();
 2380              		.loc 1 1236 3 discriminator 2 view .LVU824
 2381              		.loc 1 1236 15 is_stmt 0 discriminator 2 view .LVU825
 2382 0038 FFF7FEFF 		bl	HAL_GetTick
 2383              	.LVL118:
 2384              		.loc 1 1236 15 discriminator 2 view .LVU826
 2385 003c 0546     		mov	r5, r0
 2386              	.LVL119:
1237:Drivers/STM32WBxx_HAL_Driver/Src/stm32wbxx_hal_rtc_ex.c ****   /* Wait till RTC WUTWF flag is set and if Time out is reached exit */
1238:Drivers/STM32WBxx_HAL_Driver/Src/stm32wbxx_hal_rtc_ex.c ****   while (__HAL_RTC_WAKEUPTIMER_GET_FLAG(hrtc, RTC_FLAG_WUTWF) == 0U)
 2387              		.loc 1 1238 3 is_stmt 1 discriminator 2 view .LVU827
 2388              	.L150:
 2389              		.loc 1 1238 9 view .LVU828
 2390              		.loc 1 1238 10 is_stmt 0 view .LVU829
 2391 003e 2368     		ldr	r3, [r4]
 2392 0040 DA68     		ldr	r2, [r3, #12]
 2393              		.loc 1 1238 9 view .LVU830
 2394 0042 12F0040F 		tst	r2, #4
 2395 0046 0FD1     		bne	.L154
1239:Drivers/STM32WBxx_HAL_Driver/Src/stm32wbxx_hal_rtc_ex.c ****   {
1240:Drivers/STM32WBxx_HAL_Driver/Src/stm32wbxx_hal_rtc_ex.c ****     if ((HAL_GetTick() - tickstart) > RTC_TIMEOUT_VALUE)
 2396              		.loc 1 1240 5 is_stmt 1 view .LVU831
 2397              		.loc 1 1240 10 is_stmt 0 view .LVU832
 2398 0048 FFF7FEFF 		bl	HAL_GetTick
 2399              	.LVL120:
 2400              		.loc 1 1240 24 view .LVU833
 2401 004c 431B     		subs	r3, r0, r5
 2402              		.loc 1 1240 8 view .LVU834
 2403 004e B3F57A7F 		cmp	r3, #1000
 2404 0052 F4D9     		bls	.L150
1241:Drivers/STM32WBxx_HAL_Driver/Src/stm32wbxx_hal_rtc_ex.c ****     {
1242:Drivers/STM32WBxx_HAL_Driver/Src/stm32wbxx_hal_rtc_ex.c ****       /* Enable the write protection for RTC registers */
1243:Drivers/STM32WBxx_HAL_Driver/Src/stm32wbxx_hal_rtc_ex.c ****       __HAL_RTC_WRITEPROTECTION_ENABLE(hrtc);
 2405              		.loc 1 1243 7 is_stmt 1 view .LVU835
 2406              		.loc 1 1243 7 view .LVU836
 2407 0054 2368     		ldr	r3, [r4]
 2408 0056 FF22     		movs	r2, #255
 2409 0058 5A62     		str	r2, [r3, #36]
 2410              		.loc 1 1243 7 view .LVU837
1244:Drivers/STM32WBxx_HAL_Driver/Src/stm32wbxx_hal_rtc_ex.c **** 
1245:Drivers/STM32WBxx_HAL_Driver/Src/stm32wbxx_hal_rtc_ex.c ****       hrtc->State = HAL_RTC_STATE_TIMEOUT;
 2411              		.loc 1 1245 7 view .LVU838
 2412              		.loc 1 1245 19 is_stmt 0 view .LVU839
 2413 005a 0320     		movs	r0, #3
 2414 005c 84F82100 		strb	r0, [r4, #33]
1246:Drivers/STM32WBxx_HAL_Driver/Src/stm32wbxx_hal_rtc_ex.c **** 
1247:Drivers/STM32WBxx_HAL_Driver/Src/stm32wbxx_hal_rtc_ex.c ****       /* Process Unlocked */
1248:Drivers/STM32WBxx_HAL_Driver/Src/stm32wbxx_hal_rtc_ex.c ****       __HAL_UNLOCK(hrtc);
ARM GAS  /var/folders/lt/l_qrc8c54t93n_phsj7cf5tc0000gn/T//cc0GZz77.s 			page 66


 2415              		.loc 1 1248 7 is_stmt 1 view .LVU840
 2416              		.loc 1 1248 7 view .LVU841
 2417 0060 0023     		movs	r3, #0
 2418 0062 84F82030 		strb	r3, [r4, #32]
 2419              		.loc 1 1248 7 view .LVU842
1249:Drivers/STM32WBxx_HAL_Driver/Src/stm32wbxx_hal_rtc_ex.c **** 
1250:Drivers/STM32WBxx_HAL_Driver/Src/stm32wbxx_hal_rtc_ex.c ****       return HAL_TIMEOUT;
 2420              		.loc 1 1250 7 view .LVU843
 2421              		.loc 1 1250 14 is_stmt 0 view .LVU844
 2422 0066 07E0     		b	.L149
 2423              	.L154:
1251:Drivers/STM32WBxx_HAL_Driver/Src/stm32wbxx_hal_rtc_ex.c ****     }
1252:Drivers/STM32WBxx_HAL_Driver/Src/stm32wbxx_hal_rtc_ex.c ****   }
1253:Drivers/STM32WBxx_HAL_Driver/Src/stm32wbxx_hal_rtc_ex.c **** 
1254:Drivers/STM32WBxx_HAL_Driver/Src/stm32wbxx_hal_rtc_ex.c ****   /* Enable the write protection for RTC registers */
1255:Drivers/STM32WBxx_HAL_Driver/Src/stm32wbxx_hal_rtc_ex.c ****   __HAL_RTC_WRITEPROTECTION_ENABLE(hrtc);
 2424              		.loc 1 1255 3 is_stmt 1 view .LVU845
 2425              		.loc 1 1255 3 view .LVU846
 2426 0068 FF22     		movs	r2, #255
 2427 006a 5A62     		str	r2, [r3, #36]
 2428              		.loc 1 1255 3 view .LVU847
1256:Drivers/STM32WBxx_HAL_Driver/Src/stm32wbxx_hal_rtc_ex.c **** 
1257:Drivers/STM32WBxx_HAL_Driver/Src/stm32wbxx_hal_rtc_ex.c ****   hrtc->State = HAL_RTC_STATE_READY;
 2429              		.loc 1 1257 3 view .LVU848
 2430              		.loc 1 1257 15 is_stmt 0 view .LVU849
 2431 006c 0123     		movs	r3, #1
 2432 006e 84F82130 		strb	r3, [r4, #33]
1258:Drivers/STM32WBxx_HAL_Driver/Src/stm32wbxx_hal_rtc_ex.c **** 
1259:Drivers/STM32WBxx_HAL_Driver/Src/stm32wbxx_hal_rtc_ex.c ****   /* Process Unlocked */
1260:Drivers/STM32WBxx_HAL_Driver/Src/stm32wbxx_hal_rtc_ex.c ****   __HAL_UNLOCK(hrtc);
 2433              		.loc 1 1260 3 is_stmt 1 view .LVU850
 2434              		.loc 1 1260 3 view .LVU851
 2435 0072 0020     		movs	r0, #0
 2436 0074 84F82000 		strb	r0, [r4, #32]
 2437              		.loc 1 1260 3 view .LVU852
1261:Drivers/STM32WBxx_HAL_Driver/Src/stm32wbxx_hal_rtc_ex.c **** 
1262:Drivers/STM32WBxx_HAL_Driver/Src/stm32wbxx_hal_rtc_ex.c ****   return HAL_OK;
 2438              		.loc 1 1262 3 view .LVU853
 2439              	.LVL121:
 2440              	.L149:
1263:Drivers/STM32WBxx_HAL_Driver/Src/stm32wbxx_hal_rtc_ex.c **** }
 2441              		.loc 1 1263 1 is_stmt 0 view .LVU854
 2442 0078 38BD     		pop	{r3, r4, r5, pc}
 2443              	.LVL122:
 2444              	.L152:
1223:Drivers/STM32WBxx_HAL_Driver/Src/stm32wbxx_hal_rtc_ex.c **** 
 2445              		.loc 1 1223 3 view .LVU855
 2446 007a 0220     		movs	r0, #2
 2447              	.LVL123:
1223:Drivers/STM32WBxx_HAL_Driver/Src/stm32wbxx_hal_rtc_ex.c **** 
 2448              		.loc 1 1223 3 view .LVU856
 2449 007c FCE7     		b	.L149
 2450              		.cfi_endproc
 2451              	.LFE1124:
 2453              		.section	.text.HAL_RTCEx_GetWakeUpTimer,"ax",%progbits
 2454              		.align	1
 2455              		.global	HAL_RTCEx_GetWakeUpTimer
ARM GAS  /var/folders/lt/l_qrc8c54t93n_phsj7cf5tc0000gn/T//cc0GZz77.s 			page 67


 2456              		.syntax unified
 2457              		.thumb
 2458              		.thumb_func
 2459              		.fpu fpv4-sp-d16
 2461              	HAL_RTCEx_GetWakeUpTimer:
 2462              	.LVL124:
 2463              	.LFB1125:
1264:Drivers/STM32WBxx_HAL_Driver/Src/stm32wbxx_hal_rtc_ex.c **** 
1265:Drivers/STM32WBxx_HAL_Driver/Src/stm32wbxx_hal_rtc_ex.c **** /**
1266:Drivers/STM32WBxx_HAL_Driver/Src/stm32wbxx_hal_rtc_ex.c ****   * @brief  Get wake up timer counter.
1267:Drivers/STM32WBxx_HAL_Driver/Src/stm32wbxx_hal_rtc_ex.c ****   * @param hrtc RTC handle
1268:Drivers/STM32WBxx_HAL_Driver/Src/stm32wbxx_hal_rtc_ex.c ****   * @retval Counter value
1269:Drivers/STM32WBxx_HAL_Driver/Src/stm32wbxx_hal_rtc_ex.c ****   */
1270:Drivers/STM32WBxx_HAL_Driver/Src/stm32wbxx_hal_rtc_ex.c **** uint32_t HAL_RTCEx_GetWakeUpTimer(RTC_HandleTypeDef *hrtc)
1271:Drivers/STM32WBxx_HAL_Driver/Src/stm32wbxx_hal_rtc_ex.c **** {
 2464              		.loc 1 1271 1 is_stmt 1 view -0
 2465              		.cfi_startproc
 2466              		@ args = 0, pretend = 0, frame = 0
 2467              		@ frame_needed = 0, uses_anonymous_args = 0
 2468              		@ link register save eliminated.
1272:Drivers/STM32WBxx_HAL_Driver/Src/stm32wbxx_hal_rtc_ex.c ****   /* Get the counter value */
1273:Drivers/STM32WBxx_HAL_Driver/Src/stm32wbxx_hal_rtc_ex.c ****   return ((uint32_t)(hrtc->Instance->WUTR & RTC_WUTR_WUT));
 2469              		.loc 1 1273 3 view .LVU858
 2470              		.loc 1 1273 26 is_stmt 0 view .LVU859
 2471 0000 0368     		ldr	r3, [r0]
 2472              		.loc 1 1273 36 view .LVU860
 2473 0002 5869     		ldr	r0, [r3, #20]
 2474              	.LVL125:
1274:Drivers/STM32WBxx_HAL_Driver/Src/stm32wbxx_hal_rtc_ex.c **** }
 2475              		.loc 1 1274 1 view .LVU861
 2476 0004 80B2     		uxth	r0, r0
 2477 0006 7047     		bx	lr
 2478              		.cfi_endproc
 2479              	.LFE1125:
 2481              		.section	.text.HAL_RTCEx_WakeUpTimerEventCallback,"ax",%progbits
 2482              		.align	1
 2483              		.weak	HAL_RTCEx_WakeUpTimerEventCallback
 2484              		.syntax unified
 2485              		.thumb
 2486              		.thumb_func
 2487              		.fpu fpv4-sp-d16
 2489              	HAL_RTCEx_WakeUpTimerEventCallback:
 2490              	.LVL126:
 2491              	.LFB1127:
1275:Drivers/STM32WBxx_HAL_Driver/Src/stm32wbxx_hal_rtc_ex.c **** 
1276:Drivers/STM32WBxx_HAL_Driver/Src/stm32wbxx_hal_rtc_ex.c **** /**
1277:Drivers/STM32WBxx_HAL_Driver/Src/stm32wbxx_hal_rtc_ex.c ****   * @brief  Handle Wake Up Timer interrupt request.
1278:Drivers/STM32WBxx_HAL_Driver/Src/stm32wbxx_hal_rtc_ex.c ****   * @param hrtc RTC handle
1279:Drivers/STM32WBxx_HAL_Driver/Src/stm32wbxx_hal_rtc_ex.c ****   * @retval None
1280:Drivers/STM32WBxx_HAL_Driver/Src/stm32wbxx_hal_rtc_ex.c ****   */
1281:Drivers/STM32WBxx_HAL_Driver/Src/stm32wbxx_hal_rtc_ex.c **** void HAL_RTCEx_WakeUpTimerIRQHandler(RTC_HandleTypeDef *hrtc)
1282:Drivers/STM32WBxx_HAL_Driver/Src/stm32wbxx_hal_rtc_ex.c **** {
1283:Drivers/STM32WBxx_HAL_Driver/Src/stm32wbxx_hal_rtc_ex.c ****   /* Get the pending status of the WAKEUPTIMER Interrupt */
1284:Drivers/STM32WBxx_HAL_Driver/Src/stm32wbxx_hal_rtc_ex.c ****   if (__HAL_RTC_WAKEUPTIMER_GET_FLAG(hrtc, RTC_FLAG_WUTF) != 0U)
1285:Drivers/STM32WBxx_HAL_Driver/Src/stm32wbxx_hal_rtc_ex.c ****   {
1286:Drivers/STM32WBxx_HAL_Driver/Src/stm32wbxx_hal_rtc_ex.c ****     /* WAKEUPTIMER callback */
1287:Drivers/STM32WBxx_HAL_Driver/Src/stm32wbxx_hal_rtc_ex.c **** #if (USE_HAL_RTC_REGISTER_CALLBACKS == 1)
ARM GAS  /var/folders/lt/l_qrc8c54t93n_phsj7cf5tc0000gn/T//cc0GZz77.s 			page 68


1288:Drivers/STM32WBxx_HAL_Driver/Src/stm32wbxx_hal_rtc_ex.c ****     hrtc->WakeUpTimerEventCallback(hrtc);
1289:Drivers/STM32WBxx_HAL_Driver/Src/stm32wbxx_hal_rtc_ex.c **** #else
1290:Drivers/STM32WBxx_HAL_Driver/Src/stm32wbxx_hal_rtc_ex.c ****     HAL_RTCEx_WakeUpTimerEventCallback(hrtc);
1291:Drivers/STM32WBxx_HAL_Driver/Src/stm32wbxx_hal_rtc_ex.c **** #endif /* USE_HAL_RTC_REGISTER_CALLBACKS */
1292:Drivers/STM32WBxx_HAL_Driver/Src/stm32wbxx_hal_rtc_ex.c **** 
1293:Drivers/STM32WBxx_HAL_Driver/Src/stm32wbxx_hal_rtc_ex.c ****     /* Clear the WAKEUPTIMER interrupt pending bit */
1294:Drivers/STM32WBxx_HAL_Driver/Src/stm32wbxx_hal_rtc_ex.c ****     __HAL_RTC_WAKEUPTIMER_CLEAR_FLAG(hrtc, RTC_FLAG_WUTF);
1295:Drivers/STM32WBxx_HAL_Driver/Src/stm32wbxx_hal_rtc_ex.c ****   }
1296:Drivers/STM32WBxx_HAL_Driver/Src/stm32wbxx_hal_rtc_ex.c **** 
1297:Drivers/STM32WBxx_HAL_Driver/Src/stm32wbxx_hal_rtc_ex.c ****   /* Clear the EXTI's line Flag for RTC WakeUpTimer */
1298:Drivers/STM32WBxx_HAL_Driver/Src/stm32wbxx_hal_rtc_ex.c ****   __HAL_RTC_WAKEUPTIMER_EXTI_CLEAR_FLAG();
1299:Drivers/STM32WBxx_HAL_Driver/Src/stm32wbxx_hal_rtc_ex.c **** 
1300:Drivers/STM32WBxx_HAL_Driver/Src/stm32wbxx_hal_rtc_ex.c ****   /* Change RTC state */
1301:Drivers/STM32WBxx_HAL_Driver/Src/stm32wbxx_hal_rtc_ex.c ****   hrtc->State = HAL_RTC_STATE_READY;
1302:Drivers/STM32WBxx_HAL_Driver/Src/stm32wbxx_hal_rtc_ex.c **** }
1303:Drivers/STM32WBxx_HAL_Driver/Src/stm32wbxx_hal_rtc_ex.c **** 
1304:Drivers/STM32WBxx_HAL_Driver/Src/stm32wbxx_hal_rtc_ex.c **** /**
1305:Drivers/STM32WBxx_HAL_Driver/Src/stm32wbxx_hal_rtc_ex.c ****   * @brief  Wake Up Timer callback.
1306:Drivers/STM32WBxx_HAL_Driver/Src/stm32wbxx_hal_rtc_ex.c ****   * @param hrtc RTC handle
1307:Drivers/STM32WBxx_HAL_Driver/Src/stm32wbxx_hal_rtc_ex.c ****   * @retval None
1308:Drivers/STM32WBxx_HAL_Driver/Src/stm32wbxx_hal_rtc_ex.c ****   */
1309:Drivers/STM32WBxx_HAL_Driver/Src/stm32wbxx_hal_rtc_ex.c **** __weak void HAL_RTCEx_WakeUpTimerEventCallback(RTC_HandleTypeDef *hrtc)
1310:Drivers/STM32WBxx_HAL_Driver/Src/stm32wbxx_hal_rtc_ex.c **** {
 2492              		.loc 1 1310 1 is_stmt 1 view -0
 2493              		.cfi_startproc
 2494              		@ args = 0, pretend = 0, frame = 0
 2495              		@ frame_needed = 0, uses_anonymous_args = 0
 2496              		@ link register save eliminated.
1311:Drivers/STM32WBxx_HAL_Driver/Src/stm32wbxx_hal_rtc_ex.c ****   /* Prevent unused argument(s) compilation warning */
1312:Drivers/STM32WBxx_HAL_Driver/Src/stm32wbxx_hal_rtc_ex.c ****   UNUSED(hrtc);
 2497              		.loc 1 1312 3 view .LVU863
1313:Drivers/STM32WBxx_HAL_Driver/Src/stm32wbxx_hal_rtc_ex.c **** 
1314:Drivers/STM32WBxx_HAL_Driver/Src/stm32wbxx_hal_rtc_ex.c ****   /* NOTE : This function should not be modified, when the callback is needed,
1315:Drivers/STM32WBxx_HAL_Driver/Src/stm32wbxx_hal_rtc_ex.c ****             the HAL_RTCEx_WakeUpTimerEventCallback could be implemented in the user file
1316:Drivers/STM32WBxx_HAL_Driver/Src/stm32wbxx_hal_rtc_ex.c ****    */
1317:Drivers/STM32WBxx_HAL_Driver/Src/stm32wbxx_hal_rtc_ex.c **** }
 2498              		.loc 1 1317 1 is_stmt 0 view .LVU864
 2499 0000 7047     		bx	lr
 2500              		.cfi_endproc
 2501              	.LFE1127:
 2503              		.section	.text.HAL_RTCEx_WakeUpTimerIRQHandler,"ax",%progbits
 2504              		.align	1
 2505              		.global	HAL_RTCEx_WakeUpTimerIRQHandler
 2506              		.syntax unified
 2507              		.thumb
 2508              		.thumb_func
 2509              		.fpu fpv4-sp-d16
 2511              	HAL_RTCEx_WakeUpTimerIRQHandler:
 2512              	.LVL127:
 2513              	.LFB1126:
1282:Drivers/STM32WBxx_HAL_Driver/Src/stm32wbxx_hal_rtc_ex.c ****   /* Get the pending status of the WAKEUPTIMER Interrupt */
 2514              		.loc 1 1282 1 is_stmt 1 view -0
 2515              		.cfi_startproc
 2516              		@ args = 0, pretend = 0, frame = 0
 2517              		@ frame_needed = 0, uses_anonymous_args = 0
1282:Drivers/STM32WBxx_HAL_Driver/Src/stm32wbxx_hal_rtc_ex.c ****   /* Get the pending status of the WAKEUPTIMER Interrupt */
 2518              		.loc 1 1282 1 is_stmt 0 view .LVU866
ARM GAS  /var/folders/lt/l_qrc8c54t93n_phsj7cf5tc0000gn/T//cc0GZz77.s 			page 69


 2519 0000 10B5     		push	{r4, lr}
 2520              	.LCFI19:
 2521              		.cfi_def_cfa_offset 8
 2522              		.cfi_offset 4, -8
 2523              		.cfi_offset 14, -4
 2524 0002 0446     		mov	r4, r0
1284:Drivers/STM32WBxx_HAL_Driver/Src/stm32wbxx_hal_rtc_ex.c ****   {
 2525              		.loc 1 1284 3 is_stmt 1 view .LVU867
