ARM GAS  /var/folders/lt/l_qrc8c54t93n_phsj7cf5tc0000gn/T//cc1tXrem.s 			page 1


   1              		.cpu cortex-m4
   2              		.eabi_attribute 27, 1
   3              		.eabi_attribute 28, 1
   4              		.eabi_attribute 20, 1
   5              		.eabi_attribute 21, 1
   6              		.eabi_attribute 23, 3
   7              		.eabi_attribute 24, 1
   8              		.eabi_attribute 25, 1
   9              		.eabi_attribute 26, 1
  10              		.eabi_attribute 30, 1
  11              		.eabi_attribute 34, 1
  12              		.eabi_attribute 18, 4
  13              		.file	"stm32wbxx_hal_dma.c"
  14              		.text
  15              	.Ltext0:
  16              		.cfi_sections	.debug_frame
  17              		.section	.text.DMA_SetConfig,"ax",%progbits
  18              		.align	1
  19              		.arch armv7e-m
  20              		.syntax unified
  21              		.thumb
  22              		.thumb_func
  23              		.fpu fpv4-sp-d16
  25              	DMA_SetConfig:
  26              	.LVL0:
  27              	.LFB1116:
  28              		.file 1 "Drivers/STM32WBxx_HAL_Driver/Src/stm32wbxx_hal_dma.c"
   1:Drivers/STM32WBxx_HAL_Driver/Src/stm32wbxx_hal_dma.c **** /**
   2:Drivers/STM32WBxx_HAL_Driver/Src/stm32wbxx_hal_dma.c ****   ******************************************************************************
   3:Drivers/STM32WBxx_HAL_Driver/Src/stm32wbxx_hal_dma.c ****   * @file    stm32wbxx_hal_dma.c
   4:Drivers/STM32WBxx_HAL_Driver/Src/stm32wbxx_hal_dma.c ****   * @author  MCD Application Team
   5:Drivers/STM32WBxx_HAL_Driver/Src/stm32wbxx_hal_dma.c ****   * @brief   DMA HAL module driver.
   6:Drivers/STM32WBxx_HAL_Driver/Src/stm32wbxx_hal_dma.c ****   *         This file provides firmware functions to manage the following
   7:Drivers/STM32WBxx_HAL_Driver/Src/stm32wbxx_hal_dma.c ****   *         functionalities of the Direct Memory Access (DMA) peripheral:
   8:Drivers/STM32WBxx_HAL_Driver/Src/stm32wbxx_hal_dma.c ****   *           + Initialization and de-initialization functions
   9:Drivers/STM32WBxx_HAL_Driver/Src/stm32wbxx_hal_dma.c ****   *           + IO operation functions
  10:Drivers/STM32WBxx_HAL_Driver/Src/stm32wbxx_hal_dma.c ****   *           + Peripheral State and errors functions
  11:Drivers/STM32WBxx_HAL_Driver/Src/stm32wbxx_hal_dma.c ****   ******************************************************************************
  12:Drivers/STM32WBxx_HAL_Driver/Src/stm32wbxx_hal_dma.c ****   * @attention
  13:Drivers/STM32WBxx_HAL_Driver/Src/stm32wbxx_hal_dma.c ****   *
  14:Drivers/STM32WBxx_HAL_Driver/Src/stm32wbxx_hal_dma.c ****   * Copyright (c) 2019 STMicroelectronics.
  15:Drivers/STM32WBxx_HAL_Driver/Src/stm32wbxx_hal_dma.c ****   * All rights reserved.
  16:Drivers/STM32WBxx_HAL_Driver/Src/stm32wbxx_hal_dma.c ****   *
  17:Drivers/STM32WBxx_HAL_Driver/Src/stm32wbxx_hal_dma.c ****   * This software is licensed under terms that can be found in the LICENSE file
  18:Drivers/STM32WBxx_HAL_Driver/Src/stm32wbxx_hal_dma.c ****   * in the root directory of this software component.
  19:Drivers/STM32WBxx_HAL_Driver/Src/stm32wbxx_hal_dma.c ****   * If no LICENSE file comes with this software, it is provided AS-IS.
  20:Drivers/STM32WBxx_HAL_Driver/Src/stm32wbxx_hal_dma.c ****   *
  21:Drivers/STM32WBxx_HAL_Driver/Src/stm32wbxx_hal_dma.c ****   ******************************************************************************
  22:Drivers/STM32WBxx_HAL_Driver/Src/stm32wbxx_hal_dma.c ****   @verbatim
  23:Drivers/STM32WBxx_HAL_Driver/Src/stm32wbxx_hal_dma.c ****   ==============================================================================
  24:Drivers/STM32WBxx_HAL_Driver/Src/stm32wbxx_hal_dma.c ****                         ##### How to use this driver #####
  25:Drivers/STM32WBxx_HAL_Driver/Src/stm32wbxx_hal_dma.c ****   ==============================================================================
  26:Drivers/STM32WBxx_HAL_Driver/Src/stm32wbxx_hal_dma.c ****   [..]
  27:Drivers/STM32WBxx_HAL_Driver/Src/stm32wbxx_hal_dma.c ****    (#) Enable and configure the peripheral to be connected to the DMA Channel
  28:Drivers/STM32WBxx_HAL_Driver/Src/stm32wbxx_hal_dma.c ****        (except for internal SRAM / FLASH memories: no initialization is
  29:Drivers/STM32WBxx_HAL_Driver/Src/stm32wbxx_hal_dma.c ****        necessary). Please refer to the Reference manual for connection between peripherals
  30:Drivers/STM32WBxx_HAL_Driver/Src/stm32wbxx_hal_dma.c ****        and DMA requests.
ARM GAS  /var/folders/lt/l_qrc8c54t93n_phsj7cf5tc0000gn/T//cc1tXrem.s 			page 2


  31:Drivers/STM32WBxx_HAL_Driver/Src/stm32wbxx_hal_dma.c **** 
  32:Drivers/STM32WBxx_HAL_Driver/Src/stm32wbxx_hal_dma.c ****    (#) For a given Channel, program the required configuration through the following parameters:
  33:Drivers/STM32WBxx_HAL_Driver/Src/stm32wbxx_hal_dma.c ****        Channel request, Transfer Direction, Source and Destination data formats,
  34:Drivers/STM32WBxx_HAL_Driver/Src/stm32wbxx_hal_dma.c ****        Circular or Normal mode, Channel Priority level, Source and Destination Increment mode
  35:Drivers/STM32WBxx_HAL_Driver/Src/stm32wbxx_hal_dma.c ****        using HAL_DMA_Init() function.
  36:Drivers/STM32WBxx_HAL_Driver/Src/stm32wbxx_hal_dma.c **** 
  37:Drivers/STM32WBxx_HAL_Driver/Src/stm32wbxx_hal_dma.c ****        Prior to HAL_DMA_Init the peripheral clock shall be enabled for both DMA & DMAMUX
  38:Drivers/STM32WBxx_HAL_Driver/Src/stm32wbxx_hal_dma.c ****        thanks to:
  39:Drivers/STM32WBxx_HAL_Driver/Src/stm32wbxx_hal_dma.c ****       (##) DMA1 or DMA2: __HAL_RCC_DMA1_CLK_ENABLE() or  __HAL_RCC_DMA2_CLK_ENABLE() ;
  40:Drivers/STM32WBxx_HAL_Driver/Src/stm32wbxx_hal_dma.c ****       (##) DMAMUX1:      __HAL_RCC_DMAMUX1_CLK_ENABLE();
  41:Drivers/STM32WBxx_HAL_Driver/Src/stm32wbxx_hal_dma.c **** 
  42:Drivers/STM32WBxx_HAL_Driver/Src/stm32wbxx_hal_dma.c ****    (#) Use HAL_DMA_GetState() function to return the DMA state and HAL_DMA_GetError() in case of er
  43:Drivers/STM32WBxx_HAL_Driver/Src/stm32wbxx_hal_dma.c ****        detection.
  44:Drivers/STM32WBxx_HAL_Driver/Src/stm32wbxx_hal_dma.c **** 
  45:Drivers/STM32WBxx_HAL_Driver/Src/stm32wbxx_hal_dma.c ****    (#) Use HAL_DMA_Abort() function to abort the current transfer
  46:Drivers/STM32WBxx_HAL_Driver/Src/stm32wbxx_hal_dma.c **** 
  47:Drivers/STM32WBxx_HAL_Driver/Src/stm32wbxx_hal_dma.c ****      -@-   In Memory-to-Memory transfer mode, Circular mode is not allowed.
  48:Drivers/STM32WBxx_HAL_Driver/Src/stm32wbxx_hal_dma.c **** 
  49:Drivers/STM32WBxx_HAL_Driver/Src/stm32wbxx_hal_dma.c ****      *** Polling mode IO operation ***
  50:Drivers/STM32WBxx_HAL_Driver/Src/stm32wbxx_hal_dma.c ****      =================================
  51:Drivers/STM32WBxx_HAL_Driver/Src/stm32wbxx_hal_dma.c ****     [..]
  52:Drivers/STM32WBxx_HAL_Driver/Src/stm32wbxx_hal_dma.c ****           (+) Use HAL_DMA_Start() to start DMA transfer after the configuration of Source
  53:Drivers/STM32WBxx_HAL_Driver/Src/stm32wbxx_hal_dma.c ****               address and destination address and the Length of data to be transferred
  54:Drivers/STM32WBxx_HAL_Driver/Src/stm32wbxx_hal_dma.c ****           (+) Use HAL_DMA_PollForTransfer() to poll for the end of current transfer, in this
  55:Drivers/STM32WBxx_HAL_Driver/Src/stm32wbxx_hal_dma.c ****               case a fixed Timeout can be configured by User depending from his application.
  56:Drivers/STM32WBxx_HAL_Driver/Src/stm32wbxx_hal_dma.c **** 
  57:Drivers/STM32WBxx_HAL_Driver/Src/stm32wbxx_hal_dma.c ****      *** Interrupt mode IO operation ***
  58:Drivers/STM32WBxx_HAL_Driver/Src/stm32wbxx_hal_dma.c ****      ===================================
  59:Drivers/STM32WBxx_HAL_Driver/Src/stm32wbxx_hal_dma.c ****     [..]
  60:Drivers/STM32WBxx_HAL_Driver/Src/stm32wbxx_hal_dma.c ****           (+) Configure the DMA interrupt priority using HAL_NVIC_SetPriority()
  61:Drivers/STM32WBxx_HAL_Driver/Src/stm32wbxx_hal_dma.c ****           (+) Enable the DMA IRQ handler using HAL_NVIC_EnableIRQ()
  62:Drivers/STM32WBxx_HAL_Driver/Src/stm32wbxx_hal_dma.c ****           (+) Use HAL_DMA_Start_IT() to start DMA transfer after the configuration of
  63:Drivers/STM32WBxx_HAL_Driver/Src/stm32wbxx_hal_dma.c ****               Source address and destination address and the Length of data to be transferred.
  64:Drivers/STM32WBxx_HAL_Driver/Src/stm32wbxx_hal_dma.c ****               In this case the DMA interrupt is configured
  65:Drivers/STM32WBxx_HAL_Driver/Src/stm32wbxx_hal_dma.c ****           (+) Use HAL_DMA_IRQHandler() called under DMA_IRQHandler() Interrupt subroutine
  66:Drivers/STM32WBxx_HAL_Driver/Src/stm32wbxx_hal_dma.c ****           (+) At the end of data transfer HAL_DMA_IRQHandler() function is executed and user can
  67:Drivers/STM32WBxx_HAL_Driver/Src/stm32wbxx_hal_dma.c ****               add his own function to register callbacks with HAL_DMA_RegisterCallback().
  68:Drivers/STM32WBxx_HAL_Driver/Src/stm32wbxx_hal_dma.c **** 
  69:Drivers/STM32WBxx_HAL_Driver/Src/stm32wbxx_hal_dma.c ****      *** DMA HAL driver macros list ***
  70:Drivers/STM32WBxx_HAL_Driver/Src/stm32wbxx_hal_dma.c ****      =============================================
  71:Drivers/STM32WBxx_HAL_Driver/Src/stm32wbxx_hal_dma.c ****       [..]
  72:Drivers/STM32WBxx_HAL_Driver/Src/stm32wbxx_hal_dma.c ****        Below the list of macros in DMA HAL driver.
  73:Drivers/STM32WBxx_HAL_Driver/Src/stm32wbxx_hal_dma.c **** 
  74:Drivers/STM32WBxx_HAL_Driver/Src/stm32wbxx_hal_dma.c ****        (+) __HAL_DMA_ENABLE: Enable the specified DMA Channel.
  75:Drivers/STM32WBxx_HAL_Driver/Src/stm32wbxx_hal_dma.c ****        (+) __HAL_DMA_DISABLE: Disable the specified DMA Channel.
  76:Drivers/STM32WBxx_HAL_Driver/Src/stm32wbxx_hal_dma.c ****        (+) __HAL_DMA_GET_FLAG: Get the DMA Channel pending flags.
  77:Drivers/STM32WBxx_HAL_Driver/Src/stm32wbxx_hal_dma.c ****        (+) __HAL_DMA_CLEAR_FLAG: Clear the DMA Channel pending flags.
  78:Drivers/STM32WBxx_HAL_Driver/Src/stm32wbxx_hal_dma.c ****        (+) __HAL_DMA_ENABLE_IT: Enable the specified DMA Channel interrupts.
  79:Drivers/STM32WBxx_HAL_Driver/Src/stm32wbxx_hal_dma.c ****        (+) __HAL_DMA_DISABLE_IT: Disable the specified DMA Channel interrupts.
  80:Drivers/STM32WBxx_HAL_Driver/Src/stm32wbxx_hal_dma.c ****        (+) __HAL_DMA_GET_IT_SOURCE: Check whether the specified DMA Channel interrupt is enabled or
  81:Drivers/STM32WBxx_HAL_Driver/Src/stm32wbxx_hal_dma.c **** 
  82:Drivers/STM32WBxx_HAL_Driver/Src/stm32wbxx_hal_dma.c ****      [..]
  83:Drivers/STM32WBxx_HAL_Driver/Src/stm32wbxx_hal_dma.c ****       (@) You can refer to the DMA HAL driver header file for more useful macros
  84:Drivers/STM32WBxx_HAL_Driver/Src/stm32wbxx_hal_dma.c **** 
  85:Drivers/STM32WBxx_HAL_Driver/Src/stm32wbxx_hal_dma.c ****   @endverbatim
  86:Drivers/STM32WBxx_HAL_Driver/Src/stm32wbxx_hal_dma.c ****   ******************************************************************************
  87:Drivers/STM32WBxx_HAL_Driver/Src/stm32wbxx_hal_dma.c ****   */
ARM GAS  /var/folders/lt/l_qrc8c54t93n_phsj7cf5tc0000gn/T//cc1tXrem.s 			page 3


  88:Drivers/STM32WBxx_HAL_Driver/Src/stm32wbxx_hal_dma.c **** 
  89:Drivers/STM32WBxx_HAL_Driver/Src/stm32wbxx_hal_dma.c **** /* Includes ------------------------------------------------------------------*/
  90:Drivers/STM32WBxx_HAL_Driver/Src/stm32wbxx_hal_dma.c **** #include "stm32wbxx_hal.h"
  91:Drivers/STM32WBxx_HAL_Driver/Src/stm32wbxx_hal_dma.c **** 
  92:Drivers/STM32WBxx_HAL_Driver/Src/stm32wbxx_hal_dma.c **** /** @addtogroup STM32WBxx_HAL_Driver
  93:Drivers/STM32WBxx_HAL_Driver/Src/stm32wbxx_hal_dma.c ****   * @{
  94:Drivers/STM32WBxx_HAL_Driver/Src/stm32wbxx_hal_dma.c ****   */
  95:Drivers/STM32WBxx_HAL_Driver/Src/stm32wbxx_hal_dma.c **** 
  96:Drivers/STM32WBxx_HAL_Driver/Src/stm32wbxx_hal_dma.c **** /** @defgroup DMA DMA
  97:Drivers/STM32WBxx_HAL_Driver/Src/stm32wbxx_hal_dma.c ****   * @brief DMA HAL module driver
  98:Drivers/STM32WBxx_HAL_Driver/Src/stm32wbxx_hal_dma.c ****   * @{
  99:Drivers/STM32WBxx_HAL_Driver/Src/stm32wbxx_hal_dma.c ****   */
 100:Drivers/STM32WBxx_HAL_Driver/Src/stm32wbxx_hal_dma.c **** 
 101:Drivers/STM32WBxx_HAL_Driver/Src/stm32wbxx_hal_dma.c **** #ifdef HAL_DMA_MODULE_ENABLED
 102:Drivers/STM32WBxx_HAL_Driver/Src/stm32wbxx_hal_dma.c **** 
 103:Drivers/STM32WBxx_HAL_Driver/Src/stm32wbxx_hal_dma.c **** /* Private typedef -----------------------------------------------------------*/
 104:Drivers/STM32WBxx_HAL_Driver/Src/stm32wbxx_hal_dma.c **** /* Private define ------------------------------------------------------------*/
 105:Drivers/STM32WBxx_HAL_Driver/Src/stm32wbxx_hal_dma.c **** /* Private macro -------------------------------------------------------------*/
 106:Drivers/STM32WBxx_HAL_Driver/Src/stm32wbxx_hal_dma.c **** /* Private variables ---------------------------------------------------------*/
 107:Drivers/STM32WBxx_HAL_Driver/Src/stm32wbxx_hal_dma.c **** /* Private function prototypes -----------------------------------------------*/
 108:Drivers/STM32WBxx_HAL_Driver/Src/stm32wbxx_hal_dma.c **** /** @defgroup DMA_Private_Functions DMA Private Functions
 109:Drivers/STM32WBxx_HAL_Driver/Src/stm32wbxx_hal_dma.c ****   * @{
 110:Drivers/STM32WBxx_HAL_Driver/Src/stm32wbxx_hal_dma.c ****   */
 111:Drivers/STM32WBxx_HAL_Driver/Src/stm32wbxx_hal_dma.c **** static void DMA_SetConfig(DMA_HandleTypeDef *hdma, uint32_t SrcAddress, uint32_t DstAddress, uint32
 112:Drivers/STM32WBxx_HAL_Driver/Src/stm32wbxx_hal_dma.c **** static void DMA_CalcDMAMUXChannelBaseAndMask(DMA_HandleTypeDef *hdma);
 113:Drivers/STM32WBxx_HAL_Driver/Src/stm32wbxx_hal_dma.c **** static void DMA_CalcDMAMUXRequestGenBaseAndMask(DMA_HandleTypeDef *hdma);
 114:Drivers/STM32WBxx_HAL_Driver/Src/stm32wbxx_hal_dma.c **** 
 115:Drivers/STM32WBxx_HAL_Driver/Src/stm32wbxx_hal_dma.c **** /**
 116:Drivers/STM32WBxx_HAL_Driver/Src/stm32wbxx_hal_dma.c ****   * @}
 117:Drivers/STM32WBxx_HAL_Driver/Src/stm32wbxx_hal_dma.c ****   */
 118:Drivers/STM32WBxx_HAL_Driver/Src/stm32wbxx_hal_dma.c **** 
 119:Drivers/STM32WBxx_HAL_Driver/Src/stm32wbxx_hal_dma.c **** /* Exported functions ---------------------------------------------------------*/
 120:Drivers/STM32WBxx_HAL_Driver/Src/stm32wbxx_hal_dma.c **** 
 121:Drivers/STM32WBxx_HAL_Driver/Src/stm32wbxx_hal_dma.c **** /** @defgroup DMA_Exported_Functions DMA Exported Functions
 122:Drivers/STM32WBxx_HAL_Driver/Src/stm32wbxx_hal_dma.c ****   * @{
 123:Drivers/STM32WBxx_HAL_Driver/Src/stm32wbxx_hal_dma.c ****   */
 124:Drivers/STM32WBxx_HAL_Driver/Src/stm32wbxx_hal_dma.c **** 
 125:Drivers/STM32WBxx_HAL_Driver/Src/stm32wbxx_hal_dma.c **** /** @defgroup DMA_Exported_Functions_Group1 Initialization and de-initialization functions
 126:Drivers/STM32WBxx_HAL_Driver/Src/stm32wbxx_hal_dma.c ****  *  @brief   Initialization and de-initialization functions
 127:Drivers/STM32WBxx_HAL_Driver/Src/stm32wbxx_hal_dma.c ****  *
 128:Drivers/STM32WBxx_HAL_Driver/Src/stm32wbxx_hal_dma.c **** @verbatim
 129:Drivers/STM32WBxx_HAL_Driver/Src/stm32wbxx_hal_dma.c ****  ===============================================================================
 130:Drivers/STM32WBxx_HAL_Driver/Src/stm32wbxx_hal_dma.c ****              ##### Initialization and de-initialization functions  #####
 131:Drivers/STM32WBxx_HAL_Driver/Src/stm32wbxx_hal_dma.c ****  ===============================================================================
 132:Drivers/STM32WBxx_HAL_Driver/Src/stm32wbxx_hal_dma.c ****     [..]
 133:Drivers/STM32WBxx_HAL_Driver/Src/stm32wbxx_hal_dma.c ****     This section provides functions allowing to initialize the DMA Channel source
 134:Drivers/STM32WBxx_HAL_Driver/Src/stm32wbxx_hal_dma.c ****     and destination addresses, incrementation and data sizes, transfer direction,
 135:Drivers/STM32WBxx_HAL_Driver/Src/stm32wbxx_hal_dma.c ****     circular/normal mode selection, memory-to-memory mode selection and Channel priority value.
 136:Drivers/STM32WBxx_HAL_Driver/Src/stm32wbxx_hal_dma.c ****     [..]
 137:Drivers/STM32WBxx_HAL_Driver/Src/stm32wbxx_hal_dma.c ****     The HAL_DMA_Init() function follows the DMA configuration procedures as described in
 138:Drivers/STM32WBxx_HAL_Driver/Src/stm32wbxx_hal_dma.c ****     reference manual.
 139:Drivers/STM32WBxx_HAL_Driver/Src/stm32wbxx_hal_dma.c **** 
 140:Drivers/STM32WBxx_HAL_Driver/Src/stm32wbxx_hal_dma.c **** @endverbatim
 141:Drivers/STM32WBxx_HAL_Driver/Src/stm32wbxx_hal_dma.c ****   * @{
 142:Drivers/STM32WBxx_HAL_Driver/Src/stm32wbxx_hal_dma.c ****   */
 143:Drivers/STM32WBxx_HAL_Driver/Src/stm32wbxx_hal_dma.c **** 
 144:Drivers/STM32WBxx_HAL_Driver/Src/stm32wbxx_hal_dma.c **** /**
ARM GAS  /var/folders/lt/l_qrc8c54t93n_phsj7cf5tc0000gn/T//cc1tXrem.s 			page 4


 145:Drivers/STM32WBxx_HAL_Driver/Src/stm32wbxx_hal_dma.c ****   * @brief  Initialize the DMA according to the specified
 146:Drivers/STM32WBxx_HAL_Driver/Src/stm32wbxx_hal_dma.c ****   *         parameters in the DMA_InitTypeDef and initialize the associated handle.
 147:Drivers/STM32WBxx_HAL_Driver/Src/stm32wbxx_hal_dma.c ****   * @param hdma Pointer to a DMA_HandleTypeDef structure that contains
 148:Drivers/STM32WBxx_HAL_Driver/Src/stm32wbxx_hal_dma.c ****   *               the configuration information for the specified DMA Channel.
 149:Drivers/STM32WBxx_HAL_Driver/Src/stm32wbxx_hal_dma.c ****   * @retval HAL status
 150:Drivers/STM32WBxx_HAL_Driver/Src/stm32wbxx_hal_dma.c ****   */
 151:Drivers/STM32WBxx_HAL_Driver/Src/stm32wbxx_hal_dma.c **** HAL_StatusTypeDef HAL_DMA_Init(DMA_HandleTypeDef *hdma)
 152:Drivers/STM32WBxx_HAL_Driver/Src/stm32wbxx_hal_dma.c **** {
 153:Drivers/STM32WBxx_HAL_Driver/Src/stm32wbxx_hal_dma.c ****   uint32_t tmp;
 154:Drivers/STM32WBxx_HAL_Driver/Src/stm32wbxx_hal_dma.c **** 
 155:Drivers/STM32WBxx_HAL_Driver/Src/stm32wbxx_hal_dma.c ****   /* Check the DMA handle allocation */
 156:Drivers/STM32WBxx_HAL_Driver/Src/stm32wbxx_hal_dma.c ****   if (hdma == NULL)
 157:Drivers/STM32WBxx_HAL_Driver/Src/stm32wbxx_hal_dma.c ****   {
 158:Drivers/STM32WBxx_HAL_Driver/Src/stm32wbxx_hal_dma.c ****     return HAL_ERROR;
 159:Drivers/STM32WBxx_HAL_Driver/Src/stm32wbxx_hal_dma.c ****   }
 160:Drivers/STM32WBxx_HAL_Driver/Src/stm32wbxx_hal_dma.c **** 
 161:Drivers/STM32WBxx_HAL_Driver/Src/stm32wbxx_hal_dma.c ****   /* Check the parameters */
 162:Drivers/STM32WBxx_HAL_Driver/Src/stm32wbxx_hal_dma.c ****   assert_param(IS_DMA_ALL_INSTANCE(hdma->Instance));
 163:Drivers/STM32WBxx_HAL_Driver/Src/stm32wbxx_hal_dma.c ****   assert_param(IS_DMA_DIRECTION(hdma->Init.Direction));
 164:Drivers/STM32WBxx_HAL_Driver/Src/stm32wbxx_hal_dma.c ****   assert_param(IS_DMA_PERIPHERAL_INC_STATE(hdma->Init.PeriphInc));
 165:Drivers/STM32WBxx_HAL_Driver/Src/stm32wbxx_hal_dma.c ****   assert_param(IS_DMA_MEMORY_INC_STATE(hdma->Init.MemInc));
 166:Drivers/STM32WBxx_HAL_Driver/Src/stm32wbxx_hal_dma.c ****   assert_param(IS_DMA_PERIPHERAL_DATA_SIZE(hdma->Init.PeriphDataAlignment));
 167:Drivers/STM32WBxx_HAL_Driver/Src/stm32wbxx_hal_dma.c ****   assert_param(IS_DMA_MEMORY_DATA_SIZE(hdma->Init.MemDataAlignment));
 168:Drivers/STM32WBxx_HAL_Driver/Src/stm32wbxx_hal_dma.c ****   assert_param(IS_DMA_MODE(hdma->Init.Mode));
 169:Drivers/STM32WBxx_HAL_Driver/Src/stm32wbxx_hal_dma.c ****   assert_param(IS_DMA_PRIORITY(hdma->Init.Priority));
 170:Drivers/STM32WBxx_HAL_Driver/Src/stm32wbxx_hal_dma.c **** 
 171:Drivers/STM32WBxx_HAL_Driver/Src/stm32wbxx_hal_dma.c ****   assert_param(IS_DMA_ALL_REQUEST(hdma->Init.Request));
 172:Drivers/STM32WBxx_HAL_Driver/Src/stm32wbxx_hal_dma.c **** 
 173:Drivers/STM32WBxx_HAL_Driver/Src/stm32wbxx_hal_dma.c **** #if defined(DMA2)
 174:Drivers/STM32WBxx_HAL_Driver/Src/stm32wbxx_hal_dma.c ****   /* Compute the channel index */
 175:Drivers/STM32WBxx_HAL_Driver/Src/stm32wbxx_hal_dma.c ****   if ((uint32_t)(hdma->Instance) < (uint32_t)(DMA2_Channel1))
 176:Drivers/STM32WBxx_HAL_Driver/Src/stm32wbxx_hal_dma.c ****   {
 177:Drivers/STM32WBxx_HAL_Driver/Src/stm32wbxx_hal_dma.c ****     /* DMA1 */
 178:Drivers/STM32WBxx_HAL_Driver/Src/stm32wbxx_hal_dma.c ****     hdma->ChannelIndex = (((uint32_t)hdma->Instance - (uint32_t)DMA1_Channel1) / ((uint32_t)DMA1_Ch
 179:Drivers/STM32WBxx_HAL_Driver/Src/stm32wbxx_hal_dma.c ****     hdma->DmaBaseAddress = DMA1;
 180:Drivers/STM32WBxx_HAL_Driver/Src/stm32wbxx_hal_dma.c ****   }
 181:Drivers/STM32WBxx_HAL_Driver/Src/stm32wbxx_hal_dma.c ****   else
 182:Drivers/STM32WBxx_HAL_Driver/Src/stm32wbxx_hal_dma.c ****   {
 183:Drivers/STM32WBxx_HAL_Driver/Src/stm32wbxx_hal_dma.c ****     /* DMA2 */
 184:Drivers/STM32WBxx_HAL_Driver/Src/stm32wbxx_hal_dma.c ****     hdma->ChannelIndex = (((uint32_t)hdma->Instance - (uint32_t)DMA2_Channel1) / ((uint32_t)DMA2_Ch
 185:Drivers/STM32WBxx_HAL_Driver/Src/stm32wbxx_hal_dma.c ****     hdma->DmaBaseAddress = DMA2;
 186:Drivers/STM32WBxx_HAL_Driver/Src/stm32wbxx_hal_dma.c ****   }
 187:Drivers/STM32WBxx_HAL_Driver/Src/stm32wbxx_hal_dma.c **** #else
 188:Drivers/STM32WBxx_HAL_Driver/Src/stm32wbxx_hal_dma.c ****   /* DMA1 */
 189:Drivers/STM32WBxx_HAL_Driver/Src/stm32wbxx_hal_dma.c ****   hdma->ChannelIndex = (((uint32_t)hdma->Instance - (uint32_t)DMA1_Channel1) / ((uint32_t)DMA1_Chan
 190:Drivers/STM32WBxx_HAL_Driver/Src/stm32wbxx_hal_dma.c ****   hdma->DmaBaseAddress = DMA1;
 191:Drivers/STM32WBxx_HAL_Driver/Src/stm32wbxx_hal_dma.c **** #endif
 192:Drivers/STM32WBxx_HAL_Driver/Src/stm32wbxx_hal_dma.c **** 
 193:Drivers/STM32WBxx_HAL_Driver/Src/stm32wbxx_hal_dma.c ****   /* Change DMA peripheral state */
 194:Drivers/STM32WBxx_HAL_Driver/Src/stm32wbxx_hal_dma.c ****   hdma->State = HAL_DMA_STATE_BUSY;
 195:Drivers/STM32WBxx_HAL_Driver/Src/stm32wbxx_hal_dma.c **** 
 196:Drivers/STM32WBxx_HAL_Driver/Src/stm32wbxx_hal_dma.c ****   /* Get the CR register value */
 197:Drivers/STM32WBxx_HAL_Driver/Src/stm32wbxx_hal_dma.c ****   tmp = hdma->Instance->CCR;
 198:Drivers/STM32WBxx_HAL_Driver/Src/stm32wbxx_hal_dma.c **** 
 199:Drivers/STM32WBxx_HAL_Driver/Src/stm32wbxx_hal_dma.c ****   /* Clear PL, MSIZE, PSIZE, MINC, PINC, CIRC, DIR and MEM2MEM bits */
 200:Drivers/STM32WBxx_HAL_Driver/Src/stm32wbxx_hal_dma.c ****   tmp &= ((uint32_t)~(DMA_CCR_PL    | DMA_CCR_MSIZE  | DMA_CCR_PSIZE  |
 201:Drivers/STM32WBxx_HAL_Driver/Src/stm32wbxx_hal_dma.c ****                       DMA_CCR_MINC  | DMA_CCR_PINC   | DMA_CCR_CIRC   |
ARM GAS  /var/folders/lt/l_qrc8c54t93n_phsj7cf5tc0000gn/T//cc1tXrem.s 			page 5


 202:Drivers/STM32WBxx_HAL_Driver/Src/stm32wbxx_hal_dma.c ****                       DMA_CCR_DIR   | DMA_CCR_MEM2MEM));
 203:Drivers/STM32WBxx_HAL_Driver/Src/stm32wbxx_hal_dma.c **** 
 204:Drivers/STM32WBxx_HAL_Driver/Src/stm32wbxx_hal_dma.c ****   /* Prepare the DMA Channel configuration */
 205:Drivers/STM32WBxx_HAL_Driver/Src/stm32wbxx_hal_dma.c ****   tmp |=  hdma->Init.Direction        |
 206:Drivers/STM32WBxx_HAL_Driver/Src/stm32wbxx_hal_dma.c ****           hdma->Init.PeriphInc           | hdma->Init.MemInc           |
 207:Drivers/STM32WBxx_HAL_Driver/Src/stm32wbxx_hal_dma.c ****           hdma->Init.PeriphDataAlignment | hdma->Init.MemDataAlignment |
 208:Drivers/STM32WBxx_HAL_Driver/Src/stm32wbxx_hal_dma.c ****           hdma->Init.Mode                | hdma->Init.Priority;
 209:Drivers/STM32WBxx_HAL_Driver/Src/stm32wbxx_hal_dma.c **** 
 210:Drivers/STM32WBxx_HAL_Driver/Src/stm32wbxx_hal_dma.c ****   /* Write to DMA Channel CR register */
 211:Drivers/STM32WBxx_HAL_Driver/Src/stm32wbxx_hal_dma.c ****   hdma->Instance->CCR = tmp;
 212:Drivers/STM32WBxx_HAL_Driver/Src/stm32wbxx_hal_dma.c **** 
 213:Drivers/STM32WBxx_HAL_Driver/Src/stm32wbxx_hal_dma.c ****   /* Initialize parameters for DMAMUX channel :
 214:Drivers/STM32WBxx_HAL_Driver/Src/stm32wbxx_hal_dma.c ****      DMAmuxChannel, DMAmuxChannelStatus and DMAmuxChannelStatusMask
 215:Drivers/STM32WBxx_HAL_Driver/Src/stm32wbxx_hal_dma.c ****   */
 216:Drivers/STM32WBxx_HAL_Driver/Src/stm32wbxx_hal_dma.c ****   DMA_CalcDMAMUXChannelBaseAndMask(hdma);
 217:Drivers/STM32WBxx_HAL_Driver/Src/stm32wbxx_hal_dma.c **** 
 218:Drivers/STM32WBxx_HAL_Driver/Src/stm32wbxx_hal_dma.c ****   if (hdma->Init.Direction == DMA_MEMORY_TO_MEMORY)
 219:Drivers/STM32WBxx_HAL_Driver/Src/stm32wbxx_hal_dma.c ****   {
 220:Drivers/STM32WBxx_HAL_Driver/Src/stm32wbxx_hal_dma.c ****     /* if memory to memory force the request to 0*/
 221:Drivers/STM32WBxx_HAL_Driver/Src/stm32wbxx_hal_dma.c ****     hdma->Init.Request = DMA_REQUEST_MEM2MEM;
 222:Drivers/STM32WBxx_HAL_Driver/Src/stm32wbxx_hal_dma.c ****   }
 223:Drivers/STM32WBxx_HAL_Driver/Src/stm32wbxx_hal_dma.c **** 
 224:Drivers/STM32WBxx_HAL_Driver/Src/stm32wbxx_hal_dma.c ****   /* Set peripheral request  to DMAMUX channel */
 225:Drivers/STM32WBxx_HAL_Driver/Src/stm32wbxx_hal_dma.c ****   hdma->DMAmuxChannel->CCR = (hdma->Init.Request & DMAMUX_CxCR_DMAREQ_ID);
 226:Drivers/STM32WBxx_HAL_Driver/Src/stm32wbxx_hal_dma.c **** 
 227:Drivers/STM32WBxx_HAL_Driver/Src/stm32wbxx_hal_dma.c ****   /* Clear the DMAMUX synchro overrun flag */
 228:Drivers/STM32WBxx_HAL_Driver/Src/stm32wbxx_hal_dma.c ****   hdma->DMAmuxChannelStatus->CFR = hdma->DMAmuxChannelStatusMask;
 229:Drivers/STM32WBxx_HAL_Driver/Src/stm32wbxx_hal_dma.c **** 
 230:Drivers/STM32WBxx_HAL_Driver/Src/stm32wbxx_hal_dma.c ****   if (((hdma->Init.Request >  0U) && (hdma->Init.Request <= DMA_REQUEST_GENERATOR3)))
 231:Drivers/STM32WBxx_HAL_Driver/Src/stm32wbxx_hal_dma.c ****   {
 232:Drivers/STM32WBxx_HAL_Driver/Src/stm32wbxx_hal_dma.c ****     /* Initialize parameters for DMAMUX request generator :
 233:Drivers/STM32WBxx_HAL_Driver/Src/stm32wbxx_hal_dma.c ****        DMAmuxRequestGen, DMAmuxRequestGenStatus and DMAmuxRequestGenStatusMask
 234:Drivers/STM32WBxx_HAL_Driver/Src/stm32wbxx_hal_dma.c ****     */
 235:Drivers/STM32WBxx_HAL_Driver/Src/stm32wbxx_hal_dma.c ****     DMA_CalcDMAMUXRequestGenBaseAndMask(hdma);
 236:Drivers/STM32WBxx_HAL_Driver/Src/stm32wbxx_hal_dma.c **** 
 237:Drivers/STM32WBxx_HAL_Driver/Src/stm32wbxx_hal_dma.c ****     /* Reset the DMAMUX request generator register*/
 238:Drivers/STM32WBxx_HAL_Driver/Src/stm32wbxx_hal_dma.c ****     hdma->DMAmuxRequestGen->RGCR = 0U;
 239:Drivers/STM32WBxx_HAL_Driver/Src/stm32wbxx_hal_dma.c **** 
 240:Drivers/STM32WBxx_HAL_Driver/Src/stm32wbxx_hal_dma.c ****     /* Clear the DMAMUX request generator overrun flag */
 241:Drivers/STM32WBxx_HAL_Driver/Src/stm32wbxx_hal_dma.c ****     hdma->DMAmuxRequestGenStatus->RGCFR = hdma->DMAmuxRequestGenStatusMask;
 242:Drivers/STM32WBxx_HAL_Driver/Src/stm32wbxx_hal_dma.c ****   }
 243:Drivers/STM32WBxx_HAL_Driver/Src/stm32wbxx_hal_dma.c ****   else
 244:Drivers/STM32WBxx_HAL_Driver/Src/stm32wbxx_hal_dma.c ****   {
 245:Drivers/STM32WBxx_HAL_Driver/Src/stm32wbxx_hal_dma.c ****     hdma->DMAmuxRequestGen = 0U;
 246:Drivers/STM32WBxx_HAL_Driver/Src/stm32wbxx_hal_dma.c ****     hdma->DMAmuxRequestGenStatus = 0U;
 247:Drivers/STM32WBxx_HAL_Driver/Src/stm32wbxx_hal_dma.c ****     hdma->DMAmuxRequestGenStatusMask = 0U;
 248:Drivers/STM32WBxx_HAL_Driver/Src/stm32wbxx_hal_dma.c ****   }
 249:Drivers/STM32WBxx_HAL_Driver/Src/stm32wbxx_hal_dma.c **** 
 250:Drivers/STM32WBxx_HAL_Driver/Src/stm32wbxx_hal_dma.c ****   /* Initialize the error code */
 251:Drivers/STM32WBxx_HAL_Driver/Src/stm32wbxx_hal_dma.c ****   hdma->ErrorCode = HAL_DMA_ERROR_NONE;
 252:Drivers/STM32WBxx_HAL_Driver/Src/stm32wbxx_hal_dma.c **** 
 253:Drivers/STM32WBxx_HAL_Driver/Src/stm32wbxx_hal_dma.c ****   /* Initialize the DMA state*/
 254:Drivers/STM32WBxx_HAL_Driver/Src/stm32wbxx_hal_dma.c ****   hdma->State  = HAL_DMA_STATE_READY;
 255:Drivers/STM32WBxx_HAL_Driver/Src/stm32wbxx_hal_dma.c **** 
 256:Drivers/STM32WBxx_HAL_Driver/Src/stm32wbxx_hal_dma.c ****   /* Allocate lock resource and initialize it */
 257:Drivers/STM32WBxx_HAL_Driver/Src/stm32wbxx_hal_dma.c ****   hdma->Lock = HAL_UNLOCKED;
 258:Drivers/STM32WBxx_HAL_Driver/Src/stm32wbxx_hal_dma.c **** 
ARM GAS  /var/folders/lt/l_qrc8c54t93n_phsj7cf5tc0000gn/T//cc1tXrem.s 			page 6


 259:Drivers/STM32WBxx_HAL_Driver/Src/stm32wbxx_hal_dma.c ****   return HAL_OK;
 260:Drivers/STM32WBxx_HAL_Driver/Src/stm32wbxx_hal_dma.c **** }
 261:Drivers/STM32WBxx_HAL_Driver/Src/stm32wbxx_hal_dma.c **** 
 262:Drivers/STM32WBxx_HAL_Driver/Src/stm32wbxx_hal_dma.c **** /**
 263:Drivers/STM32WBxx_HAL_Driver/Src/stm32wbxx_hal_dma.c ****   * @brief  DeInitialize the DMA peripheral.
 264:Drivers/STM32WBxx_HAL_Driver/Src/stm32wbxx_hal_dma.c ****   * @param hdma Pointer to a DMA_HandleTypeDef structure that contains
 265:Drivers/STM32WBxx_HAL_Driver/Src/stm32wbxx_hal_dma.c ****   *               the configuration information for the specified DMA Channel.
 266:Drivers/STM32WBxx_HAL_Driver/Src/stm32wbxx_hal_dma.c ****   * @retval HAL status
 267:Drivers/STM32WBxx_HAL_Driver/Src/stm32wbxx_hal_dma.c ****   */
 268:Drivers/STM32WBxx_HAL_Driver/Src/stm32wbxx_hal_dma.c **** HAL_StatusTypeDef HAL_DMA_DeInit(DMA_HandleTypeDef *hdma)
 269:Drivers/STM32WBxx_HAL_Driver/Src/stm32wbxx_hal_dma.c **** {
 270:Drivers/STM32WBxx_HAL_Driver/Src/stm32wbxx_hal_dma.c **** 
 271:Drivers/STM32WBxx_HAL_Driver/Src/stm32wbxx_hal_dma.c ****   /* Check the DMA handle allocation */
 272:Drivers/STM32WBxx_HAL_Driver/Src/stm32wbxx_hal_dma.c ****   if (NULL == hdma)
 273:Drivers/STM32WBxx_HAL_Driver/Src/stm32wbxx_hal_dma.c ****   {
 274:Drivers/STM32WBxx_HAL_Driver/Src/stm32wbxx_hal_dma.c ****     return HAL_ERROR;
 275:Drivers/STM32WBxx_HAL_Driver/Src/stm32wbxx_hal_dma.c ****   }
 276:Drivers/STM32WBxx_HAL_Driver/Src/stm32wbxx_hal_dma.c **** 
 277:Drivers/STM32WBxx_HAL_Driver/Src/stm32wbxx_hal_dma.c ****   /* Check the parameters */
 278:Drivers/STM32WBxx_HAL_Driver/Src/stm32wbxx_hal_dma.c ****   assert_param(IS_DMA_ALL_INSTANCE(hdma->Instance));
 279:Drivers/STM32WBxx_HAL_Driver/Src/stm32wbxx_hal_dma.c **** 
 280:Drivers/STM32WBxx_HAL_Driver/Src/stm32wbxx_hal_dma.c ****   /* Disable the selected DMA Channelx */
 281:Drivers/STM32WBxx_HAL_Driver/Src/stm32wbxx_hal_dma.c ****   __HAL_DMA_DISABLE(hdma);
 282:Drivers/STM32WBxx_HAL_Driver/Src/stm32wbxx_hal_dma.c **** 
 283:Drivers/STM32WBxx_HAL_Driver/Src/stm32wbxx_hal_dma.c **** #if defined(DMA2)
 284:Drivers/STM32WBxx_HAL_Driver/Src/stm32wbxx_hal_dma.c ****   /* Compute the channel index */
 285:Drivers/STM32WBxx_HAL_Driver/Src/stm32wbxx_hal_dma.c ****   if ((uint32_t)(hdma->Instance) < (uint32_t)(DMA2_Channel1))
 286:Drivers/STM32WBxx_HAL_Driver/Src/stm32wbxx_hal_dma.c ****   {
 287:Drivers/STM32WBxx_HAL_Driver/Src/stm32wbxx_hal_dma.c ****     /* DMA1 */
 288:Drivers/STM32WBxx_HAL_Driver/Src/stm32wbxx_hal_dma.c ****     hdma->ChannelIndex = (((uint32_t)hdma->Instance - (uint32_t)DMA1_Channel1) / ((uint32_t)DMA1_Ch
 289:Drivers/STM32WBxx_HAL_Driver/Src/stm32wbxx_hal_dma.c ****     hdma->DmaBaseAddress = DMA1;
 290:Drivers/STM32WBxx_HAL_Driver/Src/stm32wbxx_hal_dma.c ****   }
 291:Drivers/STM32WBxx_HAL_Driver/Src/stm32wbxx_hal_dma.c ****   else
 292:Drivers/STM32WBxx_HAL_Driver/Src/stm32wbxx_hal_dma.c ****   {
 293:Drivers/STM32WBxx_HAL_Driver/Src/stm32wbxx_hal_dma.c ****     /* DMA2 */
 294:Drivers/STM32WBxx_HAL_Driver/Src/stm32wbxx_hal_dma.c ****     hdma->ChannelIndex = (((uint32_t)hdma->Instance - (uint32_t)DMA2_Channel1) / ((uint32_t)DMA2_Ch
 295:Drivers/STM32WBxx_HAL_Driver/Src/stm32wbxx_hal_dma.c ****     hdma->DmaBaseAddress = DMA2;
 296:Drivers/STM32WBxx_HAL_Driver/Src/stm32wbxx_hal_dma.c ****   }
 297:Drivers/STM32WBxx_HAL_Driver/Src/stm32wbxx_hal_dma.c **** #else
 298:Drivers/STM32WBxx_HAL_Driver/Src/stm32wbxx_hal_dma.c ****   /* DMA1 */
 299:Drivers/STM32WBxx_HAL_Driver/Src/stm32wbxx_hal_dma.c ****   hdma->ChannelIndex = (((uint32_t)hdma->Instance - (uint32_t)DMA1_Channel1) / ((uint32_t)DMA1_Chan
 300:Drivers/STM32WBxx_HAL_Driver/Src/stm32wbxx_hal_dma.c ****   hdma->DmaBaseAddress = DMA1;
 301:Drivers/STM32WBxx_HAL_Driver/Src/stm32wbxx_hal_dma.c **** #endif
 302:Drivers/STM32WBxx_HAL_Driver/Src/stm32wbxx_hal_dma.c **** 
 303:Drivers/STM32WBxx_HAL_Driver/Src/stm32wbxx_hal_dma.c ****   /* Reset DMA Channel control register */
 304:Drivers/STM32WBxx_HAL_Driver/Src/stm32wbxx_hal_dma.c ****   hdma->Instance->CCR  = 0U;
 305:Drivers/STM32WBxx_HAL_Driver/Src/stm32wbxx_hal_dma.c **** 
 306:Drivers/STM32WBxx_HAL_Driver/Src/stm32wbxx_hal_dma.c ****   /* Clear all flags */
 307:Drivers/STM32WBxx_HAL_Driver/Src/stm32wbxx_hal_dma.c ****   hdma->DmaBaseAddress->IFCR = (DMA_ISR_GIF1 << (hdma->ChannelIndex & 0x1cU));
 308:Drivers/STM32WBxx_HAL_Driver/Src/stm32wbxx_hal_dma.c **** 
 309:Drivers/STM32WBxx_HAL_Driver/Src/stm32wbxx_hal_dma.c ****   /* Initialize parameters for DMAMUX channel :
 310:Drivers/STM32WBxx_HAL_Driver/Src/stm32wbxx_hal_dma.c ****      DMAmuxChannel, DMAmuxChannelStatus and DMAmuxChannelStatusMask */
 311:Drivers/STM32WBxx_HAL_Driver/Src/stm32wbxx_hal_dma.c **** 
 312:Drivers/STM32WBxx_HAL_Driver/Src/stm32wbxx_hal_dma.c ****   DMA_CalcDMAMUXChannelBaseAndMask(hdma);
 313:Drivers/STM32WBxx_HAL_Driver/Src/stm32wbxx_hal_dma.c **** 
 314:Drivers/STM32WBxx_HAL_Driver/Src/stm32wbxx_hal_dma.c ****   /* Reset the DMAMUX channel that corresponds to the DMA channel */
 315:Drivers/STM32WBxx_HAL_Driver/Src/stm32wbxx_hal_dma.c ****   hdma->DMAmuxChannel->CCR = 0U;
ARM GAS  /var/folders/lt/l_qrc8c54t93n_phsj7cf5tc0000gn/T//cc1tXrem.s 			page 7


 316:Drivers/STM32WBxx_HAL_Driver/Src/stm32wbxx_hal_dma.c **** 
 317:Drivers/STM32WBxx_HAL_Driver/Src/stm32wbxx_hal_dma.c ****   /* Clear the DMAMUX synchro overrun flag */
 318:Drivers/STM32WBxx_HAL_Driver/Src/stm32wbxx_hal_dma.c ****   hdma->DMAmuxChannelStatus->CFR = hdma->DMAmuxChannelStatusMask;
 319:Drivers/STM32WBxx_HAL_Driver/Src/stm32wbxx_hal_dma.c **** 
 320:Drivers/STM32WBxx_HAL_Driver/Src/stm32wbxx_hal_dma.c ****   /* Reset Request generator parameters if any */
 321:Drivers/STM32WBxx_HAL_Driver/Src/stm32wbxx_hal_dma.c ****   if (((hdma->Init.Request >  0U) && (hdma->Init.Request <= DMA_REQUEST_GENERATOR3)))
 322:Drivers/STM32WBxx_HAL_Driver/Src/stm32wbxx_hal_dma.c ****   {
 323:Drivers/STM32WBxx_HAL_Driver/Src/stm32wbxx_hal_dma.c ****     /* Initialize parameters for DMAMUX request generator :
 324:Drivers/STM32WBxx_HAL_Driver/Src/stm32wbxx_hal_dma.c ****        DMAmuxRequestGen, DMAmuxRequestGenStatus and DMAmuxRequestGenStatusMask
 325:Drivers/STM32WBxx_HAL_Driver/Src/stm32wbxx_hal_dma.c ****     */
 326:Drivers/STM32WBxx_HAL_Driver/Src/stm32wbxx_hal_dma.c ****     DMA_CalcDMAMUXRequestGenBaseAndMask(hdma);
 327:Drivers/STM32WBxx_HAL_Driver/Src/stm32wbxx_hal_dma.c **** 
 328:Drivers/STM32WBxx_HAL_Driver/Src/stm32wbxx_hal_dma.c ****     /* Reset the DMAMUX request generator register*/
 329:Drivers/STM32WBxx_HAL_Driver/Src/stm32wbxx_hal_dma.c ****     hdma->DMAmuxRequestGen->RGCR = 0U;
 330:Drivers/STM32WBxx_HAL_Driver/Src/stm32wbxx_hal_dma.c **** 
 331:Drivers/STM32WBxx_HAL_Driver/Src/stm32wbxx_hal_dma.c ****     /* Clear the DMAMUX request generator overrun flag */
 332:Drivers/STM32WBxx_HAL_Driver/Src/stm32wbxx_hal_dma.c ****     hdma->DMAmuxRequestGenStatus->RGCFR = hdma->DMAmuxRequestGenStatusMask;
 333:Drivers/STM32WBxx_HAL_Driver/Src/stm32wbxx_hal_dma.c ****   }
 334:Drivers/STM32WBxx_HAL_Driver/Src/stm32wbxx_hal_dma.c **** 
 335:Drivers/STM32WBxx_HAL_Driver/Src/stm32wbxx_hal_dma.c ****   hdma->DMAmuxRequestGen = 0U;
 336:Drivers/STM32WBxx_HAL_Driver/Src/stm32wbxx_hal_dma.c ****   hdma->DMAmuxRequestGenStatus = 0U;
 337:Drivers/STM32WBxx_HAL_Driver/Src/stm32wbxx_hal_dma.c ****   hdma->DMAmuxRequestGenStatusMask = 0U;
 338:Drivers/STM32WBxx_HAL_Driver/Src/stm32wbxx_hal_dma.c **** 
 339:Drivers/STM32WBxx_HAL_Driver/Src/stm32wbxx_hal_dma.c ****   /* Clean callbacks */
 340:Drivers/STM32WBxx_HAL_Driver/Src/stm32wbxx_hal_dma.c ****   hdma->XferCpltCallback = NULL;
 341:Drivers/STM32WBxx_HAL_Driver/Src/stm32wbxx_hal_dma.c ****   hdma->XferHalfCpltCallback = NULL;
 342:Drivers/STM32WBxx_HAL_Driver/Src/stm32wbxx_hal_dma.c ****   hdma->XferErrorCallback = NULL;
 343:Drivers/STM32WBxx_HAL_Driver/Src/stm32wbxx_hal_dma.c ****   hdma->XferAbortCallback = NULL;
 344:Drivers/STM32WBxx_HAL_Driver/Src/stm32wbxx_hal_dma.c **** 
 345:Drivers/STM32WBxx_HAL_Driver/Src/stm32wbxx_hal_dma.c ****   /* Initialize the error code */
 346:Drivers/STM32WBxx_HAL_Driver/Src/stm32wbxx_hal_dma.c ****   hdma->ErrorCode = HAL_DMA_ERROR_NONE;
 347:Drivers/STM32WBxx_HAL_Driver/Src/stm32wbxx_hal_dma.c **** 
 348:Drivers/STM32WBxx_HAL_Driver/Src/stm32wbxx_hal_dma.c ****   /* Initialize the DMA state */
 349:Drivers/STM32WBxx_HAL_Driver/Src/stm32wbxx_hal_dma.c ****   hdma->State = HAL_DMA_STATE_RESET;
 350:Drivers/STM32WBxx_HAL_Driver/Src/stm32wbxx_hal_dma.c **** 
 351:Drivers/STM32WBxx_HAL_Driver/Src/stm32wbxx_hal_dma.c ****   /* Release Lock */
 352:Drivers/STM32WBxx_HAL_Driver/Src/stm32wbxx_hal_dma.c ****   __HAL_UNLOCK(hdma);
 353:Drivers/STM32WBxx_HAL_Driver/Src/stm32wbxx_hal_dma.c **** 
 354:Drivers/STM32WBxx_HAL_Driver/Src/stm32wbxx_hal_dma.c ****   return HAL_OK;
 355:Drivers/STM32WBxx_HAL_Driver/Src/stm32wbxx_hal_dma.c **** }
 356:Drivers/STM32WBxx_HAL_Driver/Src/stm32wbxx_hal_dma.c **** 
 357:Drivers/STM32WBxx_HAL_Driver/Src/stm32wbxx_hal_dma.c **** /**
 358:Drivers/STM32WBxx_HAL_Driver/Src/stm32wbxx_hal_dma.c ****   * @}
 359:Drivers/STM32WBxx_HAL_Driver/Src/stm32wbxx_hal_dma.c ****   */
 360:Drivers/STM32WBxx_HAL_Driver/Src/stm32wbxx_hal_dma.c **** 
 361:Drivers/STM32WBxx_HAL_Driver/Src/stm32wbxx_hal_dma.c **** /** @defgroup DMA_Exported_Functions_Group2 Input and Output operation functions
 362:Drivers/STM32WBxx_HAL_Driver/Src/stm32wbxx_hal_dma.c ****  *  @brief   Input and Output operation functions
 363:Drivers/STM32WBxx_HAL_Driver/Src/stm32wbxx_hal_dma.c ****  *
 364:Drivers/STM32WBxx_HAL_Driver/Src/stm32wbxx_hal_dma.c **** @verbatim
 365:Drivers/STM32WBxx_HAL_Driver/Src/stm32wbxx_hal_dma.c ****  ===============================================================================
 366:Drivers/STM32WBxx_HAL_Driver/Src/stm32wbxx_hal_dma.c ****                       #####  IO operation functions  #####
 367:Drivers/STM32WBxx_HAL_Driver/Src/stm32wbxx_hal_dma.c ****  ===============================================================================
 368:Drivers/STM32WBxx_HAL_Driver/Src/stm32wbxx_hal_dma.c ****     [..]  This section provides functions allowing to:
 369:Drivers/STM32WBxx_HAL_Driver/Src/stm32wbxx_hal_dma.c ****       (+) Configure the source, destination address and data length and Start DMA transfer
 370:Drivers/STM32WBxx_HAL_Driver/Src/stm32wbxx_hal_dma.c ****       (+) Configure the source, destination address and data length and
 371:Drivers/STM32WBxx_HAL_Driver/Src/stm32wbxx_hal_dma.c ****           Start DMA transfer with interrupt
 372:Drivers/STM32WBxx_HAL_Driver/Src/stm32wbxx_hal_dma.c ****       (+) Abort DMA transfer
ARM GAS  /var/folders/lt/l_qrc8c54t93n_phsj7cf5tc0000gn/T//cc1tXrem.s 			page 8


 373:Drivers/STM32WBxx_HAL_Driver/Src/stm32wbxx_hal_dma.c ****       (+) Poll for transfer complete
 374:Drivers/STM32WBxx_HAL_Driver/Src/stm32wbxx_hal_dma.c ****       (+) Handle DMA interrupt request
 375:Drivers/STM32WBxx_HAL_Driver/Src/stm32wbxx_hal_dma.c **** 
 376:Drivers/STM32WBxx_HAL_Driver/Src/stm32wbxx_hal_dma.c **** @endverbatim
 377:Drivers/STM32WBxx_HAL_Driver/Src/stm32wbxx_hal_dma.c ****   * @{
 378:Drivers/STM32WBxx_HAL_Driver/Src/stm32wbxx_hal_dma.c ****   */
 379:Drivers/STM32WBxx_HAL_Driver/Src/stm32wbxx_hal_dma.c **** 
 380:Drivers/STM32WBxx_HAL_Driver/Src/stm32wbxx_hal_dma.c **** /**
 381:Drivers/STM32WBxx_HAL_Driver/Src/stm32wbxx_hal_dma.c ****   * @brief  Start the DMA Transfer.
 382:Drivers/STM32WBxx_HAL_Driver/Src/stm32wbxx_hal_dma.c ****   * @param hdma Pointer to a DMA_HandleTypeDef structure that contains
 383:Drivers/STM32WBxx_HAL_Driver/Src/stm32wbxx_hal_dma.c ****   *               the configuration information for the specified DMA Channel.
 384:Drivers/STM32WBxx_HAL_Driver/Src/stm32wbxx_hal_dma.c ****   * @param SrcAddress The source memory Buffer address
 385:Drivers/STM32WBxx_HAL_Driver/Src/stm32wbxx_hal_dma.c ****   * @param DstAddress The destination memory Buffer address
 386:Drivers/STM32WBxx_HAL_Driver/Src/stm32wbxx_hal_dma.c ****   * @param DataLength The length of data to be transferred from source to destination
 387:Drivers/STM32WBxx_HAL_Driver/Src/stm32wbxx_hal_dma.c ****   * @retval HAL status
 388:Drivers/STM32WBxx_HAL_Driver/Src/stm32wbxx_hal_dma.c ****   */
 389:Drivers/STM32WBxx_HAL_Driver/Src/stm32wbxx_hal_dma.c **** HAL_StatusTypeDef HAL_DMA_Start(DMA_HandleTypeDef *hdma, uint32_t SrcAddress, uint32_t DstAddress, 
 390:Drivers/STM32WBxx_HAL_Driver/Src/stm32wbxx_hal_dma.c **** {
 391:Drivers/STM32WBxx_HAL_Driver/Src/stm32wbxx_hal_dma.c ****   HAL_StatusTypeDef status = HAL_OK;
 392:Drivers/STM32WBxx_HAL_Driver/Src/stm32wbxx_hal_dma.c **** 
 393:Drivers/STM32WBxx_HAL_Driver/Src/stm32wbxx_hal_dma.c ****   /* Check the parameters */
 394:Drivers/STM32WBxx_HAL_Driver/Src/stm32wbxx_hal_dma.c ****   assert_param(IS_DMA_BUFFER_SIZE(DataLength));
 395:Drivers/STM32WBxx_HAL_Driver/Src/stm32wbxx_hal_dma.c **** 
 396:Drivers/STM32WBxx_HAL_Driver/Src/stm32wbxx_hal_dma.c ****   /* Process locked */
 397:Drivers/STM32WBxx_HAL_Driver/Src/stm32wbxx_hal_dma.c ****   __HAL_LOCK(hdma);
 398:Drivers/STM32WBxx_HAL_Driver/Src/stm32wbxx_hal_dma.c **** 
 399:Drivers/STM32WBxx_HAL_Driver/Src/stm32wbxx_hal_dma.c ****   if (HAL_DMA_STATE_READY == hdma->State)
 400:Drivers/STM32WBxx_HAL_Driver/Src/stm32wbxx_hal_dma.c ****   {
 401:Drivers/STM32WBxx_HAL_Driver/Src/stm32wbxx_hal_dma.c ****     /* Change DMA peripheral state */
 402:Drivers/STM32WBxx_HAL_Driver/Src/stm32wbxx_hal_dma.c ****     hdma->State = HAL_DMA_STATE_BUSY;
 403:Drivers/STM32WBxx_HAL_Driver/Src/stm32wbxx_hal_dma.c ****     hdma->ErrorCode = HAL_DMA_ERROR_NONE;
 404:Drivers/STM32WBxx_HAL_Driver/Src/stm32wbxx_hal_dma.c **** 
 405:Drivers/STM32WBxx_HAL_Driver/Src/stm32wbxx_hal_dma.c ****     /* Disable the peripheral */
 406:Drivers/STM32WBxx_HAL_Driver/Src/stm32wbxx_hal_dma.c ****     __HAL_DMA_DISABLE(hdma);
 407:Drivers/STM32WBxx_HAL_Driver/Src/stm32wbxx_hal_dma.c **** 
 408:Drivers/STM32WBxx_HAL_Driver/Src/stm32wbxx_hal_dma.c ****     /* Configure the source, destination address and the data length & clear flags*/
 409:Drivers/STM32WBxx_HAL_Driver/Src/stm32wbxx_hal_dma.c ****     DMA_SetConfig(hdma, SrcAddress, DstAddress, DataLength);
 410:Drivers/STM32WBxx_HAL_Driver/Src/stm32wbxx_hal_dma.c **** 
 411:Drivers/STM32WBxx_HAL_Driver/Src/stm32wbxx_hal_dma.c ****     /* Enable the Peripheral */
 412:Drivers/STM32WBxx_HAL_Driver/Src/stm32wbxx_hal_dma.c ****     __HAL_DMA_ENABLE(hdma);
 413:Drivers/STM32WBxx_HAL_Driver/Src/stm32wbxx_hal_dma.c ****   }
 414:Drivers/STM32WBxx_HAL_Driver/Src/stm32wbxx_hal_dma.c ****   else
 415:Drivers/STM32WBxx_HAL_Driver/Src/stm32wbxx_hal_dma.c ****   {
 416:Drivers/STM32WBxx_HAL_Driver/Src/stm32wbxx_hal_dma.c ****     /* Process Unlocked */
 417:Drivers/STM32WBxx_HAL_Driver/Src/stm32wbxx_hal_dma.c ****     __HAL_UNLOCK(hdma);
 418:Drivers/STM32WBxx_HAL_Driver/Src/stm32wbxx_hal_dma.c ****     status = HAL_BUSY;
 419:Drivers/STM32WBxx_HAL_Driver/Src/stm32wbxx_hal_dma.c ****   }
 420:Drivers/STM32WBxx_HAL_Driver/Src/stm32wbxx_hal_dma.c ****   return status;
 421:Drivers/STM32WBxx_HAL_Driver/Src/stm32wbxx_hal_dma.c **** }
 422:Drivers/STM32WBxx_HAL_Driver/Src/stm32wbxx_hal_dma.c **** 
 423:Drivers/STM32WBxx_HAL_Driver/Src/stm32wbxx_hal_dma.c **** /**
 424:Drivers/STM32WBxx_HAL_Driver/Src/stm32wbxx_hal_dma.c ****   * @brief  Start the DMA Transfer with interrupt enabled.
 425:Drivers/STM32WBxx_HAL_Driver/Src/stm32wbxx_hal_dma.c ****   * @param hdma Pointer to a DMA_HandleTypeDef structure that contains
 426:Drivers/STM32WBxx_HAL_Driver/Src/stm32wbxx_hal_dma.c ****   *               the configuration information for the specified DMA Channel.
 427:Drivers/STM32WBxx_HAL_Driver/Src/stm32wbxx_hal_dma.c ****   * @param SrcAddress The source memory Buffer address
 428:Drivers/STM32WBxx_HAL_Driver/Src/stm32wbxx_hal_dma.c ****   * @param DstAddress The destination memory Buffer address
 429:Drivers/STM32WBxx_HAL_Driver/Src/stm32wbxx_hal_dma.c ****   * @param DataLength The length of data to be transferred from source to destination
ARM GAS  /var/folders/lt/l_qrc8c54t93n_phsj7cf5tc0000gn/T//cc1tXrem.s 			page 9


 430:Drivers/STM32WBxx_HAL_Driver/Src/stm32wbxx_hal_dma.c ****   * @retval HAL status
 431:Drivers/STM32WBxx_HAL_Driver/Src/stm32wbxx_hal_dma.c ****   */
 432:Drivers/STM32WBxx_HAL_Driver/Src/stm32wbxx_hal_dma.c **** HAL_StatusTypeDef HAL_DMA_Start_IT(DMA_HandleTypeDef *hdma, uint32_t SrcAddress, uint32_t DstAddres
 433:Drivers/STM32WBxx_HAL_Driver/Src/stm32wbxx_hal_dma.c **** {
 434:Drivers/STM32WBxx_HAL_Driver/Src/stm32wbxx_hal_dma.c ****   HAL_StatusTypeDef status = HAL_OK;
 435:Drivers/STM32WBxx_HAL_Driver/Src/stm32wbxx_hal_dma.c **** 
 436:Drivers/STM32WBxx_HAL_Driver/Src/stm32wbxx_hal_dma.c ****   /* Check the parameters */
 437:Drivers/STM32WBxx_HAL_Driver/Src/stm32wbxx_hal_dma.c ****   assert_param(IS_DMA_BUFFER_SIZE(DataLength));
 438:Drivers/STM32WBxx_HAL_Driver/Src/stm32wbxx_hal_dma.c **** 
 439:Drivers/STM32WBxx_HAL_Driver/Src/stm32wbxx_hal_dma.c ****   /* Process locked */
 440:Drivers/STM32WBxx_HAL_Driver/Src/stm32wbxx_hal_dma.c ****   __HAL_LOCK(hdma);
 441:Drivers/STM32WBxx_HAL_Driver/Src/stm32wbxx_hal_dma.c **** 
 442:Drivers/STM32WBxx_HAL_Driver/Src/stm32wbxx_hal_dma.c ****   if (HAL_DMA_STATE_READY == hdma->State)
 443:Drivers/STM32WBxx_HAL_Driver/Src/stm32wbxx_hal_dma.c ****   {
 444:Drivers/STM32WBxx_HAL_Driver/Src/stm32wbxx_hal_dma.c ****     /* Change DMA peripheral state */
 445:Drivers/STM32WBxx_HAL_Driver/Src/stm32wbxx_hal_dma.c ****     hdma->State = HAL_DMA_STATE_BUSY;
 446:Drivers/STM32WBxx_HAL_Driver/Src/stm32wbxx_hal_dma.c ****     hdma->ErrorCode = HAL_DMA_ERROR_NONE;
 447:Drivers/STM32WBxx_HAL_Driver/Src/stm32wbxx_hal_dma.c **** 
 448:Drivers/STM32WBxx_HAL_Driver/Src/stm32wbxx_hal_dma.c ****     /* Disable the peripheral */
 449:Drivers/STM32WBxx_HAL_Driver/Src/stm32wbxx_hal_dma.c ****     __HAL_DMA_DISABLE(hdma);
 450:Drivers/STM32WBxx_HAL_Driver/Src/stm32wbxx_hal_dma.c **** 
 451:Drivers/STM32WBxx_HAL_Driver/Src/stm32wbxx_hal_dma.c ****     /* Configure the source, destination address and the data length & clear flags*/
 452:Drivers/STM32WBxx_HAL_Driver/Src/stm32wbxx_hal_dma.c ****     DMA_SetConfig(hdma, SrcAddress, DstAddress, DataLength);
 453:Drivers/STM32WBxx_HAL_Driver/Src/stm32wbxx_hal_dma.c **** 
 454:Drivers/STM32WBxx_HAL_Driver/Src/stm32wbxx_hal_dma.c ****     /* Enable the transfer complete interrupt */
 455:Drivers/STM32WBxx_HAL_Driver/Src/stm32wbxx_hal_dma.c ****     /* Enable the transfer Error interrupt */
 456:Drivers/STM32WBxx_HAL_Driver/Src/stm32wbxx_hal_dma.c ****     if (NULL != hdma->XferHalfCpltCallback)
 457:Drivers/STM32WBxx_HAL_Driver/Src/stm32wbxx_hal_dma.c ****     {
 458:Drivers/STM32WBxx_HAL_Driver/Src/stm32wbxx_hal_dma.c ****       /* Enable the Half transfer complete interrupt as well */
 459:Drivers/STM32WBxx_HAL_Driver/Src/stm32wbxx_hal_dma.c ****       __HAL_DMA_ENABLE_IT(hdma, (DMA_IT_TC | DMA_IT_HT | DMA_IT_TE));
 460:Drivers/STM32WBxx_HAL_Driver/Src/stm32wbxx_hal_dma.c ****     }
 461:Drivers/STM32WBxx_HAL_Driver/Src/stm32wbxx_hal_dma.c ****     else
 462:Drivers/STM32WBxx_HAL_Driver/Src/stm32wbxx_hal_dma.c ****     {
 463:Drivers/STM32WBxx_HAL_Driver/Src/stm32wbxx_hal_dma.c ****       __HAL_DMA_DISABLE_IT(hdma, DMA_IT_HT);
 464:Drivers/STM32WBxx_HAL_Driver/Src/stm32wbxx_hal_dma.c ****       __HAL_DMA_ENABLE_IT(hdma, (DMA_IT_TC | DMA_IT_TE));
 465:Drivers/STM32WBxx_HAL_Driver/Src/stm32wbxx_hal_dma.c ****     }
 466:Drivers/STM32WBxx_HAL_Driver/Src/stm32wbxx_hal_dma.c **** 
 467:Drivers/STM32WBxx_HAL_Driver/Src/stm32wbxx_hal_dma.c ****     /* Check if DMAMUX Synchronization is enabled*/
 468:Drivers/STM32WBxx_HAL_Driver/Src/stm32wbxx_hal_dma.c ****     if ((hdma->DMAmuxChannel->CCR & DMAMUX_CxCR_SE) != 0U)
 469:Drivers/STM32WBxx_HAL_Driver/Src/stm32wbxx_hal_dma.c ****     {
 470:Drivers/STM32WBxx_HAL_Driver/Src/stm32wbxx_hal_dma.c ****       /* Enable DMAMUX sync overrun IT*/
 471:Drivers/STM32WBxx_HAL_Driver/Src/stm32wbxx_hal_dma.c ****       hdma->DMAmuxChannel->CCR |= DMAMUX_CxCR_SOIE;
 472:Drivers/STM32WBxx_HAL_Driver/Src/stm32wbxx_hal_dma.c ****     }
 473:Drivers/STM32WBxx_HAL_Driver/Src/stm32wbxx_hal_dma.c **** 
 474:Drivers/STM32WBxx_HAL_Driver/Src/stm32wbxx_hal_dma.c ****     if (hdma->DMAmuxRequestGen != 0U)
 475:Drivers/STM32WBxx_HAL_Driver/Src/stm32wbxx_hal_dma.c ****     {
 476:Drivers/STM32WBxx_HAL_Driver/Src/stm32wbxx_hal_dma.c ****       /* if using DMAMUX request generator, enable the DMAMUX request generator overrun IT*/
 477:Drivers/STM32WBxx_HAL_Driver/Src/stm32wbxx_hal_dma.c ****       /* enable the request gen overrun IT*/
 478:Drivers/STM32WBxx_HAL_Driver/Src/stm32wbxx_hal_dma.c ****       hdma->DMAmuxRequestGen->RGCR |= DMAMUX_RGxCR_OIE;
 479:Drivers/STM32WBxx_HAL_Driver/Src/stm32wbxx_hal_dma.c ****     }
 480:Drivers/STM32WBxx_HAL_Driver/Src/stm32wbxx_hal_dma.c **** 
 481:Drivers/STM32WBxx_HAL_Driver/Src/stm32wbxx_hal_dma.c ****     /* Enable the Peripheral */
 482:Drivers/STM32WBxx_HAL_Driver/Src/stm32wbxx_hal_dma.c ****     __HAL_DMA_ENABLE(hdma);
 483:Drivers/STM32WBxx_HAL_Driver/Src/stm32wbxx_hal_dma.c ****   }
 484:Drivers/STM32WBxx_HAL_Driver/Src/stm32wbxx_hal_dma.c ****   else
 485:Drivers/STM32WBxx_HAL_Driver/Src/stm32wbxx_hal_dma.c ****   {
 486:Drivers/STM32WBxx_HAL_Driver/Src/stm32wbxx_hal_dma.c ****     /* Process Unlocked */
ARM GAS  /var/folders/lt/l_qrc8c54t93n_phsj7cf5tc0000gn/T//cc1tXrem.s 			page 10


 487:Drivers/STM32WBxx_HAL_Driver/Src/stm32wbxx_hal_dma.c ****     __HAL_UNLOCK(hdma);
 488:Drivers/STM32WBxx_HAL_Driver/Src/stm32wbxx_hal_dma.c **** 
 489:Drivers/STM32WBxx_HAL_Driver/Src/stm32wbxx_hal_dma.c ****     /* Remain BUSY */
 490:Drivers/STM32WBxx_HAL_Driver/Src/stm32wbxx_hal_dma.c ****     status = HAL_BUSY;
 491:Drivers/STM32WBxx_HAL_Driver/Src/stm32wbxx_hal_dma.c ****   }
 492:Drivers/STM32WBxx_HAL_Driver/Src/stm32wbxx_hal_dma.c ****   return status;
 493:Drivers/STM32WBxx_HAL_Driver/Src/stm32wbxx_hal_dma.c **** }
 494:Drivers/STM32WBxx_HAL_Driver/Src/stm32wbxx_hal_dma.c **** 
 495:Drivers/STM32WBxx_HAL_Driver/Src/stm32wbxx_hal_dma.c **** /**
 496:Drivers/STM32WBxx_HAL_Driver/Src/stm32wbxx_hal_dma.c ****   * @brief  Abort the DMA Transfer.
 497:Drivers/STM32WBxx_HAL_Driver/Src/stm32wbxx_hal_dma.c ****   * @param hdma Pointer to a DMA_HandleTypeDef structure that contains
 498:Drivers/STM32WBxx_HAL_Driver/Src/stm32wbxx_hal_dma.c ****   *               the configuration information for the specified DMA Channel.
 499:Drivers/STM32WBxx_HAL_Driver/Src/stm32wbxx_hal_dma.c ****     * @retval HAL status
 500:Drivers/STM32WBxx_HAL_Driver/Src/stm32wbxx_hal_dma.c ****   */
 501:Drivers/STM32WBxx_HAL_Driver/Src/stm32wbxx_hal_dma.c **** HAL_StatusTypeDef HAL_DMA_Abort(DMA_HandleTypeDef *hdma)
 502:Drivers/STM32WBxx_HAL_Driver/Src/stm32wbxx_hal_dma.c **** {
 503:Drivers/STM32WBxx_HAL_Driver/Src/stm32wbxx_hal_dma.c **** 
 504:Drivers/STM32WBxx_HAL_Driver/Src/stm32wbxx_hal_dma.c ****   /* Check the DMA peripheral handle */
 505:Drivers/STM32WBxx_HAL_Driver/Src/stm32wbxx_hal_dma.c ****   if (NULL == hdma)
 506:Drivers/STM32WBxx_HAL_Driver/Src/stm32wbxx_hal_dma.c ****   {
 507:Drivers/STM32WBxx_HAL_Driver/Src/stm32wbxx_hal_dma.c ****     return HAL_ERROR;
 508:Drivers/STM32WBxx_HAL_Driver/Src/stm32wbxx_hal_dma.c ****   }
 509:Drivers/STM32WBxx_HAL_Driver/Src/stm32wbxx_hal_dma.c **** 
 510:Drivers/STM32WBxx_HAL_Driver/Src/stm32wbxx_hal_dma.c ****   /* Check the DMA peripheral state */
 511:Drivers/STM32WBxx_HAL_Driver/Src/stm32wbxx_hal_dma.c ****   if(hdma->State != HAL_DMA_STATE_BUSY)
 512:Drivers/STM32WBxx_HAL_Driver/Src/stm32wbxx_hal_dma.c ****   {
 513:Drivers/STM32WBxx_HAL_Driver/Src/stm32wbxx_hal_dma.c ****     hdma->ErrorCode = HAL_DMA_ERROR_NO_XFER;
 514:Drivers/STM32WBxx_HAL_Driver/Src/stm32wbxx_hal_dma.c **** 
 515:Drivers/STM32WBxx_HAL_Driver/Src/stm32wbxx_hal_dma.c ****     /* Process Unlocked */
 516:Drivers/STM32WBxx_HAL_Driver/Src/stm32wbxx_hal_dma.c ****     __HAL_UNLOCK(hdma);
 517:Drivers/STM32WBxx_HAL_Driver/Src/stm32wbxx_hal_dma.c **** 
 518:Drivers/STM32WBxx_HAL_Driver/Src/stm32wbxx_hal_dma.c ****     return HAL_ERROR;
 519:Drivers/STM32WBxx_HAL_Driver/Src/stm32wbxx_hal_dma.c ****   }
 520:Drivers/STM32WBxx_HAL_Driver/Src/stm32wbxx_hal_dma.c ****   else
 521:Drivers/STM32WBxx_HAL_Driver/Src/stm32wbxx_hal_dma.c ****   {
 522:Drivers/STM32WBxx_HAL_Driver/Src/stm32wbxx_hal_dma.c ****     /* Disable DMA IT */
 523:Drivers/STM32WBxx_HAL_Driver/Src/stm32wbxx_hal_dma.c ****     __HAL_DMA_DISABLE_IT(hdma, (DMA_IT_TC | DMA_IT_HT | DMA_IT_TE));
 524:Drivers/STM32WBxx_HAL_Driver/Src/stm32wbxx_hal_dma.c **** 
 525:Drivers/STM32WBxx_HAL_Driver/Src/stm32wbxx_hal_dma.c ****     /* disable the DMAMUX sync overrun IT*/
 526:Drivers/STM32WBxx_HAL_Driver/Src/stm32wbxx_hal_dma.c ****     hdma->DMAmuxChannel->CCR &= ~DMAMUX_CxCR_SOIE;
 527:Drivers/STM32WBxx_HAL_Driver/Src/stm32wbxx_hal_dma.c **** 
 528:Drivers/STM32WBxx_HAL_Driver/Src/stm32wbxx_hal_dma.c ****     /* Disable the channel */
 529:Drivers/STM32WBxx_HAL_Driver/Src/stm32wbxx_hal_dma.c ****     __HAL_DMA_DISABLE(hdma);
 530:Drivers/STM32WBxx_HAL_Driver/Src/stm32wbxx_hal_dma.c **** 
 531:Drivers/STM32WBxx_HAL_Driver/Src/stm32wbxx_hal_dma.c ****     /* Clear all flags */
 532:Drivers/STM32WBxx_HAL_Driver/Src/stm32wbxx_hal_dma.c ****     hdma->DmaBaseAddress->IFCR = (DMA_ISR_GIF1 << (hdma->ChannelIndex & 0x1cU));
 533:Drivers/STM32WBxx_HAL_Driver/Src/stm32wbxx_hal_dma.c **** 
 534:Drivers/STM32WBxx_HAL_Driver/Src/stm32wbxx_hal_dma.c ****     /* Clear the DMAMUX synchro overrun flag */
 535:Drivers/STM32WBxx_HAL_Driver/Src/stm32wbxx_hal_dma.c ****     hdma->DMAmuxChannelStatus->CFR = hdma->DMAmuxChannelStatusMask;
 536:Drivers/STM32WBxx_HAL_Driver/Src/stm32wbxx_hal_dma.c **** 
 537:Drivers/STM32WBxx_HAL_Driver/Src/stm32wbxx_hal_dma.c ****     if (hdma->DMAmuxRequestGen != 0U)
 538:Drivers/STM32WBxx_HAL_Driver/Src/stm32wbxx_hal_dma.c ****     {
 539:Drivers/STM32WBxx_HAL_Driver/Src/stm32wbxx_hal_dma.c ****       /* if using DMAMUX request generator, disable the DMAMUX request generator overrun IT*/
 540:Drivers/STM32WBxx_HAL_Driver/Src/stm32wbxx_hal_dma.c ****       /* disable the request gen overrun IT*/
 541:Drivers/STM32WBxx_HAL_Driver/Src/stm32wbxx_hal_dma.c ****       hdma->DMAmuxRequestGen->RGCR &= ~DMAMUX_RGxCR_OIE;
 542:Drivers/STM32WBxx_HAL_Driver/Src/stm32wbxx_hal_dma.c **** 
 543:Drivers/STM32WBxx_HAL_Driver/Src/stm32wbxx_hal_dma.c ****       /* Clear the DMAMUX request generator overrun flag */
ARM GAS  /var/folders/lt/l_qrc8c54t93n_phsj7cf5tc0000gn/T//cc1tXrem.s 			page 11


 544:Drivers/STM32WBxx_HAL_Driver/Src/stm32wbxx_hal_dma.c ****       hdma->DMAmuxRequestGenStatus->RGCFR = hdma->DMAmuxRequestGenStatusMask;
 545:Drivers/STM32WBxx_HAL_Driver/Src/stm32wbxx_hal_dma.c ****     }
 546:Drivers/STM32WBxx_HAL_Driver/Src/stm32wbxx_hal_dma.c **** 
 547:Drivers/STM32WBxx_HAL_Driver/Src/stm32wbxx_hal_dma.c ****     /* Change the DMA state */
 548:Drivers/STM32WBxx_HAL_Driver/Src/stm32wbxx_hal_dma.c ****     hdma->State = HAL_DMA_STATE_READY;
 549:Drivers/STM32WBxx_HAL_Driver/Src/stm32wbxx_hal_dma.c **** 
 550:Drivers/STM32WBxx_HAL_Driver/Src/stm32wbxx_hal_dma.c ****     /* Process Unlocked */
 551:Drivers/STM32WBxx_HAL_Driver/Src/stm32wbxx_hal_dma.c ****     __HAL_UNLOCK(hdma);
 552:Drivers/STM32WBxx_HAL_Driver/Src/stm32wbxx_hal_dma.c ****   }
 553:Drivers/STM32WBxx_HAL_Driver/Src/stm32wbxx_hal_dma.c **** 
 554:Drivers/STM32WBxx_HAL_Driver/Src/stm32wbxx_hal_dma.c ****   return HAL_OK;
 555:Drivers/STM32WBxx_HAL_Driver/Src/stm32wbxx_hal_dma.c **** }
 556:Drivers/STM32WBxx_HAL_Driver/Src/stm32wbxx_hal_dma.c **** 
 557:Drivers/STM32WBxx_HAL_Driver/Src/stm32wbxx_hal_dma.c **** /**
 558:Drivers/STM32WBxx_HAL_Driver/Src/stm32wbxx_hal_dma.c ****   * @brief  Aborts the DMA Transfer in Interrupt mode.
 559:Drivers/STM32WBxx_HAL_Driver/Src/stm32wbxx_hal_dma.c ****   * @param  hdma  Pointer to a DMA_HandleTypeDef structure that contains
 560:Drivers/STM32WBxx_HAL_Driver/Src/stm32wbxx_hal_dma.c ****   *                 the configuration information for the specified DMA Channel.
 561:Drivers/STM32WBxx_HAL_Driver/Src/stm32wbxx_hal_dma.c ****   * @retval HAL status
 562:Drivers/STM32WBxx_HAL_Driver/Src/stm32wbxx_hal_dma.c ****   */
 563:Drivers/STM32WBxx_HAL_Driver/Src/stm32wbxx_hal_dma.c **** HAL_StatusTypeDef HAL_DMA_Abort_IT(DMA_HandleTypeDef *hdma)
 564:Drivers/STM32WBxx_HAL_Driver/Src/stm32wbxx_hal_dma.c **** {
 565:Drivers/STM32WBxx_HAL_Driver/Src/stm32wbxx_hal_dma.c ****   HAL_StatusTypeDef status = HAL_OK;
 566:Drivers/STM32WBxx_HAL_Driver/Src/stm32wbxx_hal_dma.c **** 
 567:Drivers/STM32WBxx_HAL_Driver/Src/stm32wbxx_hal_dma.c ****   if (HAL_DMA_STATE_BUSY != hdma->State)
 568:Drivers/STM32WBxx_HAL_Driver/Src/stm32wbxx_hal_dma.c ****   {
 569:Drivers/STM32WBxx_HAL_Driver/Src/stm32wbxx_hal_dma.c ****     /* no transfer ongoing */
 570:Drivers/STM32WBxx_HAL_Driver/Src/stm32wbxx_hal_dma.c ****     hdma->ErrorCode = HAL_DMA_ERROR_NO_XFER;
 571:Drivers/STM32WBxx_HAL_Driver/Src/stm32wbxx_hal_dma.c **** 
 572:Drivers/STM32WBxx_HAL_Driver/Src/stm32wbxx_hal_dma.c ****     status = HAL_ERROR;
 573:Drivers/STM32WBxx_HAL_Driver/Src/stm32wbxx_hal_dma.c ****   }
 574:Drivers/STM32WBxx_HAL_Driver/Src/stm32wbxx_hal_dma.c ****   else
 575:Drivers/STM32WBxx_HAL_Driver/Src/stm32wbxx_hal_dma.c ****   {
 576:Drivers/STM32WBxx_HAL_Driver/Src/stm32wbxx_hal_dma.c ****     /* Disable DMA IT */
 577:Drivers/STM32WBxx_HAL_Driver/Src/stm32wbxx_hal_dma.c ****     __HAL_DMA_DISABLE_IT(hdma, (DMA_IT_TC | DMA_IT_HT | DMA_IT_TE));
 578:Drivers/STM32WBxx_HAL_Driver/Src/stm32wbxx_hal_dma.c **** 
 579:Drivers/STM32WBxx_HAL_Driver/Src/stm32wbxx_hal_dma.c ****     /* Disable the channel */
 580:Drivers/STM32WBxx_HAL_Driver/Src/stm32wbxx_hal_dma.c ****     __HAL_DMA_DISABLE(hdma);
 581:Drivers/STM32WBxx_HAL_Driver/Src/stm32wbxx_hal_dma.c **** 
 582:Drivers/STM32WBxx_HAL_Driver/Src/stm32wbxx_hal_dma.c ****     /* disable the DMAMUX sync overrun IT*/
 583:Drivers/STM32WBxx_HAL_Driver/Src/stm32wbxx_hal_dma.c ****     hdma->DMAmuxChannel->CCR &= ~DMAMUX_CxCR_SOIE;
 584:Drivers/STM32WBxx_HAL_Driver/Src/stm32wbxx_hal_dma.c **** 
 585:Drivers/STM32WBxx_HAL_Driver/Src/stm32wbxx_hal_dma.c ****     /* Clear all flags */
 586:Drivers/STM32WBxx_HAL_Driver/Src/stm32wbxx_hal_dma.c ****     hdma->DmaBaseAddress->IFCR = (DMA_ISR_GIF1 << (hdma->ChannelIndex & 0x1cU));
 587:Drivers/STM32WBxx_HAL_Driver/Src/stm32wbxx_hal_dma.c **** 
 588:Drivers/STM32WBxx_HAL_Driver/Src/stm32wbxx_hal_dma.c ****     /* Clear the DMAMUX synchro overrun flag */
 589:Drivers/STM32WBxx_HAL_Driver/Src/stm32wbxx_hal_dma.c ****     hdma->DMAmuxChannelStatus->CFR = hdma->DMAmuxChannelStatusMask;
 590:Drivers/STM32WBxx_HAL_Driver/Src/stm32wbxx_hal_dma.c **** 
 591:Drivers/STM32WBxx_HAL_Driver/Src/stm32wbxx_hal_dma.c ****     if (hdma->DMAmuxRequestGen != 0U)
 592:Drivers/STM32WBxx_HAL_Driver/Src/stm32wbxx_hal_dma.c ****     {
 593:Drivers/STM32WBxx_HAL_Driver/Src/stm32wbxx_hal_dma.c ****       /* if using DMAMUX request generator, disable the DMAMUX request generator overrun IT*/
 594:Drivers/STM32WBxx_HAL_Driver/Src/stm32wbxx_hal_dma.c ****       /* disable the request gen overrun IT*/
 595:Drivers/STM32WBxx_HAL_Driver/Src/stm32wbxx_hal_dma.c ****       hdma->DMAmuxRequestGen->RGCR &= ~DMAMUX_RGxCR_OIE;
 596:Drivers/STM32WBxx_HAL_Driver/Src/stm32wbxx_hal_dma.c **** 
 597:Drivers/STM32WBxx_HAL_Driver/Src/stm32wbxx_hal_dma.c ****       /* Clear the DMAMUX request generator overrun flag */
 598:Drivers/STM32WBxx_HAL_Driver/Src/stm32wbxx_hal_dma.c ****       hdma->DMAmuxRequestGenStatus->RGCFR = hdma->DMAmuxRequestGenStatusMask;
 599:Drivers/STM32WBxx_HAL_Driver/Src/stm32wbxx_hal_dma.c ****     }
 600:Drivers/STM32WBxx_HAL_Driver/Src/stm32wbxx_hal_dma.c **** 
ARM GAS  /var/folders/lt/l_qrc8c54t93n_phsj7cf5tc0000gn/T//cc1tXrem.s 			page 12


 601:Drivers/STM32WBxx_HAL_Driver/Src/stm32wbxx_hal_dma.c ****     /* Change the DMA state */
 602:Drivers/STM32WBxx_HAL_Driver/Src/stm32wbxx_hal_dma.c ****     hdma->State = HAL_DMA_STATE_READY;
 603:Drivers/STM32WBxx_HAL_Driver/Src/stm32wbxx_hal_dma.c **** 
 604:Drivers/STM32WBxx_HAL_Driver/Src/stm32wbxx_hal_dma.c ****     /* Process Unlocked */
 605:Drivers/STM32WBxx_HAL_Driver/Src/stm32wbxx_hal_dma.c ****     __HAL_UNLOCK(hdma);
 606:Drivers/STM32WBxx_HAL_Driver/Src/stm32wbxx_hal_dma.c **** 
 607:Drivers/STM32WBxx_HAL_Driver/Src/stm32wbxx_hal_dma.c ****     /* Call User Abort callback */
 608:Drivers/STM32WBxx_HAL_Driver/Src/stm32wbxx_hal_dma.c ****     if (hdma->XferAbortCallback != NULL)
 609:Drivers/STM32WBxx_HAL_Driver/Src/stm32wbxx_hal_dma.c ****     {
 610:Drivers/STM32WBxx_HAL_Driver/Src/stm32wbxx_hal_dma.c ****       hdma->XferAbortCallback(hdma);
 611:Drivers/STM32WBxx_HAL_Driver/Src/stm32wbxx_hal_dma.c ****     }
 612:Drivers/STM32WBxx_HAL_Driver/Src/stm32wbxx_hal_dma.c ****   }
 613:Drivers/STM32WBxx_HAL_Driver/Src/stm32wbxx_hal_dma.c ****   return status;
 614:Drivers/STM32WBxx_HAL_Driver/Src/stm32wbxx_hal_dma.c **** }
 615:Drivers/STM32WBxx_HAL_Driver/Src/stm32wbxx_hal_dma.c **** 
 616:Drivers/STM32WBxx_HAL_Driver/Src/stm32wbxx_hal_dma.c **** /**
 617:Drivers/STM32WBxx_HAL_Driver/Src/stm32wbxx_hal_dma.c ****   * @brief  Polling for transfer complete.
 618:Drivers/STM32WBxx_HAL_Driver/Src/stm32wbxx_hal_dma.c ****   * @param hdma Pointer to a DMA_HandleTypeDef structure that contains
 619:Drivers/STM32WBxx_HAL_Driver/Src/stm32wbxx_hal_dma.c ****   *                  the configuration information for the specified DMA Channel.
 620:Drivers/STM32WBxx_HAL_Driver/Src/stm32wbxx_hal_dma.c ****   * @param CompleteLevel Specifies the DMA level complete.
 621:Drivers/STM32WBxx_HAL_Driver/Src/stm32wbxx_hal_dma.c ****   * @param Timeout Timeout duration.
 622:Drivers/STM32WBxx_HAL_Driver/Src/stm32wbxx_hal_dma.c ****   * @retval HAL status
 623:Drivers/STM32WBxx_HAL_Driver/Src/stm32wbxx_hal_dma.c ****   */
 624:Drivers/STM32WBxx_HAL_Driver/Src/stm32wbxx_hal_dma.c **** HAL_StatusTypeDef HAL_DMA_PollForTransfer(DMA_HandleTypeDef *hdma, HAL_DMA_LevelCompleteTypeDef Com
 625:Drivers/STM32WBxx_HAL_Driver/Src/stm32wbxx_hal_dma.c **** {
 626:Drivers/STM32WBxx_HAL_Driver/Src/stm32wbxx_hal_dma.c ****   uint32_t temp;
 627:Drivers/STM32WBxx_HAL_Driver/Src/stm32wbxx_hal_dma.c ****   uint32_t tickstart;
 628:Drivers/STM32WBxx_HAL_Driver/Src/stm32wbxx_hal_dma.c **** 
 629:Drivers/STM32WBxx_HAL_Driver/Src/stm32wbxx_hal_dma.c ****   if (HAL_DMA_STATE_BUSY != hdma->State)
 630:Drivers/STM32WBxx_HAL_Driver/Src/stm32wbxx_hal_dma.c ****   {
 631:Drivers/STM32WBxx_HAL_Driver/Src/stm32wbxx_hal_dma.c ****     /* no transfer ongoing */
 632:Drivers/STM32WBxx_HAL_Driver/Src/stm32wbxx_hal_dma.c ****     hdma->ErrorCode = HAL_DMA_ERROR_NO_XFER;
 633:Drivers/STM32WBxx_HAL_Driver/Src/stm32wbxx_hal_dma.c ****     __HAL_UNLOCK(hdma);
 634:Drivers/STM32WBxx_HAL_Driver/Src/stm32wbxx_hal_dma.c ****     return HAL_ERROR;
 635:Drivers/STM32WBxx_HAL_Driver/Src/stm32wbxx_hal_dma.c ****   }
 636:Drivers/STM32WBxx_HAL_Driver/Src/stm32wbxx_hal_dma.c **** 
 637:Drivers/STM32WBxx_HAL_Driver/Src/stm32wbxx_hal_dma.c ****   /* Polling mode not supported in circular mode */
 638:Drivers/STM32WBxx_HAL_Driver/Src/stm32wbxx_hal_dma.c ****   if ((hdma->Instance->CCR & DMA_CCR_CIRC) != 0U)
 639:Drivers/STM32WBxx_HAL_Driver/Src/stm32wbxx_hal_dma.c ****   {
 640:Drivers/STM32WBxx_HAL_Driver/Src/stm32wbxx_hal_dma.c ****     hdma->ErrorCode = HAL_DMA_ERROR_NOT_SUPPORTED;
 641:Drivers/STM32WBxx_HAL_Driver/Src/stm32wbxx_hal_dma.c ****     return HAL_ERROR;
 642:Drivers/STM32WBxx_HAL_Driver/Src/stm32wbxx_hal_dma.c ****   }
 643:Drivers/STM32WBxx_HAL_Driver/Src/stm32wbxx_hal_dma.c **** 
 644:Drivers/STM32WBxx_HAL_Driver/Src/stm32wbxx_hal_dma.c ****   /* Get the level transfer complete flag */
 645:Drivers/STM32WBxx_HAL_Driver/Src/stm32wbxx_hal_dma.c ****   if (HAL_DMA_FULL_TRANSFER == CompleteLevel)
 646:Drivers/STM32WBxx_HAL_Driver/Src/stm32wbxx_hal_dma.c ****   {
 647:Drivers/STM32WBxx_HAL_Driver/Src/stm32wbxx_hal_dma.c ****     /* Transfer Complete flag */
 648:Drivers/STM32WBxx_HAL_Driver/Src/stm32wbxx_hal_dma.c ****     temp = DMA_FLAG_TC1 << (hdma->ChannelIndex & 0x1cU);
 649:Drivers/STM32WBxx_HAL_Driver/Src/stm32wbxx_hal_dma.c ****   }
 650:Drivers/STM32WBxx_HAL_Driver/Src/stm32wbxx_hal_dma.c ****   else
 651:Drivers/STM32WBxx_HAL_Driver/Src/stm32wbxx_hal_dma.c ****   {
 652:Drivers/STM32WBxx_HAL_Driver/Src/stm32wbxx_hal_dma.c ****     /* Half Transfer Complete flag */
 653:Drivers/STM32WBxx_HAL_Driver/Src/stm32wbxx_hal_dma.c ****     temp = DMA_FLAG_HT1 << (hdma->ChannelIndex  & 0x1cU);
 654:Drivers/STM32WBxx_HAL_Driver/Src/stm32wbxx_hal_dma.c ****   }
 655:Drivers/STM32WBxx_HAL_Driver/Src/stm32wbxx_hal_dma.c **** 
 656:Drivers/STM32WBxx_HAL_Driver/Src/stm32wbxx_hal_dma.c ****   /* Get tick */
 657:Drivers/STM32WBxx_HAL_Driver/Src/stm32wbxx_hal_dma.c ****   tickstart = HAL_GetTick();
ARM GAS  /var/folders/lt/l_qrc8c54t93n_phsj7cf5tc0000gn/T//cc1tXrem.s 			page 13


 658:Drivers/STM32WBxx_HAL_Driver/Src/stm32wbxx_hal_dma.c **** 
 659:Drivers/STM32WBxx_HAL_Driver/Src/stm32wbxx_hal_dma.c ****   while((hdma->DmaBaseAddress->ISR & temp) == 0U)
 660:Drivers/STM32WBxx_HAL_Driver/Src/stm32wbxx_hal_dma.c ****   {
 661:Drivers/STM32WBxx_HAL_Driver/Src/stm32wbxx_hal_dma.c ****     if((hdma->DmaBaseAddress->ISR & (DMA_FLAG_TE1 << (hdma->ChannelIndex& 0x1CU))) != 0U)
 662:Drivers/STM32WBxx_HAL_Driver/Src/stm32wbxx_hal_dma.c ****     {
 663:Drivers/STM32WBxx_HAL_Driver/Src/stm32wbxx_hal_dma.c ****       /* When a DMA transfer error occurs */
 664:Drivers/STM32WBxx_HAL_Driver/Src/stm32wbxx_hal_dma.c ****       /* A hardware clear of its EN bits is performed */
 665:Drivers/STM32WBxx_HAL_Driver/Src/stm32wbxx_hal_dma.c ****       /* Clear all flags */
 666:Drivers/STM32WBxx_HAL_Driver/Src/stm32wbxx_hal_dma.c ****       hdma->DmaBaseAddress->IFCR = (DMA_ISR_GIF1 << (hdma->ChannelIndex & 0x1cU));
 667:Drivers/STM32WBxx_HAL_Driver/Src/stm32wbxx_hal_dma.c **** 
 668:Drivers/STM32WBxx_HAL_Driver/Src/stm32wbxx_hal_dma.c ****       /* Update error code */
 669:Drivers/STM32WBxx_HAL_Driver/Src/stm32wbxx_hal_dma.c ****       hdma->ErrorCode = HAL_DMA_ERROR_TE;
 670:Drivers/STM32WBxx_HAL_Driver/Src/stm32wbxx_hal_dma.c **** 
 671:Drivers/STM32WBxx_HAL_Driver/Src/stm32wbxx_hal_dma.c ****       /* Change the DMA state */
 672:Drivers/STM32WBxx_HAL_Driver/Src/stm32wbxx_hal_dma.c ****       hdma->State = HAL_DMA_STATE_READY;
 673:Drivers/STM32WBxx_HAL_Driver/Src/stm32wbxx_hal_dma.c **** 
 674:Drivers/STM32WBxx_HAL_Driver/Src/stm32wbxx_hal_dma.c ****       /* Process Unlocked */
 675:Drivers/STM32WBxx_HAL_Driver/Src/stm32wbxx_hal_dma.c ****       __HAL_UNLOCK(hdma);
 676:Drivers/STM32WBxx_HAL_Driver/Src/stm32wbxx_hal_dma.c **** 
 677:Drivers/STM32WBxx_HAL_Driver/Src/stm32wbxx_hal_dma.c ****       return HAL_ERROR;
 678:Drivers/STM32WBxx_HAL_Driver/Src/stm32wbxx_hal_dma.c ****     }
 679:Drivers/STM32WBxx_HAL_Driver/Src/stm32wbxx_hal_dma.c ****     /* Check for the Timeout */
 680:Drivers/STM32WBxx_HAL_Driver/Src/stm32wbxx_hal_dma.c ****     if (Timeout != HAL_MAX_DELAY)
 681:Drivers/STM32WBxx_HAL_Driver/Src/stm32wbxx_hal_dma.c ****     {
 682:Drivers/STM32WBxx_HAL_Driver/Src/stm32wbxx_hal_dma.c ****       if(((HAL_GetTick() - tickstart ) > Timeout)||(Timeout == 0U))
 683:Drivers/STM32WBxx_HAL_Driver/Src/stm32wbxx_hal_dma.c ****       {
 684:Drivers/STM32WBxx_HAL_Driver/Src/stm32wbxx_hal_dma.c ****         /* Update error code */
 685:Drivers/STM32WBxx_HAL_Driver/Src/stm32wbxx_hal_dma.c ****         hdma->ErrorCode = HAL_DMA_ERROR_TIMEOUT;
 686:Drivers/STM32WBxx_HAL_Driver/Src/stm32wbxx_hal_dma.c **** 
 687:Drivers/STM32WBxx_HAL_Driver/Src/stm32wbxx_hal_dma.c ****         /* Change the DMA state */
 688:Drivers/STM32WBxx_HAL_Driver/Src/stm32wbxx_hal_dma.c ****         hdma->State = HAL_DMA_STATE_READY;
 689:Drivers/STM32WBxx_HAL_Driver/Src/stm32wbxx_hal_dma.c **** 
 690:Drivers/STM32WBxx_HAL_Driver/Src/stm32wbxx_hal_dma.c ****         /* Process Unlocked */
 691:Drivers/STM32WBxx_HAL_Driver/Src/stm32wbxx_hal_dma.c ****         __HAL_UNLOCK(hdma);
 692:Drivers/STM32WBxx_HAL_Driver/Src/stm32wbxx_hal_dma.c **** 
 693:Drivers/STM32WBxx_HAL_Driver/Src/stm32wbxx_hal_dma.c ****         return HAL_ERROR;
 694:Drivers/STM32WBxx_HAL_Driver/Src/stm32wbxx_hal_dma.c ****       }
 695:Drivers/STM32WBxx_HAL_Driver/Src/stm32wbxx_hal_dma.c ****     }
 696:Drivers/STM32WBxx_HAL_Driver/Src/stm32wbxx_hal_dma.c ****   }
 697:Drivers/STM32WBxx_HAL_Driver/Src/stm32wbxx_hal_dma.c **** 
 698:Drivers/STM32WBxx_HAL_Driver/Src/stm32wbxx_hal_dma.c ****   /*Check for DMAMUX Request generator (if used) overrun status */
 699:Drivers/STM32WBxx_HAL_Driver/Src/stm32wbxx_hal_dma.c ****   if (hdma->DMAmuxRequestGen != 0U)
 700:Drivers/STM32WBxx_HAL_Driver/Src/stm32wbxx_hal_dma.c ****   {
 701:Drivers/STM32WBxx_HAL_Driver/Src/stm32wbxx_hal_dma.c ****     /* if using DMAMUX request generator Check for DMAMUX request generator overrun */
 702:Drivers/STM32WBxx_HAL_Driver/Src/stm32wbxx_hal_dma.c ****     if ((hdma->DMAmuxRequestGenStatus->RGSR & hdma->DMAmuxRequestGenStatusMask) != 0U)
 703:Drivers/STM32WBxx_HAL_Driver/Src/stm32wbxx_hal_dma.c ****     {
 704:Drivers/STM32WBxx_HAL_Driver/Src/stm32wbxx_hal_dma.c ****       /* Disable the request gen overrun interrupt */
 705:Drivers/STM32WBxx_HAL_Driver/Src/stm32wbxx_hal_dma.c ****       hdma->DMAmuxRequestGen->RGCR |= DMAMUX_RGxCR_OIE;
 706:Drivers/STM32WBxx_HAL_Driver/Src/stm32wbxx_hal_dma.c **** 
 707:Drivers/STM32WBxx_HAL_Driver/Src/stm32wbxx_hal_dma.c ****       /* Clear the DMAMUX request generator overrun flag */
 708:Drivers/STM32WBxx_HAL_Driver/Src/stm32wbxx_hal_dma.c ****       hdma->DMAmuxRequestGenStatus->RGCFR = hdma->DMAmuxRequestGenStatusMask;
 709:Drivers/STM32WBxx_HAL_Driver/Src/stm32wbxx_hal_dma.c **** 
 710:Drivers/STM32WBxx_HAL_Driver/Src/stm32wbxx_hal_dma.c ****       /* Update error code */
 711:Drivers/STM32WBxx_HAL_Driver/Src/stm32wbxx_hal_dma.c ****       hdma->ErrorCode |= HAL_DMA_ERROR_REQGEN;
 712:Drivers/STM32WBxx_HAL_Driver/Src/stm32wbxx_hal_dma.c ****     }
 713:Drivers/STM32WBxx_HAL_Driver/Src/stm32wbxx_hal_dma.c ****   }
 714:Drivers/STM32WBxx_HAL_Driver/Src/stm32wbxx_hal_dma.c **** 
ARM GAS  /var/folders/lt/l_qrc8c54t93n_phsj7cf5tc0000gn/T//cc1tXrem.s 			page 14


 715:Drivers/STM32WBxx_HAL_Driver/Src/stm32wbxx_hal_dma.c ****   /* Check for DMAMUX Synchronization overrun */
 716:Drivers/STM32WBxx_HAL_Driver/Src/stm32wbxx_hal_dma.c ****   if ((hdma->DMAmuxChannelStatus->CSR & hdma->DMAmuxChannelStatusMask) != 0U)
 717:Drivers/STM32WBxx_HAL_Driver/Src/stm32wbxx_hal_dma.c ****   {
 718:Drivers/STM32WBxx_HAL_Driver/Src/stm32wbxx_hal_dma.c ****     /* Clear the DMAMUX synchro overrun flag */
 719:Drivers/STM32WBxx_HAL_Driver/Src/stm32wbxx_hal_dma.c ****     hdma->DMAmuxChannelStatus->CFR = hdma->DMAmuxChannelStatusMask;
 720:Drivers/STM32WBxx_HAL_Driver/Src/stm32wbxx_hal_dma.c **** 
 721:Drivers/STM32WBxx_HAL_Driver/Src/stm32wbxx_hal_dma.c ****     /* Update error code */
 722:Drivers/STM32WBxx_HAL_Driver/Src/stm32wbxx_hal_dma.c ****     hdma->ErrorCode |= HAL_DMA_ERROR_SYNC;
 723:Drivers/STM32WBxx_HAL_Driver/Src/stm32wbxx_hal_dma.c ****   }
 724:Drivers/STM32WBxx_HAL_Driver/Src/stm32wbxx_hal_dma.c **** 
 725:Drivers/STM32WBxx_HAL_Driver/Src/stm32wbxx_hal_dma.c ****   if (HAL_DMA_FULL_TRANSFER == CompleteLevel)
 726:Drivers/STM32WBxx_HAL_Driver/Src/stm32wbxx_hal_dma.c ****   {
 727:Drivers/STM32WBxx_HAL_Driver/Src/stm32wbxx_hal_dma.c ****     /* Clear the transfer complete flag */
 728:Drivers/STM32WBxx_HAL_Driver/Src/stm32wbxx_hal_dma.c ****     hdma->DmaBaseAddress->IFCR = (DMA_FLAG_TC1 << (hdma->ChannelIndex & 0x1cU));
 729:Drivers/STM32WBxx_HAL_Driver/Src/stm32wbxx_hal_dma.c **** 
 730:Drivers/STM32WBxx_HAL_Driver/Src/stm32wbxx_hal_dma.c ****     /* Process unlocked */
 731:Drivers/STM32WBxx_HAL_Driver/Src/stm32wbxx_hal_dma.c ****     __HAL_UNLOCK(hdma);
 732:Drivers/STM32WBxx_HAL_Driver/Src/stm32wbxx_hal_dma.c **** 
 733:Drivers/STM32WBxx_HAL_Driver/Src/stm32wbxx_hal_dma.c ****     /* The selected Channelx EN bit is cleared (DMA is disabled and
 734:Drivers/STM32WBxx_HAL_Driver/Src/stm32wbxx_hal_dma.c ****     all transfers are complete) */
 735:Drivers/STM32WBxx_HAL_Driver/Src/stm32wbxx_hal_dma.c ****     hdma->State = HAL_DMA_STATE_READY;
 736:Drivers/STM32WBxx_HAL_Driver/Src/stm32wbxx_hal_dma.c ****   }
 737:Drivers/STM32WBxx_HAL_Driver/Src/stm32wbxx_hal_dma.c ****   else
 738:Drivers/STM32WBxx_HAL_Driver/Src/stm32wbxx_hal_dma.c ****   {
 739:Drivers/STM32WBxx_HAL_Driver/Src/stm32wbxx_hal_dma.c ****     /* Clear the half transfer complete flag */
 740:Drivers/STM32WBxx_HAL_Driver/Src/stm32wbxx_hal_dma.c ****     hdma->DmaBaseAddress->IFCR = (DMA_FLAG_HT1 << (hdma->ChannelIndex & 0x1cU));
 741:Drivers/STM32WBxx_HAL_Driver/Src/stm32wbxx_hal_dma.c ****   }
 742:Drivers/STM32WBxx_HAL_Driver/Src/stm32wbxx_hal_dma.c **** 
 743:Drivers/STM32WBxx_HAL_Driver/Src/stm32wbxx_hal_dma.c ****   return HAL_OK;
 744:Drivers/STM32WBxx_HAL_Driver/Src/stm32wbxx_hal_dma.c **** }
 745:Drivers/STM32WBxx_HAL_Driver/Src/stm32wbxx_hal_dma.c **** 
 746:Drivers/STM32WBxx_HAL_Driver/Src/stm32wbxx_hal_dma.c **** /**
 747:Drivers/STM32WBxx_HAL_Driver/Src/stm32wbxx_hal_dma.c ****   * @brief  Handle DMA interrupt request.
 748:Drivers/STM32WBxx_HAL_Driver/Src/stm32wbxx_hal_dma.c ****   * @param hdma Pointer to a DMA_HandleTypeDef structure that contains
 749:Drivers/STM32WBxx_HAL_Driver/Src/stm32wbxx_hal_dma.c ****   *               the configuration information for the specified DMA Channel.
 750:Drivers/STM32WBxx_HAL_Driver/Src/stm32wbxx_hal_dma.c ****   * @retval None
 751:Drivers/STM32WBxx_HAL_Driver/Src/stm32wbxx_hal_dma.c ****   */
 752:Drivers/STM32WBxx_HAL_Driver/Src/stm32wbxx_hal_dma.c **** void HAL_DMA_IRQHandler(DMA_HandleTypeDef *hdma)
 753:Drivers/STM32WBxx_HAL_Driver/Src/stm32wbxx_hal_dma.c **** {
 754:Drivers/STM32WBxx_HAL_Driver/Src/stm32wbxx_hal_dma.c ****   uint32_t flag_it = hdma->DmaBaseAddress->ISR;
 755:Drivers/STM32WBxx_HAL_Driver/Src/stm32wbxx_hal_dma.c ****   uint32_t source_it = hdma->Instance->CCR;
 756:Drivers/STM32WBxx_HAL_Driver/Src/stm32wbxx_hal_dma.c **** 
 757:Drivers/STM32WBxx_HAL_Driver/Src/stm32wbxx_hal_dma.c ****   /* Half Transfer Complete Interrupt management ******************************/
 758:Drivers/STM32WBxx_HAL_Driver/Src/stm32wbxx_hal_dma.c ****   if (((flag_it & (DMA_FLAG_HT1 << (hdma->ChannelIndex & 0x1cU))) != 0U) && ((source_it & DMA_IT_HT
 759:Drivers/STM32WBxx_HAL_Driver/Src/stm32wbxx_hal_dma.c ****   {
 760:Drivers/STM32WBxx_HAL_Driver/Src/stm32wbxx_hal_dma.c ****     /* Disable the half transfer interrupt if the DMA mode is not CIRCULAR */
 761:Drivers/STM32WBxx_HAL_Driver/Src/stm32wbxx_hal_dma.c ****     if ((hdma->Instance->CCR & DMA_CCR_CIRC) == 0U)
 762:Drivers/STM32WBxx_HAL_Driver/Src/stm32wbxx_hal_dma.c ****     {
 763:Drivers/STM32WBxx_HAL_Driver/Src/stm32wbxx_hal_dma.c ****       /* Disable the half transfer interrupt */
 764:Drivers/STM32WBxx_HAL_Driver/Src/stm32wbxx_hal_dma.c ****       __HAL_DMA_DISABLE_IT(hdma, DMA_IT_HT);
 765:Drivers/STM32WBxx_HAL_Driver/Src/stm32wbxx_hal_dma.c ****     }
 766:Drivers/STM32WBxx_HAL_Driver/Src/stm32wbxx_hal_dma.c ****     /* Clear the half transfer complete flag */
 767:Drivers/STM32WBxx_HAL_Driver/Src/stm32wbxx_hal_dma.c ****     hdma->DmaBaseAddress->IFCR = (DMA_ISR_HTIF1 << (hdma->ChannelIndex & 0x1CU));
 768:Drivers/STM32WBxx_HAL_Driver/Src/stm32wbxx_hal_dma.c **** 
 769:Drivers/STM32WBxx_HAL_Driver/Src/stm32wbxx_hal_dma.c ****     /* DMA peripheral state is not updated in Half Transfer */
 770:Drivers/STM32WBxx_HAL_Driver/Src/stm32wbxx_hal_dma.c ****     /* but in Transfer Complete case */
 771:Drivers/STM32WBxx_HAL_Driver/Src/stm32wbxx_hal_dma.c **** 
ARM GAS  /var/folders/lt/l_qrc8c54t93n_phsj7cf5tc0000gn/T//cc1tXrem.s 			page 15


 772:Drivers/STM32WBxx_HAL_Driver/Src/stm32wbxx_hal_dma.c ****     if (hdma->XferHalfCpltCallback != NULL)
 773:Drivers/STM32WBxx_HAL_Driver/Src/stm32wbxx_hal_dma.c ****     {
 774:Drivers/STM32WBxx_HAL_Driver/Src/stm32wbxx_hal_dma.c ****       /* Half transfer callback */
 775:Drivers/STM32WBxx_HAL_Driver/Src/stm32wbxx_hal_dma.c ****       hdma->XferHalfCpltCallback(hdma);
 776:Drivers/STM32WBxx_HAL_Driver/Src/stm32wbxx_hal_dma.c ****     }
 777:Drivers/STM32WBxx_HAL_Driver/Src/stm32wbxx_hal_dma.c ****   }
 778:Drivers/STM32WBxx_HAL_Driver/Src/stm32wbxx_hal_dma.c **** 
 779:Drivers/STM32WBxx_HAL_Driver/Src/stm32wbxx_hal_dma.c ****   /* Transfer Complete Interrupt management ***********************************/
 780:Drivers/STM32WBxx_HAL_Driver/Src/stm32wbxx_hal_dma.c ****   else if (((flag_it & (DMA_FLAG_TC1 << (hdma->ChannelIndex & 0x1cU))) != 0U) && ((source_it & DMA_
 781:Drivers/STM32WBxx_HAL_Driver/Src/stm32wbxx_hal_dma.c ****   {
 782:Drivers/STM32WBxx_HAL_Driver/Src/stm32wbxx_hal_dma.c ****     if ((hdma->Instance->CCR & DMA_CCR_CIRC) == 0U)
 783:Drivers/STM32WBxx_HAL_Driver/Src/stm32wbxx_hal_dma.c ****     {
 784:Drivers/STM32WBxx_HAL_Driver/Src/stm32wbxx_hal_dma.c ****       /* Disable the transfer complete and error interrupt */
 785:Drivers/STM32WBxx_HAL_Driver/Src/stm32wbxx_hal_dma.c ****       __HAL_DMA_DISABLE_IT(hdma, DMA_IT_TE | DMA_IT_TC);
 786:Drivers/STM32WBxx_HAL_Driver/Src/stm32wbxx_hal_dma.c **** 
 787:Drivers/STM32WBxx_HAL_Driver/Src/stm32wbxx_hal_dma.c ****       /* Change the DMA state */
 788:Drivers/STM32WBxx_HAL_Driver/Src/stm32wbxx_hal_dma.c ****       hdma->State = HAL_DMA_STATE_READY;
 789:Drivers/STM32WBxx_HAL_Driver/Src/stm32wbxx_hal_dma.c ****     }
 790:Drivers/STM32WBxx_HAL_Driver/Src/stm32wbxx_hal_dma.c ****     /* Clear the transfer complete flag */
 791:Drivers/STM32WBxx_HAL_Driver/Src/stm32wbxx_hal_dma.c ****     hdma->DmaBaseAddress->IFCR = (DMA_ISR_TCIF1 << (hdma->ChannelIndex & 0x1cU));
 792:Drivers/STM32WBxx_HAL_Driver/Src/stm32wbxx_hal_dma.c **** 
 793:Drivers/STM32WBxx_HAL_Driver/Src/stm32wbxx_hal_dma.c ****     /* Process Unlocked */
 794:Drivers/STM32WBxx_HAL_Driver/Src/stm32wbxx_hal_dma.c ****     __HAL_UNLOCK(hdma);
 795:Drivers/STM32WBxx_HAL_Driver/Src/stm32wbxx_hal_dma.c **** 
 796:Drivers/STM32WBxx_HAL_Driver/Src/stm32wbxx_hal_dma.c ****     if (hdma->XferCpltCallback != NULL)
 797:Drivers/STM32WBxx_HAL_Driver/Src/stm32wbxx_hal_dma.c ****     {
 798:Drivers/STM32WBxx_HAL_Driver/Src/stm32wbxx_hal_dma.c ****       /* Transfer complete callback */
 799:Drivers/STM32WBxx_HAL_Driver/Src/stm32wbxx_hal_dma.c ****       hdma->XferCpltCallback(hdma);
 800:Drivers/STM32WBxx_HAL_Driver/Src/stm32wbxx_hal_dma.c ****     }
 801:Drivers/STM32WBxx_HAL_Driver/Src/stm32wbxx_hal_dma.c ****   }
 802:Drivers/STM32WBxx_HAL_Driver/Src/stm32wbxx_hal_dma.c **** 
 803:Drivers/STM32WBxx_HAL_Driver/Src/stm32wbxx_hal_dma.c ****   /* Transfer Error Interrupt management **************************************/
 804:Drivers/STM32WBxx_HAL_Driver/Src/stm32wbxx_hal_dma.c ****   else if (((flag_it & (DMA_FLAG_TE1 << (hdma->ChannelIndex & 0x1cU)))!= 0U) && ((source_it & DMA_I
 805:Drivers/STM32WBxx_HAL_Driver/Src/stm32wbxx_hal_dma.c ****   {
 806:Drivers/STM32WBxx_HAL_Driver/Src/stm32wbxx_hal_dma.c ****     /* When a DMA transfer error occurs */
 807:Drivers/STM32WBxx_HAL_Driver/Src/stm32wbxx_hal_dma.c ****     /* A hardware clear of its EN bits is performed */
 808:Drivers/STM32WBxx_HAL_Driver/Src/stm32wbxx_hal_dma.c ****     /* Disable ALL DMA IT */
 809:Drivers/STM32WBxx_HAL_Driver/Src/stm32wbxx_hal_dma.c ****     __HAL_DMA_DISABLE_IT(hdma, (DMA_IT_TC | DMA_IT_HT | DMA_IT_TE));
 810:Drivers/STM32WBxx_HAL_Driver/Src/stm32wbxx_hal_dma.c **** 
 811:Drivers/STM32WBxx_HAL_Driver/Src/stm32wbxx_hal_dma.c ****     /* Clear all flags */
 812:Drivers/STM32WBxx_HAL_Driver/Src/stm32wbxx_hal_dma.c ****     hdma->DmaBaseAddress->IFCR = (DMA_ISR_GIF1 << (hdma->ChannelIndex & 0x1cU));
 813:Drivers/STM32WBxx_HAL_Driver/Src/stm32wbxx_hal_dma.c **** 
 814:Drivers/STM32WBxx_HAL_Driver/Src/stm32wbxx_hal_dma.c ****     /* Update error code */
 815:Drivers/STM32WBxx_HAL_Driver/Src/stm32wbxx_hal_dma.c ****     hdma->ErrorCode = HAL_DMA_ERROR_TE;
 816:Drivers/STM32WBxx_HAL_Driver/Src/stm32wbxx_hal_dma.c **** 
 817:Drivers/STM32WBxx_HAL_Driver/Src/stm32wbxx_hal_dma.c ****     /* Change the DMA state */
 818:Drivers/STM32WBxx_HAL_Driver/Src/stm32wbxx_hal_dma.c ****     hdma->State = HAL_DMA_STATE_READY;
 819:Drivers/STM32WBxx_HAL_Driver/Src/stm32wbxx_hal_dma.c **** 
 820:Drivers/STM32WBxx_HAL_Driver/Src/stm32wbxx_hal_dma.c ****     /* Process Unlocked */
 821:Drivers/STM32WBxx_HAL_Driver/Src/stm32wbxx_hal_dma.c ****     __HAL_UNLOCK(hdma);
 822:Drivers/STM32WBxx_HAL_Driver/Src/stm32wbxx_hal_dma.c **** 
 823:Drivers/STM32WBxx_HAL_Driver/Src/stm32wbxx_hal_dma.c ****     if (hdma->XferErrorCallback != NULL)
 824:Drivers/STM32WBxx_HAL_Driver/Src/stm32wbxx_hal_dma.c ****     {
 825:Drivers/STM32WBxx_HAL_Driver/Src/stm32wbxx_hal_dma.c ****       /* Transfer error callback */
 826:Drivers/STM32WBxx_HAL_Driver/Src/stm32wbxx_hal_dma.c ****       hdma->XferErrorCallback(hdma);
 827:Drivers/STM32WBxx_HAL_Driver/Src/stm32wbxx_hal_dma.c ****     }
 828:Drivers/STM32WBxx_HAL_Driver/Src/stm32wbxx_hal_dma.c ****   }
ARM GAS  /var/folders/lt/l_qrc8c54t93n_phsj7cf5tc0000gn/T//cc1tXrem.s 			page 16


 829:Drivers/STM32WBxx_HAL_Driver/Src/stm32wbxx_hal_dma.c ****   else
 830:Drivers/STM32WBxx_HAL_Driver/Src/stm32wbxx_hal_dma.c ****   {
 831:Drivers/STM32WBxx_HAL_Driver/Src/stm32wbxx_hal_dma.c ****     /* Nothing To Do */
 832:Drivers/STM32WBxx_HAL_Driver/Src/stm32wbxx_hal_dma.c ****   }
 833:Drivers/STM32WBxx_HAL_Driver/Src/stm32wbxx_hal_dma.c ****   return;
 834:Drivers/STM32WBxx_HAL_Driver/Src/stm32wbxx_hal_dma.c **** }
 835:Drivers/STM32WBxx_HAL_Driver/Src/stm32wbxx_hal_dma.c **** 
 836:Drivers/STM32WBxx_HAL_Driver/Src/stm32wbxx_hal_dma.c **** /**
 837:Drivers/STM32WBxx_HAL_Driver/Src/stm32wbxx_hal_dma.c ****   * @brief  Register callbacks
 838:Drivers/STM32WBxx_HAL_Driver/Src/stm32wbxx_hal_dma.c ****   * @param hdma Pointer to a DMA_HandleTypeDef structure that contains
 839:Drivers/STM32WBxx_HAL_Driver/Src/stm32wbxx_hal_dma.c ****   *                               the configuration information for the specified DMA Channel.
 840:Drivers/STM32WBxx_HAL_Driver/Src/stm32wbxx_hal_dma.c ****   * @param CallbackID User Callback identifier
 841:Drivers/STM32WBxx_HAL_Driver/Src/stm32wbxx_hal_dma.c ****   *                               a HAL_DMA_CallbackIDTypeDef ENUM as parameter.
 842:Drivers/STM32WBxx_HAL_Driver/Src/stm32wbxx_hal_dma.c ****   * @param pCallback Pointer to private callback function which has pointer to
 843:Drivers/STM32WBxx_HAL_Driver/Src/stm32wbxx_hal_dma.c ****   *                               a DMA_HandleTypeDef structure as parameter.
 844:Drivers/STM32WBxx_HAL_Driver/Src/stm32wbxx_hal_dma.c ****   * @retval HAL status
 845:Drivers/STM32WBxx_HAL_Driver/Src/stm32wbxx_hal_dma.c ****   */
 846:Drivers/STM32WBxx_HAL_Driver/Src/stm32wbxx_hal_dma.c **** HAL_StatusTypeDef HAL_DMA_RegisterCallback(DMA_HandleTypeDef *hdma, HAL_DMA_CallbackIDTypeDef Callb
 847:Drivers/STM32WBxx_HAL_Driver/Src/stm32wbxx_hal_dma.c **** {
 848:Drivers/STM32WBxx_HAL_Driver/Src/stm32wbxx_hal_dma.c ****   HAL_StatusTypeDef status = HAL_OK;
 849:Drivers/STM32WBxx_HAL_Driver/Src/stm32wbxx_hal_dma.c **** 
 850:Drivers/STM32WBxx_HAL_Driver/Src/stm32wbxx_hal_dma.c ****   /* Process locked */
 851:Drivers/STM32WBxx_HAL_Driver/Src/stm32wbxx_hal_dma.c ****   __HAL_LOCK(hdma);
 852:Drivers/STM32WBxx_HAL_Driver/Src/stm32wbxx_hal_dma.c **** 
 853:Drivers/STM32WBxx_HAL_Driver/Src/stm32wbxx_hal_dma.c ****   if (HAL_DMA_STATE_READY == hdma->State)
 854:Drivers/STM32WBxx_HAL_Driver/Src/stm32wbxx_hal_dma.c ****   {
 855:Drivers/STM32WBxx_HAL_Driver/Src/stm32wbxx_hal_dma.c ****     switch (CallbackID)
 856:Drivers/STM32WBxx_HAL_Driver/Src/stm32wbxx_hal_dma.c ****     {
 857:Drivers/STM32WBxx_HAL_Driver/Src/stm32wbxx_hal_dma.c ****       case  HAL_DMA_XFER_CPLT_CB_ID:
 858:Drivers/STM32WBxx_HAL_Driver/Src/stm32wbxx_hal_dma.c ****         hdma->XferCpltCallback = pCallback;
 859:Drivers/STM32WBxx_HAL_Driver/Src/stm32wbxx_hal_dma.c ****         break;
 860:Drivers/STM32WBxx_HAL_Driver/Src/stm32wbxx_hal_dma.c **** 
 861:Drivers/STM32WBxx_HAL_Driver/Src/stm32wbxx_hal_dma.c ****       case  HAL_DMA_XFER_HALFCPLT_CB_ID:
 862:Drivers/STM32WBxx_HAL_Driver/Src/stm32wbxx_hal_dma.c ****         hdma->XferHalfCpltCallback = pCallback;
 863:Drivers/STM32WBxx_HAL_Driver/Src/stm32wbxx_hal_dma.c ****         break;
 864:Drivers/STM32WBxx_HAL_Driver/Src/stm32wbxx_hal_dma.c **** 
 865:Drivers/STM32WBxx_HAL_Driver/Src/stm32wbxx_hal_dma.c ****       case  HAL_DMA_XFER_ERROR_CB_ID:
 866:Drivers/STM32WBxx_HAL_Driver/Src/stm32wbxx_hal_dma.c ****         hdma->XferErrorCallback = pCallback;
 867:Drivers/STM32WBxx_HAL_Driver/Src/stm32wbxx_hal_dma.c ****         break;
 868:Drivers/STM32WBxx_HAL_Driver/Src/stm32wbxx_hal_dma.c **** 
 869:Drivers/STM32WBxx_HAL_Driver/Src/stm32wbxx_hal_dma.c ****       case  HAL_DMA_XFER_ABORT_CB_ID:
 870:Drivers/STM32WBxx_HAL_Driver/Src/stm32wbxx_hal_dma.c ****         hdma->XferAbortCallback = pCallback;
 871:Drivers/STM32WBxx_HAL_Driver/Src/stm32wbxx_hal_dma.c ****         break;
 872:Drivers/STM32WBxx_HAL_Driver/Src/stm32wbxx_hal_dma.c **** 
 873:Drivers/STM32WBxx_HAL_Driver/Src/stm32wbxx_hal_dma.c ****       default:
 874:Drivers/STM32WBxx_HAL_Driver/Src/stm32wbxx_hal_dma.c ****         status = HAL_ERROR;
 875:Drivers/STM32WBxx_HAL_Driver/Src/stm32wbxx_hal_dma.c ****         break;
 876:Drivers/STM32WBxx_HAL_Driver/Src/stm32wbxx_hal_dma.c ****     }
 877:Drivers/STM32WBxx_HAL_Driver/Src/stm32wbxx_hal_dma.c ****   }
 878:Drivers/STM32WBxx_HAL_Driver/Src/stm32wbxx_hal_dma.c ****   else
 879:Drivers/STM32WBxx_HAL_Driver/Src/stm32wbxx_hal_dma.c ****   {
 880:Drivers/STM32WBxx_HAL_Driver/Src/stm32wbxx_hal_dma.c ****     status = HAL_ERROR;
 881:Drivers/STM32WBxx_HAL_Driver/Src/stm32wbxx_hal_dma.c ****   }
 882:Drivers/STM32WBxx_HAL_Driver/Src/stm32wbxx_hal_dma.c **** 
 883:Drivers/STM32WBxx_HAL_Driver/Src/stm32wbxx_hal_dma.c ****   /* Release Lock */
 884:Drivers/STM32WBxx_HAL_Driver/Src/stm32wbxx_hal_dma.c ****   __HAL_UNLOCK(hdma);
 885:Drivers/STM32WBxx_HAL_Driver/Src/stm32wbxx_hal_dma.c **** 
ARM GAS  /var/folders/lt/l_qrc8c54t93n_phsj7cf5tc0000gn/T//cc1tXrem.s 			page 17


 886:Drivers/STM32WBxx_HAL_Driver/Src/stm32wbxx_hal_dma.c ****   return status;
 887:Drivers/STM32WBxx_HAL_Driver/Src/stm32wbxx_hal_dma.c **** }
 888:Drivers/STM32WBxx_HAL_Driver/Src/stm32wbxx_hal_dma.c **** 
 889:Drivers/STM32WBxx_HAL_Driver/Src/stm32wbxx_hal_dma.c **** /**
 890:Drivers/STM32WBxx_HAL_Driver/Src/stm32wbxx_hal_dma.c ****   * @brief  UnRegister callbacks
 891:Drivers/STM32WBxx_HAL_Driver/Src/stm32wbxx_hal_dma.c ****   * @param hdma Pointer to a DMA_HandleTypeDef structure that contains
 892:Drivers/STM32WBxx_HAL_Driver/Src/stm32wbxx_hal_dma.c ****   *                               the configuration information for the specified DMA Channel.
 893:Drivers/STM32WBxx_HAL_Driver/Src/stm32wbxx_hal_dma.c ****   * @param CallbackID User Callback identifier
 894:Drivers/STM32WBxx_HAL_Driver/Src/stm32wbxx_hal_dma.c ****   *                               a HAL_DMA_CallbackIDTypeDef ENUM as parameter.
 895:Drivers/STM32WBxx_HAL_Driver/Src/stm32wbxx_hal_dma.c ****   * @retval HAL status
 896:Drivers/STM32WBxx_HAL_Driver/Src/stm32wbxx_hal_dma.c ****   */
 897:Drivers/STM32WBxx_HAL_Driver/Src/stm32wbxx_hal_dma.c **** HAL_StatusTypeDef HAL_DMA_UnRegisterCallback(DMA_HandleTypeDef *hdma, HAL_DMA_CallbackIDTypeDef Cal
 898:Drivers/STM32WBxx_HAL_Driver/Src/stm32wbxx_hal_dma.c **** {
 899:Drivers/STM32WBxx_HAL_Driver/Src/stm32wbxx_hal_dma.c ****   HAL_StatusTypeDef status = HAL_OK;
 900:Drivers/STM32WBxx_HAL_Driver/Src/stm32wbxx_hal_dma.c **** 
 901:Drivers/STM32WBxx_HAL_Driver/Src/stm32wbxx_hal_dma.c ****   /* Process locked */
 902:Drivers/STM32WBxx_HAL_Driver/Src/stm32wbxx_hal_dma.c ****   __HAL_LOCK(hdma);
 903:Drivers/STM32WBxx_HAL_Driver/Src/stm32wbxx_hal_dma.c **** 
 904:Drivers/STM32WBxx_HAL_Driver/Src/stm32wbxx_hal_dma.c ****   if (HAL_DMA_STATE_READY == hdma->State)
 905:Drivers/STM32WBxx_HAL_Driver/Src/stm32wbxx_hal_dma.c ****   {
 906:Drivers/STM32WBxx_HAL_Driver/Src/stm32wbxx_hal_dma.c ****     switch (CallbackID)
 907:Drivers/STM32WBxx_HAL_Driver/Src/stm32wbxx_hal_dma.c ****     {
 908:Drivers/STM32WBxx_HAL_Driver/Src/stm32wbxx_hal_dma.c ****       case  HAL_DMA_XFER_CPLT_CB_ID:
 909:Drivers/STM32WBxx_HAL_Driver/Src/stm32wbxx_hal_dma.c ****         hdma->XferCpltCallback = NULL;
 910:Drivers/STM32WBxx_HAL_Driver/Src/stm32wbxx_hal_dma.c ****         break;
 911:Drivers/STM32WBxx_HAL_Driver/Src/stm32wbxx_hal_dma.c **** 
 912:Drivers/STM32WBxx_HAL_Driver/Src/stm32wbxx_hal_dma.c ****       case  HAL_DMA_XFER_HALFCPLT_CB_ID:
 913:Drivers/STM32WBxx_HAL_Driver/Src/stm32wbxx_hal_dma.c ****         hdma->XferHalfCpltCallback = NULL;
 914:Drivers/STM32WBxx_HAL_Driver/Src/stm32wbxx_hal_dma.c ****         break;
 915:Drivers/STM32WBxx_HAL_Driver/Src/stm32wbxx_hal_dma.c **** 
 916:Drivers/STM32WBxx_HAL_Driver/Src/stm32wbxx_hal_dma.c ****       case  HAL_DMA_XFER_ERROR_CB_ID:
 917:Drivers/STM32WBxx_HAL_Driver/Src/stm32wbxx_hal_dma.c ****         hdma->XferErrorCallback = NULL;
 918:Drivers/STM32WBxx_HAL_Driver/Src/stm32wbxx_hal_dma.c ****         break;
 919:Drivers/STM32WBxx_HAL_Driver/Src/stm32wbxx_hal_dma.c **** 
 920:Drivers/STM32WBxx_HAL_Driver/Src/stm32wbxx_hal_dma.c ****       case  HAL_DMA_XFER_ABORT_CB_ID:
 921:Drivers/STM32WBxx_HAL_Driver/Src/stm32wbxx_hal_dma.c ****         hdma->XferAbortCallback = NULL;
 922:Drivers/STM32WBxx_HAL_Driver/Src/stm32wbxx_hal_dma.c ****         break;
 923:Drivers/STM32WBxx_HAL_Driver/Src/stm32wbxx_hal_dma.c **** 
 924:Drivers/STM32WBxx_HAL_Driver/Src/stm32wbxx_hal_dma.c ****       case   HAL_DMA_XFER_ALL_CB_ID:
 925:Drivers/STM32WBxx_HAL_Driver/Src/stm32wbxx_hal_dma.c ****         hdma->XferCpltCallback = NULL;
 926:Drivers/STM32WBxx_HAL_Driver/Src/stm32wbxx_hal_dma.c ****         hdma->XferHalfCpltCallback = NULL;
 927:Drivers/STM32WBxx_HAL_Driver/Src/stm32wbxx_hal_dma.c ****         hdma->XferErrorCallback = NULL;
 928:Drivers/STM32WBxx_HAL_Driver/Src/stm32wbxx_hal_dma.c ****         hdma->XferAbortCallback = NULL;
 929:Drivers/STM32WBxx_HAL_Driver/Src/stm32wbxx_hal_dma.c ****         break;
 930:Drivers/STM32WBxx_HAL_Driver/Src/stm32wbxx_hal_dma.c **** 
 931:Drivers/STM32WBxx_HAL_Driver/Src/stm32wbxx_hal_dma.c ****       default:
 932:Drivers/STM32WBxx_HAL_Driver/Src/stm32wbxx_hal_dma.c ****         status = HAL_ERROR;
 933:Drivers/STM32WBxx_HAL_Driver/Src/stm32wbxx_hal_dma.c ****         break;
 934:Drivers/STM32WBxx_HAL_Driver/Src/stm32wbxx_hal_dma.c ****     }
 935:Drivers/STM32WBxx_HAL_Driver/Src/stm32wbxx_hal_dma.c ****   }
 936:Drivers/STM32WBxx_HAL_Driver/Src/stm32wbxx_hal_dma.c ****   else
 937:Drivers/STM32WBxx_HAL_Driver/Src/stm32wbxx_hal_dma.c ****   {
 938:Drivers/STM32WBxx_HAL_Driver/Src/stm32wbxx_hal_dma.c ****     status = HAL_ERROR;
 939:Drivers/STM32WBxx_HAL_Driver/Src/stm32wbxx_hal_dma.c ****   }
 940:Drivers/STM32WBxx_HAL_Driver/Src/stm32wbxx_hal_dma.c **** 
 941:Drivers/STM32WBxx_HAL_Driver/Src/stm32wbxx_hal_dma.c ****   /* Release Lock */
 942:Drivers/STM32WBxx_HAL_Driver/Src/stm32wbxx_hal_dma.c ****   __HAL_UNLOCK(hdma);
ARM GAS  /var/folders/lt/l_qrc8c54t93n_phsj7cf5tc0000gn/T//cc1tXrem.s 			page 18


 943:Drivers/STM32WBxx_HAL_Driver/Src/stm32wbxx_hal_dma.c **** 
 944:Drivers/STM32WBxx_HAL_Driver/Src/stm32wbxx_hal_dma.c ****   return status;
 945:Drivers/STM32WBxx_HAL_Driver/Src/stm32wbxx_hal_dma.c **** }
 946:Drivers/STM32WBxx_HAL_Driver/Src/stm32wbxx_hal_dma.c **** 
 947:Drivers/STM32WBxx_HAL_Driver/Src/stm32wbxx_hal_dma.c **** /**
 948:Drivers/STM32WBxx_HAL_Driver/Src/stm32wbxx_hal_dma.c ****   * @}
 949:Drivers/STM32WBxx_HAL_Driver/Src/stm32wbxx_hal_dma.c ****   */
 950:Drivers/STM32WBxx_HAL_Driver/Src/stm32wbxx_hal_dma.c **** 
 951:Drivers/STM32WBxx_HAL_Driver/Src/stm32wbxx_hal_dma.c **** 
 952:Drivers/STM32WBxx_HAL_Driver/Src/stm32wbxx_hal_dma.c **** 
 953:Drivers/STM32WBxx_HAL_Driver/Src/stm32wbxx_hal_dma.c **** /** @defgroup DMA_Exported_Functions_Group3 Peripheral State and Errors functions
 954:Drivers/STM32WBxx_HAL_Driver/Src/stm32wbxx_hal_dma.c ****  *  @brief    Peripheral State and Errors functions
 955:Drivers/STM32WBxx_HAL_Driver/Src/stm32wbxx_hal_dma.c ****  *
 956:Drivers/STM32WBxx_HAL_Driver/Src/stm32wbxx_hal_dma.c **** @verbatim
 957:Drivers/STM32WBxx_HAL_Driver/Src/stm32wbxx_hal_dma.c ****  ===============================================================================
 958:Drivers/STM32WBxx_HAL_Driver/Src/stm32wbxx_hal_dma.c ****             ##### Peripheral State and Errors functions #####
 959:Drivers/STM32WBxx_HAL_Driver/Src/stm32wbxx_hal_dma.c ****  ===============================================================================
 960:Drivers/STM32WBxx_HAL_Driver/Src/stm32wbxx_hal_dma.c ****     [..]
 961:Drivers/STM32WBxx_HAL_Driver/Src/stm32wbxx_hal_dma.c ****     This subsection provides functions allowing to
 962:Drivers/STM32WBxx_HAL_Driver/Src/stm32wbxx_hal_dma.c ****       (+) Check the DMA state
 963:Drivers/STM32WBxx_HAL_Driver/Src/stm32wbxx_hal_dma.c ****       (+) Get error code
 964:Drivers/STM32WBxx_HAL_Driver/Src/stm32wbxx_hal_dma.c **** 
 965:Drivers/STM32WBxx_HAL_Driver/Src/stm32wbxx_hal_dma.c **** @endverbatim
 966:Drivers/STM32WBxx_HAL_Driver/Src/stm32wbxx_hal_dma.c ****   * @{
 967:Drivers/STM32WBxx_HAL_Driver/Src/stm32wbxx_hal_dma.c ****   */
 968:Drivers/STM32WBxx_HAL_Driver/Src/stm32wbxx_hal_dma.c **** 
 969:Drivers/STM32WBxx_HAL_Driver/Src/stm32wbxx_hal_dma.c **** /**
 970:Drivers/STM32WBxx_HAL_Driver/Src/stm32wbxx_hal_dma.c ****   * @brief  Return the DMA handle state.
 971:Drivers/STM32WBxx_HAL_Driver/Src/stm32wbxx_hal_dma.c ****   * @param hdma Pointer to a DMA_HandleTypeDef structure that contains
 972:Drivers/STM32WBxx_HAL_Driver/Src/stm32wbxx_hal_dma.c ****   *               the configuration information for the specified DMA Channel.
 973:Drivers/STM32WBxx_HAL_Driver/Src/stm32wbxx_hal_dma.c ****   * @retval HAL state
 974:Drivers/STM32WBxx_HAL_Driver/Src/stm32wbxx_hal_dma.c ****   */
 975:Drivers/STM32WBxx_HAL_Driver/Src/stm32wbxx_hal_dma.c **** HAL_DMA_StateTypeDef HAL_DMA_GetState(DMA_HandleTypeDef *hdma)
 976:Drivers/STM32WBxx_HAL_Driver/Src/stm32wbxx_hal_dma.c **** {
 977:Drivers/STM32WBxx_HAL_Driver/Src/stm32wbxx_hal_dma.c ****   /* Return DMA handle state */
 978:Drivers/STM32WBxx_HAL_Driver/Src/stm32wbxx_hal_dma.c ****   return hdma->State;
 979:Drivers/STM32WBxx_HAL_Driver/Src/stm32wbxx_hal_dma.c **** }
 980:Drivers/STM32WBxx_HAL_Driver/Src/stm32wbxx_hal_dma.c **** 
 981:Drivers/STM32WBxx_HAL_Driver/Src/stm32wbxx_hal_dma.c **** /**
 982:Drivers/STM32WBxx_HAL_Driver/Src/stm32wbxx_hal_dma.c ****   * @brief  Return the DMA error code.
 983:Drivers/STM32WBxx_HAL_Driver/Src/stm32wbxx_hal_dma.c ****   * @param  hdma Pointer to a DMA_HandleTypeDef structure that contains
 984:Drivers/STM32WBxx_HAL_Driver/Src/stm32wbxx_hal_dma.c ****   *              the configuration information for the specified DMA Channel.
 985:Drivers/STM32WBxx_HAL_Driver/Src/stm32wbxx_hal_dma.c ****   * @retval DMA Error Code
 986:Drivers/STM32WBxx_HAL_Driver/Src/stm32wbxx_hal_dma.c ****   */
 987:Drivers/STM32WBxx_HAL_Driver/Src/stm32wbxx_hal_dma.c **** uint32_t HAL_DMA_GetError(DMA_HandleTypeDef *hdma)
 988:Drivers/STM32WBxx_HAL_Driver/Src/stm32wbxx_hal_dma.c **** {
 989:Drivers/STM32WBxx_HAL_Driver/Src/stm32wbxx_hal_dma.c ****   return hdma->ErrorCode;
 990:Drivers/STM32WBxx_HAL_Driver/Src/stm32wbxx_hal_dma.c **** }
 991:Drivers/STM32WBxx_HAL_Driver/Src/stm32wbxx_hal_dma.c **** 
 992:Drivers/STM32WBxx_HAL_Driver/Src/stm32wbxx_hal_dma.c **** /**
 993:Drivers/STM32WBxx_HAL_Driver/Src/stm32wbxx_hal_dma.c ****   * @}
 994:Drivers/STM32WBxx_HAL_Driver/Src/stm32wbxx_hal_dma.c ****   */
 995:Drivers/STM32WBxx_HAL_Driver/Src/stm32wbxx_hal_dma.c **** 
 996:Drivers/STM32WBxx_HAL_Driver/Src/stm32wbxx_hal_dma.c **** /**
 997:Drivers/STM32WBxx_HAL_Driver/Src/stm32wbxx_hal_dma.c ****   * @}
 998:Drivers/STM32WBxx_HAL_Driver/Src/stm32wbxx_hal_dma.c ****   */
 999:Drivers/STM32WBxx_HAL_Driver/Src/stm32wbxx_hal_dma.c **** 
ARM GAS  /var/folders/lt/l_qrc8c54t93n_phsj7cf5tc0000gn/T//cc1tXrem.s 			page 19


1000:Drivers/STM32WBxx_HAL_Driver/Src/stm32wbxx_hal_dma.c **** /** @addtogroup DMA_Private_Functions
1001:Drivers/STM32WBxx_HAL_Driver/Src/stm32wbxx_hal_dma.c ****   * @{
1002:Drivers/STM32WBxx_HAL_Driver/Src/stm32wbxx_hal_dma.c ****   */
1003:Drivers/STM32WBxx_HAL_Driver/Src/stm32wbxx_hal_dma.c **** 
1004:Drivers/STM32WBxx_HAL_Driver/Src/stm32wbxx_hal_dma.c **** /**
1005:Drivers/STM32WBxx_HAL_Driver/Src/stm32wbxx_hal_dma.c ****   * @brief  Sets the DMA Transfer parameter.
1006:Drivers/STM32WBxx_HAL_Driver/Src/stm32wbxx_hal_dma.c ****   * @param hdma Pointer to a DMA_HandleTypeDef structure that contains
1007:Drivers/STM32WBxx_HAL_Driver/Src/stm32wbxx_hal_dma.c ****   *                     the configuration information for the specified DMA Channel.
1008:Drivers/STM32WBxx_HAL_Driver/Src/stm32wbxx_hal_dma.c ****   * @param SrcAddress The source memory Buffer address
1009:Drivers/STM32WBxx_HAL_Driver/Src/stm32wbxx_hal_dma.c ****   * @param DstAddress The destination memory Buffer address
1010:Drivers/STM32WBxx_HAL_Driver/Src/stm32wbxx_hal_dma.c ****   * @param DataLength The length of data to be transferred from source to destination
1011:Drivers/STM32WBxx_HAL_Driver/Src/stm32wbxx_hal_dma.c ****   * @retval HAL status
1012:Drivers/STM32WBxx_HAL_Driver/Src/stm32wbxx_hal_dma.c ****   */
1013:Drivers/STM32WBxx_HAL_Driver/Src/stm32wbxx_hal_dma.c **** static void DMA_SetConfig(DMA_HandleTypeDef *hdma, uint32_t SrcAddress, uint32_t DstAddress, uint32
1014:Drivers/STM32WBxx_HAL_Driver/Src/stm32wbxx_hal_dma.c **** {
  29              		.loc 1 1014 1 view -0
  30              		.cfi_startproc
  31              		@ args = 0, pretend = 0, frame = 0
  32              		@ frame_needed = 0, uses_anonymous_args = 0
  33              		@ link register save eliminated.
  34              		.loc 1 1014 1 is_stmt 0 view .LVU1
  35 0000 70B4     		push	{r4, r5, r6}
  36              	.LCFI0:
  37              		.cfi_def_cfa_offset 12
  38              		.cfi_offset 4, -12
  39              		.cfi_offset 5, -8
  40              		.cfi_offset 6, -4
1015:Drivers/STM32WBxx_HAL_Driver/Src/stm32wbxx_hal_dma.c ****   /* Clear the DMAMUX synchro overrun flag */
1016:Drivers/STM32WBxx_HAL_Driver/Src/stm32wbxx_hal_dma.c ****   hdma->DMAmuxChannelStatus->CFR = hdma->DMAmuxChannelStatusMask;
  41              		.loc 1 1016 3 is_stmt 1 view .LVU2
  42              		.loc 1 1016 7 is_stmt 0 view .LVU3
  43 0002 C46C     		ldr	r4, [r0, #76]
  44              		.loc 1 1016 40 view .LVU4
  45 0004 056D     		ldr	r5, [r0, #80]
  46              		.loc 1 1016 34 view .LVU5
  47 0006 6560     		str	r5, [r4, #4]
1017:Drivers/STM32WBxx_HAL_Driver/Src/stm32wbxx_hal_dma.c **** 
1018:Drivers/STM32WBxx_HAL_Driver/Src/stm32wbxx_hal_dma.c ****   if (hdma->DMAmuxRequestGen != 0U)
  48              		.loc 1 1018 3 is_stmt 1 view .LVU6
  49              		.loc 1 1018 11 is_stmt 0 view .LVU7
  50 0008 446D     		ldr	r4, [r0, #84]
  51              		.loc 1 1018 6 view .LVU8
  52 000a 14B1     		cbz	r4, .L2
1019:Drivers/STM32WBxx_HAL_Driver/Src/stm32wbxx_hal_dma.c ****   {
1020:Drivers/STM32WBxx_HAL_Driver/Src/stm32wbxx_hal_dma.c ****     /* Clear the DMAMUX request generator overrun flag */
1021:Drivers/STM32WBxx_HAL_Driver/Src/stm32wbxx_hal_dma.c ****     hdma->DMAmuxRequestGenStatus->RGCFR = hdma->DMAmuxRequestGenStatusMask;
  53              		.loc 1 1021 5 is_stmt 1 view .LVU9
  54              		.loc 1 1021 9 is_stmt 0 view .LVU10
  55 000c 846D     		ldr	r4, [r0, #88]
  56              		.loc 1 1021 47 view .LVU11
  57 000e C56D     		ldr	r5, [r0, #92]
  58              		.loc 1 1021 41 view .LVU12
  59 0010 6560     		str	r5, [r4, #4]
  60              	.L2:
1022:Drivers/STM32WBxx_HAL_Driver/Src/stm32wbxx_hal_dma.c ****   }
1023:Drivers/STM32WBxx_HAL_Driver/Src/stm32wbxx_hal_dma.c **** 
1024:Drivers/STM32WBxx_HAL_Driver/Src/stm32wbxx_hal_dma.c ****   /* Clear all flags */
ARM GAS  /var/folders/lt/l_qrc8c54t93n_phsj7cf5tc0000gn/T//cc1tXrem.s 			page 20


1025:Drivers/STM32WBxx_HAL_Driver/Src/stm32wbxx_hal_dma.c ****   hdma->DmaBaseAddress->IFCR = (DMA_ISR_GIF1 << (hdma->ChannelIndex & 0x1cU));
  61              		.loc 1 1025 3 is_stmt 1 view .LVU13
  62              		.loc 1 1025 54 is_stmt 0 view .LVU14
  63 0012 446C     		ldr	r4, [r0, #68]
  64              		.loc 1 1025 69 view .LVU15
  65 0014 04F01C05 		and	r5, r4, #28
  66              		.loc 1 1025 7 view .LVU16
  67 0018 066C     		ldr	r6, [r0, #64]
  68              		.loc 1 1025 46 view .LVU17
  69 001a 0124     		movs	r4, #1
  70 001c AC40     		lsls	r4, r4, r5
  71              		.loc 1 1025 30 view .LVU18
  72 001e 7460     		str	r4, [r6, #4]
1026:Drivers/STM32WBxx_HAL_Driver/Src/stm32wbxx_hal_dma.c **** 
1027:Drivers/STM32WBxx_HAL_Driver/Src/stm32wbxx_hal_dma.c ****   /* Configure DMA Channel data length */
1028:Drivers/STM32WBxx_HAL_Driver/Src/stm32wbxx_hal_dma.c ****   hdma->Instance->CNDTR = DataLength;
  73              		.loc 1 1028 3 is_stmt 1 view .LVU19
  74              		.loc 1 1028 7 is_stmt 0 view .LVU20
  75 0020 0468     		ldr	r4, [r0]
  76              		.loc 1 1028 25 view .LVU21
  77 0022 6360     		str	r3, [r4, #4]
1029:Drivers/STM32WBxx_HAL_Driver/Src/stm32wbxx_hal_dma.c **** 
1030:Drivers/STM32WBxx_HAL_Driver/Src/stm32wbxx_hal_dma.c ****   /* Memory to Peripheral */
1031:Drivers/STM32WBxx_HAL_Driver/Src/stm32wbxx_hal_dma.c ****   if ((hdma->Init.Direction) == DMA_MEMORY_TO_PERIPH)
  78              		.loc 1 1031 3 is_stmt 1 view .LVU22
  79              		.loc 1 1031 18 is_stmt 0 view .LVU23
  80 0024 8368     		ldr	r3, [r0, #8]
  81              	.LVL1:
  82              		.loc 1 1031 6 view .LVU24
  83 0026 102B     		cmp	r3, #16
  84 0028 05D0     		beq	.L6
1032:Drivers/STM32WBxx_HAL_Driver/Src/stm32wbxx_hal_dma.c ****   {
1033:Drivers/STM32WBxx_HAL_Driver/Src/stm32wbxx_hal_dma.c ****     /* Configure DMA Channel destination address */
1034:Drivers/STM32WBxx_HAL_Driver/Src/stm32wbxx_hal_dma.c ****     hdma->Instance->CPAR = DstAddress;
1035:Drivers/STM32WBxx_HAL_Driver/Src/stm32wbxx_hal_dma.c **** 
1036:Drivers/STM32WBxx_HAL_Driver/Src/stm32wbxx_hal_dma.c ****     /* Configure DMA Channel source address */
1037:Drivers/STM32WBxx_HAL_Driver/Src/stm32wbxx_hal_dma.c ****     hdma->Instance->CMAR = SrcAddress;
1038:Drivers/STM32WBxx_HAL_Driver/Src/stm32wbxx_hal_dma.c ****   }
1039:Drivers/STM32WBxx_HAL_Driver/Src/stm32wbxx_hal_dma.c ****   /* Peripheral to Memory */
1040:Drivers/STM32WBxx_HAL_Driver/Src/stm32wbxx_hal_dma.c ****   else
1041:Drivers/STM32WBxx_HAL_Driver/Src/stm32wbxx_hal_dma.c ****   {
1042:Drivers/STM32WBxx_HAL_Driver/Src/stm32wbxx_hal_dma.c ****     /* Configure DMA Channel source address */
1043:Drivers/STM32WBxx_HAL_Driver/Src/stm32wbxx_hal_dma.c ****     hdma->Instance->CPAR = SrcAddress;
  85              		.loc 1 1043 5 is_stmt 1 view .LVU25
  86              		.loc 1 1043 9 is_stmt 0 view .LVU26
  87 002a 0368     		ldr	r3, [r0]
  88              		.loc 1 1043 26 view .LVU27
  89 002c 9960     		str	r1, [r3, #8]
  90              	.LVL2:
1044:Drivers/STM32WBxx_HAL_Driver/Src/stm32wbxx_hal_dma.c **** 
1045:Drivers/STM32WBxx_HAL_Driver/Src/stm32wbxx_hal_dma.c ****     /* Configure DMA Channel destination address */
1046:Drivers/STM32WBxx_HAL_Driver/Src/stm32wbxx_hal_dma.c ****     hdma->Instance->CMAR = DstAddress;
  91              		.loc 1 1046 5 is_stmt 1 view .LVU28
  92              		.loc 1 1046 9 is_stmt 0 view .LVU29
  93 002e 0368     		ldr	r3, [r0]
  94              		.loc 1 1046 26 view .LVU30
  95 0030 DA60     		str	r2, [r3, #12]
ARM GAS  /var/folders/lt/l_qrc8c54t93n_phsj7cf5tc0000gn/T//cc1tXrem.s 			page 21


  96              	.L1:
1047:Drivers/STM32WBxx_HAL_Driver/Src/stm32wbxx_hal_dma.c ****   }
1048:Drivers/STM32WBxx_HAL_Driver/Src/stm32wbxx_hal_dma.c **** }
  97              		.loc 1 1048 1 view .LVU31
  98 0032 70BC     		pop	{r4, r5, r6}
  99              	.LCFI1:
 100              		.cfi_remember_state
 101              		.cfi_restore 6
 102              		.cfi_restore 5
 103              		.cfi_restore 4
 104              		.cfi_def_cfa_offset 0
 105 0034 7047     		bx	lr
 106              	.LVL3:
 107              	.L6:
 108              	.LCFI2:
 109              		.cfi_restore_state
1034:Drivers/STM32WBxx_HAL_Driver/Src/stm32wbxx_hal_dma.c **** 
 110              		.loc 1 1034 5 is_stmt 1 view .LVU32
1034:Drivers/STM32WBxx_HAL_Driver/Src/stm32wbxx_hal_dma.c **** 
 111              		.loc 1 1034 9 is_stmt 0 view .LVU33
 112 0036 0368     		ldr	r3, [r0]
1034:Drivers/STM32WBxx_HAL_Driver/Src/stm32wbxx_hal_dma.c **** 
 113              		.loc 1 1034 26 view .LVU34
 114 0038 9A60     		str	r2, [r3, #8]
 115              	.LVL4:
1037:Drivers/STM32WBxx_HAL_Driver/Src/stm32wbxx_hal_dma.c ****   }
 116              		.loc 1 1037 5 is_stmt 1 view .LVU35
1037:Drivers/STM32WBxx_HAL_Driver/Src/stm32wbxx_hal_dma.c ****   }
 117              		.loc 1 1037 9 is_stmt 0 view .LVU36
 118 003a 0368     		ldr	r3, [r0]
1037:Drivers/STM32WBxx_HAL_Driver/Src/stm32wbxx_hal_dma.c ****   }
 119              		.loc 1 1037 26 view .LVU37
 120 003c D960     		str	r1, [r3, #12]
 121 003e F8E7     		b	.L1
 122              		.cfi_endproc
 123              	.LFE1116:
 125              		.section	.text.DMA_CalcDMAMUXChannelBaseAndMask,"ax",%progbits
 126              		.align	1
 127              		.syntax unified
 128              		.thumb
 129              		.thumb_func
 130              		.fpu fpv4-sp-d16
 132              	DMA_CalcDMAMUXChannelBaseAndMask:
 133              	.LVL5:
 134              	.LFB1117:
1049:Drivers/STM32WBxx_HAL_Driver/Src/stm32wbxx_hal_dma.c **** 
1050:Drivers/STM32WBxx_HAL_Driver/Src/stm32wbxx_hal_dma.c **** /**
1051:Drivers/STM32WBxx_HAL_Driver/Src/stm32wbxx_hal_dma.c ****   * @brief  Updates the DMA handle with the DMAMUX  channel and status mask depending on channel nu
1052:Drivers/STM32WBxx_HAL_Driver/Src/stm32wbxx_hal_dma.c ****   * @param  hdma Pointer to a DMA_HandleTypeDef structure that contains
1053:Drivers/STM32WBxx_HAL_Driver/Src/stm32wbxx_hal_dma.c ****   *                     the configuration information for the specified DMA Channel.
1054:Drivers/STM32WBxx_HAL_Driver/Src/stm32wbxx_hal_dma.c ****   * @retval None
1055:Drivers/STM32WBxx_HAL_Driver/Src/stm32wbxx_hal_dma.c ****   */
1056:Drivers/STM32WBxx_HAL_Driver/Src/stm32wbxx_hal_dma.c **** static void DMA_CalcDMAMUXChannelBaseAndMask(DMA_HandleTypeDef *hdma)
1057:Drivers/STM32WBxx_HAL_Driver/Src/stm32wbxx_hal_dma.c **** {
 135              		.loc 1 1057 1 is_stmt 1 view -0
 136              		.cfi_startproc
 137              		@ args = 0, pretend = 0, frame = 0
ARM GAS  /var/folders/lt/l_qrc8c54t93n_phsj7cf5tc0000gn/T//cc1tXrem.s 			page 22


 138              		@ frame_needed = 0, uses_anonymous_args = 0
 139              		@ link register save eliminated.
1058:Drivers/STM32WBxx_HAL_Driver/Src/stm32wbxx_hal_dma.c ****   uint32_t channel_number;
 140              		.loc 1 1058 3 view .LVU39
1059:Drivers/STM32WBxx_HAL_Driver/Src/stm32wbxx_hal_dma.c **** 
1060:Drivers/STM32WBxx_HAL_Driver/Src/stm32wbxx_hal_dma.c ****   /* check if instance is not outside the DMA channel range */
1061:Drivers/STM32WBxx_HAL_Driver/Src/stm32wbxx_hal_dma.c **** #if defined(DMA2)
1062:Drivers/STM32WBxx_HAL_Driver/Src/stm32wbxx_hal_dma.c ****   if ((uint32_t)hdma->Instance < (uint32_t)DMA2_Channel1)
 141              		.loc 1 1062 3 view .LVU40
 142              		.loc 1 1062 21 is_stmt 0 view .LVU41
 143 0000 0368     		ldr	r3, [r0]
 144              		.loc 1 1062 6 view .LVU42
 145 0002 104A     		ldr	r2, .L10
 146 0004 9342     		cmp	r3, r2
 147 0006 15D8     		bhi	.L8
1063:Drivers/STM32WBxx_HAL_Driver/Src/stm32wbxx_hal_dma.c ****   {
1064:Drivers/STM32WBxx_HAL_Driver/Src/stm32wbxx_hal_dma.c ****     /* DMA1 */
1065:Drivers/STM32WBxx_HAL_Driver/Src/stm32wbxx_hal_dma.c ****     hdma->DMAmuxChannel = (DMAMUX1_Channel0 + (hdma->ChannelIndex >> 2U));
 148              		.loc 1 1065 5 is_stmt 1 view .LVU43
 149              		.loc 1 1065 52 is_stmt 0 view .LVU44
 150 0008 426C     		ldr	r2, [r0, #68]
 151              		.loc 1 1065 45 view .LVU45
 152 000a 22F00302 		bic	r2, r2, #3
 153 000e 02F18042 		add	r2, r2, #1073741824
 154 0012 02F50232 		add	r2, r2, #133120
 155              		.loc 1 1065 25 view .LVU46
 156 0016 8264     		str	r2, [r0, #72]
 157              	.L9:
1066:Drivers/STM32WBxx_HAL_Driver/Src/stm32wbxx_hal_dma.c ****   }
1067:Drivers/STM32WBxx_HAL_Driver/Src/stm32wbxx_hal_dma.c ****   else
1068:Drivers/STM32WBxx_HAL_Driver/Src/stm32wbxx_hal_dma.c ****   {
1069:Drivers/STM32WBxx_HAL_Driver/Src/stm32wbxx_hal_dma.c ****     /* DMA2 */
1070:Drivers/STM32WBxx_HAL_Driver/Src/stm32wbxx_hal_dma.c ****     hdma->DMAmuxChannel = (DMAMUX1_Channel7 + (hdma->ChannelIndex >> 2U));
1071:Drivers/STM32WBxx_HAL_Driver/Src/stm32wbxx_hal_dma.c ****   }
1072:Drivers/STM32WBxx_HAL_Driver/Src/stm32wbxx_hal_dma.c **** #else
1073:Drivers/STM32WBxx_HAL_Driver/Src/stm32wbxx_hal_dma.c ****   /* DMA1 */
1074:Drivers/STM32WBxx_HAL_Driver/Src/stm32wbxx_hal_dma.c ****   hdma->DMAmuxChannel = (DMAMUX1_Channel0 + (hdma->ChannelIndex >> 2U));
1075:Drivers/STM32WBxx_HAL_Driver/Src/stm32wbxx_hal_dma.c **** #endif
1076:Drivers/STM32WBxx_HAL_Driver/Src/stm32wbxx_hal_dma.c ****   channel_number = (((uint32_t)hdma->Instance & 0xFFU) - 8U) / 20U;
 158              		.loc 1 1076 3 is_stmt 1 view .LVU47
 159              		.loc 1 1076 47 is_stmt 0 view .LVU48
 160 0018 DBB2     		uxtb	r3, r3
 161              		.loc 1 1076 56 view .LVU49
 162 001a 083B     		subs	r3, r3, #8
 163              		.loc 1 1076 18 view .LVU50
 164 001c 0A4A     		ldr	r2, .L10+4
 165 001e A2FB0323 		umull	r2, r3, r2, r3
 166              	.LVL6:
1077:Drivers/STM32WBxx_HAL_Driver/Src/stm32wbxx_hal_dma.c ****   hdma->DMAmuxChannelStatus = DMAMUX1_ChannelStatus;
 167              		.loc 1 1077 3 is_stmt 1 view .LVU51
 168              		.loc 1 1077 29 is_stmt 0 view .LVU52
 169 0022 0A4A     		ldr	r2, .L10+8
 170 0024 C264     		str	r2, [r0, #76]
1078:Drivers/STM32WBxx_HAL_Driver/Src/stm32wbxx_hal_dma.c **** 
1079:Drivers/STM32WBxx_HAL_Driver/Src/stm32wbxx_hal_dma.c ****   /* Initialize the field DMAmuxChannelStatusMask with the corresponding index of the DMAMUX channe
1080:Drivers/STM32WBxx_HAL_Driver/Src/stm32wbxx_hal_dma.c ****   hdma->DMAmuxChannelStatusMask = 1UL << (channel_number & 0x1FU);
 171              		.loc 1 1080 3 is_stmt 1 view .LVU53
ARM GAS  /var/folders/lt/l_qrc8c54t93n_phsj7cf5tc0000gn/T//cc1tXrem.s 			page 23


 172              		.loc 1 1080 58 is_stmt 0 view .LVU54
 173 0026 C3F30413 		ubfx	r3, r3, #4, #5
 174              	.LVL7:
 175              		.loc 1 1080 39 view .LVU55
 176 002a 0122     		movs	r2, #1
 177 002c 02FA03F3 		lsl	r3, r2, r3
 178              		.loc 1 1080 33 view .LVU56
 179 0030 0365     		str	r3, [r0, #80]
1081:Drivers/STM32WBxx_HAL_Driver/Src/stm32wbxx_hal_dma.c **** }
 180              		.loc 1 1081 1 view .LVU57
 181 0032 7047     		bx	lr
 182              	.L8:
1070:Drivers/STM32WBxx_HAL_Driver/Src/stm32wbxx_hal_dma.c ****   }
 183              		.loc 1 1070 5 is_stmt 1 view .LVU58
1070:Drivers/STM32WBxx_HAL_Driver/Src/stm32wbxx_hal_dma.c ****   }
 184              		.loc 1 1070 52 is_stmt 0 view .LVU59
 185 0034 426C     		ldr	r2, [r0, #68]
1070:Drivers/STM32WBxx_HAL_Driver/Src/stm32wbxx_hal_dma.c ****   }
 186              		.loc 1 1070 45 view .LVU60
 187 0036 22F00301 		bic	r1, r2, #3
 188 003a 054A     		ldr	r2, .L10+12
 189 003c 0A44     		add	r2, r2, r1
1070:Drivers/STM32WBxx_HAL_Driver/Src/stm32wbxx_hal_dma.c ****   }
 190              		.loc 1 1070 25 view .LVU61
 191 003e 8264     		str	r2, [r0, #72]
 192 0040 EAE7     		b	.L9
 193              	.L11:
 194 0042 00BF     		.align	2
 195              	.L10:
 196 0044 07040240 		.word	1073873927
 197 0048 CDCCCCCC 		.word	-858993459
 198 004c 80080240 		.word	1073875072
 199 0050 1C080240 		.word	1073874972
 200              		.cfi_endproc
 201              	.LFE1117:
 203              		.section	.text.DMA_CalcDMAMUXRequestGenBaseAndMask,"ax",%progbits
 204              		.align	1
 205              		.syntax unified
 206              		.thumb
 207              		.thumb_func
 208              		.fpu fpv4-sp-d16
 210              	DMA_CalcDMAMUXRequestGenBaseAndMask:
 211              	.LVL8:
 212              	.LFB1118:
1082:Drivers/STM32WBxx_HAL_Driver/Src/stm32wbxx_hal_dma.c **** 
1083:Drivers/STM32WBxx_HAL_Driver/Src/stm32wbxx_hal_dma.c **** /**
1084:Drivers/STM32WBxx_HAL_Driver/Src/stm32wbxx_hal_dma.c ****   * @brief  Updates the DMA handle with the DMAMUX  request generator params
1085:Drivers/STM32WBxx_HAL_Driver/Src/stm32wbxx_hal_dma.c ****   * @param  hdma Pointer to a DMA_HandleTypeDef structure that contains
1086:Drivers/STM32WBxx_HAL_Driver/Src/stm32wbxx_hal_dma.c ****   *                     the configuration information for the specified DMA Channel.
1087:Drivers/STM32WBxx_HAL_Driver/Src/stm32wbxx_hal_dma.c ****   * @retval None
1088:Drivers/STM32WBxx_HAL_Driver/Src/stm32wbxx_hal_dma.c ****   */
1089:Drivers/STM32WBxx_HAL_Driver/Src/stm32wbxx_hal_dma.c **** 
1090:Drivers/STM32WBxx_HAL_Driver/Src/stm32wbxx_hal_dma.c **** static void DMA_CalcDMAMUXRequestGenBaseAndMask(DMA_HandleTypeDef *hdma)
1091:Drivers/STM32WBxx_HAL_Driver/Src/stm32wbxx_hal_dma.c **** {
 213              		.loc 1 1091 1 is_stmt 1 view -0
 214              		.cfi_startproc
 215              		@ args = 0, pretend = 0, frame = 0
ARM GAS  /var/folders/lt/l_qrc8c54t93n_phsj7cf5tc0000gn/T//cc1tXrem.s 			page 24


 216              		@ frame_needed = 0, uses_anonymous_args = 0
 217              		@ link register save eliminated.
1092:Drivers/STM32WBxx_HAL_Driver/Src/stm32wbxx_hal_dma.c ****   uint32_t request =  hdma->Init.Request & DMAMUX_CxCR_DMAREQ_ID;
 218              		.loc 1 1092 3 view .LVU63
 219              		.loc 1 1092 33 is_stmt 0 view .LVU64
 220 0000 4368     		ldr	r3, [r0, #4]
 221              		.loc 1 1092 12 view .LVU65
 222 0002 03F03F03 		and	r3, r3, #63
 223              	.LVL9:
1093:Drivers/STM32WBxx_HAL_Driver/Src/stm32wbxx_hal_dma.c **** 
1094:Drivers/STM32WBxx_HAL_Driver/Src/stm32wbxx_hal_dma.c ****   /* DMA Channels are connected to DMAMUX1 request generator blocks*/
1095:Drivers/STM32WBxx_HAL_Driver/Src/stm32wbxx_hal_dma.c ****   hdma->DMAmuxRequestGen = (DMAMUX_RequestGen_TypeDef *)((uint32_t)(((uint32_t)DMAMUX1_RequestGener
 224              		.loc 1 1095 3 is_stmt 1 view .LVU66
 225              		.loc 1 1095 58 is_stmt 0 view .LVU67
 226 0006 074A     		ldr	r2, .L13
 227 0008 1A44     		add	r2, r2, r3
 228 000a 9200     		lsls	r2, r2, #2
 229              		.loc 1 1095 26 view .LVU68
 230 000c 4265     		str	r2, [r0, #84]
1096:Drivers/STM32WBxx_HAL_Driver/Src/stm32wbxx_hal_dma.c **** 
1097:Drivers/STM32WBxx_HAL_Driver/Src/stm32wbxx_hal_dma.c ****   hdma->DMAmuxRequestGenStatus = DMAMUX1_RequestGenStatus;
 231              		.loc 1 1097 3 is_stmt 1 view .LVU69
 232              		.loc 1 1097 32 is_stmt 0 view .LVU70
 233 000e 064A     		ldr	r2, .L13+4
 234 0010 8265     		str	r2, [r0, #88]
1098:Drivers/STM32WBxx_HAL_Driver/Src/stm32wbxx_hal_dma.c **** 
1099:Drivers/STM32WBxx_HAL_Driver/Src/stm32wbxx_hal_dma.c ****   /* here "Request" is either DMA_REQUEST_GENERATOR0 to DMA_REQUEST_GENERATOR3, i.e. <= 4*/
1100:Drivers/STM32WBxx_HAL_Driver/Src/stm32wbxx_hal_dma.c ****   hdma->DMAmuxRequestGenStatusMask = 1UL << ((request - 1U) & 0x3U);
 235              		.loc 1 1100 3 is_stmt 1 view .LVU71
 236              		.loc 1 1100 55 is_stmt 0 view .LVU72
 237 0012 013B     		subs	r3, r3, #1
 238              	.LVL10:
 239              		.loc 1 1100 61 view .LVU73
 240 0014 03F00303 		and	r3, r3, #3
 241              	.LVL11:
 242              		.loc 1 1100 42 view .LVU74
 243 0018 0122     		movs	r2, #1
 244 001a 02FA03F3 		lsl	r3, r2, r3
 245              		.loc 1 1100 36 view .LVU75
 246 001e C365     		str	r3, [r0, #92]
1101:Drivers/STM32WBxx_HAL_Driver/Src/stm32wbxx_hal_dma.c **** }
 247              		.loc 1 1101 1 view .LVU76
 248 0020 7047     		bx	lr
 249              	.L14:
 250 0022 00BF     		.align	2
 251              	.L13:
 252 0024 3F820010 		.word	268468799
 253 0028 40090240 		.word	1073875264
 254              		.cfi_endproc
 255              	.LFE1118:
 257              		.section	.text.HAL_DMA_Init,"ax",%progbits
 258              		.align	1
 259              		.global	HAL_DMA_Init
 260              		.syntax unified
 261              		.thumb
 262              		.thumb_func
 263              		.fpu fpv4-sp-d16
ARM GAS  /var/folders/lt/l_qrc8c54t93n_phsj7cf5tc0000gn/T//cc1tXrem.s 			page 25


 265              	HAL_DMA_Init:
 266              	.LVL12:
 267              	.LFB1104:
 152:Drivers/STM32WBxx_HAL_Driver/Src/stm32wbxx_hal_dma.c ****   uint32_t tmp;
 268              		.loc 1 152 1 is_stmt 1 view -0
 269              		.cfi_startproc
 270              		@ args = 0, pretend = 0, frame = 0
 271              		@ frame_needed = 0, uses_anonymous_args = 0
 153:Drivers/STM32WBxx_HAL_Driver/Src/stm32wbxx_hal_dma.c **** 
 272              		.loc 1 153 3 view .LVU78
 156:Drivers/STM32WBxx_HAL_Driver/Src/stm32wbxx_hal_dma.c ****   {
 273              		.loc 1 156 3 view .LVU79
 156:Drivers/STM32WBxx_HAL_Driver/Src/stm32wbxx_hal_dma.c ****   {
 274              		.loc 1 156 6 is_stmt 0 view .LVU80
 275 0000 0028     		cmp	r0, #0
 276 0002 5DD0     		beq	.L22
 152:Drivers/STM32WBxx_HAL_Driver/Src/stm32wbxx_hal_dma.c ****   uint32_t tmp;
 277              		.loc 1 152 1 view .LVU81
 278 0004 10B5     		push	{r4, lr}
 279              	.LCFI3:
 280              		.cfi_def_cfa_offset 8
 281              		.cfi_offset 4, -8
 282              		.cfi_offset 14, -4
 283 0006 0446     		mov	r4, r0
 162:Drivers/STM32WBxx_HAL_Driver/Src/stm32wbxx_hal_dma.c ****   assert_param(IS_DMA_DIRECTION(hdma->Init.Direction));
 284              		.loc 1 162 3 is_stmt 1 view .LVU82
 163:Drivers/STM32WBxx_HAL_Driver/Src/stm32wbxx_hal_dma.c ****   assert_param(IS_DMA_PERIPHERAL_INC_STATE(hdma->Init.PeriphInc));
 285              		.loc 1 163 3 view .LVU83
 164:Drivers/STM32WBxx_HAL_Driver/Src/stm32wbxx_hal_dma.c ****   assert_param(IS_DMA_MEMORY_INC_STATE(hdma->Init.MemInc));
 286              		.loc 1 164 3 view .LVU84
 165:Drivers/STM32WBxx_HAL_Driver/Src/stm32wbxx_hal_dma.c ****   assert_param(IS_DMA_PERIPHERAL_DATA_SIZE(hdma->Init.PeriphDataAlignment));
 287              		.loc 1 165 3 view .LVU85
 166:Drivers/STM32WBxx_HAL_Driver/Src/stm32wbxx_hal_dma.c ****   assert_param(IS_DMA_MEMORY_DATA_SIZE(hdma->Init.MemDataAlignment));
 288              		.loc 1 166 3 view .LVU86
 167:Drivers/STM32WBxx_HAL_Driver/Src/stm32wbxx_hal_dma.c ****   assert_param(IS_DMA_MODE(hdma->Init.Mode));
 289              		.loc 1 167 3 view .LVU87
 168:Drivers/STM32WBxx_HAL_Driver/Src/stm32wbxx_hal_dma.c ****   assert_param(IS_DMA_PRIORITY(hdma->Init.Priority));
 290              		.loc 1 168 3 view .LVU88
 169:Drivers/STM32WBxx_HAL_Driver/Src/stm32wbxx_hal_dma.c **** 
 291              		.loc 1 169 3 view .LVU89
 171:Drivers/STM32WBxx_HAL_Driver/Src/stm32wbxx_hal_dma.c **** 
 292              		.loc 1 171 3 view .LVU90
 175:Drivers/STM32WBxx_HAL_Driver/Src/stm32wbxx_hal_dma.c ****   {
 293              		.loc 1 175 3 view .LVU91
 175:Drivers/STM32WBxx_HAL_Driver/Src/stm32wbxx_hal_dma.c ****   {
 294              		.loc 1 175 22 is_stmt 0 view .LVU92
 295 0008 0168     		ldr	r1, [r0]
 175:Drivers/STM32WBxx_HAL_Driver/Src/stm32wbxx_hal_dma.c ****   {
 296              		.loc 1 175 6 view .LVU93
 297 000a 2E4B     		ldr	r3, .L29
 298 000c 9942     		cmp	r1, r3
 299 000e 3FD8     		bhi	.L17
 178:Drivers/STM32WBxx_HAL_Driver/Src/stm32wbxx_hal_dma.c ****     hdma->DmaBaseAddress = DMA1;
 300              		.loc 1 178 5 is_stmt 1 view .LVU94
 178:Drivers/STM32WBxx_HAL_Driver/Src/stm32wbxx_hal_dma.c ****     hdma->DmaBaseAddress = DMA1;
 301              		.loc 1 178 53 is_stmt 0 view .LVU95
 302 0010 2D4B     		ldr	r3, .L29+4
ARM GAS  /var/folders/lt/l_qrc8c54t93n_phsj7cf5tc0000gn/T//cc1tXrem.s 			page 26


 303 0012 0B44     		add	r3, r3, r1
 178:Drivers/STM32WBxx_HAL_Driver/Src/stm32wbxx_hal_dma.c ****     hdma->DmaBaseAddress = DMA1;
 304              		.loc 1 178 80 view .LVU96
 305 0014 2D4A     		ldr	r2, .L29+8
 306 0016 A2FB0323 		umull	r2, r3, r2, r3
 307 001a 1B09     		lsrs	r3, r3, #4
 178:Drivers/STM32WBxx_HAL_Driver/Src/stm32wbxx_hal_dma.c ****     hdma->DmaBaseAddress = DMA1;
 308              		.loc 1 178 135 view .LVU97
 309 001c 9B00     		lsls	r3, r3, #2
 178:Drivers/STM32WBxx_HAL_Driver/Src/stm32wbxx_hal_dma.c ****     hdma->DmaBaseAddress = DMA1;
 310              		.loc 1 178 24 view .LVU98
 311 001e 4364     		str	r3, [r0, #68]
 179:Drivers/STM32WBxx_HAL_Driver/Src/stm32wbxx_hal_dma.c ****   }
 312              		.loc 1 179 5 is_stmt 1 view .LVU99
 179:Drivers/STM32WBxx_HAL_Driver/Src/stm32wbxx_hal_dma.c ****   }
 313              		.loc 1 179 26 is_stmt 0 view .LVU100
 314 0020 2B4B     		ldr	r3, .L29+12
 315 0022 0364     		str	r3, [r0, #64]
 316              	.L18:
 194:Drivers/STM32WBxx_HAL_Driver/Src/stm32wbxx_hal_dma.c **** 
 317              		.loc 1 194 3 is_stmt 1 view .LVU101
 194:Drivers/STM32WBxx_HAL_Driver/Src/stm32wbxx_hal_dma.c **** 
 318              		.loc 1 194 15 is_stmt 0 view .LVU102
 319 0024 0223     		movs	r3, #2
 320 0026 84F82530 		strb	r3, [r4, #37]
 197:Drivers/STM32WBxx_HAL_Driver/Src/stm32wbxx_hal_dma.c **** 
 321              		.loc 1 197 3 is_stmt 1 view .LVU103
 197:Drivers/STM32WBxx_HAL_Driver/Src/stm32wbxx_hal_dma.c **** 
 322              		.loc 1 197 7 is_stmt 0 view .LVU104
 323 002a 0A68     		ldr	r2, [r1]
 324              	.LVL13:
 200:Drivers/STM32WBxx_HAL_Driver/Src/stm32wbxx_hal_dma.c ****                       DMA_CCR_MINC  | DMA_CCR_PINC   | DMA_CCR_CIRC   |
 325              		.loc 1 200 3 is_stmt 1 view .LVU105
 200:Drivers/STM32WBxx_HAL_Driver/Src/stm32wbxx_hal_dma.c ****                       DMA_CCR_MINC  | DMA_CCR_PINC   | DMA_CCR_CIRC   |
 326              		.loc 1 200 7 is_stmt 0 view .LVU106
 327 002c 22F4FF42 		bic	r2, r2, #32640
 328              	.LVL14:
 200:Drivers/STM32WBxx_HAL_Driver/Src/stm32wbxx_hal_dma.c ****                       DMA_CCR_MINC  | DMA_CCR_PINC   | DMA_CCR_CIRC   |
 329              		.loc 1 200 7 view .LVU107
 330 0030 22F07002 		bic	r2, r2, #112
 331              	.LVL15:
 205:Drivers/STM32WBxx_HAL_Driver/Src/stm32wbxx_hal_dma.c ****           hdma->Init.PeriphInc           | hdma->Init.MemInc           |
 332              		.loc 1 205 3 is_stmt 1 view .LVU108
 205:Drivers/STM32WBxx_HAL_Driver/Src/stm32wbxx_hal_dma.c ****           hdma->Init.PeriphInc           | hdma->Init.MemInc           |
 333              		.loc 1 205 21 is_stmt 0 view .LVU109
 334 0034 A368     		ldr	r3, [r4, #8]
 206:Drivers/STM32WBxx_HAL_Driver/Src/stm32wbxx_hal_dma.c ****           hdma->Init.PeriphDataAlignment | hdma->Init.MemDataAlignment |
 335              		.loc 1 206 21 view .LVU110
 336 0036 E068     		ldr	r0, [r4, #12]
 337              	.LVL16:
 205:Drivers/STM32WBxx_HAL_Driver/Src/stm32wbxx_hal_dma.c ****           hdma->Init.PeriphInc           | hdma->Init.MemInc           |
 338              		.loc 1 205 39 view .LVU111
 339 0038 0343     		orrs	r3, r3, r0
 206:Drivers/STM32WBxx_HAL_Driver/Src/stm32wbxx_hal_dma.c ****           hdma->Init.PeriphDataAlignment | hdma->Init.MemDataAlignment |
 340              		.loc 1 206 54 view .LVU112
 341 003a 2069     		ldr	r0, [r4, #16]
 206:Drivers/STM32WBxx_HAL_Driver/Src/stm32wbxx_hal_dma.c ****           hdma->Init.PeriphDataAlignment | hdma->Init.MemDataAlignment |
ARM GAS  /var/folders/lt/l_qrc8c54t93n_phsj7cf5tc0000gn/T//cc1tXrem.s 			page 27


 342              		.loc 1 206 42 view .LVU113
 343 003c 0343     		orrs	r3, r3, r0
 207:Drivers/STM32WBxx_HAL_Driver/Src/stm32wbxx_hal_dma.c ****           hdma->Init.Mode                | hdma->Init.Priority;
 344              		.loc 1 207 21 view .LVU114
 345 003e 6069     		ldr	r0, [r4, #20]
 206:Drivers/STM32WBxx_HAL_Driver/Src/stm32wbxx_hal_dma.c ****           hdma->Init.PeriphDataAlignment | hdma->Init.MemDataAlignment |
 346              		.loc 1 206 72 view .LVU115
 347 0040 0343     		orrs	r3, r3, r0
 207:Drivers/STM32WBxx_HAL_Driver/Src/stm32wbxx_hal_dma.c ****           hdma->Init.Mode                | hdma->Init.Priority;
 348              		.loc 1 207 54 view .LVU116
 349 0042 A069     		ldr	r0, [r4, #24]
 207:Drivers/STM32WBxx_HAL_Driver/Src/stm32wbxx_hal_dma.c ****           hdma->Init.Mode                | hdma->Init.Priority;
 350              		.loc 1 207 42 view .LVU117
 351 0044 0343     		orrs	r3, r3, r0
 208:Drivers/STM32WBxx_HAL_Driver/Src/stm32wbxx_hal_dma.c **** 
 352              		.loc 1 208 21 view .LVU118
 353 0046 E069     		ldr	r0, [r4, #28]
 207:Drivers/STM32WBxx_HAL_Driver/Src/stm32wbxx_hal_dma.c ****           hdma->Init.Mode                | hdma->Init.Priority;
 354              		.loc 1 207 72 view .LVU119
 355 0048 0343     		orrs	r3, r3, r0
 208:Drivers/STM32WBxx_HAL_Driver/Src/stm32wbxx_hal_dma.c **** 
 356              		.loc 1 208 54 view .LVU120
 357 004a 206A     		ldr	r0, [r4, #32]
 208:Drivers/STM32WBxx_HAL_Driver/Src/stm32wbxx_hal_dma.c **** 
 358              		.loc 1 208 42 view .LVU121
 359 004c 0343     		orrs	r3, r3, r0
 205:Drivers/STM32WBxx_HAL_Driver/Src/stm32wbxx_hal_dma.c ****           hdma->Init.PeriphInc           | hdma->Init.MemInc           |
 360              		.loc 1 205 7 view .LVU122
 361 004e 1343     		orrs	r3, r3, r2
 362              	.LVL17:
 211:Drivers/STM32WBxx_HAL_Driver/Src/stm32wbxx_hal_dma.c **** 
 363              		.loc 1 211 3 is_stmt 1 view .LVU123
 211:Drivers/STM32WBxx_HAL_Driver/Src/stm32wbxx_hal_dma.c **** 
 364              		.loc 1 211 23 is_stmt 0 view .LVU124
 365 0050 0B60     		str	r3, [r1]
 216:Drivers/STM32WBxx_HAL_Driver/Src/stm32wbxx_hal_dma.c **** 
 366              		.loc 1 216 3 is_stmt 1 view .LVU125
 367 0052 2046     		mov	r0, r4
 368 0054 FFF7FEFF 		bl	DMA_CalcDMAMUXChannelBaseAndMask
 369              	.LVL18:
 218:Drivers/STM32WBxx_HAL_Driver/Src/stm32wbxx_hal_dma.c ****   {
 370              		.loc 1 218 3 view .LVU126
 218:Drivers/STM32WBxx_HAL_Driver/Src/stm32wbxx_hal_dma.c ****   {
 371              		.loc 1 218 17 is_stmt 0 view .LVU127
 372 0058 A368     		ldr	r3, [r4, #8]
 218:Drivers/STM32WBxx_HAL_Driver/Src/stm32wbxx_hal_dma.c ****   {
 373              		.loc 1 218 6 view .LVU128
 374 005a B3F5804F 		cmp	r3, #16384
 375 005e 22D0     		beq	.L27
 376              	.L19:
 225:Drivers/STM32WBxx_HAL_Driver/Src/stm32wbxx_hal_dma.c **** 
 377              		.loc 1 225 3 is_stmt 1 view .LVU129
 225:Drivers/STM32WBxx_HAL_Driver/Src/stm32wbxx_hal_dma.c **** 
 378              		.loc 1 225 41 is_stmt 0 view .LVU130
 379 0060 6368     		ldr	r3, [r4, #4]
 225:Drivers/STM32WBxx_HAL_Driver/Src/stm32wbxx_hal_dma.c **** 
 380              		.loc 1 225 7 view .LVU131
ARM GAS  /var/folders/lt/l_qrc8c54t93n_phsj7cf5tc0000gn/T//cc1tXrem.s 			page 28


 381 0062 A26C     		ldr	r2, [r4, #72]
 225:Drivers/STM32WBxx_HAL_Driver/Src/stm32wbxx_hal_dma.c **** 
 382              		.loc 1 225 50 view .LVU132
 383 0064 03F03F03 		and	r3, r3, #63
 225:Drivers/STM32WBxx_HAL_Driver/Src/stm32wbxx_hal_dma.c **** 
 384              		.loc 1 225 28 view .LVU133
 385 0068 1360     		str	r3, [r2]
 228:Drivers/STM32WBxx_HAL_Driver/Src/stm32wbxx_hal_dma.c **** 
 386              		.loc 1 228 3 is_stmt 1 view .LVU134
 228:Drivers/STM32WBxx_HAL_Driver/Src/stm32wbxx_hal_dma.c **** 
 387              		.loc 1 228 7 is_stmt 0 view .LVU135
 388 006a E36C     		ldr	r3, [r4, #76]
 228:Drivers/STM32WBxx_HAL_Driver/Src/stm32wbxx_hal_dma.c **** 
 389              		.loc 1 228 40 view .LVU136
 390 006c 226D     		ldr	r2, [r4, #80]
 228:Drivers/STM32WBxx_HAL_Driver/Src/stm32wbxx_hal_dma.c **** 
 391              		.loc 1 228 34 view .LVU137
 392 006e 5A60     		str	r2, [r3, #4]
 230:Drivers/STM32WBxx_HAL_Driver/Src/stm32wbxx_hal_dma.c ****   {
 393              		.loc 1 230 3 is_stmt 1 view .LVU138
 230:Drivers/STM32WBxx_HAL_Driver/Src/stm32wbxx_hal_dma.c ****   {
 394              		.loc 1 230 19 is_stmt 0 view .LVU139
 395 0070 6368     		ldr	r3, [r4, #4]
 230:Drivers/STM32WBxx_HAL_Driver/Src/stm32wbxx_hal_dma.c ****   {
 396              		.loc 1 230 35 view .LVU140
 397 0072 013B     		subs	r3, r3, #1
 230:Drivers/STM32WBxx_HAL_Driver/Src/stm32wbxx_hal_dma.c ****   {
 398              		.loc 1 230 6 view .LVU141
 399 0074 032B     		cmp	r3, #3
 400 0076 19D9     		bls	.L28
 245:Drivers/STM32WBxx_HAL_Driver/Src/stm32wbxx_hal_dma.c ****     hdma->DMAmuxRequestGenStatus = 0U;
 401              		.loc 1 245 5 is_stmt 1 view .LVU142
 245:Drivers/STM32WBxx_HAL_Driver/Src/stm32wbxx_hal_dma.c ****     hdma->DMAmuxRequestGenStatus = 0U;
 402              		.loc 1 245 28 is_stmt 0 view .LVU143
 403 0078 0023     		movs	r3, #0
 404 007a 6365     		str	r3, [r4, #84]
 246:Drivers/STM32WBxx_HAL_Driver/Src/stm32wbxx_hal_dma.c ****     hdma->DMAmuxRequestGenStatusMask = 0U;
 405              		.loc 1 246 5 is_stmt 1 view .LVU144
 246:Drivers/STM32WBxx_HAL_Driver/Src/stm32wbxx_hal_dma.c ****     hdma->DMAmuxRequestGenStatusMask = 0U;
 406              		.loc 1 246 34 is_stmt 0 view .LVU145
 407 007c A365     		str	r3, [r4, #88]
 247:Drivers/STM32WBxx_HAL_Driver/Src/stm32wbxx_hal_dma.c ****   }
 408              		.loc 1 247 5 is_stmt 1 view .LVU146
 247:Drivers/STM32WBxx_HAL_Driver/Src/stm32wbxx_hal_dma.c ****   }
 409              		.loc 1 247 38 is_stmt 0 view .LVU147
 410 007e E365     		str	r3, [r4, #92]
 411              	.L21:
 251:Drivers/STM32WBxx_HAL_Driver/Src/stm32wbxx_hal_dma.c **** 
 412              		.loc 1 251 3 is_stmt 1 view .LVU148
 251:Drivers/STM32WBxx_HAL_Driver/Src/stm32wbxx_hal_dma.c **** 
 413              		.loc 1 251 19 is_stmt 0 view .LVU149
 414 0080 0020     		movs	r0, #0
 415 0082 E063     		str	r0, [r4, #60]
 254:Drivers/STM32WBxx_HAL_Driver/Src/stm32wbxx_hal_dma.c **** 
 416              		.loc 1 254 3 is_stmt 1 view .LVU150
 254:Drivers/STM32WBxx_HAL_Driver/Src/stm32wbxx_hal_dma.c **** 
 417              		.loc 1 254 16 is_stmt 0 view .LVU151
ARM GAS  /var/folders/lt/l_qrc8c54t93n_phsj7cf5tc0000gn/T//cc1tXrem.s 			page 29


 418 0084 0123     		movs	r3, #1
 419 0086 84F82530 		strb	r3, [r4, #37]
 257:Drivers/STM32WBxx_HAL_Driver/Src/stm32wbxx_hal_dma.c **** 
 420              		.loc 1 257 3 is_stmt 1 view .LVU152
 257:Drivers/STM32WBxx_HAL_Driver/Src/stm32wbxx_hal_dma.c **** 
 421              		.loc 1 257 14 is_stmt 0 view .LVU153
 422 008a 84F82400 		strb	r0, [r4, #36]
 259:Drivers/STM32WBxx_HAL_Driver/Src/stm32wbxx_hal_dma.c **** }
 423              		.loc 1 259 3 is_stmt 1 view .LVU154
 260:Drivers/STM32WBxx_HAL_Driver/Src/stm32wbxx_hal_dma.c **** 
 424              		.loc 1 260 1 is_stmt 0 view .LVU155
 425 008e 10BD     		pop	{r4, pc}
 426              	.LVL19:
 427              	.L17:
 184:Drivers/STM32WBxx_HAL_Driver/Src/stm32wbxx_hal_dma.c ****     hdma->DmaBaseAddress = DMA2;
 428              		.loc 1 184 5 is_stmt 1 view .LVU156
 184:Drivers/STM32WBxx_HAL_Driver/Src/stm32wbxx_hal_dma.c ****     hdma->DmaBaseAddress = DMA2;
 429              		.loc 1 184 53 is_stmt 0 view .LVU157
 430 0090 104B     		ldr	r3, .L29+16
 431 0092 0B44     		add	r3, r3, r1
 184:Drivers/STM32WBxx_HAL_Driver/Src/stm32wbxx_hal_dma.c ****     hdma->DmaBaseAddress = DMA2;
 432              		.loc 1 184 80 view .LVU158
 433 0094 0D4A     		ldr	r2, .L29+8
 434 0096 A2FB0323 		umull	r2, r3, r2, r3
 435 009a 1B09     		lsrs	r3, r3, #4
 184:Drivers/STM32WBxx_HAL_Driver/Src/stm32wbxx_hal_dma.c ****     hdma->DmaBaseAddress = DMA2;
 436              		.loc 1 184 135 view .LVU159
 437 009c 9B00     		lsls	r3, r3, #2
 184:Drivers/STM32WBxx_HAL_Driver/Src/stm32wbxx_hal_dma.c ****     hdma->DmaBaseAddress = DMA2;
 438              		.loc 1 184 24 view .LVU160
 439 009e 4364     		str	r3, [r0, #68]
 185:Drivers/STM32WBxx_HAL_Driver/Src/stm32wbxx_hal_dma.c ****   }
 440              		.loc 1 185 5 is_stmt 1 view .LVU161
 185:Drivers/STM32WBxx_HAL_Driver/Src/stm32wbxx_hal_dma.c ****   }
 441              		.loc 1 185 26 is_stmt 0 view .LVU162
 442 00a0 0D4B     		ldr	r3, .L29+20
 443 00a2 0364     		str	r3, [r0, #64]
 444 00a4 BEE7     		b	.L18
 445              	.LVL20:
 446              	.L27:
 221:Drivers/STM32WBxx_HAL_Driver/Src/stm32wbxx_hal_dma.c ****   }
 447              		.loc 1 221 5 is_stmt 1 view .LVU163
 221:Drivers/STM32WBxx_HAL_Driver/Src/stm32wbxx_hal_dma.c ****   }
 448              		.loc 1 221 24 is_stmt 0 view .LVU164
 449 00a6 0023     		movs	r3, #0
 450 00a8 6360     		str	r3, [r4, #4]
 451 00aa D9E7     		b	.L19
 452              	.L28:
 235:Drivers/STM32WBxx_HAL_Driver/Src/stm32wbxx_hal_dma.c **** 
 453              		.loc 1 235 5 is_stmt 1 view .LVU165
 454 00ac 2046     		mov	r0, r4
 455 00ae FFF7FEFF 		bl	DMA_CalcDMAMUXRequestGenBaseAndMask
 456              	.LVL21:
 238:Drivers/STM32WBxx_HAL_Driver/Src/stm32wbxx_hal_dma.c **** 
 457              		.loc 1 238 5 view .LVU166
 238:Drivers/STM32WBxx_HAL_Driver/Src/stm32wbxx_hal_dma.c **** 
 458              		.loc 1 238 9 is_stmt 0 view .LVU167
ARM GAS  /var/folders/lt/l_qrc8c54t93n_phsj7cf5tc0000gn/T//cc1tXrem.s 			page 30


 459 00b2 636D     		ldr	r3, [r4, #84]
 238:Drivers/STM32WBxx_HAL_Driver/Src/stm32wbxx_hal_dma.c **** 
 460              		.loc 1 238 34 view .LVU168
 461 00b4 0022     		movs	r2, #0
 462 00b6 1A60     		str	r2, [r3]
 241:Drivers/STM32WBxx_HAL_Driver/Src/stm32wbxx_hal_dma.c ****   }
 463              		.loc 1 241 5 is_stmt 1 view .LVU169
 241:Drivers/STM32WBxx_HAL_Driver/Src/stm32wbxx_hal_dma.c ****   }
 464              		.loc 1 241 9 is_stmt 0 view .LVU170
 465 00b8 A36D     		ldr	r3, [r4, #88]
 241:Drivers/STM32WBxx_HAL_Driver/Src/stm32wbxx_hal_dma.c ****   }
 466              		.loc 1 241 47 view .LVU171
 467 00ba E26D     		ldr	r2, [r4, #92]
 241:Drivers/STM32WBxx_HAL_Driver/Src/stm32wbxx_hal_dma.c ****   }
 468              		.loc 1 241 41 view .LVU172
 469 00bc 5A60     		str	r2, [r3, #4]
 470 00be DFE7     		b	.L21
 471              	.LVL22:
 472              	.L22:
 473              	.LCFI4:
 474              		.cfi_def_cfa_offset 0
 475              		.cfi_restore 4
 476              		.cfi_restore 14
 158:Drivers/STM32WBxx_HAL_Driver/Src/stm32wbxx_hal_dma.c ****   }
 477              		.loc 1 158 12 view .LVU173
 478 00c0 0120     		movs	r0, #1
 479              	.LVL23:
 260:Drivers/STM32WBxx_HAL_Driver/Src/stm32wbxx_hal_dma.c **** 
 480              		.loc 1 260 1 view .LVU174
 481 00c2 7047     		bx	lr
 482              	.L30:
 483              		.align	2
 484              	.L29:
 485 00c4 07040240 		.word	1073873927
 486 00c8 F8FFFDBF 		.word	-1073872904
 487 00cc CDCCCCCC 		.word	-858993459
 488 00d0 00000240 		.word	1073872896
 489 00d4 F8FBFDBF 		.word	-1073873928
 490 00d8 00040240 		.word	1073873920
 491              		.cfi_endproc
 492              	.LFE1104:
 494              		.section	.text.HAL_DMA_DeInit,"ax",%progbits
 495              		.align	1
 496              		.global	HAL_DMA_DeInit
 497              		.syntax unified
 498              		.thumb
 499              		.thumb_func
 500              		.fpu fpv4-sp-d16
 502              	HAL_DMA_DeInit:
 503              	.LVL24:
 504              	.LFB1105:
 269:Drivers/STM32WBxx_HAL_Driver/Src/stm32wbxx_hal_dma.c **** 
 505              		.loc 1 269 1 is_stmt 1 view -0
 506              		.cfi_startproc
 507              		@ args = 0, pretend = 0, frame = 0
 508              		@ frame_needed = 0, uses_anonymous_args = 0
 272:Drivers/STM32WBxx_HAL_Driver/Src/stm32wbxx_hal_dma.c ****   {
ARM GAS  /var/folders/lt/l_qrc8c54t93n_phsj7cf5tc0000gn/T//cc1tXrem.s 			page 31


 509              		.loc 1 272 3 view .LVU176
 272:Drivers/STM32WBxx_HAL_Driver/Src/stm32wbxx_hal_dma.c ****   {
 510              		.loc 1 272 6 is_stmt 0 view .LVU177
 511 0000 0028     		cmp	r0, #0
 512 0002 4BD0     		beq	.L36
 269:Drivers/STM32WBxx_HAL_Driver/Src/stm32wbxx_hal_dma.c **** 
 513              		.loc 1 269 1 view .LVU178
 514 0004 38B5     		push	{r3, r4, r5, lr}
 515              	.LCFI5:
 516              		.cfi_def_cfa_offset 16
 517              		.cfi_offset 3, -16
 518              		.cfi_offset 4, -12
 519              		.cfi_offset 5, -8
 520              		.cfi_offset 14, -4
 521 0006 0446     		mov	r4, r0
 278:Drivers/STM32WBxx_HAL_Driver/Src/stm32wbxx_hal_dma.c **** 
 522              		.loc 1 278 3 is_stmt 1 view .LVU179
 281:Drivers/STM32WBxx_HAL_Driver/Src/stm32wbxx_hal_dma.c **** 
 523              		.loc 1 281 3 view .LVU180
 524 0008 0268     		ldr	r2, [r0]
 525 000a 1368     		ldr	r3, [r2]
 526 000c 23F00103 		bic	r3, r3, #1
 527 0010 1360     		str	r3, [r2]
 285:Drivers/STM32WBxx_HAL_Driver/Src/stm32wbxx_hal_dma.c ****   {
 528              		.loc 1 285 3 view .LVU181
 285:Drivers/STM32WBxx_HAL_Driver/Src/stm32wbxx_hal_dma.c ****   {
 529              		.loc 1 285 22 is_stmt 0 view .LVU182
 530 0012 0268     		ldr	r2, [r0]
 285:Drivers/STM32WBxx_HAL_Driver/Src/stm32wbxx_hal_dma.c ****   {
 531              		.loc 1 285 6 view .LVU183
 532 0014 224B     		ldr	r3, .L42
 533 0016 9A42     		cmp	r2, r3
 534 0018 2CD8     		bhi	.L33
 288:Drivers/STM32WBxx_HAL_Driver/Src/stm32wbxx_hal_dma.c ****     hdma->DmaBaseAddress = DMA1;
 535              		.loc 1 288 5 is_stmt 1 view .LVU184
 288:Drivers/STM32WBxx_HAL_Driver/Src/stm32wbxx_hal_dma.c ****     hdma->DmaBaseAddress = DMA1;
 536              		.loc 1 288 53 is_stmt 0 view .LVU185
 537 001a 224B     		ldr	r3, .L42+4
 538 001c 1344     		add	r3, r3, r2
 288:Drivers/STM32WBxx_HAL_Driver/Src/stm32wbxx_hal_dma.c ****     hdma->DmaBaseAddress = DMA1;
 539              		.loc 1 288 80 view .LVU186
 540 001e 2249     		ldr	r1, .L42+8
 541 0020 A1FB0313 		umull	r1, r3, r1, r3
 542 0024 1B09     		lsrs	r3, r3, #4
 288:Drivers/STM32WBxx_HAL_Driver/Src/stm32wbxx_hal_dma.c ****     hdma->DmaBaseAddress = DMA1;
 543              		.loc 1 288 135 view .LVU187
 544 0026 9B00     		lsls	r3, r3, #2
 288:Drivers/STM32WBxx_HAL_Driver/Src/stm32wbxx_hal_dma.c ****     hdma->DmaBaseAddress = DMA1;
 545              		.loc 1 288 24 view .LVU188
 546 0028 4364     		str	r3, [r0, #68]
 289:Drivers/STM32WBxx_HAL_Driver/Src/stm32wbxx_hal_dma.c ****   }
 547              		.loc 1 289 5 is_stmt 1 view .LVU189
 289:Drivers/STM32WBxx_HAL_Driver/Src/stm32wbxx_hal_dma.c ****   }
 548              		.loc 1 289 26 is_stmt 0 view .LVU190
 549 002a 204B     		ldr	r3, .L42+12
 550 002c 0364     		str	r3, [r0, #64]
 551              	.L34:
ARM GAS  /var/folders/lt/l_qrc8c54t93n_phsj7cf5tc0000gn/T//cc1tXrem.s 			page 32


 304:Drivers/STM32WBxx_HAL_Driver/Src/stm32wbxx_hal_dma.c **** 
 552              		.loc 1 304 3 is_stmt 1 view .LVU191
 304:Drivers/STM32WBxx_HAL_Driver/Src/stm32wbxx_hal_dma.c **** 
 553              		.loc 1 304 24 is_stmt 0 view .LVU192
 554 002e 0025     		movs	r5, #0
 555 0030 1560     		str	r5, [r2]
 307:Drivers/STM32WBxx_HAL_Driver/Src/stm32wbxx_hal_dma.c **** 
 556              		.loc 1 307 3 is_stmt 1 view .LVU193
 307:Drivers/STM32WBxx_HAL_Driver/Src/stm32wbxx_hal_dma.c **** 
 557              		.loc 1 307 54 is_stmt 0 view .LVU194
 558 0032 636C     		ldr	r3, [r4, #68]
 307:Drivers/STM32WBxx_HAL_Driver/Src/stm32wbxx_hal_dma.c **** 
 559              		.loc 1 307 69 view .LVU195
 560 0034 03F01C02 		and	r2, r3, #28
 307:Drivers/STM32WBxx_HAL_Driver/Src/stm32wbxx_hal_dma.c **** 
 561              		.loc 1 307 7 view .LVU196
 562 0038 216C     		ldr	r1, [r4, #64]
 307:Drivers/STM32WBxx_HAL_Driver/Src/stm32wbxx_hal_dma.c **** 
 563              		.loc 1 307 46 view .LVU197
 564 003a 0123     		movs	r3, #1
 565 003c 9340     		lsls	r3, r3, r2
 307:Drivers/STM32WBxx_HAL_Driver/Src/stm32wbxx_hal_dma.c **** 
 566              		.loc 1 307 30 view .LVU198
 567 003e 4B60     		str	r3, [r1, #4]
 312:Drivers/STM32WBxx_HAL_Driver/Src/stm32wbxx_hal_dma.c **** 
 568              		.loc 1 312 3 is_stmt 1 view .LVU199
 569 0040 2046     		mov	r0, r4
 570              	.LVL25:
 312:Drivers/STM32WBxx_HAL_Driver/Src/stm32wbxx_hal_dma.c **** 
 571              		.loc 1 312 3 is_stmt 0 view .LVU200
 572 0042 FFF7FEFF 		bl	DMA_CalcDMAMUXChannelBaseAndMask
 573              	.LVL26:
 315:Drivers/STM32WBxx_HAL_Driver/Src/stm32wbxx_hal_dma.c **** 
 574              		.loc 1 315 3 is_stmt 1 view .LVU201
 315:Drivers/STM32WBxx_HAL_Driver/Src/stm32wbxx_hal_dma.c **** 
 575              		.loc 1 315 7 is_stmt 0 view .LVU202
 576 0046 A36C     		ldr	r3, [r4, #72]
 315:Drivers/STM32WBxx_HAL_Driver/Src/stm32wbxx_hal_dma.c **** 
 577              		.loc 1 315 28 view .LVU203
 578 0048 1D60     		str	r5, [r3]
 318:Drivers/STM32WBxx_HAL_Driver/Src/stm32wbxx_hal_dma.c **** 
 579              		.loc 1 318 3 is_stmt 1 view .LVU204
 318:Drivers/STM32WBxx_HAL_Driver/Src/stm32wbxx_hal_dma.c **** 
 580              		.loc 1 318 7 is_stmt 0 view .LVU205
 581 004a E36C     		ldr	r3, [r4, #76]
 318:Drivers/STM32WBxx_HAL_Driver/Src/stm32wbxx_hal_dma.c **** 
 582              		.loc 1 318 40 view .LVU206
 583 004c 226D     		ldr	r2, [r4, #80]
 318:Drivers/STM32WBxx_HAL_Driver/Src/stm32wbxx_hal_dma.c **** 
 584              		.loc 1 318 34 view .LVU207
 585 004e 5A60     		str	r2, [r3, #4]
 321:Drivers/STM32WBxx_HAL_Driver/Src/stm32wbxx_hal_dma.c ****   {
 586              		.loc 1 321 3 is_stmt 1 view .LVU208
 321:Drivers/STM32WBxx_HAL_Driver/Src/stm32wbxx_hal_dma.c ****   {
 587              		.loc 1 321 19 is_stmt 0 view .LVU209
 588 0050 6368     		ldr	r3, [r4, #4]
 321:Drivers/STM32WBxx_HAL_Driver/Src/stm32wbxx_hal_dma.c ****   {
ARM GAS  /var/folders/lt/l_qrc8c54t93n_phsj7cf5tc0000gn/T//cc1tXrem.s 			page 33


 589              		.loc 1 321 35 view .LVU210
 590 0052 013B     		subs	r3, r3, #1
 321:Drivers/STM32WBxx_HAL_Driver/Src/stm32wbxx_hal_dma.c ****   {
 591              		.loc 1 321 6 view .LVU211
 592 0054 032B     		cmp	r3, #3
 593 0056 18D9     		bls	.L41
 594              	.L35:
 335:Drivers/STM32WBxx_HAL_Driver/Src/stm32wbxx_hal_dma.c ****   hdma->DMAmuxRequestGenStatus = 0U;
 595              		.loc 1 335 3 is_stmt 1 view .LVU212
 335:Drivers/STM32WBxx_HAL_Driver/Src/stm32wbxx_hal_dma.c ****   hdma->DMAmuxRequestGenStatus = 0U;
 596              		.loc 1 335 26 is_stmt 0 view .LVU213
 597 0058 0020     		movs	r0, #0
 598 005a 6065     		str	r0, [r4, #84]
 336:Drivers/STM32WBxx_HAL_Driver/Src/stm32wbxx_hal_dma.c ****   hdma->DMAmuxRequestGenStatusMask = 0U;
 599              		.loc 1 336 3 is_stmt 1 view .LVU214
 336:Drivers/STM32WBxx_HAL_Driver/Src/stm32wbxx_hal_dma.c ****   hdma->DMAmuxRequestGenStatusMask = 0U;
 600              		.loc 1 336 32 is_stmt 0 view .LVU215
 601 005c A065     		str	r0, [r4, #88]
 337:Drivers/STM32WBxx_HAL_Driver/Src/stm32wbxx_hal_dma.c **** 
 602              		.loc 1 337 3 is_stmt 1 view .LVU216
 337:Drivers/STM32WBxx_HAL_Driver/Src/stm32wbxx_hal_dma.c **** 
 603              		.loc 1 337 36 is_stmt 0 view .LVU217
 604 005e E065     		str	r0, [r4, #92]
 340:Drivers/STM32WBxx_HAL_Driver/Src/stm32wbxx_hal_dma.c ****   hdma->XferHalfCpltCallback = NULL;
 605              		.loc 1 340 3 is_stmt 1 view .LVU218
 340:Drivers/STM32WBxx_HAL_Driver/Src/stm32wbxx_hal_dma.c ****   hdma->XferHalfCpltCallback = NULL;
 606              		.loc 1 340 26 is_stmt 0 view .LVU219
 607 0060 E062     		str	r0, [r4, #44]
 341:Drivers/STM32WBxx_HAL_Driver/Src/stm32wbxx_hal_dma.c ****   hdma->XferErrorCallback = NULL;
 608              		.loc 1 341 3 is_stmt 1 view .LVU220
 341:Drivers/STM32WBxx_HAL_Driver/Src/stm32wbxx_hal_dma.c ****   hdma->XferErrorCallback = NULL;
 609              		.loc 1 341 30 is_stmt 0 view .LVU221
 610 0062 2063     		str	r0, [r4, #48]
 342:Drivers/STM32WBxx_HAL_Driver/Src/stm32wbxx_hal_dma.c ****   hdma->XferAbortCallback = NULL;
 611              		.loc 1 342 3 is_stmt 1 view .LVU222
 342:Drivers/STM32WBxx_HAL_Driver/Src/stm32wbxx_hal_dma.c ****   hdma->XferAbortCallback = NULL;
 612              		.loc 1 342 27 is_stmt 0 view .LVU223
 613 0064 6063     		str	r0, [r4, #52]
 343:Drivers/STM32WBxx_HAL_Driver/Src/stm32wbxx_hal_dma.c **** 
 614              		.loc 1 343 3 is_stmt 1 view .LVU224
 343:Drivers/STM32WBxx_HAL_Driver/Src/stm32wbxx_hal_dma.c **** 
 615              		.loc 1 343 27 is_stmt 0 view .LVU225
 616 0066 A063     		str	r0, [r4, #56]
 346:Drivers/STM32WBxx_HAL_Driver/Src/stm32wbxx_hal_dma.c **** 
 617              		.loc 1 346 3 is_stmt 1 view .LVU226
 346:Drivers/STM32WBxx_HAL_Driver/Src/stm32wbxx_hal_dma.c **** 
 618              		.loc 1 346 19 is_stmt 0 view .LVU227
 619 0068 E063     		str	r0, [r4, #60]
 349:Drivers/STM32WBxx_HAL_Driver/Src/stm32wbxx_hal_dma.c **** 
 620              		.loc 1 349 3 is_stmt 1 view .LVU228
 349:Drivers/STM32WBxx_HAL_Driver/Src/stm32wbxx_hal_dma.c **** 
 621              		.loc 1 349 15 is_stmt 0 view .LVU229
 622 006a 84F82500 		strb	r0, [r4, #37]
 352:Drivers/STM32WBxx_HAL_Driver/Src/stm32wbxx_hal_dma.c **** 
 623              		.loc 1 352 3 is_stmt 1 view .LVU230
 352:Drivers/STM32WBxx_HAL_Driver/Src/stm32wbxx_hal_dma.c **** 
 624              		.loc 1 352 3 view .LVU231
ARM GAS  /var/folders/lt/l_qrc8c54t93n_phsj7cf5tc0000gn/T//cc1tXrem.s 			page 34


 625 006e 84F82400 		strb	r0, [r4, #36]
 352:Drivers/STM32WBxx_HAL_Driver/Src/stm32wbxx_hal_dma.c **** 
 626              		.loc 1 352 3 view .LVU232
 354:Drivers/STM32WBxx_HAL_Driver/Src/stm32wbxx_hal_dma.c **** }
 627              		.loc 1 354 3 view .LVU233
 355:Drivers/STM32WBxx_HAL_Driver/Src/stm32wbxx_hal_dma.c **** 
 628              		.loc 1 355 1 is_stmt 0 view .LVU234
 629 0072 38BD     		pop	{r3, r4, r5, pc}
 630              	.LVL27:
 631              	.L33:
 294:Drivers/STM32WBxx_HAL_Driver/Src/stm32wbxx_hal_dma.c ****     hdma->DmaBaseAddress = DMA2;
 632              		.loc 1 294 5 is_stmt 1 view .LVU235
 294:Drivers/STM32WBxx_HAL_Driver/Src/stm32wbxx_hal_dma.c ****     hdma->DmaBaseAddress = DMA2;
 633              		.loc 1 294 53 is_stmt 0 view .LVU236
 634 0074 0E4B     		ldr	r3, .L42+16
 635 0076 1344     		add	r3, r3, r2
 294:Drivers/STM32WBxx_HAL_Driver/Src/stm32wbxx_hal_dma.c ****     hdma->DmaBaseAddress = DMA2;
 636              		.loc 1 294 80 view .LVU237
 637 0078 0B49     		ldr	r1, .L42+8
 638 007a A1FB0313 		umull	r1, r3, r1, r3
 639 007e 1B09     		lsrs	r3, r3, #4
 294:Drivers/STM32WBxx_HAL_Driver/Src/stm32wbxx_hal_dma.c ****     hdma->DmaBaseAddress = DMA2;
 640              		.loc 1 294 135 view .LVU238
 641 0080 9B00     		lsls	r3, r3, #2
 294:Drivers/STM32WBxx_HAL_Driver/Src/stm32wbxx_hal_dma.c ****     hdma->DmaBaseAddress = DMA2;
 642              		.loc 1 294 24 view .LVU239
 643 0082 4364     		str	r3, [r0, #68]
 295:Drivers/STM32WBxx_HAL_Driver/Src/stm32wbxx_hal_dma.c ****   }
 644              		.loc 1 295 5 is_stmt 1 view .LVU240
 295:Drivers/STM32WBxx_HAL_Driver/Src/stm32wbxx_hal_dma.c ****   }
 645              		.loc 1 295 26 is_stmt 0 view .LVU241
 646 0084 0B4B     		ldr	r3, .L42+20
 647 0086 0364     		str	r3, [r0, #64]
 648 0088 D1E7     		b	.L34
 649              	.LVL28:
 650              	.L41:
 326:Drivers/STM32WBxx_HAL_Driver/Src/stm32wbxx_hal_dma.c **** 
 651              		.loc 1 326 5 is_stmt 1 view .LVU242
 652 008a 2046     		mov	r0, r4
 653 008c FFF7FEFF 		bl	DMA_CalcDMAMUXRequestGenBaseAndMask
 654              	.LVL29:
 329:Drivers/STM32WBxx_HAL_Driver/Src/stm32wbxx_hal_dma.c **** 
 655              		.loc 1 329 5 view .LVU243
 329:Drivers/STM32WBxx_HAL_Driver/Src/stm32wbxx_hal_dma.c **** 
 656              		.loc 1 329 9 is_stmt 0 view .LVU244
 657 0090 636D     		ldr	r3, [r4, #84]
 329:Drivers/STM32WBxx_HAL_Driver/Src/stm32wbxx_hal_dma.c **** 
 658              		.loc 1 329 34 view .LVU245
 659 0092 1D60     		str	r5, [r3]
 332:Drivers/STM32WBxx_HAL_Driver/Src/stm32wbxx_hal_dma.c ****   }
 660              		.loc 1 332 5 is_stmt 1 view .LVU246
 332:Drivers/STM32WBxx_HAL_Driver/Src/stm32wbxx_hal_dma.c ****   }
 661              		.loc 1 332 9 is_stmt 0 view .LVU247
 662 0094 A36D     		ldr	r3, [r4, #88]
 332:Drivers/STM32WBxx_HAL_Driver/Src/stm32wbxx_hal_dma.c ****   }
 663              		.loc 1 332 47 view .LVU248
 664 0096 E26D     		ldr	r2, [r4, #92]
ARM GAS  /var/folders/lt/l_qrc8c54t93n_phsj7cf5tc0000gn/T//cc1tXrem.s 			page 35


 332:Drivers/STM32WBxx_HAL_Driver/Src/stm32wbxx_hal_dma.c ****   }
 665              		.loc 1 332 41 view .LVU249
 666 0098 5A60     		str	r2, [r3, #4]
 667 009a DDE7     		b	.L35
 668              	.LVL30:
 669              	.L36:
 670              	.LCFI6:
 671              		.cfi_def_cfa_offset 0
 672              		.cfi_restore 3
 673              		.cfi_restore 4
 674              		.cfi_restore 5
 675              		.cfi_restore 14
 274:Drivers/STM32WBxx_HAL_Driver/Src/stm32wbxx_hal_dma.c ****   }
 676              		.loc 1 274 12 view .LVU250
 677 009c 0120     		movs	r0, #1
 678              	.LVL31:
 355:Drivers/STM32WBxx_HAL_Driver/Src/stm32wbxx_hal_dma.c **** 
 679              		.loc 1 355 1 view .LVU251
 680 009e 7047     		bx	lr
 681              	.L43:
 682              		.align	2
 683              	.L42:
 684 00a0 07040240 		.word	1073873927
 685 00a4 F8FFFDBF 		.word	-1073872904
 686 00a8 CDCCCCCC 		.word	-858993459
 687 00ac 00000240 		.word	1073872896
 688 00b0 F8FBFDBF 		.word	-1073873928
 689 00b4 00040240 		.word	1073873920
 690              		.cfi_endproc
 691              	.LFE1105:
 693              		.section	.text.HAL_DMA_Start,"ax",%progbits
 694              		.align	1
 695              		.global	HAL_DMA_Start
 696              		.syntax unified
 697              		.thumb
 698              		.thumb_func
 699              		.fpu fpv4-sp-d16
 701              	HAL_DMA_Start:
 702              	.LVL32:
 703              	.LFB1106:
 390:Drivers/STM32WBxx_HAL_Driver/Src/stm32wbxx_hal_dma.c ****   HAL_StatusTypeDef status = HAL_OK;
 704              		.loc 1 390 1 is_stmt 1 view -0
 705              		.cfi_startproc
 706              		@ args = 0, pretend = 0, frame = 0
 707              		@ frame_needed = 0, uses_anonymous_args = 0
 390:Drivers/STM32WBxx_HAL_Driver/Src/stm32wbxx_hal_dma.c ****   HAL_StatusTypeDef status = HAL_OK;
 708              		.loc 1 390 1 is_stmt 0 view .LVU253
 709 0000 70B5     		push	{r4, r5, r6, lr}
 710              	.LCFI7:
 711              		.cfi_def_cfa_offset 16
 712              		.cfi_offset 4, -16
 713              		.cfi_offset 5, -12
 714              		.cfi_offset 6, -8
 715              		.cfi_offset 14, -4
 716 0002 0446     		mov	r4, r0
 391:Drivers/STM32WBxx_HAL_Driver/Src/stm32wbxx_hal_dma.c **** 
 717              		.loc 1 391 3 is_stmt 1 view .LVU254
ARM GAS  /var/folders/lt/l_qrc8c54t93n_phsj7cf5tc0000gn/T//cc1tXrem.s 			page 36


 718              	.LVL33:
 394:Drivers/STM32WBxx_HAL_Driver/Src/stm32wbxx_hal_dma.c **** 
 719              		.loc 1 394 3 view .LVU255
 397:Drivers/STM32WBxx_HAL_Driver/Src/stm32wbxx_hal_dma.c **** 
 720              		.loc 1 397 3 view .LVU256
 397:Drivers/STM32WBxx_HAL_Driver/Src/stm32wbxx_hal_dma.c **** 
 721              		.loc 1 397 3 view .LVU257
 722 0004 90F82400 		ldrb	r0, [r0, #36]	@ zero_extendqisi2
 723              	.LVL34:
 397:Drivers/STM32WBxx_HAL_Driver/Src/stm32wbxx_hal_dma.c **** 
 724              		.loc 1 397 3 is_stmt 0 view .LVU258
 725 0008 0128     		cmp	r0, #1
 726 000a 20D0     		beq	.L47
 397:Drivers/STM32WBxx_HAL_Driver/Src/stm32wbxx_hal_dma.c **** 
 727              		.loc 1 397 3 is_stmt 1 discriminator 2 view .LVU259
 728 000c 0120     		movs	r0, #1
 729 000e 84F82400 		strb	r0, [r4, #36]
 397:Drivers/STM32WBxx_HAL_Driver/Src/stm32wbxx_hal_dma.c **** 
 730              		.loc 1 397 3 discriminator 2 view .LVU260
 399:Drivers/STM32WBxx_HAL_Driver/Src/stm32wbxx_hal_dma.c ****   {
 731              		.loc 1 399 3 discriminator 2 view .LVU261
 399:Drivers/STM32WBxx_HAL_Driver/Src/stm32wbxx_hal_dma.c ****   {
 732              		.loc 1 399 34 is_stmt 0 discriminator 2 view .LVU262
 733 0012 94F82500 		ldrb	r0, [r4, #37]	@ zero_extendqisi2
 734 0016 C0B2     		uxtb	r0, r0
 399:Drivers/STM32WBxx_HAL_Driver/Src/stm32wbxx_hal_dma.c ****   {
 735              		.loc 1 399 6 discriminator 2 view .LVU263
 736 0018 0128     		cmp	r0, #1
 737 001a 04D0     		beq	.L49
 417:Drivers/STM32WBxx_HAL_Driver/Src/stm32wbxx_hal_dma.c ****     status = HAL_BUSY;
 738              		.loc 1 417 5 is_stmt 1 view .LVU264
 417:Drivers/STM32WBxx_HAL_Driver/Src/stm32wbxx_hal_dma.c ****     status = HAL_BUSY;
 739              		.loc 1 417 5 view .LVU265
 740 001c 0023     		movs	r3, #0
 741              	.LVL35:
 417:Drivers/STM32WBxx_HAL_Driver/Src/stm32wbxx_hal_dma.c ****     status = HAL_BUSY;
 742              		.loc 1 417 5 is_stmt 0 view .LVU266
 743 001e 84F82430 		strb	r3, [r4, #36]
 417:Drivers/STM32WBxx_HAL_Driver/Src/stm32wbxx_hal_dma.c ****     status = HAL_BUSY;
 744              		.loc 1 417 5 is_stmt 1 view .LVU267
 418:Drivers/STM32WBxx_HAL_Driver/Src/stm32wbxx_hal_dma.c ****   }
 745              		.loc 1 418 5 view .LVU268
 746              	.LVL36:
 418:Drivers/STM32WBxx_HAL_Driver/Src/stm32wbxx_hal_dma.c ****   }
 747              		.loc 1 418 12 is_stmt 0 view .LVU269
 748 0022 0220     		movs	r0, #2
 749              	.LVL37:
 750              	.L45:
 421:Drivers/STM32WBxx_HAL_Driver/Src/stm32wbxx_hal_dma.c **** 
 751              		.loc 1 421 1 view .LVU270
 752 0024 70BD     		pop	{r4, r5, r6, pc}
 753              	.LVL38:
 754              	.L49:
 402:Drivers/STM32WBxx_HAL_Driver/Src/stm32wbxx_hal_dma.c ****     hdma->ErrorCode = HAL_DMA_ERROR_NONE;
 755              		.loc 1 402 5 is_stmt 1 view .LVU271
 402:Drivers/STM32WBxx_HAL_Driver/Src/stm32wbxx_hal_dma.c ****     hdma->ErrorCode = HAL_DMA_ERROR_NONE;
 756              		.loc 1 402 17 is_stmt 0 view .LVU272
ARM GAS  /var/folders/lt/l_qrc8c54t93n_phsj7cf5tc0000gn/T//cc1tXrem.s 			page 37


 757 0026 0220     		movs	r0, #2
 758 0028 84F82500 		strb	r0, [r4, #37]
 403:Drivers/STM32WBxx_HAL_Driver/Src/stm32wbxx_hal_dma.c **** 
 759              		.loc 1 403 5 is_stmt 1 view .LVU273
 403:Drivers/STM32WBxx_HAL_Driver/Src/stm32wbxx_hal_dma.c **** 
 760              		.loc 1 403 21 is_stmt 0 view .LVU274
 761 002c 0025     		movs	r5, #0
 762 002e E563     		str	r5, [r4, #60]
 406:Drivers/STM32WBxx_HAL_Driver/Src/stm32wbxx_hal_dma.c **** 
 763              		.loc 1 406 5 is_stmt 1 view .LVU275
 764 0030 2668     		ldr	r6, [r4]
 765 0032 3068     		ldr	r0, [r6]
 766 0034 20F00100 		bic	r0, r0, #1
 767 0038 3060     		str	r0, [r6]
 409:Drivers/STM32WBxx_HAL_Driver/Src/stm32wbxx_hal_dma.c **** 
 768              		.loc 1 409 5 view .LVU276
 769 003a 2046     		mov	r0, r4
 770 003c FFF7FEFF 		bl	DMA_SetConfig
 771              	.LVL39:
 412:Drivers/STM32WBxx_HAL_Driver/Src/stm32wbxx_hal_dma.c ****   }
 772              		.loc 1 412 5 view .LVU277
 773 0040 2268     		ldr	r2, [r4]
 774 0042 1368     		ldr	r3, [r2]
 775 0044 43F00103 		orr	r3, r3, #1
 776 0048 1360     		str	r3, [r2]
 391:Drivers/STM32WBxx_HAL_Driver/Src/stm32wbxx_hal_dma.c **** 
 777              		.loc 1 391 21 is_stmt 0 view .LVU278
 778 004a 2846     		mov	r0, r5
 779 004c EAE7     		b	.L45
 780              	.LVL40:
 781              	.L47:
 397:Drivers/STM32WBxx_HAL_Driver/Src/stm32wbxx_hal_dma.c **** 
 782              		.loc 1 397 3 view .LVU279
 783 004e 0220     		movs	r0, #2
 784 0050 E8E7     		b	.L45
 785              		.cfi_endproc
 786              	.LFE1106:
 788              		.section	.text.HAL_DMA_Start_IT,"ax",%progbits
 789              		.align	1
 790              		.global	HAL_DMA_Start_IT
 791              		.syntax unified
 792              		.thumb
 793              		.thumb_func
 794              		.fpu fpv4-sp-d16
 796              	HAL_DMA_Start_IT:
 797              	.LVL41:
 798              	.LFB1107:
 433:Drivers/STM32WBxx_HAL_Driver/Src/stm32wbxx_hal_dma.c ****   HAL_StatusTypeDef status = HAL_OK;
 799              		.loc 1 433 1 is_stmt 1 view -0
 800              		.cfi_startproc
 801              		@ args = 0, pretend = 0, frame = 0
 802              		@ frame_needed = 0, uses_anonymous_args = 0
 433:Drivers/STM32WBxx_HAL_Driver/Src/stm32wbxx_hal_dma.c ****   HAL_StatusTypeDef status = HAL_OK;
 803              		.loc 1 433 1 is_stmt 0 view .LVU281
 804 0000 38B5     		push	{r3, r4, r5, lr}
 805              	.LCFI8:
 806              		.cfi_def_cfa_offset 16
ARM GAS  /var/folders/lt/l_qrc8c54t93n_phsj7cf5tc0000gn/T//cc1tXrem.s 			page 38


 807              		.cfi_offset 3, -16
 808              		.cfi_offset 4, -12
 809              		.cfi_offset 5, -8
 810              		.cfi_offset 14, -4
 811 0002 0446     		mov	r4, r0
 434:Drivers/STM32WBxx_HAL_Driver/Src/stm32wbxx_hal_dma.c **** 
 812              		.loc 1 434 3 is_stmt 1 view .LVU282
 813              	.LVL42:
 437:Drivers/STM32WBxx_HAL_Driver/Src/stm32wbxx_hal_dma.c **** 
 814              		.loc 1 437 3 view .LVU283
 440:Drivers/STM32WBxx_HAL_Driver/Src/stm32wbxx_hal_dma.c **** 
 815              		.loc 1 440 3 view .LVU284
 440:Drivers/STM32WBxx_HAL_Driver/Src/stm32wbxx_hal_dma.c **** 
 816              		.loc 1 440 3 view .LVU285
 817 0004 90F82400 		ldrb	r0, [r0, #36]	@ zero_extendqisi2
 818              	.LVL43:
 440:Drivers/STM32WBxx_HAL_Driver/Src/stm32wbxx_hal_dma.c **** 
 819              		.loc 1 440 3 is_stmt 0 view .LVU286
 820 0008 0128     		cmp	r0, #1
 821 000a 41D0     		beq	.L57
 440:Drivers/STM32WBxx_HAL_Driver/Src/stm32wbxx_hal_dma.c **** 
 822              		.loc 1 440 3 is_stmt 1 discriminator 2 view .LVU287
 823 000c 0120     		movs	r0, #1
 824 000e 84F82400 		strb	r0, [r4, #36]
 440:Drivers/STM32WBxx_HAL_Driver/Src/stm32wbxx_hal_dma.c **** 
 825              		.loc 1 440 3 discriminator 2 view .LVU288
 442:Drivers/STM32WBxx_HAL_Driver/Src/stm32wbxx_hal_dma.c ****   {
 826              		.loc 1 442 3 discriminator 2 view .LVU289
 442:Drivers/STM32WBxx_HAL_Driver/Src/stm32wbxx_hal_dma.c ****   {
 827              		.loc 1 442 34 is_stmt 0 discriminator 2 view .LVU290
 828 0012 94F82500 		ldrb	r0, [r4, #37]	@ zero_extendqisi2
 829 0016 C0B2     		uxtb	r0, r0
 442:Drivers/STM32WBxx_HAL_Driver/Src/stm32wbxx_hal_dma.c ****   {
 830              		.loc 1 442 6 discriminator 2 view .LVU291
 831 0018 0128     		cmp	r0, #1
 832 001a 04D0     		beq	.L59
 487:Drivers/STM32WBxx_HAL_Driver/Src/stm32wbxx_hal_dma.c **** 
 833              		.loc 1 487 5 is_stmt 1 view .LVU292
 487:Drivers/STM32WBxx_HAL_Driver/Src/stm32wbxx_hal_dma.c **** 
 834              		.loc 1 487 5 view .LVU293
 835 001c 0023     		movs	r3, #0
 836              	.LVL44:
 487:Drivers/STM32WBxx_HAL_Driver/Src/stm32wbxx_hal_dma.c **** 
 837              		.loc 1 487 5 is_stmt 0 view .LVU294
 838 001e 84F82430 		strb	r3, [r4, #36]
 487:Drivers/STM32WBxx_HAL_Driver/Src/stm32wbxx_hal_dma.c **** 
 839              		.loc 1 487 5 is_stmt 1 view .LVU295
 490:Drivers/STM32WBxx_HAL_Driver/Src/stm32wbxx_hal_dma.c ****   }
 840              		.loc 1 490 5 view .LVU296
 841              	.LVL45:
 490:Drivers/STM32WBxx_HAL_Driver/Src/stm32wbxx_hal_dma.c ****   }
 842              		.loc 1 490 12 is_stmt 0 view .LVU297
 843 0022 0220     		movs	r0, #2
 844              	.LVL46:
 845              	.L51:
 493:Drivers/STM32WBxx_HAL_Driver/Src/stm32wbxx_hal_dma.c **** 
 846              		.loc 1 493 1 view .LVU298
ARM GAS  /var/folders/lt/l_qrc8c54t93n_phsj7cf5tc0000gn/T//cc1tXrem.s 			page 39


 847 0024 38BD     		pop	{r3, r4, r5, pc}
 848              	.LVL47:
 849              	.L59:
 445:Drivers/STM32WBxx_HAL_Driver/Src/stm32wbxx_hal_dma.c ****     hdma->ErrorCode = HAL_DMA_ERROR_NONE;
 850              		.loc 1 445 5 is_stmt 1 view .LVU299
 445:Drivers/STM32WBxx_HAL_Driver/Src/stm32wbxx_hal_dma.c ****     hdma->ErrorCode = HAL_DMA_ERROR_NONE;
 851              		.loc 1 445 17 is_stmt 0 view .LVU300
 852 0026 0220     		movs	r0, #2
 853 0028 84F82500 		strb	r0, [r4, #37]
 446:Drivers/STM32WBxx_HAL_Driver/Src/stm32wbxx_hal_dma.c **** 
 854              		.loc 1 446 5 is_stmt 1 view .LVU301
 446:Drivers/STM32WBxx_HAL_Driver/Src/stm32wbxx_hal_dma.c **** 
 855              		.loc 1 446 21 is_stmt 0 view .LVU302
 856 002c 0020     		movs	r0, #0
 857 002e E063     		str	r0, [r4, #60]
 449:Drivers/STM32WBxx_HAL_Driver/Src/stm32wbxx_hal_dma.c **** 
 858              		.loc 1 449 5 is_stmt 1 view .LVU303
 859 0030 2568     		ldr	r5, [r4]
 860 0032 2868     		ldr	r0, [r5]
 861 0034 20F00100 		bic	r0, r0, #1
 862 0038 2860     		str	r0, [r5]
 452:Drivers/STM32WBxx_HAL_Driver/Src/stm32wbxx_hal_dma.c **** 
 863              		.loc 1 452 5 view .LVU304
 864 003a 2046     		mov	r0, r4
 865 003c FFF7FEFF 		bl	DMA_SetConfig
 866              	.LVL48:
 456:Drivers/STM32WBxx_HAL_Driver/Src/stm32wbxx_hal_dma.c ****     {
 867              		.loc 1 456 5 view .LVU305
 456:Drivers/STM32WBxx_HAL_Driver/Src/stm32wbxx_hal_dma.c ****     {
 868              		.loc 1 456 21 is_stmt 0 view .LVU306
 869 0040 236B     		ldr	r3, [r4, #48]
 456:Drivers/STM32WBxx_HAL_Driver/Src/stm32wbxx_hal_dma.c ****     {
 870              		.loc 1 456 8 view .LVU307
 871 0042 D3B1     		cbz	r3, .L53
 459:Drivers/STM32WBxx_HAL_Driver/Src/stm32wbxx_hal_dma.c ****     }
 872              		.loc 1 459 7 is_stmt 1 view .LVU308
 873 0044 2268     		ldr	r2, [r4]
 874 0046 1368     		ldr	r3, [r2]
 875 0048 43F00E03 		orr	r3, r3, #14
 876 004c 1360     		str	r3, [r2]
 877              	.L54:
 468:Drivers/STM32WBxx_HAL_Driver/Src/stm32wbxx_hal_dma.c ****     {
 878              		.loc 1 468 5 view .LVU309
 468:Drivers/STM32WBxx_HAL_Driver/Src/stm32wbxx_hal_dma.c ****     {
 879              		.loc 1 468 14 is_stmt 0 view .LVU310
 880 004e A36C     		ldr	r3, [r4, #72]
 468:Drivers/STM32WBxx_HAL_Driver/Src/stm32wbxx_hal_dma.c ****     {
 881              		.loc 1 468 29 view .LVU311
 882 0050 1A68     		ldr	r2, [r3]
 468:Drivers/STM32WBxx_HAL_Driver/Src/stm32wbxx_hal_dma.c ****     {
 883              		.loc 1 468 8 view .LVU312
 884 0052 12F4803F 		tst	r2, #65536
 885 0056 03D0     		beq	.L55
 471:Drivers/STM32WBxx_HAL_Driver/Src/stm32wbxx_hal_dma.c ****     }
 886              		.loc 1 471 7 is_stmt 1 view .LVU313
 471:Drivers/STM32WBxx_HAL_Driver/Src/stm32wbxx_hal_dma.c ****     }
 887              		.loc 1 471 32 is_stmt 0 view .LVU314
ARM GAS  /var/folders/lt/l_qrc8c54t93n_phsj7cf5tc0000gn/T//cc1tXrem.s 			page 40


 888 0058 1A68     		ldr	r2, [r3]
 889 005a 42F48072 		orr	r2, r2, #256
 890 005e 1A60     		str	r2, [r3]
 891              	.L55:
 474:Drivers/STM32WBxx_HAL_Driver/Src/stm32wbxx_hal_dma.c ****     {
 892              		.loc 1 474 5 is_stmt 1 view .LVU315
 474:Drivers/STM32WBxx_HAL_Driver/Src/stm32wbxx_hal_dma.c ****     {
 893              		.loc 1 474 13 is_stmt 0 view .LVU316
 894 0060 636D     		ldr	r3, [r4, #84]
 474:Drivers/STM32WBxx_HAL_Driver/Src/stm32wbxx_hal_dma.c ****     {
 895              		.loc 1 474 8 view .LVU317
 896 0062 1BB1     		cbz	r3, .L56
 478:Drivers/STM32WBxx_HAL_Driver/Src/stm32wbxx_hal_dma.c ****     }
 897              		.loc 1 478 7 is_stmt 1 view .LVU318
 478:Drivers/STM32WBxx_HAL_Driver/Src/stm32wbxx_hal_dma.c ****     }
 898              		.loc 1 478 36 is_stmt 0 view .LVU319
 899 0064 1A68     		ldr	r2, [r3]
 900 0066 42F48072 		orr	r2, r2, #256
 901 006a 1A60     		str	r2, [r3]
 902              	.L56:
 482:Drivers/STM32WBxx_HAL_Driver/Src/stm32wbxx_hal_dma.c ****   }
 903              		.loc 1 482 5 is_stmt 1 view .LVU320
 904 006c 2268     		ldr	r2, [r4]
 905 006e 1368     		ldr	r3, [r2]
 906 0070 43F00103 		orr	r3, r3, #1
 907 0074 1360     		str	r3, [r2]
 434:Drivers/STM32WBxx_HAL_Driver/Src/stm32wbxx_hal_dma.c **** 
 908              		.loc 1 434 21 is_stmt 0 view .LVU321
 909 0076 0020     		movs	r0, #0
 910 0078 D4E7     		b	.L51
 911              	.L53:
 463:Drivers/STM32WBxx_HAL_Driver/Src/stm32wbxx_hal_dma.c ****       __HAL_DMA_ENABLE_IT(hdma, (DMA_IT_TC | DMA_IT_TE));
 912              		.loc 1 463 7 is_stmt 1 view .LVU322
 913 007a 2268     		ldr	r2, [r4]
 914 007c 1368     		ldr	r3, [r2]
 915 007e 23F00403 		bic	r3, r3, #4
 916 0082 1360     		str	r3, [r2]
 464:Drivers/STM32WBxx_HAL_Driver/Src/stm32wbxx_hal_dma.c ****     }
 917              		.loc 1 464 7 view .LVU323
 918 0084 2268     		ldr	r2, [r4]
 919 0086 1368     		ldr	r3, [r2]
 920 0088 43F00A03 		orr	r3, r3, #10
 921 008c 1360     		str	r3, [r2]
 922 008e DEE7     		b	.L54
 923              	.LVL49:
 924              	.L57:
 440:Drivers/STM32WBxx_HAL_Driver/Src/stm32wbxx_hal_dma.c **** 
 925              		.loc 1 440 3 is_stmt 0 view .LVU324
 926 0090 0220     		movs	r0, #2
 927 0092 C7E7     		b	.L51
 928              		.cfi_endproc
 929              	.LFE1107:
 931              		.section	.text.HAL_DMA_Abort,"ax",%progbits
 932              		.align	1
 933              		.global	HAL_DMA_Abort
 934              		.syntax unified
 935              		.thumb
ARM GAS  /var/folders/lt/l_qrc8c54t93n_phsj7cf5tc0000gn/T//cc1tXrem.s 			page 41


 936              		.thumb_func
 937              		.fpu fpv4-sp-d16
 939              	HAL_DMA_Abort:
 940              	.LVL50:
 941              	.LFB1108:
 502:Drivers/STM32WBxx_HAL_Driver/Src/stm32wbxx_hal_dma.c **** 
 942              		.loc 1 502 1 is_stmt 1 view -0
 943              		.cfi_startproc
 944              		@ args = 0, pretend = 0, frame = 0
 945              		@ frame_needed = 0, uses_anonymous_args = 0
 946              		@ link register save eliminated.
 505:Drivers/STM32WBxx_HAL_Driver/Src/stm32wbxx_hal_dma.c ****   {
 947              		.loc 1 505 3 view .LVU326
 505:Drivers/STM32WBxx_HAL_Driver/Src/stm32wbxx_hal_dma.c ****   {
 948              		.loc 1 505 6 is_stmt 0 view .LVU327
 949 0000 0346     		mov	r3, r0
 950 0002 0028     		cmp	r0, #0
 951 0004 34D0     		beq	.L64
 511:Drivers/STM32WBxx_HAL_Driver/Src/stm32wbxx_hal_dma.c ****   {
 952              		.loc 1 511 3 is_stmt 1 view .LVU328
 511:Drivers/STM32WBxx_HAL_Driver/Src/stm32wbxx_hal_dma.c ****   {
 953              		.loc 1 511 10 is_stmt 0 view .LVU329
 954 0006 90F82520 		ldrb	r2, [r0, #37]	@ zero_extendqisi2
 955 000a D2B2     		uxtb	r2, r2
 511:Drivers/STM32WBxx_HAL_Driver/Src/stm32wbxx_hal_dma.c ****   {
 956              		.loc 1 511 5 view .LVU330
 957 000c 022A     		cmp	r2, #2
 958 000e 06D0     		beq	.L62
 513:Drivers/STM32WBxx_HAL_Driver/Src/stm32wbxx_hal_dma.c **** 
 959              		.loc 1 513 5 is_stmt 1 view .LVU331
 513:Drivers/STM32WBxx_HAL_Driver/Src/stm32wbxx_hal_dma.c **** 
 960              		.loc 1 513 21 is_stmt 0 view .LVU332
 961 0010 0422     		movs	r2, #4
 962 0012 C263     		str	r2, [r0, #60]
 516:Drivers/STM32WBxx_HAL_Driver/Src/stm32wbxx_hal_dma.c **** 
 963              		.loc 1 516 5 is_stmt 1 view .LVU333
 516:Drivers/STM32WBxx_HAL_Driver/Src/stm32wbxx_hal_dma.c **** 
 964              		.loc 1 516 5 view .LVU334
 965 0014 0022     		movs	r2, #0
 966 0016 80F82420 		strb	r2, [r0, #36]
 516:Drivers/STM32WBxx_HAL_Driver/Src/stm32wbxx_hal_dma.c **** 
 967              		.loc 1 516 5 view .LVU335
 518:Drivers/STM32WBxx_HAL_Driver/Src/stm32wbxx_hal_dma.c ****   }
 968              		.loc 1 518 5 view .LVU336
 518:Drivers/STM32WBxx_HAL_Driver/Src/stm32wbxx_hal_dma.c ****   }
 969              		.loc 1 518 12 is_stmt 0 view .LVU337
 970 001a 0120     		movs	r0, #1
 971              	.LVL51:
 518:Drivers/STM32WBxx_HAL_Driver/Src/stm32wbxx_hal_dma.c ****   }
 972              		.loc 1 518 12 view .LVU338
 973 001c 7047     		bx	lr
 974              	.LVL52:
 975              	.L62:
 523:Drivers/STM32WBxx_HAL_Driver/Src/stm32wbxx_hal_dma.c **** 
 976              		.loc 1 523 5 is_stmt 1 view .LVU339
 977 001e 0168     		ldr	r1, [r0]
 978 0020 0A68     		ldr	r2, [r1]
ARM GAS  /var/folders/lt/l_qrc8c54t93n_phsj7cf5tc0000gn/T//cc1tXrem.s 			page 42


 979 0022 22F00E02 		bic	r2, r2, #14
 980 0026 0A60     		str	r2, [r1]
 526:Drivers/STM32WBxx_HAL_Driver/Src/stm32wbxx_hal_dma.c **** 
 981              		.loc 1 526 5 view .LVU340
 526:Drivers/STM32WBxx_HAL_Driver/Src/stm32wbxx_hal_dma.c **** 
 982              		.loc 1 526 9 is_stmt 0 view .LVU341
 983 0028 816C     		ldr	r1, [r0, #72]
 526:Drivers/STM32WBxx_HAL_Driver/Src/stm32wbxx_hal_dma.c **** 
 984              		.loc 1 526 30 view .LVU342
 985 002a 0A68     		ldr	r2, [r1]
 986 002c 22F48072 		bic	r2, r2, #256
 987 0030 0A60     		str	r2, [r1]
 529:Drivers/STM32WBxx_HAL_Driver/Src/stm32wbxx_hal_dma.c **** 
 988              		.loc 1 529 5 is_stmt 1 view .LVU343
 989 0032 0168     		ldr	r1, [r0]
 990 0034 0A68     		ldr	r2, [r1]
 991 0036 22F00102 		bic	r2, r2, #1
 992 003a 0A60     		str	r2, [r1]
 532:Drivers/STM32WBxx_HAL_Driver/Src/stm32wbxx_hal_dma.c **** 
 993              		.loc 1 532 5 view .LVU344
 532:Drivers/STM32WBxx_HAL_Driver/Src/stm32wbxx_hal_dma.c **** 
 994              		.loc 1 532 56 is_stmt 0 view .LVU345
 995 003c 426C     		ldr	r2, [r0, #68]
 532:Drivers/STM32WBxx_HAL_Driver/Src/stm32wbxx_hal_dma.c **** 
 996              		.loc 1 532 71 view .LVU346
 997 003e 02F01C01 		and	r1, r2, #28
 532:Drivers/STM32WBxx_HAL_Driver/Src/stm32wbxx_hal_dma.c **** 
 998              		.loc 1 532 9 view .LVU347
 999 0042 006C     		ldr	r0, [r0, #64]
 1000              	.LVL53:
 532:Drivers/STM32WBxx_HAL_Driver/Src/stm32wbxx_hal_dma.c **** 
 1001              		.loc 1 532 48 view .LVU348
 1002 0044 0122     		movs	r2, #1
 1003 0046 8A40     		lsls	r2, r2, r1
 532:Drivers/STM32WBxx_HAL_Driver/Src/stm32wbxx_hal_dma.c **** 
 1004              		.loc 1 532 32 view .LVU349
 1005 0048 4260     		str	r2, [r0, #4]
 535:Drivers/STM32WBxx_HAL_Driver/Src/stm32wbxx_hal_dma.c **** 
 1006              		.loc 1 535 5 is_stmt 1 view .LVU350
 535:Drivers/STM32WBxx_HAL_Driver/Src/stm32wbxx_hal_dma.c **** 
 1007              		.loc 1 535 9 is_stmt 0 view .LVU351
 1008 004a DA6C     		ldr	r2, [r3, #76]
 535:Drivers/STM32WBxx_HAL_Driver/Src/stm32wbxx_hal_dma.c **** 
 1009              		.loc 1 535 42 view .LVU352
 1010 004c 196D     		ldr	r1, [r3, #80]
 535:Drivers/STM32WBxx_HAL_Driver/Src/stm32wbxx_hal_dma.c **** 
 1011              		.loc 1 535 36 view .LVU353
 1012 004e 5160     		str	r1, [r2, #4]
 537:Drivers/STM32WBxx_HAL_Driver/Src/stm32wbxx_hal_dma.c ****     {
 1013              		.loc 1 537 5 is_stmt 1 view .LVU354
 537:Drivers/STM32WBxx_HAL_Driver/Src/stm32wbxx_hal_dma.c ****     {
 1014              		.loc 1 537 13 is_stmt 0 view .LVU355
 1015 0050 5A6D     		ldr	r2, [r3, #84]
 537:Drivers/STM32WBxx_HAL_Driver/Src/stm32wbxx_hal_dma.c ****     {
 1016              		.loc 1 537 8 view .LVU356
 1017 0052 32B1     		cbz	r2, .L63
 541:Drivers/STM32WBxx_HAL_Driver/Src/stm32wbxx_hal_dma.c **** 
ARM GAS  /var/folders/lt/l_qrc8c54t93n_phsj7cf5tc0000gn/T//cc1tXrem.s 			page 43


 1018              		.loc 1 541 7 is_stmt 1 view .LVU357
 541:Drivers/STM32WBxx_HAL_Driver/Src/stm32wbxx_hal_dma.c **** 
 1019              		.loc 1 541 36 is_stmt 0 view .LVU358
 1020 0054 1168     		ldr	r1, [r2]
 1021 0056 21F48071 		bic	r1, r1, #256
 1022 005a 1160     		str	r1, [r2]
 544:Drivers/STM32WBxx_HAL_Driver/Src/stm32wbxx_hal_dma.c ****     }
 1023              		.loc 1 544 7 is_stmt 1 view .LVU359
 544:Drivers/STM32WBxx_HAL_Driver/Src/stm32wbxx_hal_dma.c ****     }
 1024              		.loc 1 544 11 is_stmt 0 view .LVU360
 1025 005c 9A6D     		ldr	r2, [r3, #88]
 544:Drivers/STM32WBxx_HAL_Driver/Src/stm32wbxx_hal_dma.c ****     }
 1026              		.loc 1 544 49 view .LVU361
 1027 005e D96D     		ldr	r1, [r3, #92]
 544:Drivers/STM32WBxx_HAL_Driver/Src/stm32wbxx_hal_dma.c ****     }
 1028              		.loc 1 544 43 view .LVU362
 1029 0060 5160     		str	r1, [r2, #4]
 1030              	.L63:
 548:Drivers/STM32WBxx_HAL_Driver/Src/stm32wbxx_hal_dma.c **** 
 1031              		.loc 1 548 5 is_stmt 1 view .LVU363
 548:Drivers/STM32WBxx_HAL_Driver/Src/stm32wbxx_hal_dma.c **** 
 1032              		.loc 1 548 17 is_stmt 0 view .LVU364
 1033 0062 0122     		movs	r2, #1
 1034 0064 83F82520 		strb	r2, [r3, #37]
 551:Drivers/STM32WBxx_HAL_Driver/Src/stm32wbxx_hal_dma.c ****   }
 1035              		.loc 1 551 5 is_stmt 1 view .LVU365
 551:Drivers/STM32WBxx_HAL_Driver/Src/stm32wbxx_hal_dma.c ****   }
 1036              		.loc 1 551 5 view .LVU366
 1037 0068 0020     		movs	r0, #0
 1038 006a 83F82400 		strb	r0, [r3, #36]
 551:Drivers/STM32WBxx_HAL_Driver/Src/stm32wbxx_hal_dma.c ****   }
 1039              		.loc 1 551 5 view .LVU367
 554:Drivers/STM32WBxx_HAL_Driver/Src/stm32wbxx_hal_dma.c **** }
 1040              		.loc 1 554 3 view .LVU368
 554:Drivers/STM32WBxx_HAL_Driver/Src/stm32wbxx_hal_dma.c **** }
 1041              		.loc 1 554 10 is_stmt 0 view .LVU369
 1042 006e 7047     		bx	lr
 1043              	.LVL54:
 1044              	.L64:
 507:Drivers/STM32WBxx_HAL_Driver/Src/stm32wbxx_hal_dma.c ****   }
 1045              		.loc 1 507 12 view .LVU370
 1046 0070 0120     		movs	r0, #1
 1047              	.LVL55:
 555:Drivers/STM32WBxx_HAL_Driver/Src/stm32wbxx_hal_dma.c **** 
 1048              		.loc 1 555 1 view .LVU371
 1049 0072 7047     		bx	lr
 1050              		.cfi_endproc
 1051              	.LFE1108:
 1053              		.section	.text.HAL_DMA_Abort_IT,"ax",%progbits
 1054              		.align	1
 1055              		.global	HAL_DMA_Abort_IT
 1056              		.syntax unified
 1057              		.thumb
 1058              		.thumb_func
 1059              		.fpu fpv4-sp-d16
 1061              	HAL_DMA_Abort_IT:
 1062              	.LVL56:
ARM GAS  /var/folders/lt/l_qrc8c54t93n_phsj7cf5tc0000gn/T//cc1tXrem.s 			page 44


 1063              	.LFB1109:
 564:Drivers/STM32WBxx_HAL_Driver/Src/stm32wbxx_hal_dma.c ****   HAL_StatusTypeDef status = HAL_OK;
 1064              		.loc 1 564 1 is_stmt 1 view -0
 1065              		.cfi_startproc
 1066              		@ args = 0, pretend = 0, frame = 0
 1067              		@ frame_needed = 0, uses_anonymous_args = 0
 564:Drivers/STM32WBxx_HAL_Driver/Src/stm32wbxx_hal_dma.c ****   HAL_StatusTypeDef status = HAL_OK;
 1068              		.loc 1 564 1 is_stmt 0 view .LVU373
 1069 0000 08B5     		push	{r3, lr}
 1070              	.LCFI9:
 1071              		.cfi_def_cfa_offset 8
 1072              		.cfi_offset 3, -8
 1073              		.cfi_offset 14, -4
 565:Drivers/STM32WBxx_HAL_Driver/Src/stm32wbxx_hal_dma.c **** 
 1074              		.loc 1 565 3 is_stmt 1 view .LVU374
 1075              	.LVL57:
 567:Drivers/STM32WBxx_HAL_Driver/Src/stm32wbxx_hal_dma.c ****   {
 1076              		.loc 1 567 3 view .LVU375
 567:Drivers/STM32WBxx_HAL_Driver/Src/stm32wbxx_hal_dma.c ****   {
 1077              		.loc 1 567 33 is_stmt 0 view .LVU376
 1078 0002 90F82530 		ldrb	r3, [r0, #37]	@ zero_extendqisi2
 1079 0006 DBB2     		uxtb	r3, r3
 567:Drivers/STM32WBxx_HAL_Driver/Src/stm32wbxx_hal_dma.c ****   {
 1080              		.loc 1 567 6 view .LVU377
 1081 0008 022B     		cmp	r3, #2
 1082 000a 03D0     		beq	.L66
 570:Drivers/STM32WBxx_HAL_Driver/Src/stm32wbxx_hal_dma.c **** 
 1083              		.loc 1 570 5 is_stmt 1 view .LVU378
 570:Drivers/STM32WBxx_HAL_Driver/Src/stm32wbxx_hal_dma.c **** 
 1084              		.loc 1 570 21 is_stmt 0 view .LVU379
 1085 000c 0423     		movs	r3, #4
 1086 000e C363     		str	r3, [r0, #60]
 572:Drivers/STM32WBxx_HAL_Driver/Src/stm32wbxx_hal_dma.c ****   }
 1087              		.loc 1 572 5 is_stmt 1 view .LVU380
 1088              	.LVL58:
 572:Drivers/STM32WBxx_HAL_Driver/Src/stm32wbxx_hal_dma.c ****   }
 1089              		.loc 1 572 12 is_stmt 0 view .LVU381
 1090 0010 0120     		movs	r0, #1
 1091              	.LVL59:
 1092              	.L67:
 613:Drivers/STM32WBxx_HAL_Driver/Src/stm32wbxx_hal_dma.c **** }
 1093              		.loc 1 613 3 is_stmt 1 view .LVU382
 614:Drivers/STM32WBxx_HAL_Driver/Src/stm32wbxx_hal_dma.c **** 
 1094              		.loc 1 614 1 is_stmt 0 view .LVU383
 1095 0012 08BD     		pop	{r3, pc}
 1096              	.LVL60:
 1097              	.L66:
 577:Drivers/STM32WBxx_HAL_Driver/Src/stm32wbxx_hal_dma.c **** 
 1098              		.loc 1 577 5 is_stmt 1 view .LVU384
 1099 0014 0268     		ldr	r2, [r0]
 1100 0016 1368     		ldr	r3, [r2]
 1101 0018 23F00E03 		bic	r3, r3, #14
 1102 001c 1360     		str	r3, [r2]
 580:Drivers/STM32WBxx_HAL_Driver/Src/stm32wbxx_hal_dma.c **** 
 1103              		.loc 1 580 5 view .LVU385
 1104 001e 0268     		ldr	r2, [r0]
 1105 0020 1368     		ldr	r3, [r2]
ARM GAS  /var/folders/lt/l_qrc8c54t93n_phsj7cf5tc0000gn/T//cc1tXrem.s 			page 45


 1106 0022 23F00103 		bic	r3, r3, #1
 1107 0026 1360     		str	r3, [r2]
 583:Drivers/STM32WBxx_HAL_Driver/Src/stm32wbxx_hal_dma.c **** 
 1108              		.loc 1 583 5 view .LVU386
 583:Drivers/STM32WBxx_HAL_Driver/Src/stm32wbxx_hal_dma.c **** 
 1109              		.loc 1 583 9 is_stmt 0 view .LVU387
 1110 0028 826C     		ldr	r2, [r0, #72]
 583:Drivers/STM32WBxx_HAL_Driver/Src/stm32wbxx_hal_dma.c **** 
 1111              		.loc 1 583 30 view .LVU388
 1112 002a 1368     		ldr	r3, [r2]
 1113 002c 23F48073 		bic	r3, r3, #256
 1114 0030 1360     		str	r3, [r2]
 586:Drivers/STM32WBxx_HAL_Driver/Src/stm32wbxx_hal_dma.c **** 
 1115              		.loc 1 586 5 is_stmt 1 view .LVU389
 586:Drivers/STM32WBxx_HAL_Driver/Src/stm32wbxx_hal_dma.c **** 
 1116              		.loc 1 586 56 is_stmt 0 view .LVU390
 1117 0032 436C     		ldr	r3, [r0, #68]
 586:Drivers/STM32WBxx_HAL_Driver/Src/stm32wbxx_hal_dma.c **** 
 1118              		.loc 1 586 71 view .LVU391
 1119 0034 03F01C02 		and	r2, r3, #28
 586:Drivers/STM32WBxx_HAL_Driver/Src/stm32wbxx_hal_dma.c **** 
 1120              		.loc 1 586 9 view .LVU392
 1121 0038 016C     		ldr	r1, [r0, #64]
 586:Drivers/STM32WBxx_HAL_Driver/Src/stm32wbxx_hal_dma.c **** 
 1122              		.loc 1 586 48 view .LVU393
 1123 003a 0123     		movs	r3, #1
 1124 003c 9340     		lsls	r3, r3, r2
 586:Drivers/STM32WBxx_HAL_Driver/Src/stm32wbxx_hal_dma.c **** 
 1125              		.loc 1 586 32 view .LVU394
 1126 003e 4B60     		str	r3, [r1, #4]
 589:Drivers/STM32WBxx_HAL_Driver/Src/stm32wbxx_hal_dma.c **** 
 1127              		.loc 1 589 5 is_stmt 1 view .LVU395
 589:Drivers/STM32WBxx_HAL_Driver/Src/stm32wbxx_hal_dma.c **** 
 1128              		.loc 1 589 9 is_stmt 0 view .LVU396
 1129 0040 C36C     		ldr	r3, [r0, #76]
 589:Drivers/STM32WBxx_HAL_Driver/Src/stm32wbxx_hal_dma.c **** 
 1130              		.loc 1 589 42 view .LVU397
 1131 0042 026D     		ldr	r2, [r0, #80]
 589:Drivers/STM32WBxx_HAL_Driver/Src/stm32wbxx_hal_dma.c **** 
 1132              		.loc 1 589 36 view .LVU398
 1133 0044 5A60     		str	r2, [r3, #4]
 591:Drivers/STM32WBxx_HAL_Driver/Src/stm32wbxx_hal_dma.c ****     {
 1134              		.loc 1 591 5 is_stmt 1 view .LVU399
 591:Drivers/STM32WBxx_HAL_Driver/Src/stm32wbxx_hal_dma.c ****     {
 1135              		.loc 1 591 13 is_stmt 0 view .LVU400
 1136 0046 436D     		ldr	r3, [r0, #84]
 591:Drivers/STM32WBxx_HAL_Driver/Src/stm32wbxx_hal_dma.c ****     {
 1137              		.loc 1 591 8 view .LVU401
 1138 0048 33B1     		cbz	r3, .L68
 595:Drivers/STM32WBxx_HAL_Driver/Src/stm32wbxx_hal_dma.c **** 
 1139              		.loc 1 595 7 is_stmt 1 view .LVU402
 595:Drivers/STM32WBxx_HAL_Driver/Src/stm32wbxx_hal_dma.c **** 
 1140              		.loc 1 595 36 is_stmt 0 view .LVU403
 1141 004a 1A68     		ldr	r2, [r3]
 1142 004c 22F48072 		bic	r2, r2, #256
 1143 0050 1A60     		str	r2, [r3]
 598:Drivers/STM32WBxx_HAL_Driver/Src/stm32wbxx_hal_dma.c ****     }
ARM GAS  /var/folders/lt/l_qrc8c54t93n_phsj7cf5tc0000gn/T//cc1tXrem.s 			page 46


 1144              		.loc 1 598 7 is_stmt 1 view .LVU404
 598:Drivers/STM32WBxx_HAL_Driver/Src/stm32wbxx_hal_dma.c ****     }
 1145              		.loc 1 598 11 is_stmt 0 view .LVU405
 1146 0052 836D     		ldr	r3, [r0, #88]
 598:Drivers/STM32WBxx_HAL_Driver/Src/stm32wbxx_hal_dma.c ****     }
 1147              		.loc 1 598 49 view .LVU406
 1148 0054 C26D     		ldr	r2, [r0, #92]
 598:Drivers/STM32WBxx_HAL_Driver/Src/stm32wbxx_hal_dma.c ****     }
 1149              		.loc 1 598 43 view .LVU407
 1150 0056 5A60     		str	r2, [r3, #4]
 1151              	.L68:
 602:Drivers/STM32WBxx_HAL_Driver/Src/stm32wbxx_hal_dma.c **** 
 1152              		.loc 1 602 5 is_stmt 1 view .LVU408
 602:Drivers/STM32WBxx_HAL_Driver/Src/stm32wbxx_hal_dma.c **** 
 1153              		.loc 1 602 17 is_stmt 0 view .LVU409
 1154 0058 0123     		movs	r3, #1
 1155 005a 80F82530 		strb	r3, [r0, #37]
 605:Drivers/STM32WBxx_HAL_Driver/Src/stm32wbxx_hal_dma.c **** 
 1156              		.loc 1 605 5 is_stmt 1 view .LVU410
 605:Drivers/STM32WBxx_HAL_Driver/Src/stm32wbxx_hal_dma.c **** 
 1157              		.loc 1 605 5 view .LVU411
 1158 005e 0023     		movs	r3, #0
 1159 0060 80F82430 		strb	r3, [r0, #36]
 605:Drivers/STM32WBxx_HAL_Driver/Src/stm32wbxx_hal_dma.c **** 
 1160              		.loc 1 605 5 view .LVU412
 608:Drivers/STM32WBxx_HAL_Driver/Src/stm32wbxx_hal_dma.c ****     {
 1161              		.loc 1 608 5 view .LVU413
 608:Drivers/STM32WBxx_HAL_Driver/Src/stm32wbxx_hal_dma.c ****     {
 1162              		.loc 1 608 13 is_stmt 0 view .LVU414
 1163 0064 836B     		ldr	r3, [r0, #56]
 608:Drivers/STM32WBxx_HAL_Driver/Src/stm32wbxx_hal_dma.c ****     {
 1164              		.loc 1 608 8 view .LVU415
 1165 0066 13B1     		cbz	r3, .L69
 610:Drivers/STM32WBxx_HAL_Driver/Src/stm32wbxx_hal_dma.c ****     }
 1166              		.loc 1 610 7 is_stmt 1 view .LVU416
 1167 0068 9847     		blx	r3
 1168              	.LVL61:
 565:Drivers/STM32WBxx_HAL_Driver/Src/stm32wbxx_hal_dma.c **** 
 1169              		.loc 1 565 21 is_stmt 0 view .LVU417
 1170 006a 0020     		movs	r0, #0
 1171 006c D1E7     		b	.L67
 1172              	.LVL62:
 1173              	.L69:
 565:Drivers/STM32WBxx_HAL_Driver/Src/stm32wbxx_hal_dma.c **** 
 1174              		.loc 1 565 21 view .LVU418
 1175 006e 0020     		movs	r0, #0
 1176              	.LVL63:
 565:Drivers/STM32WBxx_HAL_Driver/Src/stm32wbxx_hal_dma.c **** 
 1177              		.loc 1 565 21 view .LVU419
 1178 0070 CFE7     		b	.L67
 1179              		.cfi_endproc
 1180              	.LFE1109:
 1182              		.section	.text.HAL_DMA_PollForTransfer,"ax",%progbits
 1183              		.align	1
 1184              		.global	HAL_DMA_PollForTransfer
 1185              		.syntax unified
 1186              		.thumb
ARM GAS  /var/folders/lt/l_qrc8c54t93n_phsj7cf5tc0000gn/T//cc1tXrem.s 			page 47


 1187              		.thumb_func
 1188              		.fpu fpv4-sp-d16
 1190              	HAL_DMA_PollForTransfer:
 1191              	.LVL64:
 1192              	.LFB1110:
 625:Drivers/STM32WBxx_HAL_Driver/Src/stm32wbxx_hal_dma.c ****   uint32_t temp;
 1193              		.loc 1 625 1 is_stmt 1 view -0
 1194              		.cfi_startproc
 1195              		@ args = 0, pretend = 0, frame = 0
 1196              		@ frame_needed = 0, uses_anonymous_args = 0
 625:Drivers/STM32WBxx_HAL_Driver/Src/stm32wbxx_hal_dma.c ****   uint32_t temp;
 1197              		.loc 1 625 1 is_stmt 0 view .LVU421
 1198 0000 2DE9F843 		push	{r3, r4, r5, r6, r7, r8, r9, lr}
 1199              	.LCFI10:
 1200              		.cfi_def_cfa_offset 32
 1201              		.cfi_offset 3, -32
 1202              		.cfi_offset 4, -28
 1203              		.cfi_offset 5, -24
 1204              		.cfi_offset 6, -20
 1205              		.cfi_offset 7, -16
 1206              		.cfi_offset 8, -12
 1207              		.cfi_offset 9, -8
 1208              		.cfi_offset 14, -4
 1209 0004 0546     		mov	r5, r0
 626:Drivers/STM32WBxx_HAL_Driver/Src/stm32wbxx_hal_dma.c ****   uint32_t tickstart;
 1210              		.loc 1 626 3 is_stmt 1 view .LVU422
 627:Drivers/STM32WBxx_HAL_Driver/Src/stm32wbxx_hal_dma.c **** 
 1211              		.loc 1 627 3 view .LVU423
 629:Drivers/STM32WBxx_HAL_Driver/Src/stm32wbxx_hal_dma.c ****   {
 1212              		.loc 1 629 3 view .LVU424
 629:Drivers/STM32WBxx_HAL_Driver/Src/stm32wbxx_hal_dma.c ****   {
 1213              		.loc 1 629 33 is_stmt 0 view .LVU425
 1214 0006 90F82530 		ldrb	r3, [r0, #37]	@ zero_extendqisi2
 1215 000a DBB2     		uxtb	r3, r3
 629:Drivers/STM32WBxx_HAL_Driver/Src/stm32wbxx_hal_dma.c ****   {
 1216              		.loc 1 629 6 view .LVU426
 1217 000c 022B     		cmp	r3, #2
 1218 000e 07D0     		beq	.L72
 632:Drivers/STM32WBxx_HAL_Driver/Src/stm32wbxx_hal_dma.c ****     __HAL_UNLOCK(hdma);
 1219              		.loc 1 632 5 is_stmt 1 view .LVU427
 632:Drivers/STM32WBxx_HAL_Driver/Src/stm32wbxx_hal_dma.c ****     __HAL_UNLOCK(hdma);
 1220              		.loc 1 632 21 is_stmt 0 view .LVU428
 1221 0010 0423     		movs	r3, #4
 1222 0012 C363     		str	r3, [r0, #60]
 633:Drivers/STM32WBxx_HAL_Driver/Src/stm32wbxx_hal_dma.c ****     return HAL_ERROR;
 1223              		.loc 1 633 5 is_stmt 1 view .LVU429
 633:Drivers/STM32WBxx_HAL_Driver/Src/stm32wbxx_hal_dma.c ****     return HAL_ERROR;
 1224              		.loc 1 633 5 view .LVU430
 1225 0014 0023     		movs	r3, #0
 1226 0016 80F82430 		strb	r3, [r0, #36]
 633:Drivers/STM32WBxx_HAL_Driver/Src/stm32wbxx_hal_dma.c ****     return HAL_ERROR;
 1227              		.loc 1 633 5 view .LVU431
 634:Drivers/STM32WBxx_HAL_Driver/Src/stm32wbxx_hal_dma.c ****   }
 1228              		.loc 1 634 5 view .LVU432
 634:Drivers/STM32WBxx_HAL_Driver/Src/stm32wbxx_hal_dma.c ****   }
 1229              		.loc 1 634 12 is_stmt 0 view .LVU433
 1230 001a 0120     		movs	r0, #1
ARM GAS  /var/folders/lt/l_qrc8c54t93n_phsj7cf5tc0000gn/T//cc1tXrem.s 			page 48


 1231              	.LVL65:
 1232              	.L73:
 744:Drivers/STM32WBxx_HAL_Driver/Src/stm32wbxx_hal_dma.c **** 
 1233              		.loc 1 744 1 view .LVU434
 1234 001c BDE8F883 		pop	{r3, r4, r5, r6, r7, r8, r9, pc}
 1235              	.LVL66:
 1236              	.L72:
 744:Drivers/STM32WBxx_HAL_Driver/Src/stm32wbxx_hal_dma.c **** 
 1237              		.loc 1 744 1 view .LVU435
 1238 0020 0F46     		mov	r7, r1
 1239 0022 1646     		mov	r6, r2
 638:Drivers/STM32WBxx_HAL_Driver/Src/stm32wbxx_hal_dma.c ****   {
 1240              		.loc 1 638 3 is_stmt 1 view .LVU436
 638:Drivers/STM32WBxx_HAL_Driver/Src/stm32wbxx_hal_dma.c ****   {
 1241              		.loc 1 638 12 is_stmt 0 view .LVU437
 1242 0024 0368     		ldr	r3, [r0]
 638:Drivers/STM32WBxx_HAL_Driver/Src/stm32wbxx_hal_dma.c ****   {
 1243              		.loc 1 638 22 view .LVU438
 1244 0026 1B68     		ldr	r3, [r3]
 638:Drivers/STM32WBxx_HAL_Driver/Src/stm32wbxx_hal_dma.c ****   {
 1245              		.loc 1 638 6 view .LVU439
 1246 0028 13F0200F 		tst	r3, #32
 1247 002c 2BD1     		bne	.L86
 645:Drivers/STM32WBxx_HAL_Driver/Src/stm32wbxx_hal_dma.c ****   {
 1248              		.loc 1 645 3 is_stmt 1 view .LVU440
 645:Drivers/STM32WBxx_HAL_Driver/Src/stm32wbxx_hal_dma.c ****   {
 1249              		.loc 1 645 6 is_stmt 0 view .LVU441
 1250 002e 79BB     		cbnz	r1, .L75
 648:Drivers/STM32WBxx_HAL_Driver/Src/stm32wbxx_hal_dma.c ****   }
 1251              		.loc 1 648 5 is_stmt 1 view .LVU442
 648:Drivers/STM32WBxx_HAL_Driver/Src/stm32wbxx_hal_dma.c ****   }
 1252              		.loc 1 648 33 is_stmt 0 view .LVU443
 1253 0030 436C     		ldr	r3, [r0, #68]
 648:Drivers/STM32WBxx_HAL_Driver/Src/stm32wbxx_hal_dma.c ****   }
 1254              		.loc 1 648 48 view .LVU444
 1255 0032 03F01C03 		and	r3, r3, #28
 648:Drivers/STM32WBxx_HAL_Driver/Src/stm32wbxx_hal_dma.c ****   }
 1256              		.loc 1 648 10 view .LVU445
 1257 0036 4FF00208 		mov	r8, #2
 1258 003a 08FA03F8 		lsl	r8, r8, r3
 1259              	.LVL67:
 1260              	.L76:
 657:Drivers/STM32WBxx_HAL_Driver/Src/stm32wbxx_hal_dma.c **** 
 1261              		.loc 1 657 3 is_stmt 1 view .LVU446
 657:Drivers/STM32WBxx_HAL_Driver/Src/stm32wbxx_hal_dma.c **** 
 1262              		.loc 1 657 15 is_stmt 0 view .LVU447
 1263 003e FFF7FEFF 		bl	HAL_GetTick
 1264              	.LVL68:
 657:Drivers/STM32WBxx_HAL_Driver/Src/stm32wbxx_hal_dma.c **** 
 1265              		.loc 1 657 15 view .LVU448
 1266 0042 8146     		mov	r9, r0
 1267              	.LVL69:
 659:Drivers/STM32WBxx_HAL_Driver/Src/stm32wbxx_hal_dma.c ****   {
 1268              		.loc 1 659 3 is_stmt 1 view .LVU449
 1269              	.L79:
 659:Drivers/STM32WBxx_HAL_Driver/Src/stm32wbxx_hal_dma.c ****   {
 1270              		.loc 1 659 8 view .LVU450
ARM GAS  /var/folders/lt/l_qrc8c54t93n_phsj7cf5tc0000gn/T//cc1tXrem.s 			page 49


 659:Drivers/STM32WBxx_HAL_Driver/Src/stm32wbxx_hal_dma.c ****   {
 1271              		.loc 1 659 14 is_stmt 0 view .LVU451
 1272 0044 2A6C     		ldr	r2, [r5, #64]
 659:Drivers/STM32WBxx_HAL_Driver/Src/stm32wbxx_hal_dma.c ****   {
 1273              		.loc 1 659 30 view .LVU452
 1274 0046 1368     		ldr	r3, [r2]
 659:Drivers/STM32WBxx_HAL_Driver/Src/stm32wbxx_hal_dma.c ****   {
 1275              		.loc 1 659 8 view .LVU453
 1276 0048 13EA080F 		tst	r3, r8
 1277 004c 33D1     		bne	.L87
 661:Drivers/STM32WBxx_HAL_Driver/Src/stm32wbxx_hal_dma.c ****     {
 1278              		.loc 1 661 5 is_stmt 1 view .LVU454
 661:Drivers/STM32WBxx_HAL_Driver/Src/stm32wbxx_hal_dma.c ****     {
 1279              		.loc 1 661 29 is_stmt 0 view .LVU455
 1280 004e 1168     		ldr	r1, [r2]
 661:Drivers/STM32WBxx_HAL_Driver/Src/stm32wbxx_hal_dma.c ****     {
 1281              		.loc 1 661 59 view .LVU456
 1282 0050 6B6C     		ldr	r3, [r5, #68]
 661:Drivers/STM32WBxx_HAL_Driver/Src/stm32wbxx_hal_dma.c ****     {
 1283              		.loc 1 661 73 view .LVU457
 1284 0052 03F01C03 		and	r3, r3, #28
 661:Drivers/STM32WBxx_HAL_Driver/Src/stm32wbxx_hal_dma.c ****     {
 1285              		.loc 1 661 51 view .LVU458
 1286 0056 0824     		movs	r4, #8
 1287 0058 9C40     		lsls	r4, r4, r3
 661:Drivers/STM32WBxx_HAL_Driver/Src/stm32wbxx_hal_dma.c ****     {
 1288              		.loc 1 661 7 view .LVU459
 1289 005a 2142     		tst	r1, r4
 1290 005c 20D1     		bne	.L88
 680:Drivers/STM32WBxx_HAL_Driver/Src/stm32wbxx_hal_dma.c ****     {
 1291              		.loc 1 680 5 is_stmt 1 view .LVU460
 680:Drivers/STM32WBxx_HAL_Driver/Src/stm32wbxx_hal_dma.c ****     {
 1292              		.loc 1 680 8 is_stmt 0 view .LVU461
 1293 005e B6F1FF3F 		cmp	r6, #-1
 1294 0062 EFD0     		beq	.L79
 682:Drivers/STM32WBxx_HAL_Driver/Src/stm32wbxx_hal_dma.c ****       {
 1295              		.loc 1 682 7 is_stmt 1 view .LVU462
 682:Drivers/STM32WBxx_HAL_Driver/Src/stm32wbxx_hal_dma.c ****       {
 1296              		.loc 1 682 12 is_stmt 0 view .LVU463
 1297 0064 FFF7FEFF 		bl	HAL_GetTick
 1298              	.LVL70:
 682:Drivers/STM32WBxx_HAL_Driver/Src/stm32wbxx_hal_dma.c ****       {
 1299              		.loc 1 682 26 view .LVU464
 1300 0068 A0EB0900 		sub	r0, r0, r9
 682:Drivers/STM32WBxx_HAL_Driver/Src/stm32wbxx_hal_dma.c ****       {
 1301              		.loc 1 682 9 view .LVU465
 1302 006c B042     		cmp	r0, r6
 1303 006e 01D8     		bhi	.L80
 682:Drivers/STM32WBxx_HAL_Driver/Src/stm32wbxx_hal_dma.c ****       {
 1304              		.loc 1 682 50 discriminator 1 view .LVU466
 1305 0070 002E     		cmp	r6, #0
 1306 0072 E7D1     		bne	.L79
 1307              	.L80:
 685:Drivers/STM32WBxx_HAL_Driver/Src/stm32wbxx_hal_dma.c **** 
 1308              		.loc 1 685 9 is_stmt 1 view .LVU467
 685:Drivers/STM32WBxx_HAL_Driver/Src/stm32wbxx_hal_dma.c **** 
 1309              		.loc 1 685 25 is_stmt 0 view .LVU468
ARM GAS  /var/folders/lt/l_qrc8c54t93n_phsj7cf5tc0000gn/T//cc1tXrem.s 			page 50


 1310 0074 2023     		movs	r3, #32
 1311 0076 EB63     		str	r3, [r5, #60]
 688:Drivers/STM32WBxx_HAL_Driver/Src/stm32wbxx_hal_dma.c **** 
 1312              		.loc 1 688 9 is_stmt 1 view .LVU469
 688:Drivers/STM32WBxx_HAL_Driver/Src/stm32wbxx_hal_dma.c **** 
 1313              		.loc 1 688 21 is_stmt 0 view .LVU470
 1314 0078 0120     		movs	r0, #1
 1315 007a 85F82500 		strb	r0, [r5, #37]
 691:Drivers/STM32WBxx_HAL_Driver/Src/stm32wbxx_hal_dma.c **** 
 1316              		.loc 1 691 9 is_stmt 1 view .LVU471
 691:Drivers/STM32WBxx_HAL_Driver/Src/stm32wbxx_hal_dma.c **** 
 1317              		.loc 1 691 9 view .LVU472
 1318 007e 0023     		movs	r3, #0
 1319 0080 85F82430 		strb	r3, [r5, #36]
 691:Drivers/STM32WBxx_HAL_Driver/Src/stm32wbxx_hal_dma.c **** 
 1320              		.loc 1 691 9 view .LVU473
 693:Drivers/STM32WBxx_HAL_Driver/Src/stm32wbxx_hal_dma.c ****       }
 1321              		.loc 1 693 9 view .LVU474
 693:Drivers/STM32WBxx_HAL_Driver/Src/stm32wbxx_hal_dma.c ****       }
 1322              		.loc 1 693 16 is_stmt 0 view .LVU475
 1323 0084 CAE7     		b	.L73
 1324              	.LVL71:
 1325              	.L86:
 640:Drivers/STM32WBxx_HAL_Driver/Src/stm32wbxx_hal_dma.c ****     return HAL_ERROR;
 1326              		.loc 1 640 5 is_stmt 1 view .LVU476
 640:Drivers/STM32WBxx_HAL_Driver/Src/stm32wbxx_hal_dma.c ****     return HAL_ERROR;
 1327              		.loc 1 640 21 is_stmt 0 view .LVU477
 1328 0086 4FF48073 		mov	r3, #256
 1329 008a C363     		str	r3, [r0, #60]
 641:Drivers/STM32WBxx_HAL_Driver/Src/stm32wbxx_hal_dma.c ****   }
 1330              		.loc 1 641 5 is_stmt 1 view .LVU478
 641:Drivers/STM32WBxx_HAL_Driver/Src/stm32wbxx_hal_dma.c ****   }
 1331              		.loc 1 641 12 is_stmt 0 view .LVU479
 1332 008c 0120     		movs	r0, #1
 1333              	.LVL72:
 641:Drivers/STM32WBxx_HAL_Driver/Src/stm32wbxx_hal_dma.c ****   }
 1334              		.loc 1 641 12 view .LVU480
 1335 008e C5E7     		b	.L73
 1336              	.LVL73:
 1337              	.L75:
 653:Drivers/STM32WBxx_HAL_Driver/Src/stm32wbxx_hal_dma.c ****   }
 1338              		.loc 1 653 5 is_stmt 1 view .LVU481
 653:Drivers/STM32WBxx_HAL_Driver/Src/stm32wbxx_hal_dma.c ****   }
 1339              		.loc 1 653 33 is_stmt 0 view .LVU482
 1340 0090 436C     		ldr	r3, [r0, #68]
 653:Drivers/STM32WBxx_HAL_Driver/Src/stm32wbxx_hal_dma.c ****   }
 1341              		.loc 1 653 49 view .LVU483
 1342 0092 03F01C03 		and	r3, r3, #28
 653:Drivers/STM32WBxx_HAL_Driver/Src/stm32wbxx_hal_dma.c ****   }
 1343              		.loc 1 653 10 view .LVU484
 1344 0096 4FF00408 		mov	r8, #4
 1345 009a 08FA03F8 		lsl	r8, r8, r3
 1346              	.LVL74:
 653:Drivers/STM32WBxx_HAL_Driver/Src/stm32wbxx_hal_dma.c ****   }
 1347              		.loc 1 653 10 view .LVU485
 1348 009e CEE7     		b	.L76
 1349              	.LVL75:
ARM GAS  /var/folders/lt/l_qrc8c54t93n_phsj7cf5tc0000gn/T//cc1tXrem.s 			page 51


 1350              	.L88:
 666:Drivers/STM32WBxx_HAL_Driver/Src/stm32wbxx_hal_dma.c **** 
 1351              		.loc 1 666 7 is_stmt 1 view .LVU486
 666:Drivers/STM32WBxx_HAL_Driver/Src/stm32wbxx_hal_dma.c **** 
 1352              		.loc 1 666 50 is_stmt 0 view .LVU487
 1353 00a0 0120     		movs	r0, #1
 1354 00a2 00FA03F3 		lsl	r3, r0, r3
 666:Drivers/STM32WBxx_HAL_Driver/Src/stm32wbxx_hal_dma.c **** 
 1355              		.loc 1 666 34 view .LVU488
 1356 00a6 5360     		str	r3, [r2, #4]
 669:Drivers/STM32WBxx_HAL_Driver/Src/stm32wbxx_hal_dma.c **** 
 1357              		.loc 1 669 7 is_stmt 1 view .LVU489
 669:Drivers/STM32WBxx_HAL_Driver/Src/stm32wbxx_hal_dma.c **** 
 1358              		.loc 1 669 23 is_stmt 0 view .LVU490
 1359 00a8 E863     		str	r0, [r5, #60]
 672:Drivers/STM32WBxx_HAL_Driver/Src/stm32wbxx_hal_dma.c **** 
 1360              		.loc 1 672 7 is_stmt 1 view .LVU491
 672:Drivers/STM32WBxx_HAL_Driver/Src/stm32wbxx_hal_dma.c **** 
 1361              		.loc 1 672 19 is_stmt 0 view .LVU492
 1362 00aa 85F82500 		strb	r0, [r5, #37]
 675:Drivers/STM32WBxx_HAL_Driver/Src/stm32wbxx_hal_dma.c **** 
 1363              		.loc 1 675 7 is_stmt 1 view .LVU493
 675:Drivers/STM32WBxx_HAL_Driver/Src/stm32wbxx_hal_dma.c **** 
 1364              		.loc 1 675 7 view .LVU494
 1365 00ae 0023     		movs	r3, #0
 1366 00b0 85F82430 		strb	r3, [r5, #36]
 675:Drivers/STM32WBxx_HAL_Driver/Src/stm32wbxx_hal_dma.c **** 
 1367              		.loc 1 675 7 view .LVU495
 677:Drivers/STM32WBxx_HAL_Driver/Src/stm32wbxx_hal_dma.c ****     }
 1368              		.loc 1 677 7 view .LVU496
 677:Drivers/STM32WBxx_HAL_Driver/Src/stm32wbxx_hal_dma.c ****     }
 1369              		.loc 1 677 14 is_stmt 0 view .LVU497
 1370 00b4 B2E7     		b	.L73
 1371              	.L87:
 699:Drivers/STM32WBxx_HAL_Driver/Src/stm32wbxx_hal_dma.c ****   {
 1372              		.loc 1 699 3 is_stmt 1 view .LVU498
 699:Drivers/STM32WBxx_HAL_Driver/Src/stm32wbxx_hal_dma.c ****   {
 1373              		.loc 1 699 11 is_stmt 0 view .LVU499
 1374 00b6 6B6D     		ldr	r3, [r5, #84]
 699:Drivers/STM32WBxx_HAL_Driver/Src/stm32wbxx_hal_dma.c ****   {
 1375              		.loc 1 699 6 view .LVU500
 1376 00b8 7BB1     		cbz	r3, .L82
 702:Drivers/STM32WBxx_HAL_Driver/Src/stm32wbxx_hal_dma.c ****     {
 1377              		.loc 1 702 5 is_stmt 1 view .LVU501
 702:Drivers/STM32WBxx_HAL_Driver/Src/stm32wbxx_hal_dma.c ****     {
 1378              		.loc 1 702 14 is_stmt 0 view .LVU502
 1379 00ba AA6D     		ldr	r2, [r5, #88]
 702:Drivers/STM32WBxx_HAL_Driver/Src/stm32wbxx_hal_dma.c ****     {
 1380              		.loc 1 702 38 view .LVU503
 1381 00bc 1168     		ldr	r1, [r2]
 702:Drivers/STM32WBxx_HAL_Driver/Src/stm32wbxx_hal_dma.c ****     {
 1382              		.loc 1 702 51 view .LVU504
 1383 00be EA6D     		ldr	r2, [r5, #92]
 702:Drivers/STM32WBxx_HAL_Driver/Src/stm32wbxx_hal_dma.c ****     {
 1384              		.loc 1 702 8 view .LVU505
 1385 00c0 1142     		tst	r1, r2
 1386 00c2 0AD0     		beq	.L82
ARM GAS  /var/folders/lt/l_qrc8c54t93n_phsj7cf5tc0000gn/T//cc1tXrem.s 			page 52


 705:Drivers/STM32WBxx_HAL_Driver/Src/stm32wbxx_hal_dma.c **** 
 1387              		.loc 1 705 7 is_stmt 1 view .LVU506
 705:Drivers/STM32WBxx_HAL_Driver/Src/stm32wbxx_hal_dma.c **** 
 1388              		.loc 1 705 36 is_stmt 0 view .LVU507
 1389 00c4 1A68     		ldr	r2, [r3]
 1390 00c6 42F48072 		orr	r2, r2, #256
 1391 00ca 1A60     		str	r2, [r3]
 708:Drivers/STM32WBxx_HAL_Driver/Src/stm32wbxx_hal_dma.c **** 
 1392              		.loc 1 708 7 is_stmt 1 view .LVU508
 708:Drivers/STM32WBxx_HAL_Driver/Src/stm32wbxx_hal_dma.c **** 
 1393              		.loc 1 708 11 is_stmt 0 view .LVU509
 1394 00cc AB6D     		ldr	r3, [r5, #88]
 708:Drivers/STM32WBxx_HAL_Driver/Src/stm32wbxx_hal_dma.c **** 
 1395              		.loc 1 708 49 view .LVU510
 1396 00ce EA6D     		ldr	r2, [r5, #92]
 708:Drivers/STM32WBxx_HAL_Driver/Src/stm32wbxx_hal_dma.c **** 
 1397              		.loc 1 708 43 view .LVU511
 1398 00d0 5A60     		str	r2, [r3, #4]
 711:Drivers/STM32WBxx_HAL_Driver/Src/stm32wbxx_hal_dma.c ****     }
 1399              		.loc 1 711 7 is_stmt 1 view .LVU512
 711:Drivers/STM32WBxx_HAL_Driver/Src/stm32wbxx_hal_dma.c ****     }
 1400              		.loc 1 711 23 is_stmt 0 view .LVU513
 1401 00d2 EB6B     		ldr	r3, [r5, #60]
 1402 00d4 43F48063 		orr	r3, r3, #1024
 1403 00d8 EB63     		str	r3, [r5, #60]
 1404              	.L82:
 716:Drivers/STM32WBxx_HAL_Driver/Src/stm32wbxx_hal_dma.c ****   {
 1405              		.loc 1 716 3 is_stmt 1 view .LVU514
 716:Drivers/STM32WBxx_HAL_Driver/Src/stm32wbxx_hal_dma.c ****   {
 1406              		.loc 1 716 12 is_stmt 0 view .LVU515
 1407 00da EB6C     		ldr	r3, [r5, #76]
 716:Drivers/STM32WBxx_HAL_Driver/Src/stm32wbxx_hal_dma.c ****   {
 1408              		.loc 1 716 33 view .LVU516
 1409 00dc 1968     		ldr	r1, [r3]
 716:Drivers/STM32WBxx_HAL_Driver/Src/stm32wbxx_hal_dma.c ****   {
 1410              		.loc 1 716 45 view .LVU517
 1411 00de 2A6D     		ldr	r2, [r5, #80]
 716:Drivers/STM32WBxx_HAL_Driver/Src/stm32wbxx_hal_dma.c ****   {
 1412              		.loc 1 716 6 view .LVU518
 1413 00e0 1142     		tst	r1, r2
 1414 00e2 04D0     		beq	.L83
 719:Drivers/STM32WBxx_HAL_Driver/Src/stm32wbxx_hal_dma.c **** 
 1415              		.loc 1 719 5 is_stmt 1 view .LVU519
 719:Drivers/STM32WBxx_HAL_Driver/Src/stm32wbxx_hal_dma.c **** 
 1416              		.loc 1 719 36 is_stmt 0 view .LVU520
 1417 00e4 5A60     		str	r2, [r3, #4]
 722:Drivers/STM32WBxx_HAL_Driver/Src/stm32wbxx_hal_dma.c ****   }
 1418              		.loc 1 722 5 is_stmt 1 view .LVU521
 722:Drivers/STM32WBxx_HAL_Driver/Src/stm32wbxx_hal_dma.c ****   }
 1419              		.loc 1 722 21 is_stmt 0 view .LVU522
 1420 00e6 EB6B     		ldr	r3, [r5, #60]
 1421 00e8 43F40073 		orr	r3, r3, #512
 1422 00ec EB63     		str	r3, [r5, #60]
 1423              	.L83:
 725:Drivers/STM32WBxx_HAL_Driver/Src/stm32wbxx_hal_dma.c ****   {
 1424              		.loc 1 725 3 is_stmt 1 view .LVU523
 725:Drivers/STM32WBxx_HAL_Driver/Src/stm32wbxx_hal_dma.c ****   {
ARM GAS  /var/folders/lt/l_qrc8c54t93n_phsj7cf5tc0000gn/T//cc1tXrem.s 			page 53


 1425              		.loc 1 725 6 is_stmt 0 view .LVU524
 1426 00ee 77B9     		cbnz	r7, .L84
 728:Drivers/STM32WBxx_HAL_Driver/Src/stm32wbxx_hal_dma.c **** 
 1427              		.loc 1 728 5 is_stmt 1 view .LVU525
 728:Drivers/STM32WBxx_HAL_Driver/Src/stm32wbxx_hal_dma.c **** 
 1428              		.loc 1 728 56 is_stmt 0 view .LVU526
 1429 00f0 6B6C     		ldr	r3, [r5, #68]
 728:Drivers/STM32WBxx_HAL_Driver/Src/stm32wbxx_hal_dma.c **** 
 1430              		.loc 1 728 71 view .LVU527
 1431 00f2 03F01C02 		and	r2, r3, #28
 728:Drivers/STM32WBxx_HAL_Driver/Src/stm32wbxx_hal_dma.c **** 
 1432              		.loc 1 728 9 view .LVU528
 1433 00f6 296C     		ldr	r1, [r5, #64]
 728:Drivers/STM32WBxx_HAL_Driver/Src/stm32wbxx_hal_dma.c **** 
 1434              		.loc 1 728 48 view .LVU529
 1435 00f8 0223     		movs	r3, #2
 1436 00fa 9340     		lsls	r3, r3, r2
 728:Drivers/STM32WBxx_HAL_Driver/Src/stm32wbxx_hal_dma.c **** 
 1437              		.loc 1 728 32 view .LVU530
 1438 00fc 4B60     		str	r3, [r1, #4]
 731:Drivers/STM32WBxx_HAL_Driver/Src/stm32wbxx_hal_dma.c **** 
 1439              		.loc 1 731 5 is_stmt 1 view .LVU531
 731:Drivers/STM32WBxx_HAL_Driver/Src/stm32wbxx_hal_dma.c **** 
 1440              		.loc 1 731 5 view .LVU532
 1441 00fe 0023     		movs	r3, #0
 1442 0100 85F82430 		strb	r3, [r5, #36]
 731:Drivers/STM32WBxx_HAL_Driver/Src/stm32wbxx_hal_dma.c **** 
 1443              		.loc 1 731 5 view .LVU533
 735:Drivers/STM32WBxx_HAL_Driver/Src/stm32wbxx_hal_dma.c ****   }
 1444              		.loc 1 735 5 view .LVU534
 735:Drivers/STM32WBxx_HAL_Driver/Src/stm32wbxx_hal_dma.c ****   }
 1445              		.loc 1 735 17 is_stmt 0 view .LVU535
 1446 0104 0123     		movs	r3, #1
 1447 0106 85F82530 		strb	r3, [r5, #37]
 743:Drivers/STM32WBxx_HAL_Driver/Src/stm32wbxx_hal_dma.c **** }
 1448              		.loc 1 743 10 view .LVU536
 1449 010a 3846     		mov	r0, r7
 1450 010c 86E7     		b	.L73
 1451              	.L84:
 740:Drivers/STM32WBxx_HAL_Driver/Src/stm32wbxx_hal_dma.c ****   }
 1452              		.loc 1 740 5 is_stmt 1 view .LVU537
 740:Drivers/STM32WBxx_HAL_Driver/Src/stm32wbxx_hal_dma.c ****   }
 1453              		.loc 1 740 56 is_stmt 0 view .LVU538
 1454 010e 6B6C     		ldr	r3, [r5, #68]
 740:Drivers/STM32WBxx_HAL_Driver/Src/stm32wbxx_hal_dma.c ****   }
 1455              		.loc 1 740 71 view .LVU539
 1456 0110 03F01C02 		and	r2, r3, #28
 740:Drivers/STM32WBxx_HAL_Driver/Src/stm32wbxx_hal_dma.c ****   }
 1457              		.loc 1 740 9 view .LVU540
 1458 0114 296C     		ldr	r1, [r5, #64]
 740:Drivers/STM32WBxx_HAL_Driver/Src/stm32wbxx_hal_dma.c ****   }
 1459              		.loc 1 740 48 view .LVU541
 1460 0116 0423     		movs	r3, #4
 1461 0118 9340     		lsls	r3, r3, r2
 740:Drivers/STM32WBxx_HAL_Driver/Src/stm32wbxx_hal_dma.c ****   }
 1462              		.loc 1 740 32 view .LVU542
 1463 011a 4B60     		str	r3, [r1, #4]
ARM GAS  /var/folders/lt/l_qrc8c54t93n_phsj7cf5tc0000gn/T//cc1tXrem.s 			page 54


 743:Drivers/STM32WBxx_HAL_Driver/Src/stm32wbxx_hal_dma.c **** }
 1464              		.loc 1 743 10 view .LVU543
 1465 011c 0020     		movs	r0, #0
 1466 011e 7DE7     		b	.L73
 1467              		.cfi_endproc
 1468              	.LFE1110:
 1470              		.section	.text.HAL_DMA_IRQHandler,"ax",%progbits
 1471              		.align	1
 1472              		.global	HAL_DMA_IRQHandler
 1473              		.syntax unified
 1474              		.thumb
 1475              		.thumb_func
 1476              		.fpu fpv4-sp-d16
 1478              	HAL_DMA_IRQHandler:
 1479              	.LVL76:
 1480              	.LFB1111:
 753:Drivers/STM32WBxx_HAL_Driver/Src/stm32wbxx_hal_dma.c ****   uint32_t flag_it = hdma->DmaBaseAddress->ISR;
 1481              		.loc 1 753 1 is_stmt 1 view -0
 1482              		.cfi_startproc
 1483              		@ args = 0, pretend = 0, frame = 0
 1484              		@ frame_needed = 0, uses_anonymous_args = 0
 753:Drivers/STM32WBxx_HAL_Driver/Src/stm32wbxx_hal_dma.c ****   uint32_t flag_it = hdma->DmaBaseAddress->ISR;
 1485              		.loc 1 753 1 is_stmt 0 view .LVU545
 1486 0000 38B5     		push	{r3, r4, r5, lr}
 1487              	.LCFI11:
 1488              		.cfi_def_cfa_offset 16
 1489              		.cfi_offset 3, -16
 1490              		.cfi_offset 4, -12
 1491              		.cfi_offset 5, -8
 1492              		.cfi_offset 14, -4
 754:Drivers/STM32WBxx_HAL_Driver/Src/stm32wbxx_hal_dma.c ****   uint32_t source_it = hdma->Instance->CCR;
 1493              		.loc 1 754 3 is_stmt 1 view .LVU546
 754:Drivers/STM32WBxx_HAL_Driver/Src/stm32wbxx_hal_dma.c ****   uint32_t source_it = hdma->Instance->CCR;
 1494              		.loc 1 754 26 is_stmt 0 view .LVU547
 1495 0002 036C     		ldr	r3, [r0, #64]
 754:Drivers/STM32WBxx_HAL_Driver/Src/stm32wbxx_hal_dma.c ****   uint32_t source_it = hdma->Instance->CCR;
 1496              		.loc 1 754 12 view .LVU548
 1497 0004 1968     		ldr	r1, [r3]
 1498              	.LVL77:
 755:Drivers/STM32WBxx_HAL_Driver/Src/stm32wbxx_hal_dma.c **** 
 1499              		.loc 1 755 3 is_stmt 1 view .LVU549
 755:Drivers/STM32WBxx_HAL_Driver/Src/stm32wbxx_hal_dma.c **** 
 1500              		.loc 1 755 28 is_stmt 0 view .LVU550
 1501 0006 0468     		ldr	r4, [r0]
 755:Drivers/STM32WBxx_HAL_Driver/Src/stm32wbxx_hal_dma.c **** 
 1502              		.loc 1 755 12 view .LVU551
 1503 0008 2568     		ldr	r5, [r4]
 1504              	.LVL78:
 758:Drivers/STM32WBxx_HAL_Driver/Src/stm32wbxx_hal_dma.c ****   {
 1505              		.loc 1 758 3 is_stmt 1 view .LVU552
 758:Drivers/STM32WBxx_HAL_Driver/Src/stm32wbxx_hal_dma.c ****   {
 1506              		.loc 1 758 41 is_stmt 0 view .LVU553
 1507 000a 436C     		ldr	r3, [r0, #68]
 758:Drivers/STM32WBxx_HAL_Driver/Src/stm32wbxx_hal_dma.c ****   {
 1508              		.loc 1 758 56 view .LVU554
 1509 000c 03F01C03 		and	r3, r3, #28
 758:Drivers/STM32WBxx_HAL_Driver/Src/stm32wbxx_hal_dma.c ****   {
ARM GAS  /var/folders/lt/l_qrc8c54t93n_phsj7cf5tc0000gn/T//cc1tXrem.s 			page 55


 1510              		.loc 1 758 33 view .LVU555
 1511 0010 0422     		movs	r2, #4
 1512 0012 9A40     		lsls	r2, r2, r3
 758:Drivers/STM32WBxx_HAL_Driver/Src/stm32wbxx_hal_dma.c ****   {
 1513              		.loc 1 758 6 view .LVU556
 1514 0014 0A42     		tst	r2, r1
 1515 0016 15D0     		beq	.L90
 758:Drivers/STM32WBxx_HAL_Driver/Src/stm32wbxx_hal_dma.c ****   {
 1516              		.loc 1 758 74 discriminator 1 view .LVU557
 1517 0018 15F0040F 		tst	r5, #4
 1518 001c 12D0     		beq	.L90
 761:Drivers/STM32WBxx_HAL_Driver/Src/stm32wbxx_hal_dma.c ****     {
 1519              		.loc 1 761 5 is_stmt 1 view .LVU558
 761:Drivers/STM32WBxx_HAL_Driver/Src/stm32wbxx_hal_dma.c ****     {
 1520              		.loc 1 761 24 is_stmt 0 view .LVU559
 1521 001e 2368     		ldr	r3, [r4]
 761:Drivers/STM32WBxx_HAL_Driver/Src/stm32wbxx_hal_dma.c ****     {
 1522              		.loc 1 761 8 view .LVU560
 1523 0020 13F0200F 		tst	r3, #32
 1524 0024 03D1     		bne	.L91
 764:Drivers/STM32WBxx_HAL_Driver/Src/stm32wbxx_hal_dma.c ****     }
 1525              		.loc 1 764 7 is_stmt 1 view .LVU561
 1526 0026 2368     		ldr	r3, [r4]
 1527 0028 23F00403 		bic	r3, r3, #4
 1528 002c 2360     		str	r3, [r4]
 1529              	.L91:
 767:Drivers/STM32WBxx_HAL_Driver/Src/stm32wbxx_hal_dma.c **** 
 1530              		.loc 1 767 5 view .LVU562
 767:Drivers/STM32WBxx_HAL_Driver/Src/stm32wbxx_hal_dma.c **** 
 1531              		.loc 1 767 57 is_stmt 0 view .LVU563
 1532 002e 436C     		ldr	r3, [r0, #68]
 767:Drivers/STM32WBxx_HAL_Driver/Src/stm32wbxx_hal_dma.c **** 
 1533              		.loc 1 767 72 view .LVU564
 1534 0030 03F01C02 		and	r2, r3, #28
 767:Drivers/STM32WBxx_HAL_Driver/Src/stm32wbxx_hal_dma.c **** 
 1535              		.loc 1 767 9 view .LVU565
 1536 0034 016C     		ldr	r1, [r0, #64]
 1537              	.LVL79:
 767:Drivers/STM32WBxx_HAL_Driver/Src/stm32wbxx_hal_dma.c **** 
 1538              		.loc 1 767 49 view .LVU566
 1539 0036 0423     		movs	r3, #4
 1540 0038 9340     		lsls	r3, r3, r2
 767:Drivers/STM32WBxx_HAL_Driver/Src/stm32wbxx_hal_dma.c **** 
 1541              		.loc 1 767 32 view .LVU567
 1542 003a 4B60     		str	r3, [r1, #4]
 772:Drivers/STM32WBxx_HAL_Driver/Src/stm32wbxx_hal_dma.c ****     {
 1543              		.loc 1 772 5 is_stmt 1 view .LVU568
 772:Drivers/STM32WBxx_HAL_Driver/Src/stm32wbxx_hal_dma.c ****     {
 1544              		.loc 1 772 13 is_stmt 0 view .LVU569
 1545 003c 036B     		ldr	r3, [r0, #48]
 772:Drivers/STM32WBxx_HAL_Driver/Src/stm32wbxx_hal_dma.c ****     {
 1546              		.loc 1 772 8 view .LVU570
 1547 003e 03B1     		cbz	r3, .L89
 775:Drivers/STM32WBxx_HAL_Driver/Src/stm32wbxx_hal_dma.c ****     }
 1548              		.loc 1 775 7 is_stmt 1 view .LVU571
 1549 0040 9847     		blx	r3
 1550              	.LVL80:
ARM GAS  /var/folders/lt/l_qrc8c54t93n_phsj7cf5tc0000gn/T//cc1tXrem.s 			page 56


 1551              	.L89:
 834:Drivers/STM32WBxx_HAL_Driver/Src/stm32wbxx_hal_dma.c **** 
 1552              		.loc 1 834 1 is_stmt 0 view .LVU572
 1553 0042 38BD     		pop	{r3, r4, r5, pc}
 1554              	.LVL81:
 1555              	.L90:
 780:Drivers/STM32WBxx_HAL_Driver/Src/stm32wbxx_hal_dma.c ****   {
 1556              		.loc 1 780 8 is_stmt 1 view .LVU573
 780:Drivers/STM32WBxx_HAL_Driver/Src/stm32wbxx_hal_dma.c ****   {
 1557              		.loc 1 780 38 is_stmt 0 view .LVU574
 1558 0044 0222     		movs	r2, #2
 1559 0046 9A40     		lsls	r2, r2, r3
 780:Drivers/STM32WBxx_HAL_Driver/Src/stm32wbxx_hal_dma.c ****   {
 1560              		.loc 1 780 11 view .LVU575
 1561 0048 0A42     		tst	r2, r1
 1562 004a 1CD0     		beq	.L93
 780:Drivers/STM32WBxx_HAL_Driver/Src/stm32wbxx_hal_dma.c ****   {
 1563              		.loc 1 780 79 discriminator 1 view .LVU576
 1564 004c 15F0020F 		tst	r5, #2
 1565 0050 19D0     		beq	.L93
 782:Drivers/STM32WBxx_HAL_Driver/Src/stm32wbxx_hal_dma.c ****     {
 1566              		.loc 1 782 5 is_stmt 1 view .LVU577
 782:Drivers/STM32WBxx_HAL_Driver/Src/stm32wbxx_hal_dma.c ****     {
 1567              		.loc 1 782 24 is_stmt 0 view .LVU578
 1568 0052 2368     		ldr	r3, [r4]
 782:Drivers/STM32WBxx_HAL_Driver/Src/stm32wbxx_hal_dma.c ****     {
 1569              		.loc 1 782 8 view .LVU579
 1570 0054 13F0200F 		tst	r3, #32
 1571 0058 06D1     		bne	.L94
 785:Drivers/STM32WBxx_HAL_Driver/Src/stm32wbxx_hal_dma.c **** 
 1572              		.loc 1 785 7 is_stmt 1 view .LVU580
 1573 005a 2368     		ldr	r3, [r4]
 1574 005c 23F00A03 		bic	r3, r3, #10
 1575 0060 2360     		str	r3, [r4]
 788:Drivers/STM32WBxx_HAL_Driver/Src/stm32wbxx_hal_dma.c ****     }
 1576              		.loc 1 788 7 view .LVU581
 788:Drivers/STM32WBxx_HAL_Driver/Src/stm32wbxx_hal_dma.c ****     }
 1577              		.loc 1 788 19 is_stmt 0 view .LVU582
 1578 0062 0123     		movs	r3, #1
 1579 0064 80F82530 		strb	r3, [r0, #37]
 1580              	.L94:
 791:Drivers/STM32WBxx_HAL_Driver/Src/stm32wbxx_hal_dma.c **** 
 1581              		.loc 1 791 5 is_stmt 1 view .LVU583
 791:Drivers/STM32WBxx_HAL_Driver/Src/stm32wbxx_hal_dma.c **** 
 1582              		.loc 1 791 57 is_stmt 0 view .LVU584
 1583 0068 436C     		ldr	r3, [r0, #68]
 791:Drivers/STM32WBxx_HAL_Driver/Src/stm32wbxx_hal_dma.c **** 
 1584              		.loc 1 791 72 view .LVU585
 1585 006a 03F01C02 		and	r2, r3, #28
 791:Drivers/STM32WBxx_HAL_Driver/Src/stm32wbxx_hal_dma.c **** 
 1586              		.loc 1 791 9 view .LVU586
 1587 006e 016C     		ldr	r1, [r0, #64]
 1588              	.LVL82:
 791:Drivers/STM32WBxx_HAL_Driver/Src/stm32wbxx_hal_dma.c **** 
 1589              		.loc 1 791 49 view .LVU587
 1590 0070 0223     		movs	r3, #2
 1591 0072 9340     		lsls	r3, r3, r2
ARM GAS  /var/folders/lt/l_qrc8c54t93n_phsj7cf5tc0000gn/T//cc1tXrem.s 			page 57


 791:Drivers/STM32WBxx_HAL_Driver/Src/stm32wbxx_hal_dma.c **** 
 1592              		.loc 1 791 32 view .LVU588
 1593 0074 4B60     		str	r3, [r1, #4]
 794:Drivers/STM32WBxx_HAL_Driver/Src/stm32wbxx_hal_dma.c **** 
 1594              		.loc 1 794 5 is_stmt 1 view .LVU589
 794:Drivers/STM32WBxx_HAL_Driver/Src/stm32wbxx_hal_dma.c **** 
 1595              		.loc 1 794 5 view .LVU590
 1596 0076 0023     		movs	r3, #0
 1597 0078 80F82430 		strb	r3, [r0, #36]
 794:Drivers/STM32WBxx_HAL_Driver/Src/stm32wbxx_hal_dma.c **** 
 1598              		.loc 1 794 5 view .LVU591
 796:Drivers/STM32WBxx_HAL_Driver/Src/stm32wbxx_hal_dma.c ****     {
 1599              		.loc 1 796 5 view .LVU592
 796:Drivers/STM32WBxx_HAL_Driver/Src/stm32wbxx_hal_dma.c ****     {
 1600              		.loc 1 796 13 is_stmt 0 view .LVU593
 1601 007c C36A     		ldr	r3, [r0, #44]
 796:Drivers/STM32WBxx_HAL_Driver/Src/stm32wbxx_hal_dma.c ****     {
 1602              		.loc 1 796 8 view .LVU594
 1603 007e 002B     		cmp	r3, #0
 1604 0080 DFD0     		beq	.L89
 799:Drivers/STM32WBxx_HAL_Driver/Src/stm32wbxx_hal_dma.c ****     }
 1605              		.loc 1 799 7 is_stmt 1 view .LVU595
 1606 0082 9847     		blx	r3
 1607              	.LVL83:
 799:Drivers/STM32WBxx_HAL_Driver/Src/stm32wbxx_hal_dma.c ****     }
 1608              		.loc 1 799 7 is_stmt 0 view .LVU596
 1609 0084 DDE7     		b	.L89
 1610              	.LVL84:
 1611              	.L93:
 804:Drivers/STM32WBxx_HAL_Driver/Src/stm32wbxx_hal_dma.c ****   {
 1612              		.loc 1 804 8 is_stmt 1 view .LVU597
 804:Drivers/STM32WBxx_HAL_Driver/Src/stm32wbxx_hal_dma.c ****   {
 1613              		.loc 1 804 38 is_stmt 0 view .LVU598
 1614 0086 0822     		movs	r2, #8
 1615 0088 02FA03F3 		lsl	r3, r2, r3
 804:Drivers/STM32WBxx_HAL_Driver/Src/stm32wbxx_hal_dma.c ****   {
 1616              		.loc 1 804 11 view .LVU599
 1617 008c 0B42     		tst	r3, r1
 1618 008e D8D0     		beq	.L89
 804:Drivers/STM32WBxx_HAL_Driver/Src/stm32wbxx_hal_dma.c ****   {
 1619              		.loc 1 804 78 discriminator 1 view .LVU600
 1620 0090 15F0080F 		tst	r5, #8
 1621 0094 D5D0     		beq	.L89
 809:Drivers/STM32WBxx_HAL_Driver/Src/stm32wbxx_hal_dma.c **** 
 1622              		.loc 1 809 5 is_stmt 1 view .LVU601
 1623 0096 2368     		ldr	r3, [r4]
 1624 0098 23F00E03 		bic	r3, r3, #14
 1625 009c 2360     		str	r3, [r4]
 812:Drivers/STM32WBxx_HAL_Driver/Src/stm32wbxx_hal_dma.c **** 
 1626              		.loc 1 812 5 view .LVU602
 812:Drivers/STM32WBxx_HAL_Driver/Src/stm32wbxx_hal_dma.c **** 
 1627              		.loc 1 812 56 is_stmt 0 view .LVU603
 1628 009e 436C     		ldr	r3, [r0, #68]
 812:Drivers/STM32WBxx_HAL_Driver/Src/stm32wbxx_hal_dma.c **** 
 1629              		.loc 1 812 71 view .LVU604
 1630 00a0 03F01C03 		and	r3, r3, #28
 812:Drivers/STM32WBxx_HAL_Driver/Src/stm32wbxx_hal_dma.c **** 
ARM GAS  /var/folders/lt/l_qrc8c54t93n_phsj7cf5tc0000gn/T//cc1tXrem.s 			page 58


 1631              		.loc 1 812 9 view .LVU605
 1632 00a4 016C     		ldr	r1, [r0, #64]
 1633              	.LVL85:
 812:Drivers/STM32WBxx_HAL_Driver/Src/stm32wbxx_hal_dma.c **** 
 1634              		.loc 1 812 48 view .LVU606
 1635 00a6 0122     		movs	r2, #1
 1636 00a8 02FA03F3 		lsl	r3, r2, r3
 812:Drivers/STM32WBxx_HAL_Driver/Src/stm32wbxx_hal_dma.c **** 
 1637              		.loc 1 812 32 view .LVU607
 1638 00ac 4B60     		str	r3, [r1, #4]
 815:Drivers/STM32WBxx_HAL_Driver/Src/stm32wbxx_hal_dma.c **** 
 1639              		.loc 1 815 5 is_stmt 1 view .LVU608
 815:Drivers/STM32WBxx_HAL_Driver/Src/stm32wbxx_hal_dma.c **** 
 1640              		.loc 1 815 21 is_stmt 0 view .LVU609
 1641 00ae C263     		str	r2, [r0, #60]
 818:Drivers/STM32WBxx_HAL_Driver/Src/stm32wbxx_hal_dma.c **** 
 1642              		.loc 1 818 5 is_stmt 1 view .LVU610
 818:Drivers/STM32WBxx_HAL_Driver/Src/stm32wbxx_hal_dma.c **** 
 1643              		.loc 1 818 17 is_stmt 0 view .LVU611
 1644 00b0 80F82520 		strb	r2, [r0, #37]
 821:Drivers/STM32WBxx_HAL_Driver/Src/stm32wbxx_hal_dma.c **** 
 1645              		.loc 1 821 5 is_stmt 1 view .LVU612
 821:Drivers/STM32WBxx_HAL_Driver/Src/stm32wbxx_hal_dma.c **** 
 1646              		.loc 1 821 5 view .LVU613
 1647 00b4 0023     		movs	r3, #0
 1648 00b6 80F82430 		strb	r3, [r0, #36]
 821:Drivers/STM32WBxx_HAL_Driver/Src/stm32wbxx_hal_dma.c **** 
 1649              		.loc 1 821 5 view .LVU614
 823:Drivers/STM32WBxx_HAL_Driver/Src/stm32wbxx_hal_dma.c ****     {
 1650              		.loc 1 823 5 view .LVU615
 823:Drivers/STM32WBxx_HAL_Driver/Src/stm32wbxx_hal_dma.c ****     {
 1651              		.loc 1 823 13 is_stmt 0 view .LVU616
 1652 00ba 436B     		ldr	r3, [r0, #52]
 823:Drivers/STM32WBxx_HAL_Driver/Src/stm32wbxx_hal_dma.c ****     {
 1653              		.loc 1 823 8 view .LVU617
 1654 00bc 002B     		cmp	r3, #0
 1655 00be C0D0     		beq	.L89
 826:Drivers/STM32WBxx_HAL_Driver/Src/stm32wbxx_hal_dma.c ****     }
 1656              		.loc 1 826 7 is_stmt 1 view .LVU618
 1657 00c0 9847     		blx	r3
 1658              	.LVL86:
 832:Drivers/STM32WBxx_HAL_Driver/Src/stm32wbxx_hal_dma.c ****   return;
 1659              		.loc 1 832 3 view .LVU619
 833:Drivers/STM32WBxx_HAL_Driver/Src/stm32wbxx_hal_dma.c **** }
 1660              		.loc 1 833 3 view .LVU620
 1661 00c2 BEE7     		b	.L89
 1662              		.cfi_endproc
 1663              	.LFE1111:
 1665              		.section	.text.HAL_DMA_RegisterCallback,"ax",%progbits
 1666              		.align	1
 1667              		.global	HAL_DMA_RegisterCallback
 1668              		.syntax unified
 1669              		.thumb
 1670              		.thumb_func
 1671              		.fpu fpv4-sp-d16
 1673              	HAL_DMA_RegisterCallback:
 1674              	.LVL87:
ARM GAS  /var/folders/lt/l_qrc8c54t93n_phsj7cf5tc0000gn/T//cc1tXrem.s 			page 59


 1675              	.LFB1112:
 847:Drivers/STM32WBxx_HAL_Driver/Src/stm32wbxx_hal_dma.c ****   HAL_StatusTypeDef status = HAL_OK;
 1676              		.loc 1 847 1 view -0
 1677              		.cfi_startproc
 1678              		@ args = 0, pretend = 0, frame = 0
 1679              		@ frame_needed = 0, uses_anonymous_args = 0
 1680              		@ link register save eliminated.
 847:Drivers/STM32WBxx_HAL_Driver/Src/stm32wbxx_hal_dma.c ****   HAL_StatusTypeDef status = HAL_OK;
 1681              		.loc 1 847 1 is_stmt 0 view .LVU622
 1682 0000 0346     		mov	r3, r0
 848:Drivers/STM32WBxx_HAL_Driver/Src/stm32wbxx_hal_dma.c **** 
 1683              		.loc 1 848 3 is_stmt 1 view .LVU623
 1684              	.LVL88:
 851:Drivers/STM32WBxx_HAL_Driver/Src/stm32wbxx_hal_dma.c **** 
 1685              		.loc 1 851 3 view .LVU624
 851:Drivers/STM32WBxx_HAL_Driver/Src/stm32wbxx_hal_dma.c **** 
 1686              		.loc 1 851 3 view .LVU625
 1687 0002 90F82400 		ldrb	r0, [r0, #36]	@ zero_extendqisi2
 1688              	.LVL89:
 851:Drivers/STM32WBxx_HAL_Driver/Src/stm32wbxx_hal_dma.c **** 
 1689              		.loc 1 851 3 is_stmt 0 view .LVU626
 1690 0006 0128     		cmp	r0, #1
 1691 0008 1BD0     		beq	.L104
 851:Drivers/STM32WBxx_HAL_Driver/Src/stm32wbxx_hal_dma.c **** 
 1692              		.loc 1 851 3 is_stmt 1 discriminator 2 view .LVU627
 851:Drivers/STM32WBxx_HAL_Driver/Src/stm32wbxx_hal_dma.c **** 
 1693              		.loc 1 851 3 discriminator 2 view .LVU628
 853:Drivers/STM32WBxx_HAL_Driver/Src/stm32wbxx_hal_dma.c ****   {
 1694              		.loc 1 853 3 discriminator 2 view .LVU629
 853:Drivers/STM32WBxx_HAL_Driver/Src/stm32wbxx_hal_dma.c ****   {
 1695              		.loc 1 853 34 is_stmt 0 discriminator 2 view .LVU630
 1696 000a 93F82500 		ldrb	r0, [r3, #37]	@ zero_extendqisi2
 1697 000e C0B2     		uxtb	r0, r0
 853:Drivers/STM32WBxx_HAL_Driver/Src/stm32wbxx_hal_dma.c ****   {
 1698              		.loc 1 853 6 discriminator 2 view .LVU631
 1699 0010 0128     		cmp	r0, #1
 1700 0012 04D0     		beq	.L106
 880:Drivers/STM32WBxx_HAL_Driver/Src/stm32wbxx_hal_dma.c ****   }
 1701              		.loc 1 880 12 view .LVU632
 1702 0014 0120     		movs	r0, #1
 1703              	.L98:
 1704              	.LVL90:
 884:Drivers/STM32WBxx_HAL_Driver/Src/stm32wbxx_hal_dma.c **** 
 1705              		.loc 1 884 3 is_stmt 1 view .LVU633
 884:Drivers/STM32WBxx_HAL_Driver/Src/stm32wbxx_hal_dma.c **** 
 1706              		.loc 1 884 3 view .LVU634
 1707 0016 0022     		movs	r2, #0
 1708              	.LVL91:
 884:Drivers/STM32WBxx_HAL_Driver/Src/stm32wbxx_hal_dma.c **** 
 1709              		.loc 1 884 3 is_stmt 0 view .LVU635
 1710 0018 83F82420 		strb	r2, [r3, #36]
 884:Drivers/STM32WBxx_HAL_Driver/Src/stm32wbxx_hal_dma.c **** 
 1711              		.loc 1 884 3 is_stmt 1 view .LVU636
 886:Drivers/STM32WBxx_HAL_Driver/Src/stm32wbxx_hal_dma.c **** }
 1712              		.loc 1 886 3 view .LVU637
 886:Drivers/STM32WBxx_HAL_Driver/Src/stm32wbxx_hal_dma.c **** }
 1713              		.loc 1 886 10 is_stmt 0 view .LVU638
ARM GAS  /var/folders/lt/l_qrc8c54t93n_phsj7cf5tc0000gn/T//cc1tXrem.s 			page 60


 1714 001c 7047     		bx	lr
 1715              	.LVL92:
 1716              	.L106:
 855:Drivers/STM32WBxx_HAL_Driver/Src/stm32wbxx_hal_dma.c ****     {
 1717              		.loc 1 855 5 is_stmt 1 view .LVU639
 1718 001e 0329     		cmp	r1, #3
 1719 0020 F9D8     		bhi	.L98
 1720 0022 DFE801F0 		tbb	[pc, r1]
 1721              	.L100:
 1722 0026 02       		.byte	(.L103-.L100)/2
 1723 0027 05       		.byte	(.L102-.L100)/2
 1724 0028 08       		.byte	(.L101-.L100)/2
 1725 0029 0B       		.byte	(.L99-.L100)/2
 1726              		.p2align 1
 1727              	.L103:
 858:Drivers/STM32WBxx_HAL_Driver/Src/stm32wbxx_hal_dma.c ****         break;
 1728              		.loc 1 858 9 view .LVU640
 858:Drivers/STM32WBxx_HAL_Driver/Src/stm32wbxx_hal_dma.c ****         break;
 1729              		.loc 1 858 32 is_stmt 0 view .LVU641
 1730 002a DA62     		str	r2, [r3, #44]
 859:Drivers/STM32WBxx_HAL_Driver/Src/stm32wbxx_hal_dma.c **** 
 1731              		.loc 1 859 9 is_stmt 1 view .LVU642
 848:Drivers/STM32WBxx_HAL_Driver/Src/stm32wbxx_hal_dma.c **** 
 1732              		.loc 1 848 21 is_stmt 0 view .LVU643
 1733 002c 0846     		mov	r0, r1
 859:Drivers/STM32WBxx_HAL_Driver/Src/stm32wbxx_hal_dma.c **** 
 1734              		.loc 1 859 9 view .LVU644
 1735 002e F2E7     		b	.L98
 1736              	.L102:
 862:Drivers/STM32WBxx_HAL_Driver/Src/stm32wbxx_hal_dma.c ****         break;
 1737              		.loc 1 862 9 is_stmt 1 view .LVU645
 862:Drivers/STM32WBxx_HAL_Driver/Src/stm32wbxx_hal_dma.c ****         break;
 1738              		.loc 1 862 36 is_stmt 0 view .LVU646
 1739 0030 1A63     		str	r2, [r3, #48]
 863:Drivers/STM32WBxx_HAL_Driver/Src/stm32wbxx_hal_dma.c **** 
 1740              		.loc 1 863 9 is_stmt 1 view .LVU647
 848:Drivers/STM32WBxx_HAL_Driver/Src/stm32wbxx_hal_dma.c **** 
 1741              		.loc 1 848 21 is_stmt 0 view .LVU648
 1742 0032 0020     		movs	r0, #0
 863:Drivers/STM32WBxx_HAL_Driver/Src/stm32wbxx_hal_dma.c **** 
 1743              		.loc 1 863 9 view .LVU649
 1744 0034 EFE7     		b	.L98
 1745              	.L101:
 866:Drivers/STM32WBxx_HAL_Driver/Src/stm32wbxx_hal_dma.c ****         break;
 1746              		.loc 1 866 9 is_stmt 1 view .LVU650
 866:Drivers/STM32WBxx_HAL_Driver/Src/stm32wbxx_hal_dma.c ****         break;
 1747              		.loc 1 866 33 is_stmt 0 view .LVU651
 1748 0036 5A63     		str	r2, [r3, #52]
 867:Drivers/STM32WBxx_HAL_Driver/Src/stm32wbxx_hal_dma.c **** 
 1749              		.loc 1 867 9 is_stmt 1 view .LVU652
 848:Drivers/STM32WBxx_HAL_Driver/Src/stm32wbxx_hal_dma.c **** 
 1750              		.loc 1 848 21 is_stmt 0 view .LVU653
 1751 0038 0020     		movs	r0, #0
 867:Drivers/STM32WBxx_HAL_Driver/Src/stm32wbxx_hal_dma.c **** 
 1752              		.loc 1 867 9 view .LVU654
 1753 003a ECE7     		b	.L98
 1754              	.L99:
ARM GAS  /var/folders/lt/l_qrc8c54t93n_phsj7cf5tc0000gn/T//cc1tXrem.s 			page 61


 870:Drivers/STM32WBxx_HAL_Driver/Src/stm32wbxx_hal_dma.c ****         break;
 1755              		.loc 1 870 9 is_stmt 1 view .LVU655
 870:Drivers/STM32WBxx_HAL_Driver/Src/stm32wbxx_hal_dma.c ****         break;
 1756              		.loc 1 870 33 is_stmt 0 view .LVU656
 1757 003c 9A63     		str	r2, [r3, #56]
 871:Drivers/STM32WBxx_HAL_Driver/Src/stm32wbxx_hal_dma.c **** 
 1758              		.loc 1 871 9 is_stmt 1 view .LVU657
 848:Drivers/STM32WBxx_HAL_Driver/Src/stm32wbxx_hal_dma.c **** 
 1759              		.loc 1 848 21 is_stmt 0 view .LVU658
 1760 003e 0020     		movs	r0, #0
 871:Drivers/STM32WBxx_HAL_Driver/Src/stm32wbxx_hal_dma.c **** 
 1761              		.loc 1 871 9 view .LVU659
 1762 0040 E9E7     		b	.L98
 1763              	.L104:
 851:Drivers/STM32WBxx_HAL_Driver/Src/stm32wbxx_hal_dma.c **** 
 1764              		.loc 1 851 3 view .LVU660
 1765 0042 0220     		movs	r0, #2
 887:Drivers/STM32WBxx_HAL_Driver/Src/stm32wbxx_hal_dma.c **** 
 1766              		.loc 1 887 1 view .LVU661
 1767 0044 7047     		bx	lr
 1768              		.cfi_endproc
 1769              	.LFE1112:
 1771              		.section	.text.HAL_DMA_UnRegisterCallback,"ax",%progbits
 1772              		.align	1
 1773              		.global	HAL_DMA_UnRegisterCallback
 1774              		.syntax unified
 1775              		.thumb
 1776              		.thumb_func
 1777              		.fpu fpv4-sp-d16
 1779              	HAL_DMA_UnRegisterCallback:
 1780              	.LVL93:
 1781              	.LFB1113:
 898:Drivers/STM32WBxx_HAL_Driver/Src/stm32wbxx_hal_dma.c ****   HAL_StatusTypeDef status = HAL_OK;
 1782              		.loc 1 898 1 is_stmt 1 view -0
 1783              		.cfi_startproc
 1784              		@ args = 0, pretend = 0, frame = 0
 1785              		@ frame_needed = 0, uses_anonymous_args = 0
 1786              		@ link register save eliminated.
 898:Drivers/STM32WBxx_HAL_Driver/Src/stm32wbxx_hal_dma.c ****   HAL_StatusTypeDef status = HAL_OK;
 1787              		.loc 1 898 1 is_stmt 0 view .LVU663
 1788 0000 0346     		mov	r3, r0
 899:Drivers/STM32WBxx_HAL_Driver/Src/stm32wbxx_hal_dma.c **** 
 1789              		.loc 1 899 3 is_stmt 1 view .LVU664
 1790              	.LVL94:
 902:Drivers/STM32WBxx_HAL_Driver/Src/stm32wbxx_hal_dma.c **** 
 1791              		.loc 1 902 3 view .LVU665
 902:Drivers/STM32WBxx_HAL_Driver/Src/stm32wbxx_hal_dma.c **** 
 1792              		.loc 1 902 3 view .LVU666
 1793 0002 90F82420 		ldrb	r2, [r0, #36]	@ zero_extendqisi2
 1794 0006 012A     		cmp	r2, #1
 1795 0008 26D0     		beq	.L116
 902:Drivers/STM32WBxx_HAL_Driver/Src/stm32wbxx_hal_dma.c **** 
 1796              		.loc 1 902 3 discriminator 2 view .LVU667
 1797 000a 0122     		movs	r2, #1
 1798 000c 80F82420 		strb	r2, [r0, #36]
 902:Drivers/STM32WBxx_HAL_Driver/Src/stm32wbxx_hal_dma.c **** 
 1799              		.loc 1 902 3 discriminator 2 view .LVU668
ARM GAS  /var/folders/lt/l_qrc8c54t93n_phsj7cf5tc0000gn/T//cc1tXrem.s 			page 62


 904:Drivers/STM32WBxx_HAL_Driver/Src/stm32wbxx_hal_dma.c ****   {
 1800              		.loc 1 904 3 discriminator 2 view .LVU669
 904:Drivers/STM32WBxx_HAL_Driver/Src/stm32wbxx_hal_dma.c ****   {
 1801              		.loc 1 904 34 is_stmt 0 discriminator 2 view .LVU670
 1802 0010 90F82500 		ldrb	r0, [r0, #37]	@ zero_extendqisi2
 1803              	.LVL95:
 904:Drivers/STM32WBxx_HAL_Driver/Src/stm32wbxx_hal_dma.c ****   {
 1804              		.loc 1 904 34 discriminator 2 view .LVU671
 1805 0014 C0B2     		uxtb	r0, r0
 904:Drivers/STM32WBxx_HAL_Driver/Src/stm32wbxx_hal_dma.c ****   {
 1806              		.loc 1 904 6 discriminator 2 view .LVU672
 1807 0016 9042     		cmp	r0, r2
 1808 0018 04D0     		beq	.L118
 938:Drivers/STM32WBxx_HAL_Driver/Src/stm32wbxx_hal_dma.c ****   }
 1809              		.loc 1 938 12 view .LVU673
 1810 001a 0120     		movs	r0, #1
 1811              	.L109:
 1812              	.LVL96:
 942:Drivers/STM32WBxx_HAL_Driver/Src/stm32wbxx_hal_dma.c **** 
 1813              		.loc 1 942 3 is_stmt 1 view .LVU674
 942:Drivers/STM32WBxx_HAL_Driver/Src/stm32wbxx_hal_dma.c **** 
 1814              		.loc 1 942 3 view .LVU675
 1815 001c 0022     		movs	r2, #0
 1816 001e 83F82420 		strb	r2, [r3, #36]
 942:Drivers/STM32WBxx_HAL_Driver/Src/stm32wbxx_hal_dma.c **** 
 1817              		.loc 1 942 3 view .LVU676
 944:Drivers/STM32WBxx_HAL_Driver/Src/stm32wbxx_hal_dma.c **** }
 1818              		.loc 1 944 3 view .LVU677
 944:Drivers/STM32WBxx_HAL_Driver/Src/stm32wbxx_hal_dma.c **** }
 1819              		.loc 1 944 10 is_stmt 0 view .LVU678
 1820 0022 7047     		bx	lr
 1821              	.LVL97:
 1822              	.L118:
 906:Drivers/STM32WBxx_HAL_Driver/Src/stm32wbxx_hal_dma.c ****     {
 1823              		.loc 1 906 5 is_stmt 1 view .LVU679
 1824 0024 0429     		cmp	r1, #4
 1825 0026 F9D8     		bhi	.L109
 1826 0028 DFE801F0 		tbb	[pc, r1]
 1827              	.L111:
 1828 002c 03       		.byte	(.L115-.L111)/2
 1829 002d 07       		.byte	(.L114-.L111)/2
 1830 002e 0A       		.byte	(.L113-.L111)/2
 1831 002f 0D       		.byte	(.L112-.L111)/2
 1832 0030 10       		.byte	(.L110-.L111)/2
 1833 0031 00       		.p2align 1
 1834              	.L115:
 909:Drivers/STM32WBxx_HAL_Driver/Src/stm32wbxx_hal_dma.c ****         break;
 1835              		.loc 1 909 9 view .LVU680
 909:Drivers/STM32WBxx_HAL_Driver/Src/stm32wbxx_hal_dma.c ****         break;
 1836              		.loc 1 909 32 is_stmt 0 view .LVU681
 1837 0032 0022     		movs	r2, #0
 1838 0034 DA62     		str	r2, [r3, #44]
 910:Drivers/STM32WBxx_HAL_Driver/Src/stm32wbxx_hal_dma.c **** 
 1839              		.loc 1 910 9 is_stmt 1 view .LVU682
 899:Drivers/STM32WBxx_HAL_Driver/Src/stm32wbxx_hal_dma.c **** 
 1840              		.loc 1 899 21 is_stmt 0 view .LVU683
 1841 0036 0846     		mov	r0, r1
ARM GAS  /var/folders/lt/l_qrc8c54t93n_phsj7cf5tc0000gn/T//cc1tXrem.s 			page 63


 910:Drivers/STM32WBxx_HAL_Driver/Src/stm32wbxx_hal_dma.c **** 
 1842              		.loc 1 910 9 view .LVU684
 1843 0038 F0E7     		b	.L109
 1844              	.L114:
 913:Drivers/STM32WBxx_HAL_Driver/Src/stm32wbxx_hal_dma.c ****         break;
 1845              		.loc 1 913 9 is_stmt 1 view .LVU685
 913:Drivers/STM32WBxx_HAL_Driver/Src/stm32wbxx_hal_dma.c ****         break;
 1846              		.loc 1 913 36 is_stmt 0 view .LVU686
 1847 003a 0020     		movs	r0, #0
 1848 003c 1863     		str	r0, [r3, #48]
 914:Drivers/STM32WBxx_HAL_Driver/Src/stm32wbxx_hal_dma.c **** 
 1849              		.loc 1 914 9 is_stmt 1 view .LVU687
 1850 003e EDE7     		b	.L109
 1851              	.L113:
 917:Drivers/STM32WBxx_HAL_Driver/Src/stm32wbxx_hal_dma.c ****         break;
 1852              		.loc 1 917 9 view .LVU688
 917:Drivers/STM32WBxx_HAL_Driver/Src/stm32wbxx_hal_dma.c ****         break;
 1853              		.loc 1 917 33 is_stmt 0 view .LVU689
 1854 0040 0020     		movs	r0, #0
 1855 0042 5863     		str	r0, [r3, #52]
 918:Drivers/STM32WBxx_HAL_Driver/Src/stm32wbxx_hal_dma.c **** 
 1856              		.loc 1 918 9 is_stmt 1 view .LVU690
 1857 0044 EAE7     		b	.L109
 1858              	.L112:
 921:Drivers/STM32WBxx_HAL_Driver/Src/stm32wbxx_hal_dma.c ****         break;
 1859              		.loc 1 921 9 view .LVU691
 921:Drivers/STM32WBxx_HAL_Driver/Src/stm32wbxx_hal_dma.c ****         break;
 1860              		.loc 1 921 33 is_stmt 0 view .LVU692
 1861 0046 0020     		movs	r0, #0
 1862 0048 9863     		str	r0, [r3, #56]
 922:Drivers/STM32WBxx_HAL_Driver/Src/stm32wbxx_hal_dma.c **** 
 1863              		.loc 1 922 9 is_stmt 1 view .LVU693
 1864 004a E7E7     		b	.L109
 1865              	.L110:
 925:Drivers/STM32WBxx_HAL_Driver/Src/stm32wbxx_hal_dma.c ****         hdma->XferHalfCpltCallback = NULL;
 1866              		.loc 1 925 9 view .LVU694
 925:Drivers/STM32WBxx_HAL_Driver/Src/stm32wbxx_hal_dma.c ****         hdma->XferHalfCpltCallback = NULL;
 1867              		.loc 1 925 32 is_stmt 0 view .LVU695
 1868 004c 0020     		movs	r0, #0
 1869 004e D862     		str	r0, [r3, #44]
 926:Drivers/STM32WBxx_HAL_Driver/Src/stm32wbxx_hal_dma.c ****         hdma->XferErrorCallback = NULL;
 1870              		.loc 1 926 9 is_stmt 1 view .LVU696
 926:Drivers/STM32WBxx_HAL_Driver/Src/stm32wbxx_hal_dma.c ****         hdma->XferErrorCallback = NULL;
 1871              		.loc 1 926 36 is_stmt 0 view .LVU697
 1872 0050 1863     		str	r0, [r3, #48]
 927:Drivers/STM32WBxx_HAL_Driver/Src/stm32wbxx_hal_dma.c ****         hdma->XferAbortCallback = NULL;
 1873              		.loc 1 927 9 is_stmt 1 view .LVU698
 927:Drivers/STM32WBxx_HAL_Driver/Src/stm32wbxx_hal_dma.c ****         hdma->XferAbortCallback = NULL;
 1874              		.loc 1 927 33 is_stmt 0 view .LVU699
 1875 0052 5863     		str	r0, [r3, #52]
 928:Drivers/STM32WBxx_HAL_Driver/Src/stm32wbxx_hal_dma.c ****         break;
 1876              		.loc 1 928 9 is_stmt 1 view .LVU700
 928:Drivers/STM32WBxx_HAL_Driver/Src/stm32wbxx_hal_dma.c ****         break;
 1877              		.loc 1 928 33 is_stmt 0 view .LVU701
 1878 0054 9863     		str	r0, [r3, #56]
 929:Drivers/STM32WBxx_HAL_Driver/Src/stm32wbxx_hal_dma.c **** 
 1879              		.loc 1 929 9 is_stmt 1 view .LVU702
ARM GAS  /var/folders/lt/l_qrc8c54t93n_phsj7cf5tc0000gn/T//cc1tXrem.s 			page 64


 1880 0056 E1E7     		b	.L109
 1881              	.LVL98:
 1882              	.L116:
 902:Drivers/STM32WBxx_HAL_Driver/Src/stm32wbxx_hal_dma.c **** 
 1883              		.loc 1 902 3 is_stmt 0 view .LVU703
 1884 0058 0220     		movs	r0, #2
 1885              	.LVL99:
 945:Drivers/STM32WBxx_HAL_Driver/Src/stm32wbxx_hal_dma.c **** 
 1886              		.loc 1 945 1 view .LVU704
 1887 005a 7047     		bx	lr
 1888              		.cfi_endproc
 1889              	.LFE1113:
 1891              		.section	.text.HAL_DMA_GetState,"ax",%progbits
 1892              		.align	1
 1893              		.global	HAL_DMA_GetState
 1894              		.syntax unified
 1895              		.thumb
 1896              		.thumb_func
 1897              		.fpu fpv4-sp-d16
 1899              	HAL_DMA_GetState:
 1900              	.LVL100:
 1901              	.LFB1114:
 976:Drivers/STM32WBxx_HAL_Driver/Src/stm32wbxx_hal_dma.c ****   /* Return DMA handle state */
 1902              		.loc 1 976 1 is_stmt 1 view -0
 1903              		.cfi_startproc
 1904              		@ args = 0, pretend = 0, frame = 0
 1905              		@ frame_needed = 0, uses_anonymous_args = 0
 1906              		@ link register save eliminated.
 978:Drivers/STM32WBxx_HAL_Driver/Src/stm32wbxx_hal_dma.c **** }
 1907              		.loc 1 978 3 view .LVU706
 978:Drivers/STM32WBxx_HAL_Driver/Src/stm32wbxx_hal_dma.c **** }
 1908              		.loc 1 978 14 is_stmt 0 view .LVU707
 1909 0000 90F82500 		ldrb	r0, [r0, #37]	@ zero_extendqisi2
 1910              	.LVL101:
 979:Drivers/STM32WBxx_HAL_Driver/Src/stm32wbxx_hal_dma.c **** 
 1911              		.loc 1 979 1 view .LVU708
 1912 0004 7047     		bx	lr
 1913              		.cfi_endproc
 1914              	.LFE1114:
 1916              		.section	.text.HAL_DMA_GetError,"ax",%progbits
 1917              		.align	1
 1918              		.global	HAL_DMA_GetError
 1919              		.syntax unified
 1920              		.thumb
 1921              		.thumb_func
 1922              		.fpu fpv4-sp-d16
 1924              	HAL_DMA_GetError:
 1925              	.LVL102:
 1926              	.LFB1115:
 988:Drivers/STM32WBxx_HAL_Driver/Src/stm32wbxx_hal_dma.c ****   return hdma->ErrorCode;
 1927              		.loc 1 988 1 is_stmt 1 view -0
 1928              		.cfi_startproc
 1929              		@ args = 0, pretend = 0, frame = 0
 1930              		@ frame_needed = 0, uses_anonymous_args = 0
 1931              		@ link register save eliminated.
 989:Drivers/STM32WBxx_HAL_Driver/Src/stm32wbxx_hal_dma.c **** }
 1932              		.loc 1 989 3 view .LVU710
ARM GAS  /var/folders/lt/l_qrc8c54t93n_phsj7cf5tc0000gn/T//cc1tXrem.s 			page 65


 989:Drivers/STM32WBxx_HAL_Driver/Src/stm32wbxx_hal_dma.c **** }
 1933              		.loc 1 989 14 is_stmt 0 view .LVU711
 1934 0000 C06B     		ldr	r0, [r0, #60]
 1935              	.LVL103:
 990:Drivers/STM32WBxx_HAL_Driver/Src/stm32wbxx_hal_dma.c **** 
 1936              		.loc 1 990 1 view .LVU712
 1937 0002 7047     		bx	lr
 1938              		.cfi_endproc
 1939              	.LFE1115:
 1941              		.text
 1942              	.Letext0:
 1943              		.file 2 "/usr/local/Cellar/arm-none-eabi-gcc/9-2019-q4-major/gcc/arm-none-eabi/include/machine/_de
 1944              		.file 3 "/usr/local/Cellar/arm-none-eabi-gcc/9-2019-q4-major/gcc/arm-none-eabi/include/sys/_stdint
 1945              		.file 4 "Drivers/CMSIS/Include/core_cm4.h"
 1946              		.file 5 "Drivers/CMSIS/Device/ST/STM32WBxx/Include/system_stm32wbxx.h"
 1947              		.file 6 "Drivers/CMSIS/Device/ST/STM32WBxx/Include/stm32wb55xx.h"
 1948              		.file 7 "Drivers/STM32WBxx_HAL_Driver/Inc/stm32wbxx_hal_def.h"
 1949              		.file 8 "Drivers/STM32WBxx_HAL_Driver/Inc/stm32wbxx_hal_dma.h"
 1950              		.file 9 "Drivers/STM32WBxx_HAL_Driver/Inc/stm32wbxx_hal_flash.h"
 1951              		.file 10 "Drivers/STM32WBxx_HAL_Driver/Inc/stm32wbxx_hal_uart.h"
 1952              		.file 11 "Drivers/STM32WBxx_HAL_Driver/Inc/stm32wbxx_hal.h"
ARM GAS  /var/folders/lt/l_qrc8c54t93n_phsj7cf5tc0000gn/T//cc1tXrem.s 			page 66


DEFINED SYMBOLS
                            *ABS*:0000000000000000 stm32wbxx_hal_dma.c
/var/folders/lt/l_qrc8c54t93n_phsj7cf5tc0000gn/T//cc1tXrem.s:18     .text.DMA_SetConfig:0000000000000000 $t
/var/folders/lt/l_qrc8c54t93n_phsj7cf5tc0000gn/T//cc1tXrem.s:25     .text.DMA_SetConfig:0000000000000000 DMA_SetConfig
/var/folders/lt/l_qrc8c54t93n_phsj7cf5tc0000gn/T//cc1tXrem.s:126    .text.DMA_CalcDMAMUXChannelBaseAndMask:0000000000000000 $t
/var/folders/lt/l_qrc8c54t93n_phsj7cf5tc0000gn/T//cc1tXrem.s:132    .text.DMA_CalcDMAMUXChannelBaseAndMask:0000000000000000 DMA_CalcDMAMUXChannelBaseAndMask
/var/folders/lt/l_qrc8c54t93n_phsj7cf5tc0000gn/T//cc1tXrem.s:196    .text.DMA_CalcDMAMUXChannelBaseAndMask:0000000000000044 $d
/var/folders/lt/l_qrc8c54t93n_phsj7cf5tc0000gn/T//cc1tXrem.s:204    .text.DMA_CalcDMAMUXRequestGenBaseAndMask:0000000000000000 $t
/var/folders/lt/l_qrc8c54t93n_phsj7cf5tc0000gn/T//cc1tXrem.s:210    .text.DMA_CalcDMAMUXRequestGenBaseAndMask:0000000000000000 DMA_CalcDMAMUXRequestGenBaseAndMask
/var/folders/lt/l_qrc8c54t93n_phsj7cf5tc0000gn/T//cc1tXrem.s:252    .text.DMA_CalcDMAMUXRequestGenBaseAndMask:0000000000000024 $d
/var/folders/lt/l_qrc8c54t93n_phsj7cf5tc0000gn/T//cc1tXrem.s:258    .text.HAL_DMA_Init:0000000000000000 $t
/var/folders/lt/l_qrc8c54t93n_phsj7cf5tc0000gn/T//cc1tXrem.s:265    .text.HAL_DMA_Init:0000000000000000 HAL_DMA_Init
/var/folders/lt/l_qrc8c54t93n_phsj7cf5tc0000gn/T//cc1tXrem.s:485    .text.HAL_DMA_Init:00000000000000c4 $d
/var/folders/lt/l_qrc8c54t93n_phsj7cf5tc0000gn/T//cc1tXrem.s:495    .text.HAL_DMA_DeInit:0000000000000000 $t
/var/folders/lt/l_qrc8c54t93n_phsj7cf5tc0000gn/T//cc1tXrem.s:502    .text.HAL_DMA_DeInit:0000000000000000 HAL_DMA_DeInit
/var/folders/lt/l_qrc8c54t93n_phsj7cf5tc0000gn/T//cc1tXrem.s:684    .text.HAL_DMA_DeInit:00000000000000a0 $d
/var/folders/lt/l_qrc8c54t93n_phsj7cf5tc0000gn/T//cc1tXrem.s:694    .text.HAL_DMA_Start:0000000000000000 $t
/var/folders/lt/l_qrc8c54t93n_phsj7cf5tc0000gn/T//cc1tXrem.s:701    .text.HAL_DMA_Start:0000000000000000 HAL_DMA_Start
/var/folders/lt/l_qrc8c54t93n_phsj7cf5tc0000gn/T//cc1tXrem.s:789    .text.HAL_DMA_Start_IT:0000000000000000 $t
/var/folders/lt/l_qrc8c54t93n_phsj7cf5tc0000gn/T//cc1tXrem.s:796    .text.HAL_DMA_Start_IT:0000000000000000 HAL_DMA_Start_IT
/var/folders/lt/l_qrc8c54t93n_phsj7cf5tc0000gn/T//cc1tXrem.s:932    .text.HAL_DMA_Abort:0000000000000000 $t
/var/folders/lt/l_qrc8c54t93n_phsj7cf5tc0000gn/T//cc1tXrem.s:939    .text.HAL_DMA_Abort:0000000000000000 HAL_DMA_Abort
/var/folders/lt/l_qrc8c54t93n_phsj7cf5tc0000gn/T//cc1tXrem.s:1054   .text.HAL_DMA_Abort_IT:0000000000000000 $t
/var/folders/lt/l_qrc8c54t93n_phsj7cf5tc0000gn/T//cc1tXrem.s:1061   .text.HAL_DMA_Abort_IT:0000000000000000 HAL_DMA_Abort_IT
/var/folders/lt/l_qrc8c54t93n_phsj7cf5tc0000gn/T//cc1tXrem.s:1183   .text.HAL_DMA_PollForTransfer:0000000000000000 $t
/var/folders/lt/l_qrc8c54t93n_phsj7cf5tc0000gn/T//cc1tXrem.s:1190   .text.HAL_DMA_PollForTransfer:0000000000000000 HAL_DMA_PollForTransfer
/var/folders/lt/l_qrc8c54t93n_phsj7cf5tc0000gn/T//cc1tXrem.s:1471   .text.HAL_DMA_IRQHandler:0000000000000000 $t
/var/folders/lt/l_qrc8c54t93n_phsj7cf5tc0000gn/T//cc1tXrem.s:1478   .text.HAL_DMA_IRQHandler:0000000000000000 HAL_DMA_IRQHandler
/var/folders/lt/l_qrc8c54t93n_phsj7cf5tc0000gn/T//cc1tXrem.s:1666   .text.HAL_DMA_RegisterCallback:0000000000000000 $t
/var/folders/lt/l_qrc8c54t93n_phsj7cf5tc0000gn/T//cc1tXrem.s:1673   .text.HAL_DMA_RegisterCallback:0000000000000000 HAL_DMA_RegisterCallback
/var/folders/lt/l_qrc8c54t93n_phsj7cf5tc0000gn/T//cc1tXrem.s:1722   .text.HAL_DMA_RegisterCallback:0000000000000026 $d
/var/folders/lt/l_qrc8c54t93n_phsj7cf5tc0000gn/T//cc1tXrem.s:1726   .text.HAL_DMA_RegisterCallback:000000000000002a $t
/var/folders/lt/l_qrc8c54t93n_phsj7cf5tc0000gn/T//cc1tXrem.s:1772   .text.HAL_DMA_UnRegisterCallback:0000000000000000 $t
/var/folders/lt/l_qrc8c54t93n_phsj7cf5tc0000gn/T//cc1tXrem.s:1779   .text.HAL_DMA_UnRegisterCallback:0000000000000000 HAL_DMA_UnRegisterCallback
/var/folders/lt/l_qrc8c54t93n_phsj7cf5tc0000gn/T//cc1tXrem.s:1828   .text.HAL_DMA_UnRegisterCallback:000000000000002c $d
/var/folders/lt/l_qrc8c54t93n_phsj7cf5tc0000gn/T//cc1tXrem.s:1892   .text.HAL_DMA_GetState:0000000000000000 $t
/var/folders/lt/l_qrc8c54t93n_phsj7cf5tc0000gn/T//cc1tXrem.s:1899   .text.HAL_DMA_GetState:0000000000000000 HAL_DMA_GetState
/var/folders/lt/l_qrc8c54t93n_phsj7cf5tc0000gn/T//cc1tXrem.s:1917   .text.HAL_DMA_GetError:0000000000000000 $t
/var/folders/lt/l_qrc8c54t93n_phsj7cf5tc0000gn/T//cc1tXrem.s:1924   .text.HAL_DMA_GetError:0000000000000000 HAL_DMA_GetError
/var/folders/lt/l_qrc8c54t93n_phsj7cf5tc0000gn/T//cc1tXrem.s:1833   .text.HAL_DMA_UnRegisterCallback:0000000000000031 $d
/var/folders/lt/l_qrc8c54t93n_phsj7cf5tc0000gn/T//cc1tXrem.s:1833   .text.HAL_DMA_UnRegisterCallback:0000000000000032 $t

UNDEFINED SYMBOLS
HAL_GetTick
