ARM GAS  /var/folders/lt/l_qrc8c54t93n_phsj7cf5tc0000gn/T//cc9NDVF7.s 			page 1


   1              		.cpu cortex-m4
   2              		.eabi_attribute 27, 1
   3              		.eabi_attribute 28, 1
   4              		.eabi_attribute 20, 1
   5              		.eabi_attribute 21, 1
   6              		.eabi_attribute 23, 3
   7              		.eabi_attribute 24, 1
   8              		.eabi_attribute 25, 1
   9              		.eabi_attribute 26, 1
  10              		.eabi_attribute 30, 1
  11              		.eabi_attribute 34, 1
  12              		.eabi_attribute 18, 4
  13              		.file	"stm32wbxx_hal_rng.c"
  14              		.text
  15              	.Ltext0:
  16              		.cfi_sections	.debug_frame
  17              		.section	.text.HAL_RNG_MspInit,"ax",%progbits
  18              		.align	1
  19              		.weak	HAL_RNG_MspInit
  20              		.arch armv7e-m
  21              		.syntax unified
  22              		.thumb
  23              		.thumb_func
  24              		.fpu fpv4-sp-d16
  26              	HAL_RNG_MspInit:
  27              	.LVL0:
  28              	.LFB1106:
  29              		.file 1 "Drivers/STM32WBxx_HAL_Driver/Src/stm32wbxx_hal_rng.c"
   1:Drivers/STM32WBxx_HAL_Driver/Src/stm32wbxx_hal_rng.c **** /**
   2:Drivers/STM32WBxx_HAL_Driver/Src/stm32wbxx_hal_rng.c ****   ******************************************************************************
   3:Drivers/STM32WBxx_HAL_Driver/Src/stm32wbxx_hal_rng.c ****   * @file    stm32wbxx_hal_rng.c
   4:Drivers/STM32WBxx_HAL_Driver/Src/stm32wbxx_hal_rng.c ****   * @author  MCD Application Team
   5:Drivers/STM32WBxx_HAL_Driver/Src/stm32wbxx_hal_rng.c ****   * @brief   RNG HAL module driver.
   6:Drivers/STM32WBxx_HAL_Driver/Src/stm32wbxx_hal_rng.c ****   *          This file provides firmware functions to manage the following
   7:Drivers/STM32WBxx_HAL_Driver/Src/stm32wbxx_hal_rng.c ****   *          functionalities of the Random Number Generator (RNG) peripheral:
   8:Drivers/STM32WBxx_HAL_Driver/Src/stm32wbxx_hal_rng.c ****   *           + Initialization and configuration functions
   9:Drivers/STM32WBxx_HAL_Driver/Src/stm32wbxx_hal_rng.c ****   *           + Peripheral Control functions
  10:Drivers/STM32WBxx_HAL_Driver/Src/stm32wbxx_hal_rng.c ****   *           + Peripheral State functions
  11:Drivers/STM32WBxx_HAL_Driver/Src/stm32wbxx_hal_rng.c ****   *
  12:Drivers/STM32WBxx_HAL_Driver/Src/stm32wbxx_hal_rng.c ****   ******************************************************************************
  13:Drivers/STM32WBxx_HAL_Driver/Src/stm32wbxx_hal_rng.c ****   * @attention
  14:Drivers/STM32WBxx_HAL_Driver/Src/stm32wbxx_hal_rng.c ****   *
  15:Drivers/STM32WBxx_HAL_Driver/Src/stm32wbxx_hal_rng.c ****   * Copyright (c) 2019 STMicroelectronics.
  16:Drivers/STM32WBxx_HAL_Driver/Src/stm32wbxx_hal_rng.c ****   * All rights reserved.
  17:Drivers/STM32WBxx_HAL_Driver/Src/stm32wbxx_hal_rng.c ****   *
  18:Drivers/STM32WBxx_HAL_Driver/Src/stm32wbxx_hal_rng.c ****   * This software is licensed under terms that can be found in the LICENSE file
  19:Drivers/STM32WBxx_HAL_Driver/Src/stm32wbxx_hal_rng.c ****   * in the root directory of this software component.
  20:Drivers/STM32WBxx_HAL_Driver/Src/stm32wbxx_hal_rng.c ****   * If no LICENSE file comes with this software, it is provided AS-IS.
  21:Drivers/STM32WBxx_HAL_Driver/Src/stm32wbxx_hal_rng.c ****   *
  22:Drivers/STM32WBxx_HAL_Driver/Src/stm32wbxx_hal_rng.c ****   ******************************************************************************
  23:Drivers/STM32WBxx_HAL_Driver/Src/stm32wbxx_hal_rng.c ****   @verbatim
  24:Drivers/STM32WBxx_HAL_Driver/Src/stm32wbxx_hal_rng.c ****   ==============================================================================
  25:Drivers/STM32WBxx_HAL_Driver/Src/stm32wbxx_hal_rng.c ****                      ##### How to use this driver #####
  26:Drivers/STM32WBxx_HAL_Driver/Src/stm32wbxx_hal_rng.c ****   ==============================================================================
  27:Drivers/STM32WBxx_HAL_Driver/Src/stm32wbxx_hal_rng.c ****   [..]
  28:Drivers/STM32WBxx_HAL_Driver/Src/stm32wbxx_hal_rng.c ****       The RNG HAL driver can be used as follows:
  29:Drivers/STM32WBxx_HAL_Driver/Src/stm32wbxx_hal_rng.c **** 
ARM GAS  /var/folders/lt/l_qrc8c54t93n_phsj7cf5tc0000gn/T//cc9NDVF7.s 			page 2


  30:Drivers/STM32WBxx_HAL_Driver/Src/stm32wbxx_hal_rng.c ****       (#) Enable the RNG controller clock using __HAL_RCC_RNG_CLK_ENABLE() macro
  31:Drivers/STM32WBxx_HAL_Driver/Src/stm32wbxx_hal_rng.c ****           in HAL_RNG_MspInit().
  32:Drivers/STM32WBxx_HAL_Driver/Src/stm32wbxx_hal_rng.c ****       (#) Activate the RNG peripheral using HAL_RNG_Init() function.
  33:Drivers/STM32WBxx_HAL_Driver/Src/stm32wbxx_hal_rng.c ****       (#) Wait until the 32 bit Random Number Generator contains a valid
  34:Drivers/STM32WBxx_HAL_Driver/Src/stm32wbxx_hal_rng.c ****           random data using (polling/interrupt) mode.
  35:Drivers/STM32WBxx_HAL_Driver/Src/stm32wbxx_hal_rng.c ****       (#) Get the 32 bit random number using HAL_RNG_GenerateRandomNumber() function.
  36:Drivers/STM32WBxx_HAL_Driver/Src/stm32wbxx_hal_rng.c **** 
  37:Drivers/STM32WBxx_HAL_Driver/Src/stm32wbxx_hal_rng.c ****     ##### Callback registration #####
  38:Drivers/STM32WBxx_HAL_Driver/Src/stm32wbxx_hal_rng.c ****     ==================================
  39:Drivers/STM32WBxx_HAL_Driver/Src/stm32wbxx_hal_rng.c **** 
  40:Drivers/STM32WBxx_HAL_Driver/Src/stm32wbxx_hal_rng.c ****     [..]
  41:Drivers/STM32WBxx_HAL_Driver/Src/stm32wbxx_hal_rng.c ****     The compilation define USE_HAL_RNG_REGISTER_CALLBACKS when set to 1
  42:Drivers/STM32WBxx_HAL_Driver/Src/stm32wbxx_hal_rng.c ****     allows the user to configure dynamically the driver callbacks.
  43:Drivers/STM32WBxx_HAL_Driver/Src/stm32wbxx_hal_rng.c **** 
  44:Drivers/STM32WBxx_HAL_Driver/Src/stm32wbxx_hal_rng.c ****     [..]
  45:Drivers/STM32WBxx_HAL_Driver/Src/stm32wbxx_hal_rng.c ****     Use Function HAL_RNG_RegisterCallback() to register a user callback.
  46:Drivers/STM32WBxx_HAL_Driver/Src/stm32wbxx_hal_rng.c ****     Function HAL_RNG_RegisterCallback() allows to register following callbacks:
  47:Drivers/STM32WBxx_HAL_Driver/Src/stm32wbxx_hal_rng.c ****     (+) ErrorCallback             : RNG Error Callback.
  48:Drivers/STM32WBxx_HAL_Driver/Src/stm32wbxx_hal_rng.c ****     (+) MspInitCallback           : RNG MspInit.
  49:Drivers/STM32WBxx_HAL_Driver/Src/stm32wbxx_hal_rng.c ****     (+) MspDeInitCallback         : RNG MspDeInit.
  50:Drivers/STM32WBxx_HAL_Driver/Src/stm32wbxx_hal_rng.c ****     This function takes as parameters the HAL peripheral handle, the Callback ID
  51:Drivers/STM32WBxx_HAL_Driver/Src/stm32wbxx_hal_rng.c ****     and a pointer to the user callback function.
  52:Drivers/STM32WBxx_HAL_Driver/Src/stm32wbxx_hal_rng.c **** 
  53:Drivers/STM32WBxx_HAL_Driver/Src/stm32wbxx_hal_rng.c ****     [..]
  54:Drivers/STM32WBxx_HAL_Driver/Src/stm32wbxx_hal_rng.c ****     Use function HAL_RNG_UnRegisterCallback() to reset a callback to the default
  55:Drivers/STM32WBxx_HAL_Driver/Src/stm32wbxx_hal_rng.c ****     weak (surcharged) function.
  56:Drivers/STM32WBxx_HAL_Driver/Src/stm32wbxx_hal_rng.c ****     HAL_RNG_UnRegisterCallback() takes as parameters the HAL peripheral handle,
  57:Drivers/STM32WBxx_HAL_Driver/Src/stm32wbxx_hal_rng.c ****     and the Callback ID.
  58:Drivers/STM32WBxx_HAL_Driver/Src/stm32wbxx_hal_rng.c ****     This function allows to reset following callbacks:
  59:Drivers/STM32WBxx_HAL_Driver/Src/stm32wbxx_hal_rng.c ****     (+) ErrorCallback             : RNG Error Callback.
  60:Drivers/STM32WBxx_HAL_Driver/Src/stm32wbxx_hal_rng.c ****     (+) MspInitCallback           : RNG MspInit.
  61:Drivers/STM32WBxx_HAL_Driver/Src/stm32wbxx_hal_rng.c ****     (+) MspDeInitCallback         : RNG MspDeInit.
  62:Drivers/STM32WBxx_HAL_Driver/Src/stm32wbxx_hal_rng.c **** 
  63:Drivers/STM32WBxx_HAL_Driver/Src/stm32wbxx_hal_rng.c ****     [..]
  64:Drivers/STM32WBxx_HAL_Driver/Src/stm32wbxx_hal_rng.c ****     For specific callback ReadyDataCallback, use dedicated register callbacks:
  65:Drivers/STM32WBxx_HAL_Driver/Src/stm32wbxx_hal_rng.c ****     respectively HAL_RNG_RegisterReadyDataCallback() , HAL_RNG_UnRegisterReadyDataCallback().
  66:Drivers/STM32WBxx_HAL_Driver/Src/stm32wbxx_hal_rng.c **** 
  67:Drivers/STM32WBxx_HAL_Driver/Src/stm32wbxx_hal_rng.c ****     [..]
  68:Drivers/STM32WBxx_HAL_Driver/Src/stm32wbxx_hal_rng.c ****     By default, after the HAL_RNG_Init() and when the state is HAL_RNG_STATE_RESET
  69:Drivers/STM32WBxx_HAL_Driver/Src/stm32wbxx_hal_rng.c ****     all callbacks are set to the corresponding weak (surcharged) functions:
  70:Drivers/STM32WBxx_HAL_Driver/Src/stm32wbxx_hal_rng.c ****     example HAL_RNG_ErrorCallback().
  71:Drivers/STM32WBxx_HAL_Driver/Src/stm32wbxx_hal_rng.c ****     Exception done for MspInit and MspDeInit functions that are respectively
  72:Drivers/STM32WBxx_HAL_Driver/Src/stm32wbxx_hal_rng.c ****     reset to the legacy weak (surcharged) functions in the HAL_RNG_Init()
  73:Drivers/STM32WBxx_HAL_Driver/Src/stm32wbxx_hal_rng.c ****     and HAL_RNG_DeInit() only when these callbacks are null (not registered beforehand).
  74:Drivers/STM32WBxx_HAL_Driver/Src/stm32wbxx_hal_rng.c ****     If not, MspInit or MspDeInit are not null, the HAL_RNG_Init() and HAL_RNG_DeInit()
  75:Drivers/STM32WBxx_HAL_Driver/Src/stm32wbxx_hal_rng.c ****     keep and use the user MspInit/MspDeInit callbacks (registered beforehand).
  76:Drivers/STM32WBxx_HAL_Driver/Src/stm32wbxx_hal_rng.c **** 
  77:Drivers/STM32WBxx_HAL_Driver/Src/stm32wbxx_hal_rng.c ****     [..]
  78:Drivers/STM32WBxx_HAL_Driver/Src/stm32wbxx_hal_rng.c ****     Callbacks can be registered/unregistered in HAL_RNG_STATE_READY state only.
  79:Drivers/STM32WBxx_HAL_Driver/Src/stm32wbxx_hal_rng.c ****     Exception done MspInit/MspDeInit that can be registered/unregistered
  80:Drivers/STM32WBxx_HAL_Driver/Src/stm32wbxx_hal_rng.c ****     in HAL_RNG_STATE_READY or HAL_RNG_STATE_RESET state, thus registered (user)
  81:Drivers/STM32WBxx_HAL_Driver/Src/stm32wbxx_hal_rng.c ****     MspInit/DeInit callbacks can be used during the Init/DeInit.
  82:Drivers/STM32WBxx_HAL_Driver/Src/stm32wbxx_hal_rng.c ****     In that case first register the MspInit/MspDeInit user callbacks
  83:Drivers/STM32WBxx_HAL_Driver/Src/stm32wbxx_hal_rng.c ****     using HAL_RNG_RegisterCallback() before calling HAL_RNG_DeInit()
  84:Drivers/STM32WBxx_HAL_Driver/Src/stm32wbxx_hal_rng.c ****     or HAL_RNG_Init() function.
  85:Drivers/STM32WBxx_HAL_Driver/Src/stm32wbxx_hal_rng.c **** 
  86:Drivers/STM32WBxx_HAL_Driver/Src/stm32wbxx_hal_rng.c ****     [..]
ARM GAS  /var/folders/lt/l_qrc8c54t93n_phsj7cf5tc0000gn/T//cc9NDVF7.s 			page 3


  87:Drivers/STM32WBxx_HAL_Driver/Src/stm32wbxx_hal_rng.c ****     When The compilation define USE_HAL_RNG_REGISTER_CALLBACKS is set to 0 or
  88:Drivers/STM32WBxx_HAL_Driver/Src/stm32wbxx_hal_rng.c ****     not defined, the callback registration feature is not available
  89:Drivers/STM32WBxx_HAL_Driver/Src/stm32wbxx_hal_rng.c ****     and weak (surcharged) callbacks are used.
  90:Drivers/STM32WBxx_HAL_Driver/Src/stm32wbxx_hal_rng.c **** 
  91:Drivers/STM32WBxx_HAL_Driver/Src/stm32wbxx_hal_rng.c ****   @endverbatim
  92:Drivers/STM32WBxx_HAL_Driver/Src/stm32wbxx_hal_rng.c ****   ******************************************************************************
  93:Drivers/STM32WBxx_HAL_Driver/Src/stm32wbxx_hal_rng.c ****   */
  94:Drivers/STM32WBxx_HAL_Driver/Src/stm32wbxx_hal_rng.c **** 
  95:Drivers/STM32WBxx_HAL_Driver/Src/stm32wbxx_hal_rng.c **** /* Includes ------------------------------------------------------------------*/
  96:Drivers/STM32WBxx_HAL_Driver/Src/stm32wbxx_hal_rng.c **** #include "stm32wbxx_hal.h"
  97:Drivers/STM32WBxx_HAL_Driver/Src/stm32wbxx_hal_rng.c **** 
  98:Drivers/STM32WBxx_HAL_Driver/Src/stm32wbxx_hal_rng.c **** /** @addtogroup STM32WBxx_HAL_Driver
  99:Drivers/STM32WBxx_HAL_Driver/Src/stm32wbxx_hal_rng.c ****   * @{
 100:Drivers/STM32WBxx_HAL_Driver/Src/stm32wbxx_hal_rng.c ****   */
 101:Drivers/STM32WBxx_HAL_Driver/Src/stm32wbxx_hal_rng.c **** 
 102:Drivers/STM32WBxx_HAL_Driver/Src/stm32wbxx_hal_rng.c **** #if defined (RNG)
 103:Drivers/STM32WBxx_HAL_Driver/Src/stm32wbxx_hal_rng.c **** 
 104:Drivers/STM32WBxx_HAL_Driver/Src/stm32wbxx_hal_rng.c **** /** @addtogroup RNG
 105:Drivers/STM32WBxx_HAL_Driver/Src/stm32wbxx_hal_rng.c ****   * @brief RNG HAL module driver.
 106:Drivers/STM32WBxx_HAL_Driver/Src/stm32wbxx_hal_rng.c ****   * @{
 107:Drivers/STM32WBxx_HAL_Driver/Src/stm32wbxx_hal_rng.c ****   */
 108:Drivers/STM32WBxx_HAL_Driver/Src/stm32wbxx_hal_rng.c **** 
 109:Drivers/STM32WBxx_HAL_Driver/Src/stm32wbxx_hal_rng.c **** #ifdef HAL_RNG_MODULE_ENABLED
 110:Drivers/STM32WBxx_HAL_Driver/Src/stm32wbxx_hal_rng.c **** 
 111:Drivers/STM32WBxx_HAL_Driver/Src/stm32wbxx_hal_rng.c **** /* Private types -------------------------------------------------------------*/
 112:Drivers/STM32WBxx_HAL_Driver/Src/stm32wbxx_hal_rng.c **** /* Private defines -----------------------------------------------------------*/
 113:Drivers/STM32WBxx_HAL_Driver/Src/stm32wbxx_hal_rng.c **** /* Private variables ---------------------------------------------------------*/
 114:Drivers/STM32WBxx_HAL_Driver/Src/stm32wbxx_hal_rng.c **** /* Private constants ---------------------------------------------------------*/
 115:Drivers/STM32WBxx_HAL_Driver/Src/stm32wbxx_hal_rng.c **** /** @defgroup RNG_Private_Constants RNG Private Constants
 116:Drivers/STM32WBxx_HAL_Driver/Src/stm32wbxx_hal_rng.c ****   * @{
 117:Drivers/STM32WBxx_HAL_Driver/Src/stm32wbxx_hal_rng.c ****   */
 118:Drivers/STM32WBxx_HAL_Driver/Src/stm32wbxx_hal_rng.c **** #define RNG_TIMEOUT_VALUE     2U
 119:Drivers/STM32WBxx_HAL_Driver/Src/stm32wbxx_hal_rng.c **** /**
 120:Drivers/STM32WBxx_HAL_Driver/Src/stm32wbxx_hal_rng.c ****   * @}
 121:Drivers/STM32WBxx_HAL_Driver/Src/stm32wbxx_hal_rng.c ****   */
 122:Drivers/STM32WBxx_HAL_Driver/Src/stm32wbxx_hal_rng.c **** /* Private macros ------------------------------------------------------------*/
 123:Drivers/STM32WBxx_HAL_Driver/Src/stm32wbxx_hal_rng.c **** /* Private functions prototypes ----------------------------------------------*/
 124:Drivers/STM32WBxx_HAL_Driver/Src/stm32wbxx_hal_rng.c **** /* Private functions ---------------------------------------------------------*/
 125:Drivers/STM32WBxx_HAL_Driver/Src/stm32wbxx_hal_rng.c **** /* Exported functions --------------------------------------------------------*/
 126:Drivers/STM32WBxx_HAL_Driver/Src/stm32wbxx_hal_rng.c **** 
 127:Drivers/STM32WBxx_HAL_Driver/Src/stm32wbxx_hal_rng.c **** /** @addtogroup RNG_Exported_Functions
 128:Drivers/STM32WBxx_HAL_Driver/Src/stm32wbxx_hal_rng.c ****   * @{
 129:Drivers/STM32WBxx_HAL_Driver/Src/stm32wbxx_hal_rng.c ****   */
 130:Drivers/STM32WBxx_HAL_Driver/Src/stm32wbxx_hal_rng.c **** 
 131:Drivers/STM32WBxx_HAL_Driver/Src/stm32wbxx_hal_rng.c **** /** @addtogroup RNG_Exported_Functions_Group1
 132:Drivers/STM32WBxx_HAL_Driver/Src/stm32wbxx_hal_rng.c ****   * @brief   Initialization and configuration functions
 133:Drivers/STM32WBxx_HAL_Driver/Src/stm32wbxx_hal_rng.c ****   *
 134:Drivers/STM32WBxx_HAL_Driver/Src/stm32wbxx_hal_rng.c **** @verbatim
 135:Drivers/STM32WBxx_HAL_Driver/Src/stm32wbxx_hal_rng.c ****  ===============================================================================
 136:Drivers/STM32WBxx_HAL_Driver/Src/stm32wbxx_hal_rng.c ****           ##### Initialization and configuration functions #####
 137:Drivers/STM32WBxx_HAL_Driver/Src/stm32wbxx_hal_rng.c ****  ===============================================================================
 138:Drivers/STM32WBxx_HAL_Driver/Src/stm32wbxx_hal_rng.c ****     [..]  This section provides functions allowing to:
 139:Drivers/STM32WBxx_HAL_Driver/Src/stm32wbxx_hal_rng.c ****       (+) Initialize the RNG according to the specified parameters
 140:Drivers/STM32WBxx_HAL_Driver/Src/stm32wbxx_hal_rng.c ****           in the RNG_InitTypeDef and create the associated handle
 141:Drivers/STM32WBxx_HAL_Driver/Src/stm32wbxx_hal_rng.c ****       (+) DeInitialize the RNG peripheral
 142:Drivers/STM32WBxx_HAL_Driver/Src/stm32wbxx_hal_rng.c ****       (+) Initialize the RNG MSP
 143:Drivers/STM32WBxx_HAL_Driver/Src/stm32wbxx_hal_rng.c ****       (+) DeInitialize RNG MSP
ARM GAS  /var/folders/lt/l_qrc8c54t93n_phsj7cf5tc0000gn/T//cc9NDVF7.s 			page 4


 144:Drivers/STM32WBxx_HAL_Driver/Src/stm32wbxx_hal_rng.c **** 
 145:Drivers/STM32WBxx_HAL_Driver/Src/stm32wbxx_hal_rng.c **** @endverbatim
 146:Drivers/STM32WBxx_HAL_Driver/Src/stm32wbxx_hal_rng.c ****   * @{
 147:Drivers/STM32WBxx_HAL_Driver/Src/stm32wbxx_hal_rng.c ****   */
 148:Drivers/STM32WBxx_HAL_Driver/Src/stm32wbxx_hal_rng.c **** 
 149:Drivers/STM32WBxx_HAL_Driver/Src/stm32wbxx_hal_rng.c **** /**
 150:Drivers/STM32WBxx_HAL_Driver/Src/stm32wbxx_hal_rng.c ****   * @brief  Initializes the RNG peripheral and creates the associated handle.
 151:Drivers/STM32WBxx_HAL_Driver/Src/stm32wbxx_hal_rng.c ****   * @param  hrng pointer to a RNG_HandleTypeDef structure that contains
 152:Drivers/STM32WBxx_HAL_Driver/Src/stm32wbxx_hal_rng.c ****   *                the configuration information for RNG.
 153:Drivers/STM32WBxx_HAL_Driver/Src/stm32wbxx_hal_rng.c ****   * @retval HAL status
 154:Drivers/STM32WBxx_HAL_Driver/Src/stm32wbxx_hal_rng.c ****   */
 155:Drivers/STM32WBxx_HAL_Driver/Src/stm32wbxx_hal_rng.c **** HAL_StatusTypeDef HAL_RNG_Init(RNG_HandleTypeDef *hrng)
 156:Drivers/STM32WBxx_HAL_Driver/Src/stm32wbxx_hal_rng.c **** {
 157:Drivers/STM32WBxx_HAL_Driver/Src/stm32wbxx_hal_rng.c ****   /* Check the RNG handle allocation */
 158:Drivers/STM32WBxx_HAL_Driver/Src/stm32wbxx_hal_rng.c ****   if (hrng == NULL)
 159:Drivers/STM32WBxx_HAL_Driver/Src/stm32wbxx_hal_rng.c ****   {
 160:Drivers/STM32WBxx_HAL_Driver/Src/stm32wbxx_hal_rng.c ****     return HAL_ERROR;
 161:Drivers/STM32WBxx_HAL_Driver/Src/stm32wbxx_hal_rng.c ****   }
 162:Drivers/STM32WBxx_HAL_Driver/Src/stm32wbxx_hal_rng.c ****   /* Check the parameters */
 163:Drivers/STM32WBxx_HAL_Driver/Src/stm32wbxx_hal_rng.c ****   assert_param(IS_RNG_ALL_INSTANCE(hrng->Instance));
 164:Drivers/STM32WBxx_HAL_Driver/Src/stm32wbxx_hal_rng.c ****   assert_param(IS_RNG_CED(hrng->Init.ClockErrorDetection));
 165:Drivers/STM32WBxx_HAL_Driver/Src/stm32wbxx_hal_rng.c **** 
 166:Drivers/STM32WBxx_HAL_Driver/Src/stm32wbxx_hal_rng.c **** #if (USE_HAL_RNG_REGISTER_CALLBACKS == 1)
 167:Drivers/STM32WBxx_HAL_Driver/Src/stm32wbxx_hal_rng.c ****   if (hrng->State == HAL_RNG_STATE_RESET)
 168:Drivers/STM32WBxx_HAL_Driver/Src/stm32wbxx_hal_rng.c ****   {
 169:Drivers/STM32WBxx_HAL_Driver/Src/stm32wbxx_hal_rng.c ****     /* Allocate lock resource and initialize it */
 170:Drivers/STM32WBxx_HAL_Driver/Src/stm32wbxx_hal_rng.c ****     hrng->Lock = HAL_UNLOCKED;
 171:Drivers/STM32WBxx_HAL_Driver/Src/stm32wbxx_hal_rng.c **** 
 172:Drivers/STM32WBxx_HAL_Driver/Src/stm32wbxx_hal_rng.c ****     hrng->ReadyDataCallback  = HAL_RNG_ReadyDataCallback;  /* Legacy weak ReadyDataCallback  */
 173:Drivers/STM32WBxx_HAL_Driver/Src/stm32wbxx_hal_rng.c ****     hrng->ErrorCallback      = HAL_RNG_ErrorCallback;      /* Legacy weak ErrorCallback      */
 174:Drivers/STM32WBxx_HAL_Driver/Src/stm32wbxx_hal_rng.c **** 
 175:Drivers/STM32WBxx_HAL_Driver/Src/stm32wbxx_hal_rng.c ****     if (hrng->MspInitCallback == NULL)
 176:Drivers/STM32WBxx_HAL_Driver/Src/stm32wbxx_hal_rng.c ****     {
 177:Drivers/STM32WBxx_HAL_Driver/Src/stm32wbxx_hal_rng.c ****       hrng->MspInitCallback = HAL_RNG_MspInit; /* Legacy weak MspInit  */
 178:Drivers/STM32WBxx_HAL_Driver/Src/stm32wbxx_hal_rng.c ****     }
 179:Drivers/STM32WBxx_HAL_Driver/Src/stm32wbxx_hal_rng.c **** 
 180:Drivers/STM32WBxx_HAL_Driver/Src/stm32wbxx_hal_rng.c ****     /* Init the low level hardware */
 181:Drivers/STM32WBxx_HAL_Driver/Src/stm32wbxx_hal_rng.c ****     hrng->MspInitCallback(hrng);
 182:Drivers/STM32WBxx_HAL_Driver/Src/stm32wbxx_hal_rng.c ****   }
 183:Drivers/STM32WBxx_HAL_Driver/Src/stm32wbxx_hal_rng.c **** #else
 184:Drivers/STM32WBxx_HAL_Driver/Src/stm32wbxx_hal_rng.c ****   if (hrng->State == HAL_RNG_STATE_RESET)
 185:Drivers/STM32WBxx_HAL_Driver/Src/stm32wbxx_hal_rng.c ****   {
 186:Drivers/STM32WBxx_HAL_Driver/Src/stm32wbxx_hal_rng.c ****     /* Allocate lock resource and initialize it */
 187:Drivers/STM32WBxx_HAL_Driver/Src/stm32wbxx_hal_rng.c ****     hrng->Lock = HAL_UNLOCKED;
 188:Drivers/STM32WBxx_HAL_Driver/Src/stm32wbxx_hal_rng.c **** 
 189:Drivers/STM32WBxx_HAL_Driver/Src/stm32wbxx_hal_rng.c ****     /* Init the low level hardware */
 190:Drivers/STM32WBxx_HAL_Driver/Src/stm32wbxx_hal_rng.c ****     HAL_RNG_MspInit(hrng);
 191:Drivers/STM32WBxx_HAL_Driver/Src/stm32wbxx_hal_rng.c ****   }
 192:Drivers/STM32WBxx_HAL_Driver/Src/stm32wbxx_hal_rng.c **** #endif /* USE_HAL_RNG_REGISTER_CALLBACKS */
 193:Drivers/STM32WBxx_HAL_Driver/Src/stm32wbxx_hal_rng.c **** 
 194:Drivers/STM32WBxx_HAL_Driver/Src/stm32wbxx_hal_rng.c ****   /* Change RNG peripheral state */
 195:Drivers/STM32WBxx_HAL_Driver/Src/stm32wbxx_hal_rng.c ****   hrng->State = HAL_RNG_STATE_BUSY;
 196:Drivers/STM32WBxx_HAL_Driver/Src/stm32wbxx_hal_rng.c **** 
 197:Drivers/STM32WBxx_HAL_Driver/Src/stm32wbxx_hal_rng.c ****   /* Clock Error Detection Configuration */
 198:Drivers/STM32WBxx_HAL_Driver/Src/stm32wbxx_hal_rng.c ****   MODIFY_REG(hrng->Instance->CR, RNG_CR_CED, hrng->Init.ClockErrorDetection);
 199:Drivers/STM32WBxx_HAL_Driver/Src/stm32wbxx_hal_rng.c **** 
 200:Drivers/STM32WBxx_HAL_Driver/Src/stm32wbxx_hal_rng.c ****   /* Enable the RNG Peripheral */
ARM GAS  /var/folders/lt/l_qrc8c54t93n_phsj7cf5tc0000gn/T//cc9NDVF7.s 			page 5


 201:Drivers/STM32WBxx_HAL_Driver/Src/stm32wbxx_hal_rng.c ****   __HAL_RNG_ENABLE(hrng);
 202:Drivers/STM32WBxx_HAL_Driver/Src/stm32wbxx_hal_rng.c **** 
 203:Drivers/STM32WBxx_HAL_Driver/Src/stm32wbxx_hal_rng.c ****   /* Initialize the RNG state */
 204:Drivers/STM32WBxx_HAL_Driver/Src/stm32wbxx_hal_rng.c ****   hrng->State = HAL_RNG_STATE_READY;
 205:Drivers/STM32WBxx_HAL_Driver/Src/stm32wbxx_hal_rng.c **** 
 206:Drivers/STM32WBxx_HAL_Driver/Src/stm32wbxx_hal_rng.c ****   /* Initialise the error code */
 207:Drivers/STM32WBxx_HAL_Driver/Src/stm32wbxx_hal_rng.c ****   hrng->ErrorCode = HAL_RNG_ERROR_NONE;
 208:Drivers/STM32WBxx_HAL_Driver/Src/stm32wbxx_hal_rng.c **** 
 209:Drivers/STM32WBxx_HAL_Driver/Src/stm32wbxx_hal_rng.c ****   /* Return function status */
 210:Drivers/STM32WBxx_HAL_Driver/Src/stm32wbxx_hal_rng.c ****   return HAL_OK;
 211:Drivers/STM32WBxx_HAL_Driver/Src/stm32wbxx_hal_rng.c **** }
 212:Drivers/STM32WBxx_HAL_Driver/Src/stm32wbxx_hal_rng.c **** 
 213:Drivers/STM32WBxx_HAL_Driver/Src/stm32wbxx_hal_rng.c **** /**
 214:Drivers/STM32WBxx_HAL_Driver/Src/stm32wbxx_hal_rng.c ****   * @brief  DeInitializes the RNG peripheral.
 215:Drivers/STM32WBxx_HAL_Driver/Src/stm32wbxx_hal_rng.c ****   * @param  hrng pointer to a RNG_HandleTypeDef structure that contains
 216:Drivers/STM32WBxx_HAL_Driver/Src/stm32wbxx_hal_rng.c ****   *                the configuration information for RNG.
 217:Drivers/STM32WBxx_HAL_Driver/Src/stm32wbxx_hal_rng.c ****   * @retval HAL status
 218:Drivers/STM32WBxx_HAL_Driver/Src/stm32wbxx_hal_rng.c ****   */
 219:Drivers/STM32WBxx_HAL_Driver/Src/stm32wbxx_hal_rng.c **** HAL_StatusTypeDef HAL_RNG_DeInit(RNG_HandleTypeDef *hrng)
 220:Drivers/STM32WBxx_HAL_Driver/Src/stm32wbxx_hal_rng.c **** {
 221:Drivers/STM32WBxx_HAL_Driver/Src/stm32wbxx_hal_rng.c ****   /* Check the RNG handle allocation */
 222:Drivers/STM32WBxx_HAL_Driver/Src/stm32wbxx_hal_rng.c ****   if (hrng == NULL)
 223:Drivers/STM32WBxx_HAL_Driver/Src/stm32wbxx_hal_rng.c ****   {
 224:Drivers/STM32WBxx_HAL_Driver/Src/stm32wbxx_hal_rng.c ****     return HAL_ERROR;
 225:Drivers/STM32WBxx_HAL_Driver/Src/stm32wbxx_hal_rng.c ****   }
 226:Drivers/STM32WBxx_HAL_Driver/Src/stm32wbxx_hal_rng.c **** 
 227:Drivers/STM32WBxx_HAL_Driver/Src/stm32wbxx_hal_rng.c ****   /* Clear Clock Error Detection bit */
 228:Drivers/STM32WBxx_HAL_Driver/Src/stm32wbxx_hal_rng.c ****   CLEAR_BIT(hrng->Instance->CR, RNG_CR_CED);
 229:Drivers/STM32WBxx_HAL_Driver/Src/stm32wbxx_hal_rng.c ****   /* Disable the RNG Peripheral */
 230:Drivers/STM32WBxx_HAL_Driver/Src/stm32wbxx_hal_rng.c ****   CLEAR_BIT(hrng->Instance->CR, RNG_CR_IE | RNG_CR_RNGEN);
 231:Drivers/STM32WBxx_HAL_Driver/Src/stm32wbxx_hal_rng.c **** 
 232:Drivers/STM32WBxx_HAL_Driver/Src/stm32wbxx_hal_rng.c ****   /* Clear RNG interrupt status flags */
 233:Drivers/STM32WBxx_HAL_Driver/Src/stm32wbxx_hal_rng.c ****   CLEAR_BIT(hrng->Instance->SR, RNG_SR_CEIS | RNG_SR_SEIS);
 234:Drivers/STM32WBxx_HAL_Driver/Src/stm32wbxx_hal_rng.c **** 
 235:Drivers/STM32WBxx_HAL_Driver/Src/stm32wbxx_hal_rng.c **** #if (USE_HAL_RNG_REGISTER_CALLBACKS == 1)
 236:Drivers/STM32WBxx_HAL_Driver/Src/stm32wbxx_hal_rng.c ****   if (hrng->MspDeInitCallback == NULL)
 237:Drivers/STM32WBxx_HAL_Driver/Src/stm32wbxx_hal_rng.c ****   {
 238:Drivers/STM32WBxx_HAL_Driver/Src/stm32wbxx_hal_rng.c ****     hrng->MspDeInitCallback = HAL_RNG_MspDeInit; /* Legacy weak MspDeInit  */
 239:Drivers/STM32WBxx_HAL_Driver/Src/stm32wbxx_hal_rng.c ****   }
 240:Drivers/STM32WBxx_HAL_Driver/Src/stm32wbxx_hal_rng.c **** 
 241:Drivers/STM32WBxx_HAL_Driver/Src/stm32wbxx_hal_rng.c ****   /* DeInit the low level hardware */
 242:Drivers/STM32WBxx_HAL_Driver/Src/stm32wbxx_hal_rng.c ****   hrng->MspDeInitCallback(hrng);
 243:Drivers/STM32WBxx_HAL_Driver/Src/stm32wbxx_hal_rng.c **** #else
 244:Drivers/STM32WBxx_HAL_Driver/Src/stm32wbxx_hal_rng.c ****   /* DeInit the low level hardware */
 245:Drivers/STM32WBxx_HAL_Driver/Src/stm32wbxx_hal_rng.c ****   HAL_RNG_MspDeInit(hrng);
 246:Drivers/STM32WBxx_HAL_Driver/Src/stm32wbxx_hal_rng.c **** #endif /* USE_HAL_RNG_REGISTER_CALLBACKS */
 247:Drivers/STM32WBxx_HAL_Driver/Src/stm32wbxx_hal_rng.c **** 
 248:Drivers/STM32WBxx_HAL_Driver/Src/stm32wbxx_hal_rng.c ****   /* Update the RNG state */
 249:Drivers/STM32WBxx_HAL_Driver/Src/stm32wbxx_hal_rng.c ****   hrng->State = HAL_RNG_STATE_RESET;
 250:Drivers/STM32WBxx_HAL_Driver/Src/stm32wbxx_hal_rng.c **** 
 251:Drivers/STM32WBxx_HAL_Driver/Src/stm32wbxx_hal_rng.c ****   /* Initialise the error code */
 252:Drivers/STM32WBxx_HAL_Driver/Src/stm32wbxx_hal_rng.c ****   hrng->ErrorCode = HAL_RNG_ERROR_NONE;
 253:Drivers/STM32WBxx_HAL_Driver/Src/stm32wbxx_hal_rng.c **** 
 254:Drivers/STM32WBxx_HAL_Driver/Src/stm32wbxx_hal_rng.c ****   /* Release Lock */
 255:Drivers/STM32WBxx_HAL_Driver/Src/stm32wbxx_hal_rng.c ****   __HAL_UNLOCK(hrng);
 256:Drivers/STM32WBxx_HAL_Driver/Src/stm32wbxx_hal_rng.c **** 
 257:Drivers/STM32WBxx_HAL_Driver/Src/stm32wbxx_hal_rng.c ****   /* Return the function status */
ARM GAS  /var/folders/lt/l_qrc8c54t93n_phsj7cf5tc0000gn/T//cc9NDVF7.s 			page 6


 258:Drivers/STM32WBxx_HAL_Driver/Src/stm32wbxx_hal_rng.c ****   return HAL_OK;
 259:Drivers/STM32WBxx_HAL_Driver/Src/stm32wbxx_hal_rng.c **** }
 260:Drivers/STM32WBxx_HAL_Driver/Src/stm32wbxx_hal_rng.c **** 
 261:Drivers/STM32WBxx_HAL_Driver/Src/stm32wbxx_hal_rng.c **** /**
 262:Drivers/STM32WBxx_HAL_Driver/Src/stm32wbxx_hal_rng.c ****   * @brief  Initializes the RNG MSP.
 263:Drivers/STM32WBxx_HAL_Driver/Src/stm32wbxx_hal_rng.c ****   * @param  hrng pointer to a RNG_HandleTypeDef structure that contains
 264:Drivers/STM32WBxx_HAL_Driver/Src/stm32wbxx_hal_rng.c ****   *                the configuration information for RNG.
 265:Drivers/STM32WBxx_HAL_Driver/Src/stm32wbxx_hal_rng.c ****   * @retval None
 266:Drivers/STM32WBxx_HAL_Driver/Src/stm32wbxx_hal_rng.c ****   */
 267:Drivers/STM32WBxx_HAL_Driver/Src/stm32wbxx_hal_rng.c **** __weak void HAL_RNG_MspInit(RNG_HandleTypeDef *hrng)
 268:Drivers/STM32WBxx_HAL_Driver/Src/stm32wbxx_hal_rng.c **** {
  30              		.loc 1 268 1 view -0
  31              		.cfi_startproc
  32              		@ args = 0, pretend = 0, frame = 0
  33              		@ frame_needed = 0, uses_anonymous_args = 0
  34              		@ link register save eliminated.
 269:Drivers/STM32WBxx_HAL_Driver/Src/stm32wbxx_hal_rng.c ****   /* Prevent unused argument(s) compilation warning */
 270:Drivers/STM32WBxx_HAL_Driver/Src/stm32wbxx_hal_rng.c ****   UNUSED(hrng);
  35              		.loc 1 270 3 view .LVU1
 271:Drivers/STM32WBxx_HAL_Driver/Src/stm32wbxx_hal_rng.c ****   /* NOTE : This function should not be modified. When the callback is needed,
 272:Drivers/STM32WBxx_HAL_Driver/Src/stm32wbxx_hal_rng.c ****             function HAL_RNG_MspInit must be implemented in the user file.
 273:Drivers/STM32WBxx_HAL_Driver/Src/stm32wbxx_hal_rng.c ****    */
 274:Drivers/STM32WBxx_HAL_Driver/Src/stm32wbxx_hal_rng.c **** }
  36              		.loc 1 274 1 is_stmt 0 view .LVU2
  37 0000 7047     		bx	lr
  38              		.cfi_endproc
  39              	.LFE1106:
  41              		.section	.text.HAL_RNG_Init,"ax",%progbits
  42              		.align	1
  43              		.global	HAL_RNG_Init
  44              		.syntax unified
  45              		.thumb
  46              		.thumb_func
  47              		.fpu fpv4-sp-d16
  49              	HAL_RNG_Init:
  50              	.LVL1:
  51              	.LFB1104:
 156:Drivers/STM32WBxx_HAL_Driver/Src/stm32wbxx_hal_rng.c ****   /* Check the RNG handle allocation */
  52              		.loc 1 156 1 is_stmt 1 view -0
  53              		.cfi_startproc
  54              		@ args = 0, pretend = 0, frame = 0
  55              		@ frame_needed = 0, uses_anonymous_args = 0
 158:Drivers/STM32WBxx_HAL_Driver/Src/stm32wbxx_hal_rng.c ****   {
  56              		.loc 1 158 3 view .LVU4
 158:Drivers/STM32WBxx_HAL_Driver/Src/stm32wbxx_hal_rng.c ****   {
  57              		.loc 1 158 6 is_stmt 0 view .LVU5
  58 0000 D0B1     		cbz	r0, .L5
 156:Drivers/STM32WBxx_HAL_Driver/Src/stm32wbxx_hal_rng.c ****   /* Check the RNG handle allocation */
  59              		.loc 1 156 1 view .LVU6
  60 0002 10B5     		push	{r4, lr}
  61              	.LCFI0:
  62              		.cfi_def_cfa_offset 8
  63              		.cfi_offset 4, -8
  64              		.cfi_offset 14, -4
  65 0004 0446     		mov	r4, r0
 163:Drivers/STM32WBxx_HAL_Driver/Src/stm32wbxx_hal_rng.c ****   assert_param(IS_RNG_CED(hrng->Init.ClockErrorDetection));
  66              		.loc 1 163 3 is_stmt 1 view .LVU7
ARM GAS  /var/folders/lt/l_qrc8c54t93n_phsj7cf5tc0000gn/T//cc9NDVF7.s 			page 7


 164:Drivers/STM32WBxx_HAL_Driver/Src/stm32wbxx_hal_rng.c **** 
  67              		.loc 1 164 3 view .LVU8
 184:Drivers/STM32WBxx_HAL_Driver/Src/stm32wbxx_hal_rng.c ****   {
  68              		.loc 1 184 3 view .LVU9
 184:Drivers/STM32WBxx_HAL_Driver/Src/stm32wbxx_hal_rng.c ****   {
  69              		.loc 1 184 11 is_stmt 0 view .LVU10
  70 0006 437A     		ldrb	r3, [r0, #9]	@ zero_extendqisi2
 184:Drivers/STM32WBxx_HAL_Driver/Src/stm32wbxx_hal_rng.c ****   {
  71              		.loc 1 184 6 view .LVU11
  72 0008 93B1     		cbz	r3, .L10
  73              	.LVL2:
  74              	.L4:
 195:Drivers/STM32WBxx_HAL_Driver/Src/stm32wbxx_hal_rng.c **** 
  75              		.loc 1 195 3 is_stmt 1 view .LVU12
 195:Drivers/STM32WBxx_HAL_Driver/Src/stm32wbxx_hal_rng.c **** 
  76              		.loc 1 195 15 is_stmt 0 view .LVU13
  77 000a 0223     		movs	r3, #2
  78 000c 6372     		strb	r3, [r4, #9]
 198:Drivers/STM32WBxx_HAL_Driver/Src/stm32wbxx_hal_rng.c **** 
  79              		.loc 1 198 3 is_stmt 1 view .LVU14
  80 000e 2268     		ldr	r2, [r4]
  81 0010 1368     		ldr	r3, [r2]
  82 0012 23F02003 		bic	r3, r3, #32
  83 0016 6168     		ldr	r1, [r4, #4]
  84 0018 0B43     		orrs	r3, r3, r1
  85 001a 1360     		str	r3, [r2]
 201:Drivers/STM32WBxx_HAL_Driver/Src/stm32wbxx_hal_rng.c **** 
  86              		.loc 1 201 3 view .LVU15
  87 001c 2268     		ldr	r2, [r4]
  88 001e 1368     		ldr	r3, [r2]
  89 0020 43F00403 		orr	r3, r3, #4
  90 0024 1360     		str	r3, [r2]
 204:Drivers/STM32WBxx_HAL_Driver/Src/stm32wbxx_hal_rng.c **** 
  91              		.loc 1 204 3 view .LVU16
 204:Drivers/STM32WBxx_HAL_Driver/Src/stm32wbxx_hal_rng.c **** 
  92              		.loc 1 204 15 is_stmt 0 view .LVU17
  93 0026 0123     		movs	r3, #1
  94 0028 6372     		strb	r3, [r4, #9]
 207:Drivers/STM32WBxx_HAL_Driver/Src/stm32wbxx_hal_rng.c **** 
  95              		.loc 1 207 3 is_stmt 1 view .LVU18
 207:Drivers/STM32WBxx_HAL_Driver/Src/stm32wbxx_hal_rng.c **** 
  96              		.loc 1 207 19 is_stmt 0 view .LVU19
  97 002a 0020     		movs	r0, #0
  98 002c E060     		str	r0, [r4, #12]
 210:Drivers/STM32WBxx_HAL_Driver/Src/stm32wbxx_hal_rng.c **** }
  99              		.loc 1 210 3 is_stmt 1 view .LVU20
 211:Drivers/STM32WBxx_HAL_Driver/Src/stm32wbxx_hal_rng.c **** 
 100              		.loc 1 211 1 is_stmt 0 view .LVU21
 101 002e 10BD     		pop	{r4, pc}
 102              	.LVL3:
 103              	.L10:
 187:Drivers/STM32WBxx_HAL_Driver/Src/stm32wbxx_hal_rng.c **** 
 104              		.loc 1 187 5 is_stmt 1 view .LVU22
 187:Drivers/STM32WBxx_HAL_Driver/Src/stm32wbxx_hal_rng.c **** 
 105              		.loc 1 187 16 is_stmt 0 view .LVU23
 106 0030 0372     		strb	r3, [r0, #8]
 190:Drivers/STM32WBxx_HAL_Driver/Src/stm32wbxx_hal_rng.c ****   }
ARM GAS  /var/folders/lt/l_qrc8c54t93n_phsj7cf5tc0000gn/T//cc9NDVF7.s 			page 8


 107              		.loc 1 190 5 is_stmt 1 view .LVU24
 108 0032 FFF7FEFF 		bl	HAL_RNG_MspInit
 109              	.LVL4:
 190:Drivers/STM32WBxx_HAL_Driver/Src/stm32wbxx_hal_rng.c ****   }
 110              		.loc 1 190 5 is_stmt 0 view .LVU25
 111 0036 E8E7     		b	.L4
 112              	.LVL5:
 113              	.L5:
 114              	.LCFI1:
 115              		.cfi_def_cfa_offset 0
 116              		.cfi_restore 4
 117              		.cfi_restore 14
 160:Drivers/STM32WBxx_HAL_Driver/Src/stm32wbxx_hal_rng.c ****   }
 118              		.loc 1 160 12 view .LVU26
 119 0038 0120     		movs	r0, #1
 120              	.LVL6:
 211:Drivers/STM32WBxx_HAL_Driver/Src/stm32wbxx_hal_rng.c **** 
 121              		.loc 1 211 1 view .LVU27
 122 003a 7047     		bx	lr
 123              		.cfi_endproc
 124              	.LFE1104:
 126              		.section	.text.HAL_RNG_MspDeInit,"ax",%progbits
 127              		.align	1
 128              		.weak	HAL_RNG_MspDeInit
 129              		.syntax unified
 130              		.thumb
 131              		.thumb_func
 132              		.fpu fpv4-sp-d16
 134              	HAL_RNG_MspDeInit:
 135              	.LVL7:
 136              	.LFB1107:
 275:Drivers/STM32WBxx_HAL_Driver/Src/stm32wbxx_hal_rng.c **** 
 276:Drivers/STM32WBxx_HAL_Driver/Src/stm32wbxx_hal_rng.c **** /**
 277:Drivers/STM32WBxx_HAL_Driver/Src/stm32wbxx_hal_rng.c ****   * @brief  DeInitializes the RNG MSP.
 278:Drivers/STM32WBxx_HAL_Driver/Src/stm32wbxx_hal_rng.c ****   * @param  hrng pointer to a RNG_HandleTypeDef structure that contains
 279:Drivers/STM32WBxx_HAL_Driver/Src/stm32wbxx_hal_rng.c ****   *                the configuration information for RNG.
 280:Drivers/STM32WBxx_HAL_Driver/Src/stm32wbxx_hal_rng.c ****   * @retval None
 281:Drivers/STM32WBxx_HAL_Driver/Src/stm32wbxx_hal_rng.c ****   */
 282:Drivers/STM32WBxx_HAL_Driver/Src/stm32wbxx_hal_rng.c **** __weak void HAL_RNG_MspDeInit(RNG_HandleTypeDef *hrng)
 283:Drivers/STM32WBxx_HAL_Driver/Src/stm32wbxx_hal_rng.c **** {
 137              		.loc 1 283 1 is_stmt 1 view -0
 138              		.cfi_startproc
 139              		@ args = 0, pretend = 0, frame = 0
 140              		@ frame_needed = 0, uses_anonymous_args = 0
 141              		@ link register save eliminated.
 284:Drivers/STM32WBxx_HAL_Driver/Src/stm32wbxx_hal_rng.c ****   /* Prevent unused argument(s) compilation warning */
 285:Drivers/STM32WBxx_HAL_Driver/Src/stm32wbxx_hal_rng.c ****   UNUSED(hrng);
 142              		.loc 1 285 3 view .LVU29
 286:Drivers/STM32WBxx_HAL_Driver/Src/stm32wbxx_hal_rng.c ****   /* NOTE : This function should not be modified. When the callback is needed,
 287:Drivers/STM32WBxx_HAL_Driver/Src/stm32wbxx_hal_rng.c ****             function HAL_RNG_MspDeInit must be implemented in the user file.
 288:Drivers/STM32WBxx_HAL_Driver/Src/stm32wbxx_hal_rng.c ****    */
 289:Drivers/STM32WBxx_HAL_Driver/Src/stm32wbxx_hal_rng.c **** }
 143              		.loc 1 289 1 is_stmt 0 view .LVU30
 144 0000 7047     		bx	lr
 145              		.cfi_endproc
 146              	.LFE1107:
 148              		.section	.text.HAL_RNG_DeInit,"ax",%progbits
ARM GAS  /var/folders/lt/l_qrc8c54t93n_phsj7cf5tc0000gn/T//cc9NDVF7.s 			page 9


 149              		.align	1
 150              		.global	HAL_RNG_DeInit
 151              		.syntax unified
 152              		.thumb
 153              		.thumb_func
 154              		.fpu fpv4-sp-d16
 156              	HAL_RNG_DeInit:
 157              	.LVL8:
 158              	.LFB1105:
 220:Drivers/STM32WBxx_HAL_Driver/Src/stm32wbxx_hal_rng.c ****   /* Check the RNG handle allocation */
 159              		.loc 1 220 1 is_stmt 1 view -0
 160              		.cfi_startproc
 161              		@ args = 0, pretend = 0, frame = 0
 162              		@ frame_needed = 0, uses_anonymous_args = 0
 222:Drivers/STM32WBxx_HAL_Driver/Src/stm32wbxx_hal_rng.c ****   {
 163              		.loc 1 222 3 view .LVU32
 222:Drivers/STM32WBxx_HAL_Driver/Src/stm32wbxx_hal_rng.c ****   {
 164              		.loc 1 222 6 is_stmt 0 view .LVU33
 165 0000 B8B1     		cbz	r0, .L14
 220:Drivers/STM32WBxx_HAL_Driver/Src/stm32wbxx_hal_rng.c ****   /* Check the RNG handle allocation */
 166              		.loc 1 220 1 view .LVU34
 167 0002 10B5     		push	{r4, lr}
 168              	.LCFI2:
 169              		.cfi_def_cfa_offset 8
 170              		.cfi_offset 4, -8
 171              		.cfi_offset 14, -4
 172 0004 0446     		mov	r4, r0
 228:Drivers/STM32WBxx_HAL_Driver/Src/stm32wbxx_hal_rng.c ****   /* Disable the RNG Peripheral */
 173              		.loc 1 228 3 is_stmt 1 view .LVU35
 174 0006 0268     		ldr	r2, [r0]
 175 0008 1368     		ldr	r3, [r2]
 176 000a 23F02003 		bic	r3, r3, #32
 177 000e 1360     		str	r3, [r2]
 230:Drivers/STM32WBxx_HAL_Driver/Src/stm32wbxx_hal_rng.c **** 
 178              		.loc 1 230 3 view .LVU36
 179 0010 0268     		ldr	r2, [r0]
 180 0012 1368     		ldr	r3, [r2]
 181 0014 23F00C03 		bic	r3, r3, #12
 182 0018 1360     		str	r3, [r2]
 233:Drivers/STM32WBxx_HAL_Driver/Src/stm32wbxx_hal_rng.c **** 
 183              		.loc 1 233 3 view .LVU37
 184 001a 0268     		ldr	r2, [r0]
 185 001c 5368     		ldr	r3, [r2, #4]
 186 001e 23F06003 		bic	r3, r3, #96
 187 0022 5360     		str	r3, [r2, #4]
 245:Drivers/STM32WBxx_HAL_Driver/Src/stm32wbxx_hal_rng.c **** #endif /* USE_HAL_RNG_REGISTER_CALLBACKS */
 188              		.loc 1 245 3 view .LVU38
 189 0024 FFF7FEFF 		bl	HAL_RNG_MspDeInit
 190              	.LVL9:
 249:Drivers/STM32WBxx_HAL_Driver/Src/stm32wbxx_hal_rng.c **** 
 191              		.loc 1 249 3 view .LVU39
 249:Drivers/STM32WBxx_HAL_Driver/Src/stm32wbxx_hal_rng.c **** 
 192              		.loc 1 249 15 is_stmt 0 view .LVU40
 193 0028 0020     		movs	r0, #0
 194 002a 6072     		strb	r0, [r4, #9]
 252:Drivers/STM32WBxx_HAL_Driver/Src/stm32wbxx_hal_rng.c **** 
 195              		.loc 1 252 3 is_stmt 1 view .LVU41
ARM GAS  /var/folders/lt/l_qrc8c54t93n_phsj7cf5tc0000gn/T//cc9NDVF7.s 			page 10


 252:Drivers/STM32WBxx_HAL_Driver/Src/stm32wbxx_hal_rng.c **** 
 196              		.loc 1 252 19 is_stmt 0 view .LVU42
 197 002c E060     		str	r0, [r4, #12]
 255:Drivers/STM32WBxx_HAL_Driver/Src/stm32wbxx_hal_rng.c **** 
 198              		.loc 1 255 3 is_stmt 1 view .LVU43
 255:Drivers/STM32WBxx_HAL_Driver/Src/stm32wbxx_hal_rng.c **** 
 199              		.loc 1 255 3 view .LVU44
 200 002e 2072     		strb	r0, [r4, #8]
 255:Drivers/STM32WBxx_HAL_Driver/Src/stm32wbxx_hal_rng.c **** 
 201              		.loc 1 255 3 view .LVU45
 258:Drivers/STM32WBxx_HAL_Driver/Src/stm32wbxx_hal_rng.c **** }
 202              		.loc 1 258 3 view .LVU46
 259:Drivers/STM32WBxx_HAL_Driver/Src/stm32wbxx_hal_rng.c **** 
 203              		.loc 1 259 1 is_stmt 0 view .LVU47
 204 0030 10BD     		pop	{r4, pc}
 205              	.LVL10:
 206              	.L14:
 207              	.LCFI3:
 208              		.cfi_def_cfa_offset 0
 209              		.cfi_restore 4
 210              		.cfi_restore 14
 224:Drivers/STM32WBxx_HAL_Driver/Src/stm32wbxx_hal_rng.c ****   }
 211              		.loc 1 224 12 view .LVU48
 212 0032 0120     		movs	r0, #1
 213              	.LVL11:
 259:Drivers/STM32WBxx_HAL_Driver/Src/stm32wbxx_hal_rng.c **** 
 214              		.loc 1 259 1 view .LVU49
 215 0034 7047     		bx	lr
 216              		.cfi_endproc
 217              	.LFE1105:
 219              		.section	.text.HAL_RNG_GenerateRandomNumber,"ax",%progbits
 220              		.align	1
 221              		.global	HAL_RNG_GenerateRandomNumber
 222              		.syntax unified
 223              		.thumb
 224              		.thumb_func
 225              		.fpu fpv4-sp-d16
 227              	HAL_RNG_GenerateRandomNumber:
 228              	.LVL12:
 229              	.LFB1108:
 290:Drivers/STM32WBxx_HAL_Driver/Src/stm32wbxx_hal_rng.c **** 
 291:Drivers/STM32WBxx_HAL_Driver/Src/stm32wbxx_hal_rng.c **** #if (USE_HAL_RNG_REGISTER_CALLBACKS == 1)
 292:Drivers/STM32WBxx_HAL_Driver/Src/stm32wbxx_hal_rng.c **** /**
 293:Drivers/STM32WBxx_HAL_Driver/Src/stm32wbxx_hal_rng.c ****   * @brief  Register a User RNG Callback
 294:Drivers/STM32WBxx_HAL_Driver/Src/stm32wbxx_hal_rng.c ****   *         To be used instead of the weak predefined callback
 295:Drivers/STM32WBxx_HAL_Driver/Src/stm32wbxx_hal_rng.c ****   * @param  hrng RNG handle
 296:Drivers/STM32WBxx_HAL_Driver/Src/stm32wbxx_hal_rng.c ****   * @param  CallbackID ID of the callback to be registered
 297:Drivers/STM32WBxx_HAL_Driver/Src/stm32wbxx_hal_rng.c ****   *         This parameter can be one of the following values:
 298:Drivers/STM32WBxx_HAL_Driver/Src/stm32wbxx_hal_rng.c ****   *          @arg @ref HAL_RNG_ERROR_CB_ID Error callback ID
 299:Drivers/STM32WBxx_HAL_Driver/Src/stm32wbxx_hal_rng.c ****   *          @arg @ref HAL_RNG_MSPINIT_CB_ID MspInit callback ID
 300:Drivers/STM32WBxx_HAL_Driver/Src/stm32wbxx_hal_rng.c ****   *          @arg @ref HAL_RNG_MSPDEINIT_CB_ID MspDeInit callback ID
 301:Drivers/STM32WBxx_HAL_Driver/Src/stm32wbxx_hal_rng.c ****   * @param  pCallback pointer to the Callback function
 302:Drivers/STM32WBxx_HAL_Driver/Src/stm32wbxx_hal_rng.c ****   * @retval HAL status
 303:Drivers/STM32WBxx_HAL_Driver/Src/stm32wbxx_hal_rng.c ****   */
 304:Drivers/STM32WBxx_HAL_Driver/Src/stm32wbxx_hal_rng.c **** HAL_StatusTypeDef HAL_RNG_RegisterCallback(RNG_HandleTypeDef *hrng, HAL_RNG_CallbackIDTypeDef Callb
 305:Drivers/STM32WBxx_HAL_Driver/Src/stm32wbxx_hal_rng.c **** {
 306:Drivers/STM32WBxx_HAL_Driver/Src/stm32wbxx_hal_rng.c ****   HAL_StatusTypeDef status = HAL_OK;
ARM GAS  /var/folders/lt/l_qrc8c54t93n_phsj7cf5tc0000gn/T//cc9NDVF7.s 			page 11


 307:Drivers/STM32WBxx_HAL_Driver/Src/stm32wbxx_hal_rng.c **** 
 308:Drivers/STM32WBxx_HAL_Driver/Src/stm32wbxx_hal_rng.c ****   if (pCallback == NULL)
 309:Drivers/STM32WBxx_HAL_Driver/Src/stm32wbxx_hal_rng.c ****   {
 310:Drivers/STM32WBxx_HAL_Driver/Src/stm32wbxx_hal_rng.c ****     /* Update the error code */
 311:Drivers/STM32WBxx_HAL_Driver/Src/stm32wbxx_hal_rng.c ****     hrng->ErrorCode = HAL_RNG_ERROR_INVALID_CALLBACK;
 312:Drivers/STM32WBxx_HAL_Driver/Src/stm32wbxx_hal_rng.c ****     return HAL_ERROR;
 313:Drivers/STM32WBxx_HAL_Driver/Src/stm32wbxx_hal_rng.c ****   }
 314:Drivers/STM32WBxx_HAL_Driver/Src/stm32wbxx_hal_rng.c ****   /* Process locked */
 315:Drivers/STM32WBxx_HAL_Driver/Src/stm32wbxx_hal_rng.c ****   __HAL_LOCK(hrng);
 316:Drivers/STM32WBxx_HAL_Driver/Src/stm32wbxx_hal_rng.c **** 
 317:Drivers/STM32WBxx_HAL_Driver/Src/stm32wbxx_hal_rng.c ****   if (HAL_RNG_STATE_READY == hrng->State)
 318:Drivers/STM32WBxx_HAL_Driver/Src/stm32wbxx_hal_rng.c ****   {
 319:Drivers/STM32WBxx_HAL_Driver/Src/stm32wbxx_hal_rng.c ****     switch (CallbackID)
 320:Drivers/STM32WBxx_HAL_Driver/Src/stm32wbxx_hal_rng.c ****     {
 321:Drivers/STM32WBxx_HAL_Driver/Src/stm32wbxx_hal_rng.c ****       case HAL_RNG_ERROR_CB_ID :
 322:Drivers/STM32WBxx_HAL_Driver/Src/stm32wbxx_hal_rng.c ****         hrng->ErrorCallback = pCallback;
 323:Drivers/STM32WBxx_HAL_Driver/Src/stm32wbxx_hal_rng.c ****         break;
 324:Drivers/STM32WBxx_HAL_Driver/Src/stm32wbxx_hal_rng.c **** 
 325:Drivers/STM32WBxx_HAL_Driver/Src/stm32wbxx_hal_rng.c ****       case HAL_RNG_MSPINIT_CB_ID :
 326:Drivers/STM32WBxx_HAL_Driver/Src/stm32wbxx_hal_rng.c ****         hrng->MspInitCallback = pCallback;
 327:Drivers/STM32WBxx_HAL_Driver/Src/stm32wbxx_hal_rng.c ****         break;
 328:Drivers/STM32WBxx_HAL_Driver/Src/stm32wbxx_hal_rng.c **** 
 329:Drivers/STM32WBxx_HAL_Driver/Src/stm32wbxx_hal_rng.c ****       case HAL_RNG_MSPDEINIT_CB_ID :
 330:Drivers/STM32WBxx_HAL_Driver/Src/stm32wbxx_hal_rng.c ****         hrng->MspDeInitCallback = pCallback;
 331:Drivers/STM32WBxx_HAL_Driver/Src/stm32wbxx_hal_rng.c ****         break;
 332:Drivers/STM32WBxx_HAL_Driver/Src/stm32wbxx_hal_rng.c **** 
 333:Drivers/STM32WBxx_HAL_Driver/Src/stm32wbxx_hal_rng.c ****       default :
 334:Drivers/STM32WBxx_HAL_Driver/Src/stm32wbxx_hal_rng.c ****         /* Update the error code */
 335:Drivers/STM32WBxx_HAL_Driver/Src/stm32wbxx_hal_rng.c ****         hrng->ErrorCode = HAL_RNG_ERROR_INVALID_CALLBACK;
 336:Drivers/STM32WBxx_HAL_Driver/Src/stm32wbxx_hal_rng.c ****         /* Return error status */
 337:Drivers/STM32WBxx_HAL_Driver/Src/stm32wbxx_hal_rng.c ****         status =  HAL_ERROR;
 338:Drivers/STM32WBxx_HAL_Driver/Src/stm32wbxx_hal_rng.c ****         break;
 339:Drivers/STM32WBxx_HAL_Driver/Src/stm32wbxx_hal_rng.c ****     }
 340:Drivers/STM32WBxx_HAL_Driver/Src/stm32wbxx_hal_rng.c ****   }
 341:Drivers/STM32WBxx_HAL_Driver/Src/stm32wbxx_hal_rng.c ****   else if (HAL_RNG_STATE_RESET == hrng->State)
 342:Drivers/STM32WBxx_HAL_Driver/Src/stm32wbxx_hal_rng.c ****   {
 343:Drivers/STM32WBxx_HAL_Driver/Src/stm32wbxx_hal_rng.c ****     switch (CallbackID)
 344:Drivers/STM32WBxx_HAL_Driver/Src/stm32wbxx_hal_rng.c ****     {
 345:Drivers/STM32WBxx_HAL_Driver/Src/stm32wbxx_hal_rng.c ****       case HAL_RNG_MSPINIT_CB_ID :
 346:Drivers/STM32WBxx_HAL_Driver/Src/stm32wbxx_hal_rng.c ****         hrng->MspInitCallback = pCallback;
 347:Drivers/STM32WBxx_HAL_Driver/Src/stm32wbxx_hal_rng.c ****         break;
 348:Drivers/STM32WBxx_HAL_Driver/Src/stm32wbxx_hal_rng.c **** 
 349:Drivers/STM32WBxx_HAL_Driver/Src/stm32wbxx_hal_rng.c ****       case HAL_RNG_MSPDEINIT_CB_ID :
 350:Drivers/STM32WBxx_HAL_Driver/Src/stm32wbxx_hal_rng.c ****         hrng->MspDeInitCallback = pCallback;
 351:Drivers/STM32WBxx_HAL_Driver/Src/stm32wbxx_hal_rng.c ****         break;
 352:Drivers/STM32WBxx_HAL_Driver/Src/stm32wbxx_hal_rng.c **** 
 353:Drivers/STM32WBxx_HAL_Driver/Src/stm32wbxx_hal_rng.c ****       default :
 354:Drivers/STM32WBxx_HAL_Driver/Src/stm32wbxx_hal_rng.c ****         /* Update the error code */
 355:Drivers/STM32WBxx_HAL_Driver/Src/stm32wbxx_hal_rng.c ****         hrng->ErrorCode = HAL_RNG_ERROR_INVALID_CALLBACK;
 356:Drivers/STM32WBxx_HAL_Driver/Src/stm32wbxx_hal_rng.c ****         /* Return error status */
 357:Drivers/STM32WBxx_HAL_Driver/Src/stm32wbxx_hal_rng.c ****         status =  HAL_ERROR;
 358:Drivers/STM32WBxx_HAL_Driver/Src/stm32wbxx_hal_rng.c ****         break;
 359:Drivers/STM32WBxx_HAL_Driver/Src/stm32wbxx_hal_rng.c ****     }
 360:Drivers/STM32WBxx_HAL_Driver/Src/stm32wbxx_hal_rng.c ****   }
 361:Drivers/STM32WBxx_HAL_Driver/Src/stm32wbxx_hal_rng.c ****   else
 362:Drivers/STM32WBxx_HAL_Driver/Src/stm32wbxx_hal_rng.c ****   {
 363:Drivers/STM32WBxx_HAL_Driver/Src/stm32wbxx_hal_rng.c ****     /* Update the error code */
ARM GAS  /var/folders/lt/l_qrc8c54t93n_phsj7cf5tc0000gn/T//cc9NDVF7.s 			page 12


 364:Drivers/STM32WBxx_HAL_Driver/Src/stm32wbxx_hal_rng.c ****     hrng->ErrorCode = HAL_RNG_ERROR_INVALID_CALLBACK;
 365:Drivers/STM32WBxx_HAL_Driver/Src/stm32wbxx_hal_rng.c ****     /* Return error status */
 366:Drivers/STM32WBxx_HAL_Driver/Src/stm32wbxx_hal_rng.c ****     status =  HAL_ERROR;
 367:Drivers/STM32WBxx_HAL_Driver/Src/stm32wbxx_hal_rng.c ****   }
 368:Drivers/STM32WBxx_HAL_Driver/Src/stm32wbxx_hal_rng.c **** 
 369:Drivers/STM32WBxx_HAL_Driver/Src/stm32wbxx_hal_rng.c ****   /* Release Lock */
 370:Drivers/STM32WBxx_HAL_Driver/Src/stm32wbxx_hal_rng.c ****   __HAL_UNLOCK(hrng);
 371:Drivers/STM32WBxx_HAL_Driver/Src/stm32wbxx_hal_rng.c ****   return status;
 372:Drivers/STM32WBxx_HAL_Driver/Src/stm32wbxx_hal_rng.c **** }
 373:Drivers/STM32WBxx_HAL_Driver/Src/stm32wbxx_hal_rng.c **** 
 374:Drivers/STM32WBxx_HAL_Driver/Src/stm32wbxx_hal_rng.c **** /**
 375:Drivers/STM32WBxx_HAL_Driver/Src/stm32wbxx_hal_rng.c ****   * @brief  Unregister an RNG Callback
 376:Drivers/STM32WBxx_HAL_Driver/Src/stm32wbxx_hal_rng.c ****   *         RNG callback is redirected to the weak predefined callback
 377:Drivers/STM32WBxx_HAL_Driver/Src/stm32wbxx_hal_rng.c ****   * @param  hrng RNG handle
 378:Drivers/STM32WBxx_HAL_Driver/Src/stm32wbxx_hal_rng.c ****   * @param  CallbackID ID of the callback to be unregistered
 379:Drivers/STM32WBxx_HAL_Driver/Src/stm32wbxx_hal_rng.c ****   *         This parameter can be one of the following values:
 380:Drivers/STM32WBxx_HAL_Driver/Src/stm32wbxx_hal_rng.c ****   *          @arg @ref HAL_RNG_ERROR_CB_ID Error callback ID
 381:Drivers/STM32WBxx_HAL_Driver/Src/stm32wbxx_hal_rng.c ****   *          @arg @ref HAL_RNG_MSPINIT_CB_ID MspInit callback ID
 382:Drivers/STM32WBxx_HAL_Driver/Src/stm32wbxx_hal_rng.c ****   *          @arg @ref HAL_RNG_MSPDEINIT_CB_ID MspDeInit callback ID
 383:Drivers/STM32WBxx_HAL_Driver/Src/stm32wbxx_hal_rng.c ****   * @retval HAL status
 384:Drivers/STM32WBxx_HAL_Driver/Src/stm32wbxx_hal_rng.c ****   */
 385:Drivers/STM32WBxx_HAL_Driver/Src/stm32wbxx_hal_rng.c **** HAL_StatusTypeDef HAL_RNG_UnRegisterCallback(RNG_HandleTypeDef *hrng, HAL_RNG_CallbackIDTypeDef Cal
 386:Drivers/STM32WBxx_HAL_Driver/Src/stm32wbxx_hal_rng.c **** {
 387:Drivers/STM32WBxx_HAL_Driver/Src/stm32wbxx_hal_rng.c ****   HAL_StatusTypeDef status = HAL_OK;
 388:Drivers/STM32WBxx_HAL_Driver/Src/stm32wbxx_hal_rng.c **** 
 389:Drivers/STM32WBxx_HAL_Driver/Src/stm32wbxx_hal_rng.c ****   /* Process locked */
 390:Drivers/STM32WBxx_HAL_Driver/Src/stm32wbxx_hal_rng.c ****   __HAL_LOCK(hrng);
 391:Drivers/STM32WBxx_HAL_Driver/Src/stm32wbxx_hal_rng.c **** 
 392:Drivers/STM32WBxx_HAL_Driver/Src/stm32wbxx_hal_rng.c ****   if (HAL_RNG_STATE_READY == hrng->State)
 393:Drivers/STM32WBxx_HAL_Driver/Src/stm32wbxx_hal_rng.c ****   {
 394:Drivers/STM32WBxx_HAL_Driver/Src/stm32wbxx_hal_rng.c ****     switch (CallbackID)
 395:Drivers/STM32WBxx_HAL_Driver/Src/stm32wbxx_hal_rng.c ****     {
 396:Drivers/STM32WBxx_HAL_Driver/Src/stm32wbxx_hal_rng.c ****       case HAL_RNG_ERROR_CB_ID :
 397:Drivers/STM32WBxx_HAL_Driver/Src/stm32wbxx_hal_rng.c ****         hrng->ErrorCallback = HAL_RNG_ErrorCallback;          /* Legacy weak ErrorCallback  */
 398:Drivers/STM32WBxx_HAL_Driver/Src/stm32wbxx_hal_rng.c ****         break;
 399:Drivers/STM32WBxx_HAL_Driver/Src/stm32wbxx_hal_rng.c **** 
 400:Drivers/STM32WBxx_HAL_Driver/Src/stm32wbxx_hal_rng.c ****       case HAL_RNG_MSPINIT_CB_ID :
 401:Drivers/STM32WBxx_HAL_Driver/Src/stm32wbxx_hal_rng.c ****         hrng->MspInitCallback = HAL_RNG_MspInit;              /* Legacy weak MspInit  */
 402:Drivers/STM32WBxx_HAL_Driver/Src/stm32wbxx_hal_rng.c ****         break;
 403:Drivers/STM32WBxx_HAL_Driver/Src/stm32wbxx_hal_rng.c **** 
 404:Drivers/STM32WBxx_HAL_Driver/Src/stm32wbxx_hal_rng.c ****       case HAL_RNG_MSPDEINIT_CB_ID :
 405:Drivers/STM32WBxx_HAL_Driver/Src/stm32wbxx_hal_rng.c ****         hrng->MspDeInitCallback = HAL_RNG_MspDeInit;          /* Legacy weak MspDeInit  */
 406:Drivers/STM32WBxx_HAL_Driver/Src/stm32wbxx_hal_rng.c ****         break;
 407:Drivers/STM32WBxx_HAL_Driver/Src/stm32wbxx_hal_rng.c **** 
 408:Drivers/STM32WBxx_HAL_Driver/Src/stm32wbxx_hal_rng.c ****       default :
 409:Drivers/STM32WBxx_HAL_Driver/Src/stm32wbxx_hal_rng.c ****         /* Update the error code */
 410:Drivers/STM32WBxx_HAL_Driver/Src/stm32wbxx_hal_rng.c ****         hrng->ErrorCode = HAL_RNG_ERROR_INVALID_CALLBACK;
 411:Drivers/STM32WBxx_HAL_Driver/Src/stm32wbxx_hal_rng.c ****         /* Return error status */
 412:Drivers/STM32WBxx_HAL_Driver/Src/stm32wbxx_hal_rng.c ****         status =  HAL_ERROR;
 413:Drivers/STM32WBxx_HAL_Driver/Src/stm32wbxx_hal_rng.c ****         break;
 414:Drivers/STM32WBxx_HAL_Driver/Src/stm32wbxx_hal_rng.c ****     }
 415:Drivers/STM32WBxx_HAL_Driver/Src/stm32wbxx_hal_rng.c ****   }
 416:Drivers/STM32WBxx_HAL_Driver/Src/stm32wbxx_hal_rng.c ****   else if (HAL_RNG_STATE_RESET == hrng->State)
 417:Drivers/STM32WBxx_HAL_Driver/Src/stm32wbxx_hal_rng.c ****   {
 418:Drivers/STM32WBxx_HAL_Driver/Src/stm32wbxx_hal_rng.c ****     switch (CallbackID)
 419:Drivers/STM32WBxx_HAL_Driver/Src/stm32wbxx_hal_rng.c ****     {
 420:Drivers/STM32WBxx_HAL_Driver/Src/stm32wbxx_hal_rng.c ****       case HAL_RNG_MSPINIT_CB_ID :
ARM GAS  /var/folders/lt/l_qrc8c54t93n_phsj7cf5tc0000gn/T//cc9NDVF7.s 			page 13


 421:Drivers/STM32WBxx_HAL_Driver/Src/stm32wbxx_hal_rng.c ****         hrng->MspInitCallback = HAL_RNG_MspInit;              /* Legacy weak MspInit  */
 422:Drivers/STM32WBxx_HAL_Driver/Src/stm32wbxx_hal_rng.c ****         break;
 423:Drivers/STM32WBxx_HAL_Driver/Src/stm32wbxx_hal_rng.c **** 
 424:Drivers/STM32WBxx_HAL_Driver/Src/stm32wbxx_hal_rng.c ****       case HAL_RNG_MSPDEINIT_CB_ID :
 425:Drivers/STM32WBxx_HAL_Driver/Src/stm32wbxx_hal_rng.c ****         hrng->MspDeInitCallback = HAL_RNG_MspDeInit;          /* Legacy weak MspInit  */
 426:Drivers/STM32WBxx_HAL_Driver/Src/stm32wbxx_hal_rng.c ****         break;
 427:Drivers/STM32WBxx_HAL_Driver/Src/stm32wbxx_hal_rng.c **** 
 428:Drivers/STM32WBxx_HAL_Driver/Src/stm32wbxx_hal_rng.c ****       default :
 429:Drivers/STM32WBxx_HAL_Driver/Src/stm32wbxx_hal_rng.c ****         /* Update the error code */
 430:Drivers/STM32WBxx_HAL_Driver/Src/stm32wbxx_hal_rng.c ****         hrng->ErrorCode = HAL_RNG_ERROR_INVALID_CALLBACK;
 431:Drivers/STM32WBxx_HAL_Driver/Src/stm32wbxx_hal_rng.c ****         /* Return error status */
 432:Drivers/STM32WBxx_HAL_Driver/Src/stm32wbxx_hal_rng.c ****         status =  HAL_ERROR;
 433:Drivers/STM32WBxx_HAL_Driver/Src/stm32wbxx_hal_rng.c ****         break;
 434:Drivers/STM32WBxx_HAL_Driver/Src/stm32wbxx_hal_rng.c ****     }
 435:Drivers/STM32WBxx_HAL_Driver/Src/stm32wbxx_hal_rng.c ****   }
 436:Drivers/STM32WBxx_HAL_Driver/Src/stm32wbxx_hal_rng.c ****   else
 437:Drivers/STM32WBxx_HAL_Driver/Src/stm32wbxx_hal_rng.c ****   {
 438:Drivers/STM32WBxx_HAL_Driver/Src/stm32wbxx_hal_rng.c ****     /* Update the error code */
 439:Drivers/STM32WBxx_HAL_Driver/Src/stm32wbxx_hal_rng.c ****     hrng->ErrorCode = HAL_RNG_ERROR_INVALID_CALLBACK;
 440:Drivers/STM32WBxx_HAL_Driver/Src/stm32wbxx_hal_rng.c ****     /* Return error status */
 441:Drivers/STM32WBxx_HAL_Driver/Src/stm32wbxx_hal_rng.c ****     status =  HAL_ERROR;
 442:Drivers/STM32WBxx_HAL_Driver/Src/stm32wbxx_hal_rng.c ****   }
 443:Drivers/STM32WBxx_HAL_Driver/Src/stm32wbxx_hal_rng.c **** 
 444:Drivers/STM32WBxx_HAL_Driver/Src/stm32wbxx_hal_rng.c ****   /* Release Lock */
 445:Drivers/STM32WBxx_HAL_Driver/Src/stm32wbxx_hal_rng.c ****   __HAL_UNLOCK(hrng);
 446:Drivers/STM32WBxx_HAL_Driver/Src/stm32wbxx_hal_rng.c ****   return status;
 447:Drivers/STM32WBxx_HAL_Driver/Src/stm32wbxx_hal_rng.c **** }
 448:Drivers/STM32WBxx_HAL_Driver/Src/stm32wbxx_hal_rng.c **** 
 449:Drivers/STM32WBxx_HAL_Driver/Src/stm32wbxx_hal_rng.c **** /**
 450:Drivers/STM32WBxx_HAL_Driver/Src/stm32wbxx_hal_rng.c ****   * @brief  Register Data Ready RNG Callback
 451:Drivers/STM32WBxx_HAL_Driver/Src/stm32wbxx_hal_rng.c ****   *         To be used instead of the weak HAL_RNG_ReadyDataCallback() predefined callback
 452:Drivers/STM32WBxx_HAL_Driver/Src/stm32wbxx_hal_rng.c ****   * @param  hrng RNG handle
 453:Drivers/STM32WBxx_HAL_Driver/Src/stm32wbxx_hal_rng.c ****   * @param  pCallback pointer to the Data Ready Callback function
 454:Drivers/STM32WBxx_HAL_Driver/Src/stm32wbxx_hal_rng.c ****   * @retval HAL status
 455:Drivers/STM32WBxx_HAL_Driver/Src/stm32wbxx_hal_rng.c ****   */
 456:Drivers/STM32WBxx_HAL_Driver/Src/stm32wbxx_hal_rng.c **** HAL_StatusTypeDef HAL_RNG_RegisterReadyDataCallback(RNG_HandleTypeDef *hrng, pRNG_ReadyDataCallback
 457:Drivers/STM32WBxx_HAL_Driver/Src/stm32wbxx_hal_rng.c **** {
 458:Drivers/STM32WBxx_HAL_Driver/Src/stm32wbxx_hal_rng.c ****   HAL_StatusTypeDef status = HAL_OK;
 459:Drivers/STM32WBxx_HAL_Driver/Src/stm32wbxx_hal_rng.c **** 
 460:Drivers/STM32WBxx_HAL_Driver/Src/stm32wbxx_hal_rng.c ****   if (pCallback == NULL)
 461:Drivers/STM32WBxx_HAL_Driver/Src/stm32wbxx_hal_rng.c ****   {
 462:Drivers/STM32WBxx_HAL_Driver/Src/stm32wbxx_hal_rng.c ****     /* Update the error code */
 463:Drivers/STM32WBxx_HAL_Driver/Src/stm32wbxx_hal_rng.c ****     hrng->ErrorCode = HAL_RNG_ERROR_INVALID_CALLBACK;
 464:Drivers/STM32WBxx_HAL_Driver/Src/stm32wbxx_hal_rng.c ****     return HAL_ERROR;
 465:Drivers/STM32WBxx_HAL_Driver/Src/stm32wbxx_hal_rng.c ****   }
 466:Drivers/STM32WBxx_HAL_Driver/Src/stm32wbxx_hal_rng.c ****   /* Process locked */
 467:Drivers/STM32WBxx_HAL_Driver/Src/stm32wbxx_hal_rng.c ****   __HAL_LOCK(hrng);
 468:Drivers/STM32WBxx_HAL_Driver/Src/stm32wbxx_hal_rng.c **** 
 469:Drivers/STM32WBxx_HAL_Driver/Src/stm32wbxx_hal_rng.c ****   if (HAL_RNG_STATE_READY == hrng->State)
 470:Drivers/STM32WBxx_HAL_Driver/Src/stm32wbxx_hal_rng.c ****   {
 471:Drivers/STM32WBxx_HAL_Driver/Src/stm32wbxx_hal_rng.c ****     hrng->ReadyDataCallback = pCallback;
 472:Drivers/STM32WBxx_HAL_Driver/Src/stm32wbxx_hal_rng.c ****   }
 473:Drivers/STM32WBxx_HAL_Driver/Src/stm32wbxx_hal_rng.c ****   else
 474:Drivers/STM32WBxx_HAL_Driver/Src/stm32wbxx_hal_rng.c ****   {
 475:Drivers/STM32WBxx_HAL_Driver/Src/stm32wbxx_hal_rng.c ****     /* Update the error code */
 476:Drivers/STM32WBxx_HAL_Driver/Src/stm32wbxx_hal_rng.c ****     hrng->ErrorCode = HAL_RNG_ERROR_INVALID_CALLBACK;
 477:Drivers/STM32WBxx_HAL_Driver/Src/stm32wbxx_hal_rng.c ****     /* Return error status */
ARM GAS  /var/folders/lt/l_qrc8c54t93n_phsj7cf5tc0000gn/T//cc9NDVF7.s 			page 14


 478:Drivers/STM32WBxx_HAL_Driver/Src/stm32wbxx_hal_rng.c ****     status =  HAL_ERROR;
 479:Drivers/STM32WBxx_HAL_Driver/Src/stm32wbxx_hal_rng.c ****   }
 480:Drivers/STM32WBxx_HAL_Driver/Src/stm32wbxx_hal_rng.c **** 
 481:Drivers/STM32WBxx_HAL_Driver/Src/stm32wbxx_hal_rng.c ****   /* Release Lock */
 482:Drivers/STM32WBxx_HAL_Driver/Src/stm32wbxx_hal_rng.c ****   __HAL_UNLOCK(hrng);
 483:Drivers/STM32WBxx_HAL_Driver/Src/stm32wbxx_hal_rng.c ****   return status;
 484:Drivers/STM32WBxx_HAL_Driver/Src/stm32wbxx_hal_rng.c **** }
 485:Drivers/STM32WBxx_HAL_Driver/Src/stm32wbxx_hal_rng.c **** 
 486:Drivers/STM32WBxx_HAL_Driver/Src/stm32wbxx_hal_rng.c **** /**
 487:Drivers/STM32WBxx_HAL_Driver/Src/stm32wbxx_hal_rng.c ****   * @brief  UnRegister the Data Ready RNG Callback
 488:Drivers/STM32WBxx_HAL_Driver/Src/stm32wbxx_hal_rng.c ****   *         Data Ready RNG Callback is redirected to the weak HAL_RNG_ReadyDataCallback() predefine
 489:Drivers/STM32WBxx_HAL_Driver/Src/stm32wbxx_hal_rng.c ****   * @param  hrng RNG handle
 490:Drivers/STM32WBxx_HAL_Driver/Src/stm32wbxx_hal_rng.c ****   * @retval HAL status
 491:Drivers/STM32WBxx_HAL_Driver/Src/stm32wbxx_hal_rng.c ****   */
 492:Drivers/STM32WBxx_HAL_Driver/Src/stm32wbxx_hal_rng.c **** HAL_StatusTypeDef HAL_RNG_UnRegisterReadyDataCallback(RNG_HandleTypeDef *hrng)
 493:Drivers/STM32WBxx_HAL_Driver/Src/stm32wbxx_hal_rng.c **** {
 494:Drivers/STM32WBxx_HAL_Driver/Src/stm32wbxx_hal_rng.c ****   HAL_StatusTypeDef status = HAL_OK;
 495:Drivers/STM32WBxx_HAL_Driver/Src/stm32wbxx_hal_rng.c **** 
 496:Drivers/STM32WBxx_HAL_Driver/Src/stm32wbxx_hal_rng.c ****   /* Process locked */
 497:Drivers/STM32WBxx_HAL_Driver/Src/stm32wbxx_hal_rng.c ****   __HAL_LOCK(hrng);
 498:Drivers/STM32WBxx_HAL_Driver/Src/stm32wbxx_hal_rng.c **** 
 499:Drivers/STM32WBxx_HAL_Driver/Src/stm32wbxx_hal_rng.c ****   if (HAL_RNG_STATE_READY == hrng->State)
 500:Drivers/STM32WBxx_HAL_Driver/Src/stm32wbxx_hal_rng.c ****   {
 501:Drivers/STM32WBxx_HAL_Driver/Src/stm32wbxx_hal_rng.c ****     hrng->ReadyDataCallback = HAL_RNG_ReadyDataCallback; /* Legacy weak ReadyDataCallback  */
 502:Drivers/STM32WBxx_HAL_Driver/Src/stm32wbxx_hal_rng.c ****   }
 503:Drivers/STM32WBxx_HAL_Driver/Src/stm32wbxx_hal_rng.c ****   else
 504:Drivers/STM32WBxx_HAL_Driver/Src/stm32wbxx_hal_rng.c ****   {
 505:Drivers/STM32WBxx_HAL_Driver/Src/stm32wbxx_hal_rng.c ****     /* Update the error code */
 506:Drivers/STM32WBxx_HAL_Driver/Src/stm32wbxx_hal_rng.c ****     hrng->ErrorCode = HAL_RNG_ERROR_INVALID_CALLBACK;
 507:Drivers/STM32WBxx_HAL_Driver/Src/stm32wbxx_hal_rng.c ****     /* Return error status */
 508:Drivers/STM32WBxx_HAL_Driver/Src/stm32wbxx_hal_rng.c ****     status =  HAL_ERROR;
 509:Drivers/STM32WBxx_HAL_Driver/Src/stm32wbxx_hal_rng.c ****   }
 510:Drivers/STM32WBxx_HAL_Driver/Src/stm32wbxx_hal_rng.c **** 
 511:Drivers/STM32WBxx_HAL_Driver/Src/stm32wbxx_hal_rng.c ****   /* Release Lock */
 512:Drivers/STM32WBxx_HAL_Driver/Src/stm32wbxx_hal_rng.c ****   __HAL_UNLOCK(hrng);
 513:Drivers/STM32WBxx_HAL_Driver/Src/stm32wbxx_hal_rng.c ****   return status;
 514:Drivers/STM32WBxx_HAL_Driver/Src/stm32wbxx_hal_rng.c **** }
 515:Drivers/STM32WBxx_HAL_Driver/Src/stm32wbxx_hal_rng.c **** 
 516:Drivers/STM32WBxx_HAL_Driver/Src/stm32wbxx_hal_rng.c **** #endif /* USE_HAL_RNG_REGISTER_CALLBACKS */
 517:Drivers/STM32WBxx_HAL_Driver/Src/stm32wbxx_hal_rng.c **** 
 518:Drivers/STM32WBxx_HAL_Driver/Src/stm32wbxx_hal_rng.c **** /**
 519:Drivers/STM32WBxx_HAL_Driver/Src/stm32wbxx_hal_rng.c ****   * @}
 520:Drivers/STM32WBxx_HAL_Driver/Src/stm32wbxx_hal_rng.c ****   */
 521:Drivers/STM32WBxx_HAL_Driver/Src/stm32wbxx_hal_rng.c **** 
 522:Drivers/STM32WBxx_HAL_Driver/Src/stm32wbxx_hal_rng.c **** /** @addtogroup RNG_Exported_Functions_Group2
 523:Drivers/STM32WBxx_HAL_Driver/Src/stm32wbxx_hal_rng.c ****   * @brief   Peripheral Control functions
 524:Drivers/STM32WBxx_HAL_Driver/Src/stm32wbxx_hal_rng.c ****   *
 525:Drivers/STM32WBxx_HAL_Driver/Src/stm32wbxx_hal_rng.c **** @verbatim
 526:Drivers/STM32WBxx_HAL_Driver/Src/stm32wbxx_hal_rng.c ****  ===============================================================================
 527:Drivers/STM32WBxx_HAL_Driver/Src/stm32wbxx_hal_rng.c ****                       ##### Peripheral Control functions #####
 528:Drivers/STM32WBxx_HAL_Driver/Src/stm32wbxx_hal_rng.c ****  ===============================================================================
 529:Drivers/STM32WBxx_HAL_Driver/Src/stm32wbxx_hal_rng.c ****     [..]  This section provides functions allowing to:
 530:Drivers/STM32WBxx_HAL_Driver/Src/stm32wbxx_hal_rng.c ****       (+) Get the 32 bit Random number
 531:Drivers/STM32WBxx_HAL_Driver/Src/stm32wbxx_hal_rng.c ****       (+) Get the 32 bit Random number with interrupt enabled
 532:Drivers/STM32WBxx_HAL_Driver/Src/stm32wbxx_hal_rng.c ****       (+) Handle RNG interrupt request
 533:Drivers/STM32WBxx_HAL_Driver/Src/stm32wbxx_hal_rng.c **** 
 534:Drivers/STM32WBxx_HAL_Driver/Src/stm32wbxx_hal_rng.c **** @endverbatim
ARM GAS  /var/folders/lt/l_qrc8c54t93n_phsj7cf5tc0000gn/T//cc9NDVF7.s 			page 15


 535:Drivers/STM32WBxx_HAL_Driver/Src/stm32wbxx_hal_rng.c ****   * @{
 536:Drivers/STM32WBxx_HAL_Driver/Src/stm32wbxx_hal_rng.c ****   */
 537:Drivers/STM32WBxx_HAL_Driver/Src/stm32wbxx_hal_rng.c **** 
 538:Drivers/STM32WBxx_HAL_Driver/Src/stm32wbxx_hal_rng.c **** /**
 539:Drivers/STM32WBxx_HAL_Driver/Src/stm32wbxx_hal_rng.c ****   * @brief  Generates a 32-bit random number.
 540:Drivers/STM32WBxx_HAL_Driver/Src/stm32wbxx_hal_rng.c ****   * @note   This function checks value of RNG_FLAG_DRDY flag to know if valid
 541:Drivers/STM32WBxx_HAL_Driver/Src/stm32wbxx_hal_rng.c ****   *         random number is available in the DR register (RNG_FLAG_DRDY flag set
 542:Drivers/STM32WBxx_HAL_Driver/Src/stm32wbxx_hal_rng.c ****   *         whenever a random number is available through the RNG_DR register).
 543:Drivers/STM32WBxx_HAL_Driver/Src/stm32wbxx_hal_rng.c ****   *         After transitioning from 0 to 1 (random number available),
 544:Drivers/STM32WBxx_HAL_Driver/Src/stm32wbxx_hal_rng.c ****   *         RNG_FLAG_DRDY flag remains high until output buffer becomes empty after reading
 545:Drivers/STM32WBxx_HAL_Driver/Src/stm32wbxx_hal_rng.c ****   *         four words from the RNG_DR register, i.e. further function calls
 546:Drivers/STM32WBxx_HAL_Driver/Src/stm32wbxx_hal_rng.c ****   *         will immediately return a new u32 random number (additional words are
 547:Drivers/STM32WBxx_HAL_Driver/Src/stm32wbxx_hal_rng.c ****   *         available and can be read by the application, till RNG_FLAG_DRDY flag remains high).
 548:Drivers/STM32WBxx_HAL_Driver/Src/stm32wbxx_hal_rng.c ****   * @note   When no more random number data is available in DR register, RNG_FLAG_DRDY
 549:Drivers/STM32WBxx_HAL_Driver/Src/stm32wbxx_hal_rng.c ****   *         flag is automatically cleared.
 550:Drivers/STM32WBxx_HAL_Driver/Src/stm32wbxx_hal_rng.c ****   * @param  hrng pointer to a RNG_HandleTypeDef structure that contains
 551:Drivers/STM32WBxx_HAL_Driver/Src/stm32wbxx_hal_rng.c ****   *                the configuration information for RNG.
 552:Drivers/STM32WBxx_HAL_Driver/Src/stm32wbxx_hal_rng.c ****   * @param  random32bit pointer to generated random number variable if successful.
 553:Drivers/STM32WBxx_HAL_Driver/Src/stm32wbxx_hal_rng.c ****   * @retval HAL status
 554:Drivers/STM32WBxx_HAL_Driver/Src/stm32wbxx_hal_rng.c ****   */
 555:Drivers/STM32WBxx_HAL_Driver/Src/stm32wbxx_hal_rng.c **** 
 556:Drivers/STM32WBxx_HAL_Driver/Src/stm32wbxx_hal_rng.c **** HAL_StatusTypeDef HAL_RNG_GenerateRandomNumber(RNG_HandleTypeDef *hrng, uint32_t *random32bit)
 557:Drivers/STM32WBxx_HAL_Driver/Src/stm32wbxx_hal_rng.c **** {
 230              		.loc 1 557 1 is_stmt 1 view -0
 231              		.cfi_startproc
 232              		@ args = 0, pretend = 0, frame = 0
 233              		@ frame_needed = 0, uses_anonymous_args = 0
 234              		.loc 1 557 1 is_stmt 0 view .LVU51
 235 0000 F8B5     		push	{r3, r4, r5, r6, r7, lr}
 236              	.LCFI4:
 237              		.cfi_def_cfa_offset 24
 238              		.cfi_offset 3, -24
 239              		.cfi_offset 4, -20
 240              		.cfi_offset 5, -16
 241              		.cfi_offset 6, -12
 242              		.cfi_offset 7, -8
 243              		.cfi_offset 14, -4
 558:Drivers/STM32WBxx_HAL_Driver/Src/stm32wbxx_hal_rng.c ****   uint32_t tickstart;
 244              		.loc 1 558 3 is_stmt 1 view .LVU52
 559:Drivers/STM32WBxx_HAL_Driver/Src/stm32wbxx_hal_rng.c ****   HAL_StatusTypeDef status = HAL_OK;
 245              		.loc 1 559 3 view .LVU53
 246              	.LVL13:
 560:Drivers/STM32WBxx_HAL_Driver/Src/stm32wbxx_hal_rng.c **** 
 561:Drivers/STM32WBxx_HAL_Driver/Src/stm32wbxx_hal_rng.c ****   /* Process Locked */
 562:Drivers/STM32WBxx_HAL_Driver/Src/stm32wbxx_hal_rng.c ****   __HAL_LOCK(hrng);
 247              		.loc 1 562 3 view .LVU54
 248              		.loc 1 562 3 view .LVU55
 249 0002 037A     		ldrb	r3, [r0, #8]	@ zero_extendqisi2
 250 0004 012B     		cmp	r3, #1
 251 0006 30D0     		beq	.L25
 252 0008 0446     		mov	r4, r0
 253 000a 0E46     		mov	r6, r1
 254              		.loc 1 562 3 discriminator 2 view .LVU56
 255 000c 0123     		movs	r3, #1
 256 000e 0372     		strb	r3, [r0, #8]
 257              		.loc 1 562 3 discriminator 2 view .LVU57
 563:Drivers/STM32WBxx_HAL_Driver/Src/stm32wbxx_hal_rng.c **** 
ARM GAS  /var/folders/lt/l_qrc8c54t93n_phsj7cf5tc0000gn/T//cc9NDVF7.s 			page 16


 564:Drivers/STM32WBxx_HAL_Driver/Src/stm32wbxx_hal_rng.c ****   /* Check RNG peripheral state */
 565:Drivers/STM32WBxx_HAL_Driver/Src/stm32wbxx_hal_rng.c ****   if (hrng->State == HAL_RNG_STATE_READY)
 258              		.loc 1 565 3 discriminator 2 view .LVU58
 259              		.loc 1 565 11 is_stmt 0 discriminator 2 view .LVU59
 260 0010 457A     		ldrb	r5, [r0, #9]	@ zero_extendqisi2
 261 0012 EDB2     		uxtb	r5, r5
 262              		.loc 1 565 6 discriminator 2 view .LVU60
 263 0014 9D42     		cmp	r5, r3
 264 0016 06D0     		beq	.L27
 566:Drivers/STM32WBxx_HAL_Driver/Src/stm32wbxx_hal_rng.c ****   {
 567:Drivers/STM32WBxx_HAL_Driver/Src/stm32wbxx_hal_rng.c ****     /* Change RNG peripheral state */
 568:Drivers/STM32WBxx_HAL_Driver/Src/stm32wbxx_hal_rng.c ****     hrng->State = HAL_RNG_STATE_BUSY;
 569:Drivers/STM32WBxx_HAL_Driver/Src/stm32wbxx_hal_rng.c **** 
 570:Drivers/STM32WBxx_HAL_Driver/Src/stm32wbxx_hal_rng.c ****     /* Get tick */
 571:Drivers/STM32WBxx_HAL_Driver/Src/stm32wbxx_hal_rng.c ****     tickstart = HAL_GetTick();
 572:Drivers/STM32WBxx_HAL_Driver/Src/stm32wbxx_hal_rng.c **** 
 573:Drivers/STM32WBxx_HAL_Driver/Src/stm32wbxx_hal_rng.c ****     /* Check if data register contains valid random data */
 574:Drivers/STM32WBxx_HAL_Driver/Src/stm32wbxx_hal_rng.c ****     while (__HAL_RNG_GET_FLAG(hrng, RNG_FLAG_DRDY) == RESET)
 575:Drivers/STM32WBxx_HAL_Driver/Src/stm32wbxx_hal_rng.c ****     {
 576:Drivers/STM32WBxx_HAL_Driver/Src/stm32wbxx_hal_rng.c ****       if ((HAL_GetTick() - tickstart) > RNG_TIMEOUT_VALUE)
 577:Drivers/STM32WBxx_HAL_Driver/Src/stm32wbxx_hal_rng.c ****       {
 578:Drivers/STM32WBxx_HAL_Driver/Src/stm32wbxx_hal_rng.c ****         /* New check to avoid false timeout detection in case of preemption */
 579:Drivers/STM32WBxx_HAL_Driver/Src/stm32wbxx_hal_rng.c ****         if (__HAL_RNG_GET_FLAG(hrng, RNG_FLAG_DRDY) == RESET)
 580:Drivers/STM32WBxx_HAL_Driver/Src/stm32wbxx_hal_rng.c ****         {
 581:Drivers/STM32WBxx_HAL_Driver/Src/stm32wbxx_hal_rng.c ****           hrng->State = HAL_RNG_STATE_READY;
 582:Drivers/STM32WBxx_HAL_Driver/Src/stm32wbxx_hal_rng.c ****           hrng->ErrorCode = HAL_RNG_ERROR_TIMEOUT;
 583:Drivers/STM32WBxx_HAL_Driver/Src/stm32wbxx_hal_rng.c ****           /* Process Unlocked */
 584:Drivers/STM32WBxx_HAL_Driver/Src/stm32wbxx_hal_rng.c ****           __HAL_UNLOCK(hrng);
 585:Drivers/STM32WBxx_HAL_Driver/Src/stm32wbxx_hal_rng.c ****           return HAL_ERROR;
 586:Drivers/STM32WBxx_HAL_Driver/Src/stm32wbxx_hal_rng.c ****         }
 587:Drivers/STM32WBxx_HAL_Driver/Src/stm32wbxx_hal_rng.c ****       }
 588:Drivers/STM32WBxx_HAL_Driver/Src/stm32wbxx_hal_rng.c ****     }
 589:Drivers/STM32WBxx_HAL_Driver/Src/stm32wbxx_hal_rng.c **** 
 590:Drivers/STM32WBxx_HAL_Driver/Src/stm32wbxx_hal_rng.c ****     /* Get a 32bit Random number */
 591:Drivers/STM32WBxx_HAL_Driver/Src/stm32wbxx_hal_rng.c ****     hrng->RandomNumber = hrng->Instance->DR;
 592:Drivers/STM32WBxx_HAL_Driver/Src/stm32wbxx_hal_rng.c ****     *random32bit = hrng->RandomNumber;
 593:Drivers/STM32WBxx_HAL_Driver/Src/stm32wbxx_hal_rng.c **** 
 594:Drivers/STM32WBxx_HAL_Driver/Src/stm32wbxx_hal_rng.c ****     hrng->State = HAL_RNG_STATE_READY;
 595:Drivers/STM32WBxx_HAL_Driver/Src/stm32wbxx_hal_rng.c ****   }
 596:Drivers/STM32WBxx_HAL_Driver/Src/stm32wbxx_hal_rng.c ****   else
 597:Drivers/STM32WBxx_HAL_Driver/Src/stm32wbxx_hal_rng.c ****   {
 598:Drivers/STM32WBxx_HAL_Driver/Src/stm32wbxx_hal_rng.c ****     hrng->ErrorCode = HAL_RNG_ERROR_BUSY;
 265              		.loc 1 598 5 is_stmt 1 view .LVU61
 266              		.loc 1 598 21 is_stmt 0 view .LVU62
 267 0018 0423     		movs	r3, #4
 268 001a C360     		str	r3, [r0, #12]
 599:Drivers/STM32WBxx_HAL_Driver/Src/stm32wbxx_hal_rng.c ****     status = HAL_ERROR;
 269              		.loc 1 599 5 is_stmt 1 view .LVU63
 270              	.LVL14:
 271              		.loc 1 599 12 is_stmt 0 view .LVU64
 272 001c 0125     		movs	r5, #1
 273              	.LVL15:
 274              	.L24:
 600:Drivers/STM32WBxx_HAL_Driver/Src/stm32wbxx_hal_rng.c ****   }
 601:Drivers/STM32WBxx_HAL_Driver/Src/stm32wbxx_hal_rng.c **** 
 602:Drivers/STM32WBxx_HAL_Driver/Src/stm32wbxx_hal_rng.c ****   /* Process Unlocked */
 603:Drivers/STM32WBxx_HAL_Driver/Src/stm32wbxx_hal_rng.c ****   __HAL_UNLOCK(hrng);
ARM GAS  /var/folders/lt/l_qrc8c54t93n_phsj7cf5tc0000gn/T//cc9NDVF7.s 			page 17


 275              		.loc 1 603 3 is_stmt 1 view .LVU65
 276              		.loc 1 603 3 view .LVU66
 277 001e 0023     		movs	r3, #0
 278 0020 2372     		strb	r3, [r4, #8]
 279              		.loc 1 603 3 view .LVU67
 604:Drivers/STM32WBxx_HAL_Driver/Src/stm32wbxx_hal_rng.c **** 
 605:Drivers/STM32WBxx_HAL_Driver/Src/stm32wbxx_hal_rng.c ****   return status;
 280              		.loc 1 605 3 view .LVU68
 281              	.LVL16:
 282              	.L20:
 606:Drivers/STM32WBxx_HAL_Driver/Src/stm32wbxx_hal_rng.c **** }
 283              		.loc 1 606 1 is_stmt 0 view .LVU69
 284 0022 2846     		mov	r0, r5
 285 0024 F8BD     		pop	{r3, r4, r5, r6, r7, pc}
 286              	.LVL17:
 287              	.L27:
 568:Drivers/STM32WBxx_HAL_Driver/Src/stm32wbxx_hal_rng.c **** 
 288              		.loc 1 568 5 is_stmt 1 view .LVU70
 568:Drivers/STM32WBxx_HAL_Driver/Src/stm32wbxx_hal_rng.c **** 
 289              		.loc 1 568 17 is_stmt 0 view .LVU71
 290 0026 0223     		movs	r3, #2
 291 0028 4372     		strb	r3, [r0, #9]
 571:Drivers/STM32WBxx_HAL_Driver/Src/stm32wbxx_hal_rng.c **** 
 292              		.loc 1 571 5 is_stmt 1 view .LVU72
 571:Drivers/STM32WBxx_HAL_Driver/Src/stm32wbxx_hal_rng.c **** 
 293              		.loc 1 571 17 is_stmt 0 view .LVU73
 294 002a FFF7FEFF 		bl	HAL_GetTick
 295              	.LVL18:
 571:Drivers/STM32WBxx_HAL_Driver/Src/stm32wbxx_hal_rng.c **** 
 296              		.loc 1 571 17 view .LVU74
 297 002e 0746     		mov	r7, r0
 298              	.LVL19:
 574:Drivers/STM32WBxx_HAL_Driver/Src/stm32wbxx_hal_rng.c ****     {
 299              		.loc 1 574 5 is_stmt 1 view .LVU75
 300              	.L22:
 574:Drivers/STM32WBxx_HAL_Driver/Src/stm32wbxx_hal_rng.c ****     {
 301              		.loc 1 574 11 view .LVU76
 574:Drivers/STM32WBxx_HAL_Driver/Src/stm32wbxx_hal_rng.c ****     {
 302              		.loc 1 574 12 is_stmt 0 view .LVU77
 303 0030 2368     		ldr	r3, [r4]
 304 0032 5A68     		ldr	r2, [r3, #4]
 574:Drivers/STM32WBxx_HAL_Driver/Src/stm32wbxx_hal_rng.c ****     {
 305              		.loc 1 574 11 view .LVU78
 306 0034 12F0010F 		tst	r2, #1
 307 0038 10D1     		bne	.L28
 576:Drivers/STM32WBxx_HAL_Driver/Src/stm32wbxx_hal_rng.c ****       {
 308              		.loc 1 576 7 is_stmt 1 view .LVU79
 576:Drivers/STM32WBxx_HAL_Driver/Src/stm32wbxx_hal_rng.c ****       {
 309              		.loc 1 576 12 is_stmt 0 view .LVU80
 310 003a FFF7FEFF 		bl	HAL_GetTick
 311              	.LVL20:
 576:Drivers/STM32WBxx_HAL_Driver/Src/stm32wbxx_hal_rng.c ****       {
 312              		.loc 1 576 26 view .LVU81
 313 003e C01B     		subs	r0, r0, r7
 576:Drivers/STM32WBxx_HAL_Driver/Src/stm32wbxx_hal_rng.c ****       {
 314              		.loc 1 576 10 view .LVU82
 315 0040 0228     		cmp	r0, #2
ARM GAS  /var/folders/lt/l_qrc8c54t93n_phsj7cf5tc0000gn/T//cc9NDVF7.s 			page 18


 316 0042 F5D9     		bls	.L22
 579:Drivers/STM32WBxx_HAL_Driver/Src/stm32wbxx_hal_rng.c ****         {
 317              		.loc 1 579 9 is_stmt 1 view .LVU83
 579:Drivers/STM32WBxx_HAL_Driver/Src/stm32wbxx_hal_rng.c ****         {
 318              		.loc 1 579 13 is_stmt 0 view .LVU84
 319 0044 2368     		ldr	r3, [r4]
 320 0046 5B68     		ldr	r3, [r3, #4]
 579:Drivers/STM32WBxx_HAL_Driver/Src/stm32wbxx_hal_rng.c ****         {
 321              		.loc 1 579 12 view .LVU85
 322 0048 13F0010F 		tst	r3, #1
 323 004c F0D1     		bne	.L22
 581:Drivers/STM32WBxx_HAL_Driver/Src/stm32wbxx_hal_rng.c ****           hrng->ErrorCode = HAL_RNG_ERROR_TIMEOUT;
 324              		.loc 1 581 11 is_stmt 1 view .LVU86
 581:Drivers/STM32WBxx_HAL_Driver/Src/stm32wbxx_hal_rng.c ****           hrng->ErrorCode = HAL_RNG_ERROR_TIMEOUT;
 325              		.loc 1 581 23 is_stmt 0 view .LVU87
 326 004e 0123     		movs	r3, #1
 327 0050 6372     		strb	r3, [r4, #9]
 582:Drivers/STM32WBxx_HAL_Driver/Src/stm32wbxx_hal_rng.c ****           /* Process Unlocked */
 328              		.loc 1 582 11 is_stmt 1 view .LVU88
 582:Drivers/STM32WBxx_HAL_Driver/Src/stm32wbxx_hal_rng.c ****           /* Process Unlocked */
 329              		.loc 1 582 27 is_stmt 0 view .LVU89
 330 0052 0223     		movs	r3, #2
 331 0054 E360     		str	r3, [r4, #12]
 584:Drivers/STM32WBxx_HAL_Driver/Src/stm32wbxx_hal_rng.c ****           return HAL_ERROR;
 332              		.loc 1 584 11 is_stmt 1 view .LVU90
 584:Drivers/STM32WBxx_HAL_Driver/Src/stm32wbxx_hal_rng.c ****           return HAL_ERROR;
 333              		.loc 1 584 11 view .LVU91
 334 0056 0023     		movs	r3, #0
 335 0058 2372     		strb	r3, [r4, #8]
 584:Drivers/STM32WBxx_HAL_Driver/Src/stm32wbxx_hal_rng.c ****           return HAL_ERROR;
 336              		.loc 1 584 11 view .LVU92
 585:Drivers/STM32WBxx_HAL_Driver/Src/stm32wbxx_hal_rng.c ****         }
 337              		.loc 1 585 11 view .LVU93
 585:Drivers/STM32WBxx_HAL_Driver/Src/stm32wbxx_hal_rng.c ****         }
 338              		.loc 1 585 18 is_stmt 0 view .LVU94
 339 005a E2E7     		b	.L20
 340              	.L28:
 591:Drivers/STM32WBxx_HAL_Driver/Src/stm32wbxx_hal_rng.c ****     *random32bit = hrng->RandomNumber;
 341              		.loc 1 591 5 is_stmt 1 view .LVU95
 591:Drivers/STM32WBxx_HAL_Driver/Src/stm32wbxx_hal_rng.c ****     *random32bit = hrng->RandomNumber;
 342              		.loc 1 591 40 is_stmt 0 view .LVU96
 343 005c 9B68     		ldr	r3, [r3, #8]
 591:Drivers/STM32WBxx_HAL_Driver/Src/stm32wbxx_hal_rng.c ****     *random32bit = hrng->RandomNumber;
 344              		.loc 1 591 24 view .LVU97
 345 005e 2361     		str	r3, [r4, #16]
 592:Drivers/STM32WBxx_HAL_Driver/Src/stm32wbxx_hal_rng.c **** 
 346              		.loc 1 592 5 is_stmt 1 view .LVU98
 592:Drivers/STM32WBxx_HAL_Driver/Src/stm32wbxx_hal_rng.c **** 
 347              		.loc 1 592 18 is_stmt 0 view .LVU99
 348 0060 3360     		str	r3, [r6]
 594:Drivers/STM32WBxx_HAL_Driver/Src/stm32wbxx_hal_rng.c ****   }
 349              		.loc 1 594 5 is_stmt 1 view .LVU100
 594:Drivers/STM32WBxx_HAL_Driver/Src/stm32wbxx_hal_rng.c ****   }
 350              		.loc 1 594 17 is_stmt 0 view .LVU101
 351 0062 0123     		movs	r3, #1
 352 0064 6372     		strb	r3, [r4, #9]
 559:Drivers/STM32WBxx_HAL_Driver/Src/stm32wbxx_hal_rng.c **** 
ARM GAS  /var/folders/lt/l_qrc8c54t93n_phsj7cf5tc0000gn/T//cc9NDVF7.s 			page 19


 353              		.loc 1 559 21 view .LVU102
 354 0066 0025     		movs	r5, #0
 355 0068 D9E7     		b	.L24
 356              	.LVL21:
 357              	.L25:
 562:Drivers/STM32WBxx_HAL_Driver/Src/stm32wbxx_hal_rng.c **** 
 358              		.loc 1 562 3 view .LVU103
 359 006a 0225     		movs	r5, #2
 360 006c D9E7     		b	.L20
 361              		.cfi_endproc
 362              	.LFE1108:
 364              		.section	.text.HAL_RNG_GenerateRandomNumber_IT,"ax",%progbits
 365              		.align	1
 366              		.global	HAL_RNG_GenerateRandomNumber_IT
 367              		.syntax unified
 368              		.thumb
 369              		.thumb_func
 370              		.fpu fpv4-sp-d16
 372              	HAL_RNG_GenerateRandomNumber_IT:
 373              	.LVL22:
 374              	.LFB1109:
 607:Drivers/STM32WBxx_HAL_Driver/Src/stm32wbxx_hal_rng.c **** 
 608:Drivers/STM32WBxx_HAL_Driver/Src/stm32wbxx_hal_rng.c **** /**
 609:Drivers/STM32WBxx_HAL_Driver/Src/stm32wbxx_hal_rng.c ****   * @brief  Generates a 32-bit random number in interrupt mode.
 610:Drivers/STM32WBxx_HAL_Driver/Src/stm32wbxx_hal_rng.c ****   * @param  hrng pointer to a RNG_HandleTypeDef structure that contains
 611:Drivers/STM32WBxx_HAL_Driver/Src/stm32wbxx_hal_rng.c ****   *                the configuration information for RNG.
 612:Drivers/STM32WBxx_HAL_Driver/Src/stm32wbxx_hal_rng.c ****   * @retval HAL status
 613:Drivers/STM32WBxx_HAL_Driver/Src/stm32wbxx_hal_rng.c ****   */
 614:Drivers/STM32WBxx_HAL_Driver/Src/stm32wbxx_hal_rng.c **** HAL_StatusTypeDef HAL_RNG_GenerateRandomNumber_IT(RNG_HandleTypeDef *hrng)
 615:Drivers/STM32WBxx_HAL_Driver/Src/stm32wbxx_hal_rng.c **** {
 375              		.loc 1 615 1 is_stmt 1 view -0
 376              		.cfi_startproc
 377              		@ args = 0, pretend = 0, frame = 0
 378              		@ frame_needed = 0, uses_anonymous_args = 0
 379              		@ link register save eliminated.
 616:Drivers/STM32WBxx_HAL_Driver/Src/stm32wbxx_hal_rng.c ****   HAL_StatusTypeDef status = HAL_OK;
 380              		.loc 1 616 3 view .LVU105
 617:Drivers/STM32WBxx_HAL_Driver/Src/stm32wbxx_hal_rng.c **** 
 618:Drivers/STM32WBxx_HAL_Driver/Src/stm32wbxx_hal_rng.c ****   /* Process Locked */
 619:Drivers/STM32WBxx_HAL_Driver/Src/stm32wbxx_hal_rng.c ****   __HAL_LOCK(hrng);
 381              		.loc 1 619 3 view .LVU106
 382              		.loc 1 619 3 view .LVU107
 383 0000 037A     		ldrb	r3, [r0, #8]	@ zero_extendqisi2
 384 0002 012B     		cmp	r3, #1
 385 0004 14D0     		beq	.L32
 386              		.loc 1 619 3 discriminator 2 view .LVU108
 387 0006 0123     		movs	r3, #1
 388 0008 0372     		strb	r3, [r0, #8]
 389              		.loc 1 619 3 discriminator 2 view .LVU109
 620:Drivers/STM32WBxx_HAL_Driver/Src/stm32wbxx_hal_rng.c **** 
 621:Drivers/STM32WBxx_HAL_Driver/Src/stm32wbxx_hal_rng.c ****   /* Check RNG peripheral state */
 622:Drivers/STM32WBxx_HAL_Driver/Src/stm32wbxx_hal_rng.c ****   if (hrng->State == HAL_RNG_STATE_READY)
 390              		.loc 1 622 3 discriminator 2 view .LVU110
 391              		.loc 1 622 11 is_stmt 0 discriminator 2 view .LVU111
 392 000a 437A     		ldrb	r3, [r0, #9]	@ zero_extendqisi2
 393 000c DBB2     		uxtb	r3, r3
 394              		.loc 1 622 6 discriminator 2 view .LVU112
ARM GAS  /var/folders/lt/l_qrc8c54t93n_phsj7cf5tc0000gn/T//cc9NDVF7.s 			page 20


 395 000e 012B     		cmp	r3, #1
 396 0010 05D0     		beq	.L33
 623:Drivers/STM32WBxx_HAL_Driver/Src/stm32wbxx_hal_rng.c ****   {
 624:Drivers/STM32WBxx_HAL_Driver/Src/stm32wbxx_hal_rng.c ****     /* Change RNG peripheral state */
 625:Drivers/STM32WBxx_HAL_Driver/Src/stm32wbxx_hal_rng.c ****     hrng->State = HAL_RNG_STATE_BUSY;
 626:Drivers/STM32WBxx_HAL_Driver/Src/stm32wbxx_hal_rng.c **** 
 627:Drivers/STM32WBxx_HAL_Driver/Src/stm32wbxx_hal_rng.c ****     /* Enable the RNG Interrupts: Data Ready, Clock error, Seed error */
 628:Drivers/STM32WBxx_HAL_Driver/Src/stm32wbxx_hal_rng.c ****     __HAL_RNG_ENABLE_IT(hrng);
 629:Drivers/STM32WBxx_HAL_Driver/Src/stm32wbxx_hal_rng.c ****   }
 630:Drivers/STM32WBxx_HAL_Driver/Src/stm32wbxx_hal_rng.c ****   else
 631:Drivers/STM32WBxx_HAL_Driver/Src/stm32wbxx_hal_rng.c ****   {
 632:Drivers/STM32WBxx_HAL_Driver/Src/stm32wbxx_hal_rng.c ****     /* Process Unlocked */
 633:Drivers/STM32WBxx_HAL_Driver/Src/stm32wbxx_hal_rng.c ****     __HAL_UNLOCK(hrng);
 397              		.loc 1 633 5 is_stmt 1 view .LVU113
 398              		.loc 1 633 5 view .LVU114
 399 0012 0023     		movs	r3, #0
 400 0014 0372     		strb	r3, [r0, #8]
 401              		.loc 1 633 5 view .LVU115
 634:Drivers/STM32WBxx_HAL_Driver/Src/stm32wbxx_hal_rng.c **** 
 635:Drivers/STM32WBxx_HAL_Driver/Src/stm32wbxx_hal_rng.c ****     hrng->ErrorCode = HAL_RNG_ERROR_BUSY;
 402              		.loc 1 635 5 view .LVU116
 403              		.loc 1 635 21 is_stmt 0 view .LVU117
 404 0016 0423     		movs	r3, #4
 405 0018 C360     		str	r3, [r0, #12]
 636:Drivers/STM32WBxx_HAL_Driver/Src/stm32wbxx_hal_rng.c ****     status = HAL_ERROR;
 406              		.loc 1 636 5 is_stmt 1 view .LVU118
 407              	.LVL23:
 408              		.loc 1 636 12 is_stmt 0 view .LVU119
 409 001a 0120     		movs	r0, #1
 410              	.LVL24:
 411              		.loc 1 636 12 view .LVU120
 412 001c 7047     		bx	lr
 413              	.LVL25:
 414              	.L33:
 625:Drivers/STM32WBxx_HAL_Driver/Src/stm32wbxx_hal_rng.c **** 
 415              		.loc 1 625 5 is_stmt 1 view .LVU121
 625:Drivers/STM32WBxx_HAL_Driver/Src/stm32wbxx_hal_rng.c **** 
 416              		.loc 1 625 17 is_stmt 0 view .LVU122
 417 001e 0223     		movs	r3, #2
 418 0020 4372     		strb	r3, [r0, #9]
 628:Drivers/STM32WBxx_HAL_Driver/Src/stm32wbxx_hal_rng.c ****   }
 419              		.loc 1 628 5 is_stmt 1 view .LVU123
 420 0022 0268     		ldr	r2, [r0]
 421 0024 1368     		ldr	r3, [r2]
 422 0026 43F00803 		orr	r3, r3, #8
 423 002a 1360     		str	r3, [r2]
 616:Drivers/STM32WBxx_HAL_Driver/Src/stm32wbxx_hal_rng.c **** 
 424              		.loc 1 616 21 is_stmt 0 view .LVU124
 425 002c 0020     		movs	r0, #0
 426              	.LVL26:
 616:Drivers/STM32WBxx_HAL_Driver/Src/stm32wbxx_hal_rng.c **** 
 427              		.loc 1 616 21 view .LVU125
 428 002e 7047     		bx	lr
 429              	.LVL27:
 430              	.L32:
 619:Drivers/STM32WBxx_HAL_Driver/Src/stm32wbxx_hal_rng.c **** 
 431              		.loc 1 619 3 view .LVU126
ARM GAS  /var/folders/lt/l_qrc8c54t93n_phsj7cf5tc0000gn/T//cc9NDVF7.s 			page 21


 432 0030 0220     		movs	r0, #2
 433              	.LVL28:
 637:Drivers/STM32WBxx_HAL_Driver/Src/stm32wbxx_hal_rng.c ****   }
 638:Drivers/STM32WBxx_HAL_Driver/Src/stm32wbxx_hal_rng.c **** 
 639:Drivers/STM32WBxx_HAL_Driver/Src/stm32wbxx_hal_rng.c ****   return status;
 640:Drivers/STM32WBxx_HAL_Driver/Src/stm32wbxx_hal_rng.c **** }
 434              		.loc 1 640 1 view .LVU127
 435 0032 7047     		bx	lr
 436              		.cfi_endproc
 437              	.LFE1109:
 439              		.section	.text.HAL_RNG_ReadLastRandomNumber,"ax",%progbits
 440              		.align	1
 441              		.global	HAL_RNG_ReadLastRandomNumber
 442              		.syntax unified
 443              		.thumb
 444              		.thumb_func
 445              		.fpu fpv4-sp-d16
 447              	HAL_RNG_ReadLastRandomNumber:
 448              	.LVL29:
 449              	.LFB1111:
 641:Drivers/STM32WBxx_HAL_Driver/Src/stm32wbxx_hal_rng.c **** 
 642:Drivers/STM32WBxx_HAL_Driver/Src/stm32wbxx_hal_rng.c **** /**
 643:Drivers/STM32WBxx_HAL_Driver/Src/stm32wbxx_hal_rng.c ****   * @brief  Handles RNG interrupt request.
 644:Drivers/STM32WBxx_HAL_Driver/Src/stm32wbxx_hal_rng.c ****   * @note   In the case of a clock error, the RNG is no more able to generate
 645:Drivers/STM32WBxx_HAL_Driver/Src/stm32wbxx_hal_rng.c ****   *         random numbers because the PLL48CLK clock is not correct. User has
 646:Drivers/STM32WBxx_HAL_Driver/Src/stm32wbxx_hal_rng.c ****   *         to check that the clock controller is correctly configured to provide
 647:Drivers/STM32WBxx_HAL_Driver/Src/stm32wbxx_hal_rng.c ****   *         the RNG clock and clear the CEIS bit using __HAL_RNG_CLEAR_IT().
 648:Drivers/STM32WBxx_HAL_Driver/Src/stm32wbxx_hal_rng.c ****   *         The clock error has no impact on the previously generated
 649:Drivers/STM32WBxx_HAL_Driver/Src/stm32wbxx_hal_rng.c ****   *         random numbers, and the RNG_DR register contents can be used.
 650:Drivers/STM32WBxx_HAL_Driver/Src/stm32wbxx_hal_rng.c ****   * @note   In the case of a seed error, the generation of random numbers is
 651:Drivers/STM32WBxx_HAL_Driver/Src/stm32wbxx_hal_rng.c ****   *         interrupted as long as the SECS bit is '1'. If a number is
 652:Drivers/STM32WBxx_HAL_Driver/Src/stm32wbxx_hal_rng.c ****   *         available in the RNG_DR register, it must not be used because it may
 653:Drivers/STM32WBxx_HAL_Driver/Src/stm32wbxx_hal_rng.c ****   *         not have enough entropy. In this case, it is recommended to clear the
 654:Drivers/STM32WBxx_HAL_Driver/Src/stm32wbxx_hal_rng.c ****   *         SEIS bit using __HAL_RNG_CLEAR_IT(), then disable and enable
 655:Drivers/STM32WBxx_HAL_Driver/Src/stm32wbxx_hal_rng.c ****   *         the RNG peripheral to reinitialize and restart the RNG.
 656:Drivers/STM32WBxx_HAL_Driver/Src/stm32wbxx_hal_rng.c ****   * @note   User-written HAL_RNG_ErrorCallback() API is called once whether SEIS
 657:Drivers/STM32WBxx_HAL_Driver/Src/stm32wbxx_hal_rng.c ****   *         or CEIS are set.
 658:Drivers/STM32WBxx_HAL_Driver/Src/stm32wbxx_hal_rng.c ****   * @param  hrng pointer to a RNG_HandleTypeDef structure that contains
 659:Drivers/STM32WBxx_HAL_Driver/Src/stm32wbxx_hal_rng.c ****   *                the configuration information for RNG.
 660:Drivers/STM32WBxx_HAL_Driver/Src/stm32wbxx_hal_rng.c ****   * @retval None
 661:Drivers/STM32WBxx_HAL_Driver/Src/stm32wbxx_hal_rng.c **** 
 662:Drivers/STM32WBxx_HAL_Driver/Src/stm32wbxx_hal_rng.c ****   */
 663:Drivers/STM32WBxx_HAL_Driver/Src/stm32wbxx_hal_rng.c **** void HAL_RNG_IRQHandler(RNG_HandleTypeDef *hrng)
 664:Drivers/STM32WBxx_HAL_Driver/Src/stm32wbxx_hal_rng.c **** {
 665:Drivers/STM32WBxx_HAL_Driver/Src/stm32wbxx_hal_rng.c ****   uint32_t rngclockerror = 0U;
 666:Drivers/STM32WBxx_HAL_Driver/Src/stm32wbxx_hal_rng.c **** 
 667:Drivers/STM32WBxx_HAL_Driver/Src/stm32wbxx_hal_rng.c ****   /* RNG clock error interrupt occurred */
 668:Drivers/STM32WBxx_HAL_Driver/Src/stm32wbxx_hal_rng.c ****   if (__HAL_RNG_GET_IT(hrng, RNG_IT_CEI) != RESET)
 669:Drivers/STM32WBxx_HAL_Driver/Src/stm32wbxx_hal_rng.c ****   {
 670:Drivers/STM32WBxx_HAL_Driver/Src/stm32wbxx_hal_rng.c ****     /* Update the error code */
 671:Drivers/STM32WBxx_HAL_Driver/Src/stm32wbxx_hal_rng.c ****     hrng->ErrorCode = HAL_RNG_ERROR_CLOCK;
 672:Drivers/STM32WBxx_HAL_Driver/Src/stm32wbxx_hal_rng.c ****     rngclockerror = 1U;
 673:Drivers/STM32WBxx_HAL_Driver/Src/stm32wbxx_hal_rng.c ****   }
 674:Drivers/STM32WBxx_HAL_Driver/Src/stm32wbxx_hal_rng.c ****   else if (__HAL_RNG_GET_IT(hrng, RNG_IT_SEI) != RESET)
 675:Drivers/STM32WBxx_HAL_Driver/Src/stm32wbxx_hal_rng.c ****   {
 676:Drivers/STM32WBxx_HAL_Driver/Src/stm32wbxx_hal_rng.c ****     /* Update the error code */
 677:Drivers/STM32WBxx_HAL_Driver/Src/stm32wbxx_hal_rng.c ****     hrng->ErrorCode = HAL_RNG_ERROR_SEED;
ARM GAS  /var/folders/lt/l_qrc8c54t93n_phsj7cf5tc0000gn/T//cc9NDVF7.s 			page 22


 678:Drivers/STM32WBxx_HAL_Driver/Src/stm32wbxx_hal_rng.c ****     rngclockerror = 1U;
 679:Drivers/STM32WBxx_HAL_Driver/Src/stm32wbxx_hal_rng.c ****   }
 680:Drivers/STM32WBxx_HAL_Driver/Src/stm32wbxx_hal_rng.c ****   else
 681:Drivers/STM32WBxx_HAL_Driver/Src/stm32wbxx_hal_rng.c ****   {
 682:Drivers/STM32WBxx_HAL_Driver/Src/stm32wbxx_hal_rng.c ****     /* Nothing to do */
 683:Drivers/STM32WBxx_HAL_Driver/Src/stm32wbxx_hal_rng.c ****   }
 684:Drivers/STM32WBxx_HAL_Driver/Src/stm32wbxx_hal_rng.c **** 
 685:Drivers/STM32WBxx_HAL_Driver/Src/stm32wbxx_hal_rng.c ****   if (rngclockerror == 1U)
 686:Drivers/STM32WBxx_HAL_Driver/Src/stm32wbxx_hal_rng.c ****   {
 687:Drivers/STM32WBxx_HAL_Driver/Src/stm32wbxx_hal_rng.c ****     /* Change RNG peripheral state */
 688:Drivers/STM32WBxx_HAL_Driver/Src/stm32wbxx_hal_rng.c ****     hrng->State = HAL_RNG_STATE_ERROR;
 689:Drivers/STM32WBxx_HAL_Driver/Src/stm32wbxx_hal_rng.c **** 
 690:Drivers/STM32WBxx_HAL_Driver/Src/stm32wbxx_hal_rng.c **** #if (USE_HAL_RNG_REGISTER_CALLBACKS == 1)
 691:Drivers/STM32WBxx_HAL_Driver/Src/stm32wbxx_hal_rng.c ****     /* Call registered Error callback */
 692:Drivers/STM32WBxx_HAL_Driver/Src/stm32wbxx_hal_rng.c ****     hrng->ErrorCallback(hrng);
 693:Drivers/STM32WBxx_HAL_Driver/Src/stm32wbxx_hal_rng.c **** #else
 694:Drivers/STM32WBxx_HAL_Driver/Src/stm32wbxx_hal_rng.c ****     /* Call legacy weak Error callback */
 695:Drivers/STM32WBxx_HAL_Driver/Src/stm32wbxx_hal_rng.c ****     HAL_RNG_ErrorCallback(hrng);
 696:Drivers/STM32WBxx_HAL_Driver/Src/stm32wbxx_hal_rng.c **** #endif /* USE_HAL_RNG_REGISTER_CALLBACKS */
 697:Drivers/STM32WBxx_HAL_Driver/Src/stm32wbxx_hal_rng.c **** 
 698:Drivers/STM32WBxx_HAL_Driver/Src/stm32wbxx_hal_rng.c ****     /* Clear the clock error flag */
 699:Drivers/STM32WBxx_HAL_Driver/Src/stm32wbxx_hal_rng.c ****     __HAL_RNG_CLEAR_IT(hrng, RNG_IT_CEI | RNG_IT_SEI);
 700:Drivers/STM32WBxx_HAL_Driver/Src/stm32wbxx_hal_rng.c ****   }
 701:Drivers/STM32WBxx_HAL_Driver/Src/stm32wbxx_hal_rng.c **** 
 702:Drivers/STM32WBxx_HAL_Driver/Src/stm32wbxx_hal_rng.c ****   /* Check RNG data ready interrupt occurred */
 703:Drivers/STM32WBxx_HAL_Driver/Src/stm32wbxx_hal_rng.c ****   if (__HAL_RNG_GET_IT(hrng, RNG_IT_DRDY) != RESET)
 704:Drivers/STM32WBxx_HAL_Driver/Src/stm32wbxx_hal_rng.c ****   {
 705:Drivers/STM32WBxx_HAL_Driver/Src/stm32wbxx_hal_rng.c ****     /* Generate random number once, so disable the IT */
 706:Drivers/STM32WBxx_HAL_Driver/Src/stm32wbxx_hal_rng.c ****     __HAL_RNG_DISABLE_IT(hrng);
 707:Drivers/STM32WBxx_HAL_Driver/Src/stm32wbxx_hal_rng.c **** 
 708:Drivers/STM32WBxx_HAL_Driver/Src/stm32wbxx_hal_rng.c ****     /* Get the 32bit Random number (DRDY flag automatically cleared) */
 709:Drivers/STM32WBxx_HAL_Driver/Src/stm32wbxx_hal_rng.c ****     hrng->RandomNumber = hrng->Instance->DR;
 710:Drivers/STM32WBxx_HAL_Driver/Src/stm32wbxx_hal_rng.c **** 
 711:Drivers/STM32WBxx_HAL_Driver/Src/stm32wbxx_hal_rng.c ****     if (hrng->State != HAL_RNG_STATE_ERROR)
 712:Drivers/STM32WBxx_HAL_Driver/Src/stm32wbxx_hal_rng.c ****     {
 713:Drivers/STM32WBxx_HAL_Driver/Src/stm32wbxx_hal_rng.c ****       /* Change RNG peripheral state */
 714:Drivers/STM32WBxx_HAL_Driver/Src/stm32wbxx_hal_rng.c ****       hrng->State = HAL_RNG_STATE_READY;
 715:Drivers/STM32WBxx_HAL_Driver/Src/stm32wbxx_hal_rng.c ****       /* Process Unlocked */
 716:Drivers/STM32WBxx_HAL_Driver/Src/stm32wbxx_hal_rng.c ****       __HAL_UNLOCK(hrng);
 717:Drivers/STM32WBxx_HAL_Driver/Src/stm32wbxx_hal_rng.c **** 
 718:Drivers/STM32WBxx_HAL_Driver/Src/stm32wbxx_hal_rng.c **** #if (USE_HAL_RNG_REGISTER_CALLBACKS == 1)
 719:Drivers/STM32WBxx_HAL_Driver/Src/stm32wbxx_hal_rng.c ****       /* Call registered Data Ready callback */
 720:Drivers/STM32WBxx_HAL_Driver/Src/stm32wbxx_hal_rng.c ****       hrng->ReadyDataCallback(hrng, hrng->RandomNumber);
 721:Drivers/STM32WBxx_HAL_Driver/Src/stm32wbxx_hal_rng.c **** #else
 722:Drivers/STM32WBxx_HAL_Driver/Src/stm32wbxx_hal_rng.c ****       /* Call legacy weak Data Ready callback */
 723:Drivers/STM32WBxx_HAL_Driver/Src/stm32wbxx_hal_rng.c ****       HAL_RNG_ReadyDataCallback(hrng, hrng->RandomNumber);
 724:Drivers/STM32WBxx_HAL_Driver/Src/stm32wbxx_hal_rng.c **** #endif /* USE_HAL_RNG_REGISTER_CALLBACKS */
 725:Drivers/STM32WBxx_HAL_Driver/Src/stm32wbxx_hal_rng.c ****     }
 726:Drivers/STM32WBxx_HAL_Driver/Src/stm32wbxx_hal_rng.c ****   }
 727:Drivers/STM32WBxx_HAL_Driver/Src/stm32wbxx_hal_rng.c **** }
 728:Drivers/STM32WBxx_HAL_Driver/Src/stm32wbxx_hal_rng.c **** 
 729:Drivers/STM32WBxx_HAL_Driver/Src/stm32wbxx_hal_rng.c **** /**
 730:Drivers/STM32WBxx_HAL_Driver/Src/stm32wbxx_hal_rng.c ****   * @brief  Read latest generated random number.
 731:Drivers/STM32WBxx_HAL_Driver/Src/stm32wbxx_hal_rng.c ****   * @param  hrng pointer to a RNG_HandleTypeDef structure that contains
 732:Drivers/STM32WBxx_HAL_Driver/Src/stm32wbxx_hal_rng.c ****   *                the configuration information for RNG.
 733:Drivers/STM32WBxx_HAL_Driver/Src/stm32wbxx_hal_rng.c ****   * @retval random value
 734:Drivers/STM32WBxx_HAL_Driver/Src/stm32wbxx_hal_rng.c ****   */
ARM GAS  /var/folders/lt/l_qrc8c54t93n_phsj7cf5tc0000gn/T//cc9NDVF7.s 			page 23


 735:Drivers/STM32WBxx_HAL_Driver/Src/stm32wbxx_hal_rng.c **** uint32_t HAL_RNG_ReadLastRandomNumber(RNG_HandleTypeDef *hrng)
 736:Drivers/STM32WBxx_HAL_Driver/Src/stm32wbxx_hal_rng.c **** {
 450              		.loc 1 736 1 is_stmt 1 view -0
 451              		.cfi_startproc
 452              		@ args = 0, pretend = 0, frame = 0
 453              		@ frame_needed = 0, uses_anonymous_args = 0
 454              		@ link register save eliminated.
 737:Drivers/STM32WBxx_HAL_Driver/Src/stm32wbxx_hal_rng.c ****   return (hrng->RandomNumber);
 455              		.loc 1 737 3 view .LVU129
 738:Drivers/STM32WBxx_HAL_Driver/Src/stm32wbxx_hal_rng.c **** }
 456              		.loc 1 738 1 is_stmt 0 view .LVU130
 457 0000 0069     		ldr	r0, [r0, #16]
 458              	.LVL30:
 459              		.loc 1 738 1 view .LVU131
 460 0002 7047     		bx	lr
 461              		.cfi_endproc
 462              	.LFE1111:
 464              		.section	.text.HAL_RNG_ReadyDataCallback,"ax",%progbits
 465              		.align	1
 466              		.weak	HAL_RNG_ReadyDataCallback
 467              		.syntax unified
 468              		.thumb
 469              		.thumb_func
 470              		.fpu fpv4-sp-d16
 472              	HAL_RNG_ReadyDataCallback:
 473              	.LVL31:
 474              	.LFB1112:
 739:Drivers/STM32WBxx_HAL_Driver/Src/stm32wbxx_hal_rng.c **** 
 740:Drivers/STM32WBxx_HAL_Driver/Src/stm32wbxx_hal_rng.c **** /**
 741:Drivers/STM32WBxx_HAL_Driver/Src/stm32wbxx_hal_rng.c ****   * @brief  Data Ready callback in non-blocking mode.
 742:Drivers/STM32WBxx_HAL_Driver/Src/stm32wbxx_hal_rng.c ****   * @note   When RNG_FLAG_DRDY flag value is set, first random number has been read
 743:Drivers/STM32WBxx_HAL_Driver/Src/stm32wbxx_hal_rng.c ****   *         from DR register in IRQ Handler and is provided as callback parameter.
 744:Drivers/STM32WBxx_HAL_Driver/Src/stm32wbxx_hal_rng.c ****   *         Depending on valid data available in the conditioning output buffer,
 745:Drivers/STM32WBxx_HAL_Driver/Src/stm32wbxx_hal_rng.c ****   *         additional words can be read by the application from DR register till
 746:Drivers/STM32WBxx_HAL_Driver/Src/stm32wbxx_hal_rng.c ****   *         DRDY bit remains high.
 747:Drivers/STM32WBxx_HAL_Driver/Src/stm32wbxx_hal_rng.c ****   * @param  hrng pointer to a RNG_HandleTypeDef structure that contains
 748:Drivers/STM32WBxx_HAL_Driver/Src/stm32wbxx_hal_rng.c ****   *                the configuration information for RNG.
 749:Drivers/STM32WBxx_HAL_Driver/Src/stm32wbxx_hal_rng.c ****   * @param  random32bit generated random number.
 750:Drivers/STM32WBxx_HAL_Driver/Src/stm32wbxx_hal_rng.c ****   * @retval None
 751:Drivers/STM32WBxx_HAL_Driver/Src/stm32wbxx_hal_rng.c ****   */
 752:Drivers/STM32WBxx_HAL_Driver/Src/stm32wbxx_hal_rng.c **** __weak void HAL_RNG_ReadyDataCallback(RNG_HandleTypeDef *hrng, uint32_t random32bit)
 753:Drivers/STM32WBxx_HAL_Driver/Src/stm32wbxx_hal_rng.c **** {
 475              		.loc 1 753 1 is_stmt 1 view -0
 476              		.cfi_startproc
 477              		@ args = 0, pretend = 0, frame = 0
 478              		@ frame_needed = 0, uses_anonymous_args = 0
 479              		@ link register save eliminated.
 754:Drivers/STM32WBxx_HAL_Driver/Src/stm32wbxx_hal_rng.c ****   /* Prevent unused argument(s) compilation warning */
 755:Drivers/STM32WBxx_HAL_Driver/Src/stm32wbxx_hal_rng.c ****   UNUSED(hrng);
 480              		.loc 1 755 3 view .LVU133
 756:Drivers/STM32WBxx_HAL_Driver/Src/stm32wbxx_hal_rng.c ****   UNUSED(random32bit);
 481              		.loc 1 756 3 view .LVU134
 757:Drivers/STM32WBxx_HAL_Driver/Src/stm32wbxx_hal_rng.c ****   /* NOTE : This function should not be modified. When the callback is needed,
 758:Drivers/STM32WBxx_HAL_Driver/Src/stm32wbxx_hal_rng.c ****             function HAL_RNG_ReadyDataCallback must be implemented in the user file.
 759:Drivers/STM32WBxx_HAL_Driver/Src/stm32wbxx_hal_rng.c ****    */
 760:Drivers/STM32WBxx_HAL_Driver/Src/stm32wbxx_hal_rng.c **** }
 482              		.loc 1 760 1 is_stmt 0 view .LVU135
ARM GAS  /var/folders/lt/l_qrc8c54t93n_phsj7cf5tc0000gn/T//cc9NDVF7.s 			page 24


 483 0000 7047     		bx	lr
 484              		.cfi_endproc
 485              	.LFE1112:
 487              		.section	.text.HAL_RNG_ErrorCallback,"ax",%progbits
 488              		.align	1
 489              		.weak	HAL_RNG_ErrorCallback
 490              		.syntax unified
 491              		.thumb
 492              		.thumb_func
 493              		.fpu fpv4-sp-d16
 495              	HAL_RNG_ErrorCallback:
 496              	.LVL32:
 497              	.LFB1113:
 761:Drivers/STM32WBxx_HAL_Driver/Src/stm32wbxx_hal_rng.c **** 
 762:Drivers/STM32WBxx_HAL_Driver/Src/stm32wbxx_hal_rng.c **** /**
 763:Drivers/STM32WBxx_HAL_Driver/Src/stm32wbxx_hal_rng.c ****   * @brief  RNG error callbacks.
 764:Drivers/STM32WBxx_HAL_Driver/Src/stm32wbxx_hal_rng.c ****   * @param  hrng pointer to a RNG_HandleTypeDef structure that contains
 765:Drivers/STM32WBxx_HAL_Driver/Src/stm32wbxx_hal_rng.c ****   *                the configuration information for RNG.
 766:Drivers/STM32WBxx_HAL_Driver/Src/stm32wbxx_hal_rng.c ****   * @retval None
 767:Drivers/STM32WBxx_HAL_Driver/Src/stm32wbxx_hal_rng.c ****   */
 768:Drivers/STM32WBxx_HAL_Driver/Src/stm32wbxx_hal_rng.c **** __weak void HAL_RNG_ErrorCallback(RNG_HandleTypeDef *hrng)
 769:Drivers/STM32WBxx_HAL_Driver/Src/stm32wbxx_hal_rng.c **** {
 498              		.loc 1 769 1 is_stmt 1 view -0
 499              		.cfi_startproc
 500              		@ args = 0, pretend = 0, frame = 0
 501              		@ frame_needed = 0, uses_anonymous_args = 0
 502              		@ link register save eliminated.
 770:Drivers/STM32WBxx_HAL_Driver/Src/stm32wbxx_hal_rng.c ****   /* Prevent unused argument(s) compilation warning */
 771:Drivers/STM32WBxx_HAL_Driver/Src/stm32wbxx_hal_rng.c ****   UNUSED(hrng);
 503              		.loc 1 771 3 view .LVU137
 772:Drivers/STM32WBxx_HAL_Driver/Src/stm32wbxx_hal_rng.c ****   /* NOTE : This function should not be modified. When the callback is needed,
 773:Drivers/STM32WBxx_HAL_Driver/Src/stm32wbxx_hal_rng.c ****             function HAL_RNG_ErrorCallback must be implemented in the user file.
 774:Drivers/STM32WBxx_HAL_Driver/Src/stm32wbxx_hal_rng.c ****    */
 775:Drivers/STM32WBxx_HAL_Driver/Src/stm32wbxx_hal_rng.c **** }
 504              		.loc 1 775 1 is_stmt 0 view .LVU138
 505 0000 7047     		bx	lr
 506              		.cfi_endproc
 507              	.LFE1113:
 509              		.section	.text.HAL_RNG_IRQHandler,"ax",%progbits
 510              		.align	1
 511              		.global	HAL_RNG_IRQHandler
 512              		.syntax unified
 513              		.thumb
 514              		.thumb_func
 515              		.fpu fpv4-sp-d16
 517              	HAL_RNG_IRQHandler:
 518              	.LVL33:
 519              	.LFB1110:
 664:Drivers/STM32WBxx_HAL_Driver/Src/stm32wbxx_hal_rng.c ****   uint32_t rngclockerror = 0U;
 520              		.loc 1 664 1 is_stmt 1 view -0
 521              		.cfi_startproc
 522              		@ args = 0, pretend = 0, frame = 0
 523              		@ frame_needed = 0, uses_anonymous_args = 0
 664:Drivers/STM32WBxx_HAL_Driver/Src/stm32wbxx_hal_rng.c ****   uint32_t rngclockerror = 0U;
 524              		.loc 1 664 1 is_stmt 0 view .LVU140
 525 0000 10B5     		push	{r4, lr}
 526              	.LCFI5:
ARM GAS  /var/folders/lt/l_qrc8c54t93n_phsj7cf5tc0000gn/T//cc9NDVF7.s 			page 25


 527              		.cfi_def_cfa_offset 8
 528              		.cfi_offset 4, -8
 529              		.cfi_offset 14, -4
 530 0002 0446     		mov	r4, r0
 665:Drivers/STM32WBxx_HAL_Driver/Src/stm32wbxx_hal_rng.c **** 
 531              		.loc 1 665 3 is_stmt 1 view .LVU141
 532              	.LVL34:
 668:Drivers/STM32WBxx_HAL_Driver/Src/stm32wbxx_hal_rng.c ****   {
 533              		.loc 1 668 3 view .LVU142
 668:Drivers/STM32WBxx_HAL_Driver/Src/stm32wbxx_hal_rng.c ****   {
 534              		.loc 1 668 7 is_stmt 0 view .LVU143
 535 0004 0368     		ldr	r3, [r0]
 536 0006 5A68     		ldr	r2, [r3, #4]
 668:Drivers/STM32WBxx_HAL_Driver/Src/stm32wbxx_hal_rng.c ****   {
 537              		.loc 1 668 6 view .LVU144
 538 0008 12F0200F 		tst	r2, #32
 539 000c 1BD0     		beq	.L38
 671:Drivers/STM32WBxx_HAL_Driver/Src/stm32wbxx_hal_rng.c ****     rngclockerror = 1U;
 540              		.loc 1 671 5 is_stmt 1 view .LVU145
 671:Drivers/STM32WBxx_HAL_Driver/Src/stm32wbxx_hal_rng.c ****     rngclockerror = 1U;
 541              		.loc 1 671 21 is_stmt 0 view .LVU146
 542 000e 1023     		movs	r3, #16
 543 0010 C360     		str	r3, [r0, #12]
 672:Drivers/STM32WBxx_HAL_Driver/Src/stm32wbxx_hal_rng.c ****   }
 544              		.loc 1 672 5 is_stmt 1 view .LVU147
 545              	.LVL35:
 683:Drivers/STM32WBxx_HAL_Driver/Src/stm32wbxx_hal_rng.c **** 
 546              		.loc 1 683 3 view .LVU148
 685:Drivers/STM32WBxx_HAL_Driver/Src/stm32wbxx_hal_rng.c ****   {
 547              		.loc 1 685 3 view .LVU149
 548              	.L39:
 688:Drivers/STM32WBxx_HAL_Driver/Src/stm32wbxx_hal_rng.c **** 
 549              		.loc 1 688 5 view .LVU150
 688:Drivers/STM32WBxx_HAL_Driver/Src/stm32wbxx_hal_rng.c **** 
 550              		.loc 1 688 17 is_stmt 0 view .LVU151
 551 0012 0423     		movs	r3, #4
 552 0014 6372     		strb	r3, [r4, #9]
 695:Drivers/STM32WBxx_HAL_Driver/Src/stm32wbxx_hal_rng.c **** #endif /* USE_HAL_RNG_REGISTER_CALLBACKS */
 553              		.loc 1 695 5 is_stmt 1 view .LVU152
 554 0016 2046     		mov	r0, r4
 555              	.LVL36:
 695:Drivers/STM32WBxx_HAL_Driver/Src/stm32wbxx_hal_rng.c **** #endif /* USE_HAL_RNG_REGISTER_CALLBACKS */
 556              		.loc 1 695 5 is_stmt 0 view .LVU153
 557 0018 FFF7FEFF 		bl	HAL_RNG_ErrorCallback
 558              	.LVL37:
 699:Drivers/STM32WBxx_HAL_Driver/Src/stm32wbxx_hal_rng.c ****   }
 559              		.loc 1 699 5 is_stmt 1 view .LVU154
 560 001c 2368     		ldr	r3, [r4]
 561 001e 6FF06002 		mvn	r2, #96
 562 0022 5A60     		str	r2, [r3, #4]
 563              	.LVL38:
 564              	.L40:
 703:Drivers/STM32WBxx_HAL_Driver/Src/stm32wbxx_hal_rng.c ****   {
 565              		.loc 1 703 3 view .LVU155
 703:Drivers/STM32WBxx_HAL_Driver/Src/stm32wbxx_hal_rng.c ****   {
 566              		.loc 1 703 7 is_stmt 0 view .LVU156
 567 0024 2368     		ldr	r3, [r4]
ARM GAS  /var/folders/lt/l_qrc8c54t93n_phsj7cf5tc0000gn/T//cc9NDVF7.s 			page 26


 568 0026 5A68     		ldr	r2, [r3, #4]
 703:Drivers/STM32WBxx_HAL_Driver/Src/stm32wbxx_hal_rng.c ****   {
 569              		.loc 1 703 6 view .LVU157
 570 0028 12F0010F 		tst	r2, #1
 571 002c 0AD0     		beq	.L37
 706:Drivers/STM32WBxx_HAL_Driver/Src/stm32wbxx_hal_rng.c **** 
 572              		.loc 1 706 5 is_stmt 1 view .LVU158
 573 002e 1A68     		ldr	r2, [r3]
 574 0030 22F00802 		bic	r2, r2, #8
 575 0034 1A60     		str	r2, [r3]
 709:Drivers/STM32WBxx_HAL_Driver/Src/stm32wbxx_hal_rng.c **** 
 576              		.loc 1 709 5 view .LVU159
 709:Drivers/STM32WBxx_HAL_Driver/Src/stm32wbxx_hal_rng.c **** 
 577              		.loc 1 709 30 is_stmt 0 view .LVU160
 578 0036 2368     		ldr	r3, [r4]
 709:Drivers/STM32WBxx_HAL_Driver/Src/stm32wbxx_hal_rng.c **** 
 579              		.loc 1 709 40 view .LVU161
 580 0038 9968     		ldr	r1, [r3, #8]
 709:Drivers/STM32WBxx_HAL_Driver/Src/stm32wbxx_hal_rng.c **** 
 581              		.loc 1 709 24 view .LVU162
 582 003a 2161     		str	r1, [r4, #16]
 711:Drivers/STM32WBxx_HAL_Driver/Src/stm32wbxx_hal_rng.c ****     {
 583              		.loc 1 711 5 is_stmt 1 view .LVU163
 711:Drivers/STM32WBxx_HAL_Driver/Src/stm32wbxx_hal_rng.c ****     {
 584              		.loc 1 711 13 is_stmt 0 view .LVU164
 585 003c 637A     		ldrb	r3, [r4, #9]	@ zero_extendqisi2
 586 003e DBB2     		uxtb	r3, r3
 711:Drivers/STM32WBxx_HAL_Driver/Src/stm32wbxx_hal_rng.c ****     {
 587              		.loc 1 711 8 view .LVU165
 588 0040 042B     		cmp	r3, #4
 589 0042 07D1     		bne	.L43
 590              	.L37:
 727:Drivers/STM32WBxx_HAL_Driver/Src/stm32wbxx_hal_rng.c **** 
 591              		.loc 1 727 1 view .LVU166
 592 0044 10BD     		pop	{r4, pc}
 593              	.LVL39:
 594              	.L38:
 674:Drivers/STM32WBxx_HAL_Driver/Src/stm32wbxx_hal_rng.c ****   {
 595              		.loc 1 674 8 is_stmt 1 view .LVU167
 674:Drivers/STM32WBxx_HAL_Driver/Src/stm32wbxx_hal_rng.c ****   {
 596              		.loc 1 674 12 is_stmt 0 view .LVU168
 597 0046 5B68     		ldr	r3, [r3, #4]
 674:Drivers/STM32WBxx_HAL_Driver/Src/stm32wbxx_hal_rng.c ****   {
 598              		.loc 1 674 11 view .LVU169
 599 0048 13F0400F 		tst	r3, #64
 600 004c EAD0     		beq	.L40
 677:Drivers/STM32WBxx_HAL_Driver/Src/stm32wbxx_hal_rng.c ****     rngclockerror = 1U;
 601              		.loc 1 677 5 is_stmt 1 view .LVU170
 677:Drivers/STM32WBxx_HAL_Driver/Src/stm32wbxx_hal_rng.c ****     rngclockerror = 1U;
 602              		.loc 1 677 21 is_stmt 0 view .LVU171
 603 004e 0823     		movs	r3, #8
 604 0050 C360     		str	r3, [r0, #12]
 678:Drivers/STM32WBxx_HAL_Driver/Src/stm32wbxx_hal_rng.c ****   }
 605              		.loc 1 678 5 is_stmt 1 view .LVU172
 606              	.LVL40:
 683:Drivers/STM32WBxx_HAL_Driver/Src/stm32wbxx_hal_rng.c **** 
 607              		.loc 1 683 3 view .LVU173
ARM GAS  /var/folders/lt/l_qrc8c54t93n_phsj7cf5tc0000gn/T//cc9NDVF7.s 			page 27


 685:Drivers/STM32WBxx_HAL_Driver/Src/stm32wbxx_hal_rng.c ****   {
 608              		.loc 1 685 3 view .LVU174
 609 0052 DEE7     		b	.L39
 610              	.LVL41:
 611              	.L43:
 714:Drivers/STM32WBxx_HAL_Driver/Src/stm32wbxx_hal_rng.c ****       /* Process Unlocked */
 612              		.loc 1 714 7 view .LVU175
 714:Drivers/STM32WBxx_HAL_Driver/Src/stm32wbxx_hal_rng.c ****       /* Process Unlocked */
 613              		.loc 1 714 19 is_stmt 0 view .LVU176
 614 0054 0123     		movs	r3, #1
 615 0056 6372     		strb	r3, [r4, #9]
 716:Drivers/STM32WBxx_HAL_Driver/Src/stm32wbxx_hal_rng.c **** 
 616              		.loc 1 716 7 is_stmt 1 view .LVU177
 716:Drivers/STM32WBxx_HAL_Driver/Src/stm32wbxx_hal_rng.c **** 
 617              		.loc 1 716 7 view .LVU178
 618 0058 0023     		movs	r3, #0
 619 005a 2372     		strb	r3, [r4, #8]
 716:Drivers/STM32WBxx_HAL_Driver/Src/stm32wbxx_hal_rng.c **** 
 620              		.loc 1 716 7 view .LVU179
 723:Drivers/STM32WBxx_HAL_Driver/Src/stm32wbxx_hal_rng.c **** #endif /* USE_HAL_RNG_REGISTER_CALLBACKS */
 621              		.loc 1 723 7 view .LVU180
 622 005c 2046     		mov	r0, r4
 623 005e FFF7FEFF 		bl	HAL_RNG_ReadyDataCallback
 624              	.LVL42:
 727:Drivers/STM32WBxx_HAL_Driver/Src/stm32wbxx_hal_rng.c **** 
 625              		.loc 1 727 1 is_stmt 0 view .LVU181
 626 0062 EFE7     		b	.L37
 627              		.cfi_endproc
 628              	.LFE1110:
 630              		.section	.text.HAL_RNG_GetState,"ax",%progbits
 631              		.align	1
 632              		.global	HAL_RNG_GetState
 633              		.syntax unified
 634              		.thumb
 635              		.thumb_func
 636              		.fpu fpv4-sp-d16
 638              	HAL_RNG_GetState:
 639              	.LVL43:
 640              	.LFB1114:
 776:Drivers/STM32WBxx_HAL_Driver/Src/stm32wbxx_hal_rng.c **** /**
 777:Drivers/STM32WBxx_HAL_Driver/Src/stm32wbxx_hal_rng.c ****   * @}
 778:Drivers/STM32WBxx_HAL_Driver/Src/stm32wbxx_hal_rng.c ****   */
 779:Drivers/STM32WBxx_HAL_Driver/Src/stm32wbxx_hal_rng.c **** 
 780:Drivers/STM32WBxx_HAL_Driver/Src/stm32wbxx_hal_rng.c **** 
 781:Drivers/STM32WBxx_HAL_Driver/Src/stm32wbxx_hal_rng.c **** /** @addtogroup RNG_Exported_Functions_Group3
 782:Drivers/STM32WBxx_HAL_Driver/Src/stm32wbxx_hal_rng.c ****   * @brief   Peripheral State functions
 783:Drivers/STM32WBxx_HAL_Driver/Src/stm32wbxx_hal_rng.c ****   *
 784:Drivers/STM32WBxx_HAL_Driver/Src/stm32wbxx_hal_rng.c **** @verbatim
 785:Drivers/STM32WBxx_HAL_Driver/Src/stm32wbxx_hal_rng.c ****  ===============================================================================
 786:Drivers/STM32WBxx_HAL_Driver/Src/stm32wbxx_hal_rng.c ****                       ##### Peripheral State functions #####
 787:Drivers/STM32WBxx_HAL_Driver/Src/stm32wbxx_hal_rng.c ****  ===============================================================================
 788:Drivers/STM32WBxx_HAL_Driver/Src/stm32wbxx_hal_rng.c ****     [..]
 789:Drivers/STM32WBxx_HAL_Driver/Src/stm32wbxx_hal_rng.c ****     This subsection permits to get in run-time the status of the peripheral
 790:Drivers/STM32WBxx_HAL_Driver/Src/stm32wbxx_hal_rng.c ****     and the data flow.
 791:Drivers/STM32WBxx_HAL_Driver/Src/stm32wbxx_hal_rng.c **** 
 792:Drivers/STM32WBxx_HAL_Driver/Src/stm32wbxx_hal_rng.c **** @endverbatim
 793:Drivers/STM32WBxx_HAL_Driver/Src/stm32wbxx_hal_rng.c ****   * @{
ARM GAS  /var/folders/lt/l_qrc8c54t93n_phsj7cf5tc0000gn/T//cc9NDVF7.s 			page 28


 794:Drivers/STM32WBxx_HAL_Driver/Src/stm32wbxx_hal_rng.c ****   */
 795:Drivers/STM32WBxx_HAL_Driver/Src/stm32wbxx_hal_rng.c **** 
 796:Drivers/STM32WBxx_HAL_Driver/Src/stm32wbxx_hal_rng.c **** /**
 797:Drivers/STM32WBxx_HAL_Driver/Src/stm32wbxx_hal_rng.c ****   * @brief  Returns the RNG state.
 798:Drivers/STM32WBxx_HAL_Driver/Src/stm32wbxx_hal_rng.c ****   * @param  hrng pointer to a RNG_HandleTypeDef structure that contains
 799:Drivers/STM32WBxx_HAL_Driver/Src/stm32wbxx_hal_rng.c ****   *                the configuration information for RNG.
 800:Drivers/STM32WBxx_HAL_Driver/Src/stm32wbxx_hal_rng.c ****   * @retval HAL state
 801:Drivers/STM32WBxx_HAL_Driver/Src/stm32wbxx_hal_rng.c ****   */
 802:Drivers/STM32WBxx_HAL_Driver/Src/stm32wbxx_hal_rng.c **** HAL_RNG_StateTypeDef HAL_RNG_GetState(RNG_HandleTypeDef *hrng)
 803:Drivers/STM32WBxx_HAL_Driver/Src/stm32wbxx_hal_rng.c **** {
 641              		.loc 1 803 1 is_stmt 1 view -0
 642              		.cfi_startproc
 643              		@ args = 0, pretend = 0, frame = 0
 644              		@ frame_needed = 0, uses_anonymous_args = 0
 645              		@ link register save eliminated.
 804:Drivers/STM32WBxx_HAL_Driver/Src/stm32wbxx_hal_rng.c ****   return hrng->State;
 646              		.loc 1 804 3 view .LVU183
 647              		.loc 1 804 14 is_stmt 0 view .LVU184
 648 0000 407A     		ldrb	r0, [r0, #9]	@ zero_extendqisi2
 649              	.LVL44:
 805:Drivers/STM32WBxx_HAL_Driver/Src/stm32wbxx_hal_rng.c **** }
 650              		.loc 1 805 1 view .LVU185
 651 0002 7047     		bx	lr
 652              		.cfi_endproc
 653              	.LFE1114:
 655              		.section	.text.HAL_RNG_GetError,"ax",%progbits
 656              		.align	1
 657              		.global	HAL_RNG_GetError
 658              		.syntax unified
 659              		.thumb
 660              		.thumb_func
 661              		.fpu fpv4-sp-d16
 663              	HAL_RNG_GetError:
 664              	.LVL45:
 665              	.LFB1115:
 806:Drivers/STM32WBxx_HAL_Driver/Src/stm32wbxx_hal_rng.c **** 
 807:Drivers/STM32WBxx_HAL_Driver/Src/stm32wbxx_hal_rng.c **** /**
 808:Drivers/STM32WBxx_HAL_Driver/Src/stm32wbxx_hal_rng.c ****   * @brief  Return the RNG handle error code.
 809:Drivers/STM32WBxx_HAL_Driver/Src/stm32wbxx_hal_rng.c ****   * @param  hrng: pointer to a RNG_HandleTypeDef structure.
 810:Drivers/STM32WBxx_HAL_Driver/Src/stm32wbxx_hal_rng.c ****   * @retval RNG Error Code
 811:Drivers/STM32WBxx_HAL_Driver/Src/stm32wbxx_hal_rng.c ****   */
 812:Drivers/STM32WBxx_HAL_Driver/Src/stm32wbxx_hal_rng.c **** uint32_t HAL_RNG_GetError(RNG_HandleTypeDef *hrng)
 813:Drivers/STM32WBxx_HAL_Driver/Src/stm32wbxx_hal_rng.c **** {
 666              		.loc 1 813 1 is_stmt 1 view -0
 667              		.cfi_startproc
 668              		@ args = 0, pretend = 0, frame = 0
 669              		@ frame_needed = 0, uses_anonymous_args = 0
 670              		@ link register save eliminated.
 814:Drivers/STM32WBxx_HAL_Driver/Src/stm32wbxx_hal_rng.c ****   /* Return RNG Error Code */
 815:Drivers/STM32WBxx_HAL_Driver/Src/stm32wbxx_hal_rng.c ****   return hrng->ErrorCode;
 671              		.loc 1 815 3 view .LVU187
 672              		.loc 1 815 14 is_stmt 0 view .LVU188
 673 0000 C068     		ldr	r0, [r0, #12]
 674              	.LVL46:
 816:Drivers/STM32WBxx_HAL_Driver/Src/stm32wbxx_hal_rng.c **** }
 675              		.loc 1 816 1 view .LVU189
 676 0002 7047     		bx	lr
ARM GAS  /var/folders/lt/l_qrc8c54t93n_phsj7cf5tc0000gn/T//cc9NDVF7.s 			page 29


 677              		.cfi_endproc
 678              	.LFE1115:
 680              		.text
 681              	.Letext0:
 682              		.file 2 "/usr/local/Cellar/arm-none-eabi-gcc/9-2019-q4-major/gcc/arm-none-eabi/include/machine/_de
 683              		.file 3 "/usr/local/Cellar/arm-none-eabi-gcc/9-2019-q4-major/gcc/arm-none-eabi/include/sys/_stdint
 684              		.file 4 "Drivers/CMSIS/Include/core_cm4.h"
 685              		.file 5 "Drivers/CMSIS/Device/ST/STM32WBxx/Include/system_stm32wbxx.h"
 686              		.file 6 "Drivers/CMSIS/Device/ST/STM32WBxx/Include/stm32wb55xx.h"
 687              		.file 7 "Drivers/CMSIS/Device/ST/STM32WBxx/Include/stm32wbxx.h"
 688              		.file 8 "Drivers/STM32WBxx_HAL_Driver/Inc/stm32wbxx_hal_def.h"
 689              		.file 9 "Drivers/STM32WBxx_HAL_Driver/Inc/stm32wbxx_hal_flash.h"
 690              		.file 10 "Drivers/STM32WBxx_HAL_Driver/Inc/stm32wbxx_hal_rng.h"
 691              		.file 11 "Drivers/STM32WBxx_HAL_Driver/Inc/stm32wbxx_hal_uart.h"
 692              		.file 12 "Drivers/STM32WBxx_HAL_Driver/Inc/stm32wbxx_hal.h"
ARM GAS  /var/folders/lt/l_qrc8c54t93n_phsj7cf5tc0000gn/T//cc9NDVF7.s 			page 30

