ARM GAS  /var/folders/lt/l_qrc8c54t93n_phsj7cf5tc0000gn/T//ccQqlOSj.s 			page 1


   1              		.cpu cortex-m4
   2              		.eabi_attribute 27, 1
   3              		.eabi_attribute 28, 1
   4              		.eabi_attribute 20, 1
   5              		.eabi_attribute 21, 1
   6              		.eabi_attribute 23, 3
   7              		.eabi_attribute 24, 1
   8              		.eabi_attribute 25, 1
   9              		.eabi_attribute 26, 1
  10              		.eabi_attribute 30, 1
  11              		.eabi_attribute 34, 1
  12              		.eabi_attribute 18, 4
  13              		.file	"stm32wbxx_hal_ipcc.c"
  14              		.text
  15              	.Ltext0:
  16              		.cfi_sections	.debug_frame
  17              		.section	.text.HAL_IPCC_RxCallback,"ax",%progbits
  18              		.align	1
  19              		.weak	HAL_IPCC_RxCallback
  20              		.arch armv7e-m
  21              		.syntax unified
  22              		.thumb
  23              		.thumb_func
  24              		.fpu fpv4-sp-d16
  26              	HAL_IPCC_RxCallback:
  27              	.LVL0:
  28              	.LFB1114:
  29              		.file 1 "Drivers/STM32WBxx_HAL_Driver/Src/stm32wbxx_hal_ipcc.c"
   1:Drivers/STM32WBxx_HAL_Driver/Src/stm32wbxx_hal_ipcc.c **** /**
   2:Drivers/STM32WBxx_HAL_Driver/Src/stm32wbxx_hal_ipcc.c ****   ******************************************************************************
   3:Drivers/STM32WBxx_HAL_Driver/Src/stm32wbxx_hal_ipcc.c ****   * @file    stm32wbxx_hal_ipcc.c
   4:Drivers/STM32WBxx_HAL_Driver/Src/stm32wbxx_hal_ipcc.c ****   * @author  MCD Application Team
   5:Drivers/STM32WBxx_HAL_Driver/Src/stm32wbxx_hal_ipcc.c ****   * @brief   IPCC HAL module driver.
   6:Drivers/STM32WBxx_HAL_Driver/Src/stm32wbxx_hal_ipcc.c ****   *          This file provides firmware functions to manage the following
   7:Drivers/STM32WBxx_HAL_Driver/Src/stm32wbxx_hal_ipcc.c ****   *          functionalities of the Inter-Processor communication controller
   8:Drivers/STM32WBxx_HAL_Driver/Src/stm32wbxx_hal_ipcc.c ****   *          peripherals (IPCC).
   9:Drivers/STM32WBxx_HAL_Driver/Src/stm32wbxx_hal_ipcc.c ****   *           + Initialization and de-initialization functions
  10:Drivers/STM32WBxx_HAL_Driver/Src/stm32wbxx_hal_ipcc.c ****   *           + Configuration, notification and interrupts handling
  11:Drivers/STM32WBxx_HAL_Driver/Src/stm32wbxx_hal_ipcc.c ****   *           + Peripheral State and Error functions
  12:Drivers/STM32WBxx_HAL_Driver/Src/stm32wbxx_hal_ipcc.c ****   ******************************************************************************
  13:Drivers/STM32WBxx_HAL_Driver/Src/stm32wbxx_hal_ipcc.c ****   * @attention
  14:Drivers/STM32WBxx_HAL_Driver/Src/stm32wbxx_hal_ipcc.c ****   *
  15:Drivers/STM32WBxx_HAL_Driver/Src/stm32wbxx_hal_ipcc.c ****   * Copyright (c) 2019 STMicroelectronics.
  16:Drivers/STM32WBxx_HAL_Driver/Src/stm32wbxx_hal_ipcc.c ****   * All rights reserved.
  17:Drivers/STM32WBxx_HAL_Driver/Src/stm32wbxx_hal_ipcc.c ****   *
  18:Drivers/STM32WBxx_HAL_Driver/Src/stm32wbxx_hal_ipcc.c ****   * This software is licensed under terms that can be found in the LICENSE file
  19:Drivers/STM32WBxx_HAL_Driver/Src/stm32wbxx_hal_ipcc.c ****   * in the root directory of this software component.
  20:Drivers/STM32WBxx_HAL_Driver/Src/stm32wbxx_hal_ipcc.c ****   * If no LICENSE file comes with this software, it is provided AS-IS.
  21:Drivers/STM32WBxx_HAL_Driver/Src/stm32wbxx_hal_ipcc.c ****   *
  22:Drivers/STM32WBxx_HAL_Driver/Src/stm32wbxx_hal_ipcc.c ****   ******************************************************************************
  23:Drivers/STM32WBxx_HAL_Driver/Src/stm32wbxx_hal_ipcc.c ****   @verbatim
  24:Drivers/STM32WBxx_HAL_Driver/Src/stm32wbxx_hal_ipcc.c ****   ==============================================================================
  25:Drivers/STM32WBxx_HAL_Driver/Src/stm32wbxx_hal_ipcc.c ****                         ##### How to use this driver #####
  26:Drivers/STM32WBxx_HAL_Driver/Src/stm32wbxx_hal_ipcc.c ****   ==============================================================================
  27:Drivers/STM32WBxx_HAL_Driver/Src/stm32wbxx_hal_ipcc.c ****     [..]
  28:Drivers/STM32WBxx_HAL_Driver/Src/stm32wbxx_hal_ipcc.c ****       The IPCC HAL driver can be used as follows:
  29:Drivers/STM32WBxx_HAL_Driver/Src/stm32wbxx_hal_ipcc.c **** 
ARM GAS  /var/folders/lt/l_qrc8c54t93n_phsj7cf5tc0000gn/T//ccQqlOSj.s 			page 2


  30:Drivers/STM32WBxx_HAL_Driver/Src/stm32wbxx_hal_ipcc.c ****       (#) Declare a IPCC_HandleTypeDef handle structure, for example: IPCC_HandleTypeDef hipcc;
  31:Drivers/STM32WBxx_HAL_Driver/Src/stm32wbxx_hal_ipcc.c ****       (#) Initialize the IPCC low level resources by implementing the HAL_IPCC_MspInit() API:
  32:Drivers/STM32WBxx_HAL_Driver/Src/stm32wbxx_hal_ipcc.c ****         (##) Enable the IPCC interface clock
  33:Drivers/STM32WBxx_HAL_Driver/Src/stm32wbxx_hal_ipcc.c ****         (##) NVIC configuration if you need to use interrupt process
  34:Drivers/STM32WBxx_HAL_Driver/Src/stm32wbxx_hal_ipcc.c ****             (+++) Configure the IPCC interrupt priority
  35:Drivers/STM32WBxx_HAL_Driver/Src/stm32wbxx_hal_ipcc.c ****             (+++) Enable the NVIC IPCC IRQ
  36:Drivers/STM32WBxx_HAL_Driver/Src/stm32wbxx_hal_ipcc.c **** 
  37:Drivers/STM32WBxx_HAL_Driver/Src/stm32wbxx_hal_ipcc.c ****       (#) Initialize the IPCC registers by calling the HAL_IPCC_Init() API which trig
  38:Drivers/STM32WBxx_HAL_Driver/Src/stm32wbxx_hal_ipcc.c ****           HAL_IPCC_MspInit().
  39:Drivers/STM32WBxx_HAL_Driver/Src/stm32wbxx_hal_ipcc.c **** 
  40:Drivers/STM32WBxx_HAL_Driver/Src/stm32wbxx_hal_ipcc.c ****       (#) Implement the interrupt callbacks for transmission and reception to use the driver in int
  41:Drivers/STM32WBxx_HAL_Driver/Src/stm32wbxx_hal_ipcc.c **** 
  42:Drivers/STM32WBxx_HAL_Driver/Src/stm32wbxx_hal_ipcc.c ****       (#) Associate those callback to the corresponding channel and direction using HAL_IPCC_Config
  43:Drivers/STM32WBxx_HAL_Driver/Src/stm32wbxx_hal_ipcc.c ****           This is the interrupt mode.
  44:Drivers/STM32WBxx_HAL_Driver/Src/stm32wbxx_hal_ipcc.c ****           If no callback are configured for a given channel and direction, it is up to the user to 
  45:Drivers/STM32WBxx_HAL_Driver/Src/stm32wbxx_hal_ipcc.c ****           status of the communication (polling mode).
  46:Drivers/STM32WBxx_HAL_Driver/Src/stm32wbxx_hal_ipcc.c **** 
  47:Drivers/STM32WBxx_HAL_Driver/Src/stm32wbxx_hal_ipcc.c ****       (#) Notify the other MCU when a message is available in a chosen channel
  48:Drivers/STM32WBxx_HAL_Driver/Src/stm32wbxx_hal_ipcc.c ****           or when a message has been retrieved from a chosen channel by calling
  49:Drivers/STM32WBxx_HAL_Driver/Src/stm32wbxx_hal_ipcc.c ****           the HAL_IPCC_NotifyCPU() API.
  50:Drivers/STM32WBxx_HAL_Driver/Src/stm32wbxx_hal_ipcc.c **** 
  51:Drivers/STM32WBxx_HAL_Driver/Src/stm32wbxx_hal_ipcc.c ****   @endverbatim
  52:Drivers/STM32WBxx_HAL_Driver/Src/stm32wbxx_hal_ipcc.c ****   ******************************************************************************
  53:Drivers/STM32WBxx_HAL_Driver/Src/stm32wbxx_hal_ipcc.c ****   */
  54:Drivers/STM32WBxx_HAL_Driver/Src/stm32wbxx_hal_ipcc.c **** 
  55:Drivers/STM32WBxx_HAL_Driver/Src/stm32wbxx_hal_ipcc.c **** /* Includes ------------------------------------------------------------------*/
  56:Drivers/STM32WBxx_HAL_Driver/Src/stm32wbxx_hal_ipcc.c **** #include "stm32wbxx_hal.h"
  57:Drivers/STM32WBxx_HAL_Driver/Src/stm32wbxx_hal_ipcc.c **** 
  58:Drivers/STM32WBxx_HAL_Driver/Src/stm32wbxx_hal_ipcc.c **** #if defined(IPCC)
  59:Drivers/STM32WBxx_HAL_Driver/Src/stm32wbxx_hal_ipcc.c **** /** @addtogroup STM32WBxx_HAL_Driver
  60:Drivers/STM32WBxx_HAL_Driver/Src/stm32wbxx_hal_ipcc.c ****   * @{
  61:Drivers/STM32WBxx_HAL_Driver/Src/stm32wbxx_hal_ipcc.c ****   */
  62:Drivers/STM32WBxx_HAL_Driver/Src/stm32wbxx_hal_ipcc.c **** 
  63:Drivers/STM32WBxx_HAL_Driver/Src/stm32wbxx_hal_ipcc.c **** /** @addtogroup IPCC
  64:Drivers/STM32WBxx_HAL_Driver/Src/stm32wbxx_hal_ipcc.c ****   * @{
  65:Drivers/STM32WBxx_HAL_Driver/Src/stm32wbxx_hal_ipcc.c ****   */
  66:Drivers/STM32WBxx_HAL_Driver/Src/stm32wbxx_hal_ipcc.c **** 
  67:Drivers/STM32WBxx_HAL_Driver/Src/stm32wbxx_hal_ipcc.c **** #ifdef HAL_IPCC_MODULE_ENABLED
  68:Drivers/STM32WBxx_HAL_Driver/Src/stm32wbxx_hal_ipcc.c **** 
  69:Drivers/STM32WBxx_HAL_Driver/Src/stm32wbxx_hal_ipcc.c **** /* Private typedef -----------------------------------------------------------*/
  70:Drivers/STM32WBxx_HAL_Driver/Src/stm32wbxx_hal_ipcc.c **** /* Private define ------------------------------------------------------------*/
  71:Drivers/STM32WBxx_HAL_Driver/Src/stm32wbxx_hal_ipcc.c **** /** @defgroup IPCC_Private_Constants IPCC Private Constants
  72:Drivers/STM32WBxx_HAL_Driver/Src/stm32wbxx_hal_ipcc.c ****   * @{
  73:Drivers/STM32WBxx_HAL_Driver/Src/stm32wbxx_hal_ipcc.c ****   */
  74:Drivers/STM32WBxx_HAL_Driver/Src/stm32wbxx_hal_ipcc.c **** #define IPCC_ALL_RX_BUF 0x0000003FU /*!< Mask for all RX buffers. */
  75:Drivers/STM32WBxx_HAL_Driver/Src/stm32wbxx_hal_ipcc.c **** #define IPCC_ALL_TX_BUF 0x003F0000U /*!< Mask for all TX buffers. */
  76:Drivers/STM32WBxx_HAL_Driver/Src/stm32wbxx_hal_ipcc.c **** #define CHANNEL_INDEX_Msk 0x0000000FU /*!< Mask the channel index to avoid overflow */
  77:Drivers/STM32WBxx_HAL_Driver/Src/stm32wbxx_hal_ipcc.c **** /**
  78:Drivers/STM32WBxx_HAL_Driver/Src/stm32wbxx_hal_ipcc.c ****   * @}
  79:Drivers/STM32WBxx_HAL_Driver/Src/stm32wbxx_hal_ipcc.c ****   */
  80:Drivers/STM32WBxx_HAL_Driver/Src/stm32wbxx_hal_ipcc.c **** 
  81:Drivers/STM32WBxx_HAL_Driver/Src/stm32wbxx_hal_ipcc.c **** /* Private macros ------------------------------------------------------------*/
  82:Drivers/STM32WBxx_HAL_Driver/Src/stm32wbxx_hal_ipcc.c **** /* Private variables ---------------------------------------------------------*/
  83:Drivers/STM32WBxx_HAL_Driver/Src/stm32wbxx_hal_ipcc.c **** /* Private function prototypes -----------------------------------------------*/
  84:Drivers/STM32WBxx_HAL_Driver/Src/stm32wbxx_hal_ipcc.c **** /** @defgroup IPCC_Private_Functions IPCC Private Functions
  85:Drivers/STM32WBxx_HAL_Driver/Src/stm32wbxx_hal_ipcc.c ****   * @{
  86:Drivers/STM32WBxx_HAL_Driver/Src/stm32wbxx_hal_ipcc.c ****   */
ARM GAS  /var/folders/lt/l_qrc8c54t93n_phsj7cf5tc0000gn/T//ccQqlOSj.s 			page 3


  87:Drivers/STM32WBxx_HAL_Driver/Src/stm32wbxx_hal_ipcc.c **** void IPCC_MaskInterrupt(uint32_t ChannelIndex, IPCC_CHANNELDirTypeDef ChannelDir);
  88:Drivers/STM32WBxx_HAL_Driver/Src/stm32wbxx_hal_ipcc.c **** void IPCC_UnmaskInterrupt(uint32_t ChannelIndex, IPCC_CHANNELDirTypeDef ChannelDir);
  89:Drivers/STM32WBxx_HAL_Driver/Src/stm32wbxx_hal_ipcc.c **** void IPCC_SetDefaultCallbacks(IPCC_HandleTypeDef *hipcc);
  90:Drivers/STM32WBxx_HAL_Driver/Src/stm32wbxx_hal_ipcc.c **** void IPCC_Reset_Register(IPCC_CommonTypeDef *Instance);
  91:Drivers/STM32WBxx_HAL_Driver/Src/stm32wbxx_hal_ipcc.c **** /**
  92:Drivers/STM32WBxx_HAL_Driver/Src/stm32wbxx_hal_ipcc.c ****   * @}
  93:Drivers/STM32WBxx_HAL_Driver/Src/stm32wbxx_hal_ipcc.c ****   */
  94:Drivers/STM32WBxx_HAL_Driver/Src/stm32wbxx_hal_ipcc.c **** 
  95:Drivers/STM32WBxx_HAL_Driver/Src/stm32wbxx_hal_ipcc.c **** /** @addtogroup IPCC_Exported_Functions
  96:Drivers/STM32WBxx_HAL_Driver/Src/stm32wbxx_hal_ipcc.c ****   * @{
  97:Drivers/STM32WBxx_HAL_Driver/Src/stm32wbxx_hal_ipcc.c ****   */
  98:Drivers/STM32WBxx_HAL_Driver/Src/stm32wbxx_hal_ipcc.c **** 
  99:Drivers/STM32WBxx_HAL_Driver/Src/stm32wbxx_hal_ipcc.c **** /** @addtogroup IPCC_Exported_Functions_Group1
 100:Drivers/STM32WBxx_HAL_Driver/Src/stm32wbxx_hal_ipcc.c ****  *  @brief    Initialization and de-initialization functions
 101:Drivers/STM32WBxx_HAL_Driver/Src/stm32wbxx_hal_ipcc.c ****  *
 102:Drivers/STM32WBxx_HAL_Driver/Src/stm32wbxx_hal_ipcc.c **** @verbatim
 103:Drivers/STM32WBxx_HAL_Driver/Src/stm32wbxx_hal_ipcc.c ****  ===============================================================================
 104:Drivers/STM32WBxx_HAL_Driver/Src/stm32wbxx_hal_ipcc.c ****              ##### Initialization and de-initialization functions  #####
 105:Drivers/STM32WBxx_HAL_Driver/Src/stm32wbxx_hal_ipcc.c ****  ===============================================================================
 106:Drivers/STM32WBxx_HAL_Driver/Src/stm32wbxx_hal_ipcc.c ****     [..]  This subsection provides a set of functions allowing to initialize and
 107:Drivers/STM32WBxx_HAL_Driver/Src/stm32wbxx_hal_ipcc.c ****           deinitialize the IPCC peripheral:
 108:Drivers/STM32WBxx_HAL_Driver/Src/stm32wbxx_hal_ipcc.c **** 
 109:Drivers/STM32WBxx_HAL_Driver/Src/stm32wbxx_hal_ipcc.c ****       (+) User must Implement HAL_IPCC_MspInit() function in which he configures
 110:Drivers/STM32WBxx_HAL_Driver/Src/stm32wbxx_hal_ipcc.c ****           all related peripherals resources (CLOCK and NVIC ).
 111:Drivers/STM32WBxx_HAL_Driver/Src/stm32wbxx_hal_ipcc.c **** 
 112:Drivers/STM32WBxx_HAL_Driver/Src/stm32wbxx_hal_ipcc.c ****       (+) Call the function HAL_IPCC_Init() to configure the IPCC register.
 113:Drivers/STM32WBxx_HAL_Driver/Src/stm32wbxx_hal_ipcc.c **** 
 114:Drivers/STM32WBxx_HAL_Driver/Src/stm32wbxx_hal_ipcc.c ****       (+) Call the function HAL_PKA_DeInit() to restore the default configuration
 115:Drivers/STM32WBxx_HAL_Driver/Src/stm32wbxx_hal_ipcc.c ****           of the selected IPCC peripheral.
 116:Drivers/STM32WBxx_HAL_Driver/Src/stm32wbxx_hal_ipcc.c **** 
 117:Drivers/STM32WBxx_HAL_Driver/Src/stm32wbxx_hal_ipcc.c **** @endverbatim
 118:Drivers/STM32WBxx_HAL_Driver/Src/stm32wbxx_hal_ipcc.c ****   * @{
 119:Drivers/STM32WBxx_HAL_Driver/Src/stm32wbxx_hal_ipcc.c ****   */
 120:Drivers/STM32WBxx_HAL_Driver/Src/stm32wbxx_hal_ipcc.c **** 
 121:Drivers/STM32WBxx_HAL_Driver/Src/stm32wbxx_hal_ipcc.c **** /**
 122:Drivers/STM32WBxx_HAL_Driver/Src/stm32wbxx_hal_ipcc.c ****   * @brief  Initialize the IPCC peripheral.
 123:Drivers/STM32WBxx_HAL_Driver/Src/stm32wbxx_hal_ipcc.c ****   * @param  hipcc IPCC handle
 124:Drivers/STM32WBxx_HAL_Driver/Src/stm32wbxx_hal_ipcc.c ****   * @retval HAL status
 125:Drivers/STM32WBxx_HAL_Driver/Src/stm32wbxx_hal_ipcc.c ****   */
 126:Drivers/STM32WBxx_HAL_Driver/Src/stm32wbxx_hal_ipcc.c **** HAL_StatusTypeDef HAL_IPCC_Init(IPCC_HandleTypeDef *hipcc)
 127:Drivers/STM32WBxx_HAL_Driver/Src/stm32wbxx_hal_ipcc.c **** {
 128:Drivers/STM32WBxx_HAL_Driver/Src/stm32wbxx_hal_ipcc.c ****   HAL_StatusTypeDef err = HAL_OK;
 129:Drivers/STM32WBxx_HAL_Driver/Src/stm32wbxx_hal_ipcc.c **** 
 130:Drivers/STM32WBxx_HAL_Driver/Src/stm32wbxx_hal_ipcc.c ****   /* Check the IPCC handle allocation */
 131:Drivers/STM32WBxx_HAL_Driver/Src/stm32wbxx_hal_ipcc.c ****   if (hipcc != NULL)
 132:Drivers/STM32WBxx_HAL_Driver/Src/stm32wbxx_hal_ipcc.c ****   {
 133:Drivers/STM32WBxx_HAL_Driver/Src/stm32wbxx_hal_ipcc.c ****     /* Check the parameters */
 134:Drivers/STM32WBxx_HAL_Driver/Src/stm32wbxx_hal_ipcc.c ****     assert_param(IS_IPCC_ALL_INSTANCE(hipcc->Instance));
 135:Drivers/STM32WBxx_HAL_Driver/Src/stm32wbxx_hal_ipcc.c **** 
 136:Drivers/STM32WBxx_HAL_Driver/Src/stm32wbxx_hal_ipcc.c ****     IPCC_CommonTypeDef *currentInstance = IPCC_C1;
 137:Drivers/STM32WBxx_HAL_Driver/Src/stm32wbxx_hal_ipcc.c **** 
 138:Drivers/STM32WBxx_HAL_Driver/Src/stm32wbxx_hal_ipcc.c ****     if (hipcc->State == HAL_IPCC_STATE_RESET)
 139:Drivers/STM32WBxx_HAL_Driver/Src/stm32wbxx_hal_ipcc.c ****     {
 140:Drivers/STM32WBxx_HAL_Driver/Src/stm32wbxx_hal_ipcc.c ****       /* Init the low level hardware : CLOCK, NVIC */
 141:Drivers/STM32WBxx_HAL_Driver/Src/stm32wbxx_hal_ipcc.c ****       HAL_IPCC_MspInit(hipcc);
 142:Drivers/STM32WBxx_HAL_Driver/Src/stm32wbxx_hal_ipcc.c ****     }
 143:Drivers/STM32WBxx_HAL_Driver/Src/stm32wbxx_hal_ipcc.c **** 
ARM GAS  /var/folders/lt/l_qrc8c54t93n_phsj7cf5tc0000gn/T//ccQqlOSj.s 			page 4


 144:Drivers/STM32WBxx_HAL_Driver/Src/stm32wbxx_hal_ipcc.c ****     /* Reset all registers of the current cpu to default state */
 145:Drivers/STM32WBxx_HAL_Driver/Src/stm32wbxx_hal_ipcc.c ****     IPCC_Reset_Register(currentInstance);
 146:Drivers/STM32WBxx_HAL_Driver/Src/stm32wbxx_hal_ipcc.c **** 
 147:Drivers/STM32WBxx_HAL_Driver/Src/stm32wbxx_hal_ipcc.c ****     /* Activate the interrupts */
 148:Drivers/STM32WBxx_HAL_Driver/Src/stm32wbxx_hal_ipcc.c ****     currentInstance->CR |= (IPCC_CR_RXOIE | IPCC_CR_TXFIE);
 149:Drivers/STM32WBxx_HAL_Driver/Src/stm32wbxx_hal_ipcc.c **** 
 150:Drivers/STM32WBxx_HAL_Driver/Src/stm32wbxx_hal_ipcc.c ****     /* Clear callback pointers */
 151:Drivers/STM32WBxx_HAL_Driver/Src/stm32wbxx_hal_ipcc.c ****     IPCC_SetDefaultCallbacks(hipcc);
 152:Drivers/STM32WBxx_HAL_Driver/Src/stm32wbxx_hal_ipcc.c **** 
 153:Drivers/STM32WBxx_HAL_Driver/Src/stm32wbxx_hal_ipcc.c ****     /* Reset all callback notification request */
 154:Drivers/STM32WBxx_HAL_Driver/Src/stm32wbxx_hal_ipcc.c ****     hipcc->callbackRequest = 0;
 155:Drivers/STM32WBxx_HAL_Driver/Src/stm32wbxx_hal_ipcc.c **** 
 156:Drivers/STM32WBxx_HAL_Driver/Src/stm32wbxx_hal_ipcc.c ****     hipcc->State = HAL_IPCC_STATE_READY;
 157:Drivers/STM32WBxx_HAL_Driver/Src/stm32wbxx_hal_ipcc.c ****   }
 158:Drivers/STM32WBxx_HAL_Driver/Src/stm32wbxx_hal_ipcc.c ****   else
 159:Drivers/STM32WBxx_HAL_Driver/Src/stm32wbxx_hal_ipcc.c ****   {
 160:Drivers/STM32WBxx_HAL_Driver/Src/stm32wbxx_hal_ipcc.c ****     err = HAL_ERROR;
 161:Drivers/STM32WBxx_HAL_Driver/Src/stm32wbxx_hal_ipcc.c ****   }
 162:Drivers/STM32WBxx_HAL_Driver/Src/stm32wbxx_hal_ipcc.c **** 
 163:Drivers/STM32WBxx_HAL_Driver/Src/stm32wbxx_hal_ipcc.c ****   return err;
 164:Drivers/STM32WBxx_HAL_Driver/Src/stm32wbxx_hal_ipcc.c **** }
 165:Drivers/STM32WBxx_HAL_Driver/Src/stm32wbxx_hal_ipcc.c **** 
 166:Drivers/STM32WBxx_HAL_Driver/Src/stm32wbxx_hal_ipcc.c **** /**
 167:Drivers/STM32WBxx_HAL_Driver/Src/stm32wbxx_hal_ipcc.c ****   * @brief  DeInitialize the IPCC peripheral.
 168:Drivers/STM32WBxx_HAL_Driver/Src/stm32wbxx_hal_ipcc.c ****   * @param  hipcc IPCC handle
 169:Drivers/STM32WBxx_HAL_Driver/Src/stm32wbxx_hal_ipcc.c ****   * @retval HAL status
 170:Drivers/STM32WBxx_HAL_Driver/Src/stm32wbxx_hal_ipcc.c ****   */
 171:Drivers/STM32WBxx_HAL_Driver/Src/stm32wbxx_hal_ipcc.c **** HAL_StatusTypeDef HAL_IPCC_DeInit(IPCC_HandleTypeDef *hipcc)
 172:Drivers/STM32WBxx_HAL_Driver/Src/stm32wbxx_hal_ipcc.c **** {
 173:Drivers/STM32WBxx_HAL_Driver/Src/stm32wbxx_hal_ipcc.c ****   HAL_StatusTypeDef err = HAL_OK;
 174:Drivers/STM32WBxx_HAL_Driver/Src/stm32wbxx_hal_ipcc.c **** 
 175:Drivers/STM32WBxx_HAL_Driver/Src/stm32wbxx_hal_ipcc.c ****   /* Check the IPCC handle allocation */
 176:Drivers/STM32WBxx_HAL_Driver/Src/stm32wbxx_hal_ipcc.c ****   if (hipcc != NULL)
 177:Drivers/STM32WBxx_HAL_Driver/Src/stm32wbxx_hal_ipcc.c ****   {
 178:Drivers/STM32WBxx_HAL_Driver/Src/stm32wbxx_hal_ipcc.c ****     assert_param(IS_IPCC_ALL_INSTANCE(hipcc->Instance));
 179:Drivers/STM32WBxx_HAL_Driver/Src/stm32wbxx_hal_ipcc.c ****     IPCC_CommonTypeDef *currentInstance = IPCC_C1;
 180:Drivers/STM32WBxx_HAL_Driver/Src/stm32wbxx_hal_ipcc.c **** 
 181:Drivers/STM32WBxx_HAL_Driver/Src/stm32wbxx_hal_ipcc.c ****     /* Set the state to busy */
 182:Drivers/STM32WBxx_HAL_Driver/Src/stm32wbxx_hal_ipcc.c ****     hipcc->State = HAL_IPCC_STATE_BUSY;
 183:Drivers/STM32WBxx_HAL_Driver/Src/stm32wbxx_hal_ipcc.c **** 
 184:Drivers/STM32WBxx_HAL_Driver/Src/stm32wbxx_hal_ipcc.c ****     /* Reset all registers of the current cpu to default state */
 185:Drivers/STM32WBxx_HAL_Driver/Src/stm32wbxx_hal_ipcc.c ****     IPCC_Reset_Register(currentInstance);
 186:Drivers/STM32WBxx_HAL_Driver/Src/stm32wbxx_hal_ipcc.c **** 
 187:Drivers/STM32WBxx_HAL_Driver/Src/stm32wbxx_hal_ipcc.c ****     /* Clear callback pointers */
 188:Drivers/STM32WBxx_HAL_Driver/Src/stm32wbxx_hal_ipcc.c ****     IPCC_SetDefaultCallbacks(hipcc);
 189:Drivers/STM32WBxx_HAL_Driver/Src/stm32wbxx_hal_ipcc.c **** 
 190:Drivers/STM32WBxx_HAL_Driver/Src/stm32wbxx_hal_ipcc.c ****     /* Reset all callback notification request */
 191:Drivers/STM32WBxx_HAL_Driver/Src/stm32wbxx_hal_ipcc.c ****     hipcc->callbackRequest = 0;
 192:Drivers/STM32WBxx_HAL_Driver/Src/stm32wbxx_hal_ipcc.c **** 
 193:Drivers/STM32WBxx_HAL_Driver/Src/stm32wbxx_hal_ipcc.c ****     /* DeInit the low level hardware : CLOCK, NVIC */
 194:Drivers/STM32WBxx_HAL_Driver/Src/stm32wbxx_hal_ipcc.c ****     HAL_IPCC_MspDeInit(hipcc);
 195:Drivers/STM32WBxx_HAL_Driver/Src/stm32wbxx_hal_ipcc.c **** 
 196:Drivers/STM32WBxx_HAL_Driver/Src/stm32wbxx_hal_ipcc.c ****     hipcc->State = HAL_IPCC_STATE_RESET;
 197:Drivers/STM32WBxx_HAL_Driver/Src/stm32wbxx_hal_ipcc.c ****   }
 198:Drivers/STM32WBxx_HAL_Driver/Src/stm32wbxx_hal_ipcc.c ****   else
 199:Drivers/STM32WBxx_HAL_Driver/Src/stm32wbxx_hal_ipcc.c ****   {
 200:Drivers/STM32WBxx_HAL_Driver/Src/stm32wbxx_hal_ipcc.c ****     err = HAL_ERROR;
ARM GAS  /var/folders/lt/l_qrc8c54t93n_phsj7cf5tc0000gn/T//ccQqlOSj.s 			page 5


 201:Drivers/STM32WBxx_HAL_Driver/Src/stm32wbxx_hal_ipcc.c ****   }
 202:Drivers/STM32WBxx_HAL_Driver/Src/stm32wbxx_hal_ipcc.c **** 
 203:Drivers/STM32WBxx_HAL_Driver/Src/stm32wbxx_hal_ipcc.c ****   return err;
 204:Drivers/STM32WBxx_HAL_Driver/Src/stm32wbxx_hal_ipcc.c **** }
 205:Drivers/STM32WBxx_HAL_Driver/Src/stm32wbxx_hal_ipcc.c **** 
 206:Drivers/STM32WBxx_HAL_Driver/Src/stm32wbxx_hal_ipcc.c **** /**
 207:Drivers/STM32WBxx_HAL_Driver/Src/stm32wbxx_hal_ipcc.c ****   * @brief Initialize the IPCC MSP.
 208:Drivers/STM32WBxx_HAL_Driver/Src/stm32wbxx_hal_ipcc.c ****   * @param  hipcc IPCC handle
 209:Drivers/STM32WBxx_HAL_Driver/Src/stm32wbxx_hal_ipcc.c ****   * @retval None
 210:Drivers/STM32WBxx_HAL_Driver/Src/stm32wbxx_hal_ipcc.c ****   */
 211:Drivers/STM32WBxx_HAL_Driver/Src/stm32wbxx_hal_ipcc.c **** __weak void HAL_IPCC_MspInit(IPCC_HandleTypeDef *hipcc)
 212:Drivers/STM32WBxx_HAL_Driver/Src/stm32wbxx_hal_ipcc.c **** {
 213:Drivers/STM32WBxx_HAL_Driver/Src/stm32wbxx_hal_ipcc.c ****   /* Prevent unused argument(s) compilation warning */
 214:Drivers/STM32WBxx_HAL_Driver/Src/stm32wbxx_hal_ipcc.c ****   UNUSED(hipcc);
 215:Drivers/STM32WBxx_HAL_Driver/Src/stm32wbxx_hal_ipcc.c **** 
 216:Drivers/STM32WBxx_HAL_Driver/Src/stm32wbxx_hal_ipcc.c ****   /* NOTE : This function should not be modified. When the callback is needed
 217:Drivers/STM32WBxx_HAL_Driver/Src/stm32wbxx_hal_ipcc.c ****             the HAL_IPCC_MspInit should be implemented in the user file
 218:Drivers/STM32WBxx_HAL_Driver/Src/stm32wbxx_hal_ipcc.c ****    */
 219:Drivers/STM32WBxx_HAL_Driver/Src/stm32wbxx_hal_ipcc.c **** }
 220:Drivers/STM32WBxx_HAL_Driver/Src/stm32wbxx_hal_ipcc.c **** 
 221:Drivers/STM32WBxx_HAL_Driver/Src/stm32wbxx_hal_ipcc.c **** /**
 222:Drivers/STM32WBxx_HAL_Driver/Src/stm32wbxx_hal_ipcc.c ****   * @brief IPCC MSP DeInit
 223:Drivers/STM32WBxx_HAL_Driver/Src/stm32wbxx_hal_ipcc.c ****   * @param  hipcc IPCC handle
 224:Drivers/STM32WBxx_HAL_Driver/Src/stm32wbxx_hal_ipcc.c ****   * @retval None
 225:Drivers/STM32WBxx_HAL_Driver/Src/stm32wbxx_hal_ipcc.c ****   */
 226:Drivers/STM32WBxx_HAL_Driver/Src/stm32wbxx_hal_ipcc.c **** __weak void HAL_IPCC_MspDeInit(IPCC_HandleTypeDef *hipcc)
 227:Drivers/STM32WBxx_HAL_Driver/Src/stm32wbxx_hal_ipcc.c **** {
 228:Drivers/STM32WBxx_HAL_Driver/Src/stm32wbxx_hal_ipcc.c ****   /* Prevent unused argument(s) compilation warning */
 229:Drivers/STM32WBxx_HAL_Driver/Src/stm32wbxx_hal_ipcc.c ****   UNUSED(hipcc);
 230:Drivers/STM32WBxx_HAL_Driver/Src/stm32wbxx_hal_ipcc.c **** 
 231:Drivers/STM32WBxx_HAL_Driver/Src/stm32wbxx_hal_ipcc.c ****   /* NOTE : This function should not be modified. When the callback is needed
 232:Drivers/STM32WBxx_HAL_Driver/Src/stm32wbxx_hal_ipcc.c ****             the HAL_IPCC_MspDeInit should be implemented in the user file
 233:Drivers/STM32WBxx_HAL_Driver/Src/stm32wbxx_hal_ipcc.c ****    */
 234:Drivers/STM32WBxx_HAL_Driver/Src/stm32wbxx_hal_ipcc.c **** }
 235:Drivers/STM32WBxx_HAL_Driver/Src/stm32wbxx_hal_ipcc.c **** 
 236:Drivers/STM32WBxx_HAL_Driver/Src/stm32wbxx_hal_ipcc.c **** /**
 237:Drivers/STM32WBxx_HAL_Driver/Src/stm32wbxx_hal_ipcc.c ****   * @}
 238:Drivers/STM32WBxx_HAL_Driver/Src/stm32wbxx_hal_ipcc.c ****   */
 239:Drivers/STM32WBxx_HAL_Driver/Src/stm32wbxx_hal_ipcc.c **** 
 240:Drivers/STM32WBxx_HAL_Driver/Src/stm32wbxx_hal_ipcc.c **** 
 241:Drivers/STM32WBxx_HAL_Driver/Src/stm32wbxx_hal_ipcc.c **** /** @addtogroup IPCC_Exported_Functions_Group2
 242:Drivers/STM32WBxx_HAL_Driver/Src/stm32wbxx_hal_ipcc.c ****  *  @brief    Configuration, notification and Irq handling functions.
 243:Drivers/STM32WBxx_HAL_Driver/Src/stm32wbxx_hal_ipcc.c ****  *
 244:Drivers/STM32WBxx_HAL_Driver/Src/stm32wbxx_hal_ipcc.c **** @verbatim
 245:Drivers/STM32WBxx_HAL_Driver/Src/stm32wbxx_hal_ipcc.c ****  ===============================================================================
 246:Drivers/STM32WBxx_HAL_Driver/Src/stm32wbxx_hal_ipcc.c ****               ##### IO operation functions #####
 247:Drivers/STM32WBxx_HAL_Driver/Src/stm32wbxx_hal_ipcc.c ****  ===============================================================================
 248:Drivers/STM32WBxx_HAL_Driver/Src/stm32wbxx_hal_ipcc.c ****     [..]  This section provides functions to allow two MCU to communicate.
 249:Drivers/STM32WBxx_HAL_Driver/Src/stm32wbxx_hal_ipcc.c **** 
 250:Drivers/STM32WBxx_HAL_Driver/Src/stm32wbxx_hal_ipcc.c ****     (#) For a given channel (from 0 to IPCC_CHANNEL_NUMBER), for a given direction
 251:Drivers/STM32WBxx_HAL_Driver/Src/stm32wbxx_hal_ipcc.c ****         IPCC_CHANNEL_DIR_TX or IPCC_CHANNEL_DIR_RX, you can choose to communicate
 252:Drivers/STM32WBxx_HAL_Driver/Src/stm32wbxx_hal_ipcc.c ****         in polling mode or in interrupt mode using IPCC.
 253:Drivers/STM32WBxx_HAL_Driver/Src/stm32wbxx_hal_ipcc.c ****         By default, the IPCC HAL driver handle the communication in polling mode.
 254:Drivers/STM32WBxx_HAL_Driver/Src/stm32wbxx_hal_ipcc.c ****         By setting a callback for a channel/direction, this communication use
 255:Drivers/STM32WBxx_HAL_Driver/Src/stm32wbxx_hal_ipcc.c ****         the interrupt mode.
 256:Drivers/STM32WBxx_HAL_Driver/Src/stm32wbxx_hal_ipcc.c **** 
 257:Drivers/STM32WBxx_HAL_Driver/Src/stm32wbxx_hal_ipcc.c ****     (#) Polling mode:
ARM GAS  /var/folders/lt/l_qrc8c54t93n_phsj7cf5tc0000gn/T//ccQqlOSj.s 			page 6


 258:Drivers/STM32WBxx_HAL_Driver/Src/stm32wbxx_hal_ipcc.c ****        (++) To transmit information, use HAL_IPCC_NotifyCPU() with
 259:Drivers/STM32WBxx_HAL_Driver/Src/stm32wbxx_hal_ipcc.c ****             IPCC_CHANNEL_DIR_TX. To know when the other processor has handled
 260:Drivers/STM32WBxx_HAL_Driver/Src/stm32wbxx_hal_ipcc.c ****             the notification, poll the communication using HAL_IPCC_NotifyCPU
 261:Drivers/STM32WBxx_HAL_Driver/Src/stm32wbxx_hal_ipcc.c ****             with IPCC_CHANNEL_DIR_TX.
 262:Drivers/STM32WBxx_HAL_Driver/Src/stm32wbxx_hal_ipcc.c **** 
 263:Drivers/STM32WBxx_HAL_Driver/Src/stm32wbxx_hal_ipcc.c ****        (++) To receive information, poll the status of the communication with
 264:Drivers/STM32WBxx_HAL_Driver/Src/stm32wbxx_hal_ipcc.c ****             HAL_IPCC_GetChannelStatus with IPCC_CHANNEL_DIR_RX. To notify the other
 265:Drivers/STM32WBxx_HAL_Driver/Src/stm32wbxx_hal_ipcc.c ****             processor that the information has been received, use HAL_IPCC_NotifyCPU
 266:Drivers/STM32WBxx_HAL_Driver/Src/stm32wbxx_hal_ipcc.c ****             with IPCC_CHANNEL_DIR_RX.
 267:Drivers/STM32WBxx_HAL_Driver/Src/stm32wbxx_hal_ipcc.c **** 
 268:Drivers/STM32WBxx_HAL_Driver/Src/stm32wbxx_hal_ipcc.c ****     (#) Interrupt mode:
 269:Drivers/STM32WBxx_HAL_Driver/Src/stm32wbxx_hal_ipcc.c ****        (++) Configure a callback for the channel and the direction using HAL_IPCC_ConfigChannel().
 270:Drivers/STM32WBxx_HAL_Driver/Src/stm32wbxx_hal_ipcc.c ****             This callback will be triggered under interrupt.
 271:Drivers/STM32WBxx_HAL_Driver/Src/stm32wbxx_hal_ipcc.c **** 
 272:Drivers/STM32WBxx_HAL_Driver/Src/stm32wbxx_hal_ipcc.c ****        (++) To transmit information, use HAL_IPCC_NotifyCPU() with
 273:Drivers/STM32WBxx_HAL_Driver/Src/stm32wbxx_hal_ipcc.c ****             IPCC_CHANNEL_DIR_TX. The callback configured with HAL_IPCC_ConfigChannel() and
 274:Drivers/STM32WBxx_HAL_Driver/Src/stm32wbxx_hal_ipcc.c ****             IPCC_CHANNEL_DIR_TX will be triggered once the communication has been handled by the
 275:Drivers/STM32WBxx_HAL_Driver/Src/stm32wbxx_hal_ipcc.c ****             other processor.
 276:Drivers/STM32WBxx_HAL_Driver/Src/stm32wbxx_hal_ipcc.c **** 
 277:Drivers/STM32WBxx_HAL_Driver/Src/stm32wbxx_hal_ipcc.c ****        (++) To receive information, the callback configured with HAL_IPCC_ConfigChannel() and
 278:Drivers/STM32WBxx_HAL_Driver/Src/stm32wbxx_hal_ipcc.c ****             IPCC_CHANNEL_DIR_RX will be triggered on reception of a communication.To notify the oth
 279:Drivers/STM32WBxx_HAL_Driver/Src/stm32wbxx_hal_ipcc.c ****             processor that the information has been received, use HAL_IPCC_NotifyCPU
 280:Drivers/STM32WBxx_HAL_Driver/Src/stm32wbxx_hal_ipcc.c ****             with IPCC_CHANNEL_DIR_RX.
 281:Drivers/STM32WBxx_HAL_Driver/Src/stm32wbxx_hal_ipcc.c **** 
 282:Drivers/STM32WBxx_HAL_Driver/Src/stm32wbxx_hal_ipcc.c ****        (++) HAL_IPCC_TX_IRQHandler must be added to the IPCC TX IRQHandler
 283:Drivers/STM32WBxx_HAL_Driver/Src/stm32wbxx_hal_ipcc.c **** 
 284:Drivers/STM32WBxx_HAL_Driver/Src/stm32wbxx_hal_ipcc.c ****        (++) HAL_IPCC_RX_IRQHandler must be added to the IPCC RX IRQHandler
 285:Drivers/STM32WBxx_HAL_Driver/Src/stm32wbxx_hal_ipcc.c **** @endverbatim
 286:Drivers/STM32WBxx_HAL_Driver/Src/stm32wbxx_hal_ipcc.c ****   * @{
 287:Drivers/STM32WBxx_HAL_Driver/Src/stm32wbxx_hal_ipcc.c ****   */
 288:Drivers/STM32WBxx_HAL_Driver/Src/stm32wbxx_hal_ipcc.c **** 
 289:Drivers/STM32WBxx_HAL_Driver/Src/stm32wbxx_hal_ipcc.c **** /**
 290:Drivers/STM32WBxx_HAL_Driver/Src/stm32wbxx_hal_ipcc.c ****   * @brief  Activate the callback notification on receive/transmit interrupt
 291:Drivers/STM32WBxx_HAL_Driver/Src/stm32wbxx_hal_ipcc.c ****   * @param  hipcc IPCC handle
 292:Drivers/STM32WBxx_HAL_Driver/Src/stm32wbxx_hal_ipcc.c ****   * @param  ChannelIndex Channel number
 293:Drivers/STM32WBxx_HAL_Driver/Src/stm32wbxx_hal_ipcc.c ****   *          This parameter can be one of the following values:
 294:Drivers/STM32WBxx_HAL_Driver/Src/stm32wbxx_hal_ipcc.c ****   *            @arg IPCC_CHANNEL_1: IPCC Channel 1
 295:Drivers/STM32WBxx_HAL_Driver/Src/stm32wbxx_hal_ipcc.c ****   *            @arg IPCC_CHANNEL_2: IPCC Channel 2
 296:Drivers/STM32WBxx_HAL_Driver/Src/stm32wbxx_hal_ipcc.c ****   *            @arg IPCC_CHANNEL_3: IPCC Channel 3
 297:Drivers/STM32WBxx_HAL_Driver/Src/stm32wbxx_hal_ipcc.c ****   *            @arg IPCC_CHANNEL_4: IPCC Channel 4
 298:Drivers/STM32WBxx_HAL_Driver/Src/stm32wbxx_hal_ipcc.c ****   *            @arg IPCC_CHANNEL_5: IPCC Channel 5
 299:Drivers/STM32WBxx_HAL_Driver/Src/stm32wbxx_hal_ipcc.c ****   *            @arg IPCC_CHANNEL_6: IPCC Channel 6
 300:Drivers/STM32WBxx_HAL_Driver/Src/stm32wbxx_hal_ipcc.c ****   * @param  ChannelDir Channel direction
 301:Drivers/STM32WBxx_HAL_Driver/Src/stm32wbxx_hal_ipcc.c ****   * @param  cb Interrupt callback
 302:Drivers/STM32WBxx_HAL_Driver/Src/stm32wbxx_hal_ipcc.c ****   * @retval HAL status
 303:Drivers/STM32WBxx_HAL_Driver/Src/stm32wbxx_hal_ipcc.c ****   */
 304:Drivers/STM32WBxx_HAL_Driver/Src/stm32wbxx_hal_ipcc.c **** HAL_StatusTypeDef HAL_IPCC_ActivateNotification(IPCC_HandleTypeDef *hipcc, uint32_t ChannelIndex, I
 305:Drivers/STM32WBxx_HAL_Driver/Src/stm32wbxx_hal_ipcc.c **** {
 306:Drivers/STM32WBxx_HAL_Driver/Src/stm32wbxx_hal_ipcc.c ****   HAL_StatusTypeDef err = HAL_OK;
 307:Drivers/STM32WBxx_HAL_Driver/Src/stm32wbxx_hal_ipcc.c **** 
 308:Drivers/STM32WBxx_HAL_Driver/Src/stm32wbxx_hal_ipcc.c ****   /* Check the IPCC handle allocation */
 309:Drivers/STM32WBxx_HAL_Driver/Src/stm32wbxx_hal_ipcc.c ****   if (hipcc != NULL)
 310:Drivers/STM32WBxx_HAL_Driver/Src/stm32wbxx_hal_ipcc.c ****   {
 311:Drivers/STM32WBxx_HAL_Driver/Src/stm32wbxx_hal_ipcc.c ****     /* Check the parameters */
 312:Drivers/STM32WBxx_HAL_Driver/Src/stm32wbxx_hal_ipcc.c ****     assert_param(IS_IPCC_ALL_INSTANCE(hipcc->Instance));
 313:Drivers/STM32WBxx_HAL_Driver/Src/stm32wbxx_hal_ipcc.c **** 
 314:Drivers/STM32WBxx_HAL_Driver/Src/stm32wbxx_hal_ipcc.c ****     /* Check IPCC state */
ARM GAS  /var/folders/lt/l_qrc8c54t93n_phsj7cf5tc0000gn/T//ccQqlOSj.s 			page 7


 315:Drivers/STM32WBxx_HAL_Driver/Src/stm32wbxx_hal_ipcc.c ****     if (hipcc->State == HAL_IPCC_STATE_READY)
 316:Drivers/STM32WBxx_HAL_Driver/Src/stm32wbxx_hal_ipcc.c ****     {
 317:Drivers/STM32WBxx_HAL_Driver/Src/stm32wbxx_hal_ipcc.c ****       /* Set callback and register masking information */
 318:Drivers/STM32WBxx_HAL_Driver/Src/stm32wbxx_hal_ipcc.c ****       if (ChannelDir == IPCC_CHANNEL_DIR_TX)
 319:Drivers/STM32WBxx_HAL_Driver/Src/stm32wbxx_hal_ipcc.c ****       {
 320:Drivers/STM32WBxx_HAL_Driver/Src/stm32wbxx_hal_ipcc.c ****         hipcc->ChannelCallbackTx[ChannelIndex] = cb;
 321:Drivers/STM32WBxx_HAL_Driver/Src/stm32wbxx_hal_ipcc.c ****         hipcc->callbackRequest |= (IPCC_MR_CH1FM_Msk << (ChannelIndex & CHANNEL_INDEX_Msk));
 322:Drivers/STM32WBxx_HAL_Driver/Src/stm32wbxx_hal_ipcc.c ****       }
 323:Drivers/STM32WBxx_HAL_Driver/Src/stm32wbxx_hal_ipcc.c ****       else
 324:Drivers/STM32WBxx_HAL_Driver/Src/stm32wbxx_hal_ipcc.c ****       {
 325:Drivers/STM32WBxx_HAL_Driver/Src/stm32wbxx_hal_ipcc.c ****         hipcc->ChannelCallbackRx[ChannelIndex] = cb;
 326:Drivers/STM32WBxx_HAL_Driver/Src/stm32wbxx_hal_ipcc.c ****         hipcc->callbackRequest |= (IPCC_MR_CH1OM_Msk << (ChannelIndex & CHANNEL_INDEX_Msk));
 327:Drivers/STM32WBxx_HAL_Driver/Src/stm32wbxx_hal_ipcc.c ****       }
 328:Drivers/STM32WBxx_HAL_Driver/Src/stm32wbxx_hal_ipcc.c **** 
 329:Drivers/STM32WBxx_HAL_Driver/Src/stm32wbxx_hal_ipcc.c ****       /* Unmask only the channels in reception (Transmission channel mask/unmask is done in HAL_IPC
 330:Drivers/STM32WBxx_HAL_Driver/Src/stm32wbxx_hal_ipcc.c ****       if (ChannelDir == IPCC_CHANNEL_DIR_RX)
 331:Drivers/STM32WBxx_HAL_Driver/Src/stm32wbxx_hal_ipcc.c ****       {
 332:Drivers/STM32WBxx_HAL_Driver/Src/stm32wbxx_hal_ipcc.c ****         IPCC_UnmaskInterrupt(ChannelIndex, ChannelDir);
 333:Drivers/STM32WBxx_HAL_Driver/Src/stm32wbxx_hal_ipcc.c ****       }
 334:Drivers/STM32WBxx_HAL_Driver/Src/stm32wbxx_hal_ipcc.c ****     }
 335:Drivers/STM32WBxx_HAL_Driver/Src/stm32wbxx_hal_ipcc.c ****     else
 336:Drivers/STM32WBxx_HAL_Driver/Src/stm32wbxx_hal_ipcc.c ****     {
 337:Drivers/STM32WBxx_HAL_Driver/Src/stm32wbxx_hal_ipcc.c ****       err = HAL_ERROR;
 338:Drivers/STM32WBxx_HAL_Driver/Src/stm32wbxx_hal_ipcc.c ****     }
 339:Drivers/STM32WBxx_HAL_Driver/Src/stm32wbxx_hal_ipcc.c ****   }
 340:Drivers/STM32WBxx_HAL_Driver/Src/stm32wbxx_hal_ipcc.c ****   else
 341:Drivers/STM32WBxx_HAL_Driver/Src/stm32wbxx_hal_ipcc.c ****   {
 342:Drivers/STM32WBxx_HAL_Driver/Src/stm32wbxx_hal_ipcc.c ****     err = HAL_ERROR;
 343:Drivers/STM32WBxx_HAL_Driver/Src/stm32wbxx_hal_ipcc.c ****   }
 344:Drivers/STM32WBxx_HAL_Driver/Src/stm32wbxx_hal_ipcc.c ****   return err;
 345:Drivers/STM32WBxx_HAL_Driver/Src/stm32wbxx_hal_ipcc.c **** }
 346:Drivers/STM32WBxx_HAL_Driver/Src/stm32wbxx_hal_ipcc.c **** 
 347:Drivers/STM32WBxx_HAL_Driver/Src/stm32wbxx_hal_ipcc.c **** /**
 348:Drivers/STM32WBxx_HAL_Driver/Src/stm32wbxx_hal_ipcc.c ****   * @brief  Remove the callback notification on receive/transmit interrupt
 349:Drivers/STM32WBxx_HAL_Driver/Src/stm32wbxx_hal_ipcc.c ****   * @param  hipcc IPCC handle
 350:Drivers/STM32WBxx_HAL_Driver/Src/stm32wbxx_hal_ipcc.c ****   * @param  ChannelIndex Channel number
 351:Drivers/STM32WBxx_HAL_Driver/Src/stm32wbxx_hal_ipcc.c ****   *          This parameter can be one of the following values:
 352:Drivers/STM32WBxx_HAL_Driver/Src/stm32wbxx_hal_ipcc.c ****   *            @arg IPCC_CHANNEL_1: IPCC Channel 1
 353:Drivers/STM32WBxx_HAL_Driver/Src/stm32wbxx_hal_ipcc.c ****   *            @arg IPCC_CHANNEL_2: IPCC Channel 2
 354:Drivers/STM32WBxx_HAL_Driver/Src/stm32wbxx_hal_ipcc.c ****   *            @arg IPCC_CHANNEL_3: IPCC Channel 3
 355:Drivers/STM32WBxx_HAL_Driver/Src/stm32wbxx_hal_ipcc.c ****   *            @arg IPCC_CHANNEL_4: IPCC Channel 4
 356:Drivers/STM32WBxx_HAL_Driver/Src/stm32wbxx_hal_ipcc.c ****   *            @arg IPCC_CHANNEL_5: IPCC Channel 5
 357:Drivers/STM32WBxx_HAL_Driver/Src/stm32wbxx_hal_ipcc.c ****   *            @arg IPCC_CHANNEL_6: IPCC Channel 6
 358:Drivers/STM32WBxx_HAL_Driver/Src/stm32wbxx_hal_ipcc.c ****   * @param  ChannelDir Channel direction
 359:Drivers/STM32WBxx_HAL_Driver/Src/stm32wbxx_hal_ipcc.c ****   * @retval HAL status
 360:Drivers/STM32WBxx_HAL_Driver/Src/stm32wbxx_hal_ipcc.c ****   */
 361:Drivers/STM32WBxx_HAL_Driver/Src/stm32wbxx_hal_ipcc.c **** HAL_StatusTypeDef HAL_IPCC_DeActivateNotification(IPCC_HandleTypeDef *hipcc, uint32_t ChannelIndex,
 362:Drivers/STM32WBxx_HAL_Driver/Src/stm32wbxx_hal_ipcc.c **** {
 363:Drivers/STM32WBxx_HAL_Driver/Src/stm32wbxx_hal_ipcc.c ****   HAL_StatusTypeDef err = HAL_OK;
 364:Drivers/STM32WBxx_HAL_Driver/Src/stm32wbxx_hal_ipcc.c **** 
 365:Drivers/STM32WBxx_HAL_Driver/Src/stm32wbxx_hal_ipcc.c ****   /* Check the IPCC handle allocation */
 366:Drivers/STM32WBxx_HAL_Driver/Src/stm32wbxx_hal_ipcc.c ****   if (hipcc != NULL)
 367:Drivers/STM32WBxx_HAL_Driver/Src/stm32wbxx_hal_ipcc.c ****   {
 368:Drivers/STM32WBxx_HAL_Driver/Src/stm32wbxx_hal_ipcc.c ****     /* Check the parameters */
 369:Drivers/STM32WBxx_HAL_Driver/Src/stm32wbxx_hal_ipcc.c ****     assert_param(IS_IPCC_ALL_INSTANCE(hipcc->Instance));
 370:Drivers/STM32WBxx_HAL_Driver/Src/stm32wbxx_hal_ipcc.c **** 
 371:Drivers/STM32WBxx_HAL_Driver/Src/stm32wbxx_hal_ipcc.c ****     /* Check IPCC state */
ARM GAS  /var/folders/lt/l_qrc8c54t93n_phsj7cf5tc0000gn/T//ccQqlOSj.s 			page 8


 372:Drivers/STM32WBxx_HAL_Driver/Src/stm32wbxx_hal_ipcc.c ****     if (hipcc->State == HAL_IPCC_STATE_READY)
 373:Drivers/STM32WBxx_HAL_Driver/Src/stm32wbxx_hal_ipcc.c ****     {
 374:Drivers/STM32WBxx_HAL_Driver/Src/stm32wbxx_hal_ipcc.c ****       /* Set default callback and register masking information */
 375:Drivers/STM32WBxx_HAL_Driver/Src/stm32wbxx_hal_ipcc.c ****       if (ChannelDir == IPCC_CHANNEL_DIR_TX)
 376:Drivers/STM32WBxx_HAL_Driver/Src/stm32wbxx_hal_ipcc.c ****       {
 377:Drivers/STM32WBxx_HAL_Driver/Src/stm32wbxx_hal_ipcc.c ****         hipcc->ChannelCallbackTx[ChannelIndex] = HAL_IPCC_TxCallback;
 378:Drivers/STM32WBxx_HAL_Driver/Src/stm32wbxx_hal_ipcc.c ****         hipcc->callbackRequest &= ~(IPCC_MR_CH1FM_Msk << (ChannelIndex & CHANNEL_INDEX_Msk));
 379:Drivers/STM32WBxx_HAL_Driver/Src/stm32wbxx_hal_ipcc.c ****       }
 380:Drivers/STM32WBxx_HAL_Driver/Src/stm32wbxx_hal_ipcc.c ****       else
 381:Drivers/STM32WBxx_HAL_Driver/Src/stm32wbxx_hal_ipcc.c ****       {
 382:Drivers/STM32WBxx_HAL_Driver/Src/stm32wbxx_hal_ipcc.c ****         hipcc->ChannelCallbackRx[ChannelIndex] = HAL_IPCC_RxCallback;
 383:Drivers/STM32WBxx_HAL_Driver/Src/stm32wbxx_hal_ipcc.c ****         hipcc->callbackRequest &= ~(IPCC_MR_CH1OM_Msk << (ChannelIndex & CHANNEL_INDEX_Msk));
 384:Drivers/STM32WBxx_HAL_Driver/Src/stm32wbxx_hal_ipcc.c ****       }
 385:Drivers/STM32WBxx_HAL_Driver/Src/stm32wbxx_hal_ipcc.c **** 
 386:Drivers/STM32WBxx_HAL_Driver/Src/stm32wbxx_hal_ipcc.c ****       /* Mask the interrupt */
 387:Drivers/STM32WBxx_HAL_Driver/Src/stm32wbxx_hal_ipcc.c ****       IPCC_MaskInterrupt(ChannelIndex, ChannelDir);
 388:Drivers/STM32WBxx_HAL_Driver/Src/stm32wbxx_hal_ipcc.c ****     }
 389:Drivers/STM32WBxx_HAL_Driver/Src/stm32wbxx_hal_ipcc.c ****     else
 390:Drivers/STM32WBxx_HAL_Driver/Src/stm32wbxx_hal_ipcc.c ****     {
 391:Drivers/STM32WBxx_HAL_Driver/Src/stm32wbxx_hal_ipcc.c ****       err = HAL_ERROR;
 392:Drivers/STM32WBxx_HAL_Driver/Src/stm32wbxx_hal_ipcc.c ****     }
 393:Drivers/STM32WBxx_HAL_Driver/Src/stm32wbxx_hal_ipcc.c ****   }
 394:Drivers/STM32WBxx_HAL_Driver/Src/stm32wbxx_hal_ipcc.c ****   else
 395:Drivers/STM32WBxx_HAL_Driver/Src/stm32wbxx_hal_ipcc.c ****   {
 396:Drivers/STM32WBxx_HAL_Driver/Src/stm32wbxx_hal_ipcc.c ****     err = HAL_ERROR;
 397:Drivers/STM32WBxx_HAL_Driver/Src/stm32wbxx_hal_ipcc.c ****   }
 398:Drivers/STM32WBxx_HAL_Driver/Src/stm32wbxx_hal_ipcc.c ****   return err;
 399:Drivers/STM32WBxx_HAL_Driver/Src/stm32wbxx_hal_ipcc.c **** }
 400:Drivers/STM32WBxx_HAL_Driver/Src/stm32wbxx_hal_ipcc.c **** 
 401:Drivers/STM32WBxx_HAL_Driver/Src/stm32wbxx_hal_ipcc.c **** /**
 402:Drivers/STM32WBxx_HAL_Driver/Src/stm32wbxx_hal_ipcc.c ****   * @brief  Get state of IPCC channel
 403:Drivers/STM32WBxx_HAL_Driver/Src/stm32wbxx_hal_ipcc.c ****   * @param  hipcc IPCC handle
 404:Drivers/STM32WBxx_HAL_Driver/Src/stm32wbxx_hal_ipcc.c ****   * @param  ChannelIndex Channel number
 405:Drivers/STM32WBxx_HAL_Driver/Src/stm32wbxx_hal_ipcc.c ****   *          This parameter can be one of the following values:
 406:Drivers/STM32WBxx_HAL_Driver/Src/stm32wbxx_hal_ipcc.c ****   *            @arg IPCC_CHANNEL_1: IPCC Channel 1
 407:Drivers/STM32WBxx_HAL_Driver/Src/stm32wbxx_hal_ipcc.c ****   *            @arg IPCC_CHANNEL_2: IPCC Channel 2
 408:Drivers/STM32WBxx_HAL_Driver/Src/stm32wbxx_hal_ipcc.c ****   *            @arg IPCC_CHANNEL_3: IPCC Channel 3
 409:Drivers/STM32WBxx_HAL_Driver/Src/stm32wbxx_hal_ipcc.c ****   *            @arg IPCC_CHANNEL_4: IPCC Channel 4
 410:Drivers/STM32WBxx_HAL_Driver/Src/stm32wbxx_hal_ipcc.c ****   *            @arg IPCC_CHANNEL_5: IPCC Channel 5
 411:Drivers/STM32WBxx_HAL_Driver/Src/stm32wbxx_hal_ipcc.c ****   *            @arg IPCC_CHANNEL_6: IPCC Channel 6
 412:Drivers/STM32WBxx_HAL_Driver/Src/stm32wbxx_hal_ipcc.c ****   * @param  ChannelDir Channel direction
 413:Drivers/STM32WBxx_HAL_Driver/Src/stm32wbxx_hal_ipcc.c ****   * @retval Channel status
 414:Drivers/STM32WBxx_HAL_Driver/Src/stm32wbxx_hal_ipcc.c ****   */
 415:Drivers/STM32WBxx_HAL_Driver/Src/stm32wbxx_hal_ipcc.c **** IPCC_CHANNELStatusTypeDef HAL_IPCC_GetChannelStatus(IPCC_HandleTypeDef const *const hipcc, uint32_t
 416:Drivers/STM32WBxx_HAL_Driver/Src/stm32wbxx_hal_ipcc.c **** {
 417:Drivers/STM32WBxx_HAL_Driver/Src/stm32wbxx_hal_ipcc.c ****   uint32_t channel_state;
 418:Drivers/STM32WBxx_HAL_Driver/Src/stm32wbxx_hal_ipcc.c ****   IPCC_CommonTypeDef *currentInstance = IPCC_C1;
 419:Drivers/STM32WBxx_HAL_Driver/Src/stm32wbxx_hal_ipcc.c ****   IPCC_CommonTypeDef *otherInstance = IPCC_C2;
 420:Drivers/STM32WBxx_HAL_Driver/Src/stm32wbxx_hal_ipcc.c **** 
 421:Drivers/STM32WBxx_HAL_Driver/Src/stm32wbxx_hal_ipcc.c ****   /* Check the parameters */
 422:Drivers/STM32WBxx_HAL_Driver/Src/stm32wbxx_hal_ipcc.c ****   assert_param(IS_IPCC_ALL_INSTANCE(hipcc->Instance));
 423:Drivers/STM32WBxx_HAL_Driver/Src/stm32wbxx_hal_ipcc.c **** 
 424:Drivers/STM32WBxx_HAL_Driver/Src/stm32wbxx_hal_ipcc.c ****   /* Read corresponding channel depending of the MCU and the direction */
 425:Drivers/STM32WBxx_HAL_Driver/Src/stm32wbxx_hal_ipcc.c ****   if (ChannelDir == IPCC_CHANNEL_DIR_TX)
 426:Drivers/STM32WBxx_HAL_Driver/Src/stm32wbxx_hal_ipcc.c ****   {
 427:Drivers/STM32WBxx_HAL_Driver/Src/stm32wbxx_hal_ipcc.c ****     channel_state = (currentInstance->SR) & (IPCC_SR_CH1F_Msk << (ChannelIndex & CHANNEL_INDEX_Msk)
 428:Drivers/STM32WBxx_HAL_Driver/Src/stm32wbxx_hal_ipcc.c ****   }
ARM GAS  /var/folders/lt/l_qrc8c54t93n_phsj7cf5tc0000gn/T//ccQqlOSj.s 			page 9


 429:Drivers/STM32WBxx_HAL_Driver/Src/stm32wbxx_hal_ipcc.c ****   else
 430:Drivers/STM32WBxx_HAL_Driver/Src/stm32wbxx_hal_ipcc.c ****   {
 431:Drivers/STM32WBxx_HAL_Driver/Src/stm32wbxx_hal_ipcc.c ****     channel_state = (otherInstance->SR) & (IPCC_SR_CH1F_Msk << (ChannelIndex & CHANNEL_INDEX_Msk));
 432:Drivers/STM32WBxx_HAL_Driver/Src/stm32wbxx_hal_ipcc.c ****   }
 433:Drivers/STM32WBxx_HAL_Driver/Src/stm32wbxx_hal_ipcc.c **** 
 434:Drivers/STM32WBxx_HAL_Driver/Src/stm32wbxx_hal_ipcc.c ****   return (channel_state == 0UL) ? IPCC_CHANNEL_STATUS_FREE : IPCC_CHANNEL_STATUS_OCCUPIED ;
 435:Drivers/STM32WBxx_HAL_Driver/Src/stm32wbxx_hal_ipcc.c **** }
 436:Drivers/STM32WBxx_HAL_Driver/Src/stm32wbxx_hal_ipcc.c **** 
 437:Drivers/STM32WBxx_HAL_Driver/Src/stm32wbxx_hal_ipcc.c **** /**
 438:Drivers/STM32WBxx_HAL_Driver/Src/stm32wbxx_hal_ipcc.c ****   * @brief  Notify remote processor
 439:Drivers/STM32WBxx_HAL_Driver/Src/stm32wbxx_hal_ipcc.c ****   * @param  hipcc IPCC handle
 440:Drivers/STM32WBxx_HAL_Driver/Src/stm32wbxx_hal_ipcc.c ****   * @param  ChannelIndex Channel number
 441:Drivers/STM32WBxx_HAL_Driver/Src/stm32wbxx_hal_ipcc.c ****   *          This parameter can be one of the following values:
 442:Drivers/STM32WBxx_HAL_Driver/Src/stm32wbxx_hal_ipcc.c ****   *            @arg IPCC_CHANNEL_1: IPCC Channel 1
 443:Drivers/STM32WBxx_HAL_Driver/Src/stm32wbxx_hal_ipcc.c ****   *            @arg IPCC_CHANNEL_2: IPCC Channel 2
 444:Drivers/STM32WBxx_HAL_Driver/Src/stm32wbxx_hal_ipcc.c ****   *            @arg IPCC_CHANNEL_3: IPCC Channel 3
 445:Drivers/STM32WBxx_HAL_Driver/Src/stm32wbxx_hal_ipcc.c ****   *            @arg IPCC_CHANNEL_4: IPCC Channel 4
 446:Drivers/STM32WBxx_HAL_Driver/Src/stm32wbxx_hal_ipcc.c ****   *            @arg IPCC_CHANNEL_5: IPCC Channel 5
 447:Drivers/STM32WBxx_HAL_Driver/Src/stm32wbxx_hal_ipcc.c ****   *            @arg IPCC_CHANNEL_6: IPCC Channel 6
 448:Drivers/STM32WBxx_HAL_Driver/Src/stm32wbxx_hal_ipcc.c ****   * @param  ChannelDir Channel direction
 449:Drivers/STM32WBxx_HAL_Driver/Src/stm32wbxx_hal_ipcc.c ****   * @retval HAL status
 450:Drivers/STM32WBxx_HAL_Driver/Src/stm32wbxx_hal_ipcc.c ****   */
 451:Drivers/STM32WBxx_HAL_Driver/Src/stm32wbxx_hal_ipcc.c **** HAL_StatusTypeDef HAL_IPCC_NotifyCPU(IPCC_HandleTypeDef const *const hipcc, uint32_t ChannelIndex, 
 452:Drivers/STM32WBxx_HAL_Driver/Src/stm32wbxx_hal_ipcc.c **** {
 453:Drivers/STM32WBxx_HAL_Driver/Src/stm32wbxx_hal_ipcc.c ****   HAL_StatusTypeDef err = HAL_OK;
 454:Drivers/STM32WBxx_HAL_Driver/Src/stm32wbxx_hal_ipcc.c ****   uint32_t mask;
 455:Drivers/STM32WBxx_HAL_Driver/Src/stm32wbxx_hal_ipcc.c ****   IPCC_CommonTypeDef *currentInstance = IPCC_C1;
 456:Drivers/STM32WBxx_HAL_Driver/Src/stm32wbxx_hal_ipcc.c **** 
 457:Drivers/STM32WBxx_HAL_Driver/Src/stm32wbxx_hal_ipcc.c ****   /* Check the parameters */
 458:Drivers/STM32WBxx_HAL_Driver/Src/stm32wbxx_hal_ipcc.c ****   assert_param(IS_IPCC_ALL_INSTANCE(hipcc->Instance));
 459:Drivers/STM32WBxx_HAL_Driver/Src/stm32wbxx_hal_ipcc.c **** 
 460:Drivers/STM32WBxx_HAL_Driver/Src/stm32wbxx_hal_ipcc.c ****   /* Check if IPCC is initialized */
 461:Drivers/STM32WBxx_HAL_Driver/Src/stm32wbxx_hal_ipcc.c ****   if (hipcc->State == HAL_IPCC_STATE_READY)
 462:Drivers/STM32WBxx_HAL_Driver/Src/stm32wbxx_hal_ipcc.c ****   {
 463:Drivers/STM32WBxx_HAL_Driver/Src/stm32wbxx_hal_ipcc.c ****     /* For IPCC_CHANNEL_DIR_TX, set the status. For IPCC_CHANNEL_DIR_RX, clear the status */
 464:Drivers/STM32WBxx_HAL_Driver/Src/stm32wbxx_hal_ipcc.c ****     currentInstance->SCR |= ((ChannelDir == IPCC_CHANNEL_DIR_TX) ? IPCC_SCR_CH1S : IPCC_SCR_CH1C) <
 465:Drivers/STM32WBxx_HAL_Driver/Src/stm32wbxx_hal_ipcc.c **** 
 466:Drivers/STM32WBxx_HAL_Driver/Src/stm32wbxx_hal_ipcc.c ****     /* Unmask interrupt if the callback is requested */
 467:Drivers/STM32WBxx_HAL_Driver/Src/stm32wbxx_hal_ipcc.c ****     mask = ((ChannelDir == IPCC_CHANNEL_DIR_TX) ? IPCC_MR_CH1FM_Msk : IPCC_MR_CH1OM_Msk) << (Channe
 468:Drivers/STM32WBxx_HAL_Driver/Src/stm32wbxx_hal_ipcc.c ****     if ((hipcc->callbackRequest & mask) == mask)
 469:Drivers/STM32WBxx_HAL_Driver/Src/stm32wbxx_hal_ipcc.c ****     {
 470:Drivers/STM32WBxx_HAL_Driver/Src/stm32wbxx_hal_ipcc.c ****       IPCC_UnmaskInterrupt(ChannelIndex, ChannelDir);
 471:Drivers/STM32WBxx_HAL_Driver/Src/stm32wbxx_hal_ipcc.c ****     }
 472:Drivers/STM32WBxx_HAL_Driver/Src/stm32wbxx_hal_ipcc.c ****   }
 473:Drivers/STM32WBxx_HAL_Driver/Src/stm32wbxx_hal_ipcc.c ****   else
 474:Drivers/STM32WBxx_HAL_Driver/Src/stm32wbxx_hal_ipcc.c ****   {
 475:Drivers/STM32WBxx_HAL_Driver/Src/stm32wbxx_hal_ipcc.c ****     err = HAL_ERROR;
 476:Drivers/STM32WBxx_HAL_Driver/Src/stm32wbxx_hal_ipcc.c ****   }
 477:Drivers/STM32WBxx_HAL_Driver/Src/stm32wbxx_hal_ipcc.c **** 
 478:Drivers/STM32WBxx_HAL_Driver/Src/stm32wbxx_hal_ipcc.c ****   return err;
 479:Drivers/STM32WBxx_HAL_Driver/Src/stm32wbxx_hal_ipcc.c **** }
 480:Drivers/STM32WBxx_HAL_Driver/Src/stm32wbxx_hal_ipcc.c **** 
 481:Drivers/STM32WBxx_HAL_Driver/Src/stm32wbxx_hal_ipcc.c **** /**
 482:Drivers/STM32WBxx_HAL_Driver/Src/stm32wbxx_hal_ipcc.c ****   * @}
 483:Drivers/STM32WBxx_HAL_Driver/Src/stm32wbxx_hal_ipcc.c ****   */
 484:Drivers/STM32WBxx_HAL_Driver/Src/stm32wbxx_hal_ipcc.c **** 
 485:Drivers/STM32WBxx_HAL_Driver/Src/stm32wbxx_hal_ipcc.c **** /** @addtogroup IPCC_IRQ_Handler_and_Callbacks
ARM GAS  /var/folders/lt/l_qrc8c54t93n_phsj7cf5tc0000gn/T//ccQqlOSj.s 			page 10


 486:Drivers/STM32WBxx_HAL_Driver/Src/stm32wbxx_hal_ipcc.c ****  * @{
 487:Drivers/STM32WBxx_HAL_Driver/Src/stm32wbxx_hal_ipcc.c ****  */
 488:Drivers/STM32WBxx_HAL_Driver/Src/stm32wbxx_hal_ipcc.c **** 
 489:Drivers/STM32WBxx_HAL_Driver/Src/stm32wbxx_hal_ipcc.c **** /**
 490:Drivers/STM32WBxx_HAL_Driver/Src/stm32wbxx_hal_ipcc.c ****   * @brief  This function handles IPCC Tx Free interrupt request.
 491:Drivers/STM32WBxx_HAL_Driver/Src/stm32wbxx_hal_ipcc.c ****   * @param  hipcc IPCC handle
 492:Drivers/STM32WBxx_HAL_Driver/Src/stm32wbxx_hal_ipcc.c ****   * @retval None
 493:Drivers/STM32WBxx_HAL_Driver/Src/stm32wbxx_hal_ipcc.c ****   */
 494:Drivers/STM32WBxx_HAL_Driver/Src/stm32wbxx_hal_ipcc.c **** void HAL_IPCC_TX_IRQHandler(IPCC_HandleTypeDef *const hipcc)
 495:Drivers/STM32WBxx_HAL_Driver/Src/stm32wbxx_hal_ipcc.c **** {
 496:Drivers/STM32WBxx_HAL_Driver/Src/stm32wbxx_hal_ipcc.c ****   uint32_t irqmask;
 497:Drivers/STM32WBxx_HAL_Driver/Src/stm32wbxx_hal_ipcc.c ****   uint32_t bit_pos;
 498:Drivers/STM32WBxx_HAL_Driver/Src/stm32wbxx_hal_ipcc.c ****   uint32_t ch_count = 0U;
 499:Drivers/STM32WBxx_HAL_Driver/Src/stm32wbxx_hal_ipcc.c ****   IPCC_CommonTypeDef *currentInstance = IPCC_C1;
 500:Drivers/STM32WBxx_HAL_Driver/Src/stm32wbxx_hal_ipcc.c **** 
 501:Drivers/STM32WBxx_HAL_Driver/Src/stm32wbxx_hal_ipcc.c ****   /* check the Tx free channels which are not masked */
 502:Drivers/STM32WBxx_HAL_Driver/Src/stm32wbxx_hal_ipcc.c ****   irqmask = ~(currentInstance->MR) & IPCC_ALL_TX_BUF;
 503:Drivers/STM32WBxx_HAL_Driver/Src/stm32wbxx_hal_ipcc.c ****   irqmask = irqmask & ~(currentInstance->SR << IPCC_MR_CH1FM_Pos);
 504:Drivers/STM32WBxx_HAL_Driver/Src/stm32wbxx_hal_ipcc.c **** 
 505:Drivers/STM32WBxx_HAL_Driver/Src/stm32wbxx_hal_ipcc.c ****   while (irqmask != 0UL)  /* if several bits are set, it loops to serve all of them */
 506:Drivers/STM32WBxx_HAL_Driver/Src/stm32wbxx_hal_ipcc.c ****   {
 507:Drivers/STM32WBxx_HAL_Driver/Src/stm32wbxx_hal_ipcc.c ****     bit_pos = 1UL << (IPCC_MR_CH1FM_Pos + (ch_count & CHANNEL_INDEX_Msk));
 508:Drivers/STM32WBxx_HAL_Driver/Src/stm32wbxx_hal_ipcc.c **** 
 509:Drivers/STM32WBxx_HAL_Driver/Src/stm32wbxx_hal_ipcc.c ****     if ((irqmask & bit_pos) != 0U)
 510:Drivers/STM32WBxx_HAL_Driver/Src/stm32wbxx_hal_ipcc.c ****     {
 511:Drivers/STM32WBxx_HAL_Driver/Src/stm32wbxx_hal_ipcc.c ****       /* mask the channel Free interrupt  */
 512:Drivers/STM32WBxx_HAL_Driver/Src/stm32wbxx_hal_ipcc.c ****       currentInstance->MR |= bit_pos;
 513:Drivers/STM32WBxx_HAL_Driver/Src/stm32wbxx_hal_ipcc.c ****       if (hipcc->ChannelCallbackTx[ch_count] != NULL)
 514:Drivers/STM32WBxx_HAL_Driver/Src/stm32wbxx_hal_ipcc.c ****       {
 515:Drivers/STM32WBxx_HAL_Driver/Src/stm32wbxx_hal_ipcc.c ****         hipcc->ChannelCallbackTx[ch_count](hipcc, ch_count, IPCC_CHANNEL_DIR_TX);
 516:Drivers/STM32WBxx_HAL_Driver/Src/stm32wbxx_hal_ipcc.c ****       }
 517:Drivers/STM32WBxx_HAL_Driver/Src/stm32wbxx_hal_ipcc.c ****       irqmask =  irqmask & ~(bit_pos);
 518:Drivers/STM32WBxx_HAL_Driver/Src/stm32wbxx_hal_ipcc.c ****     }
 519:Drivers/STM32WBxx_HAL_Driver/Src/stm32wbxx_hal_ipcc.c ****     ch_count++;
 520:Drivers/STM32WBxx_HAL_Driver/Src/stm32wbxx_hal_ipcc.c ****   }
 521:Drivers/STM32WBxx_HAL_Driver/Src/stm32wbxx_hal_ipcc.c **** }
 522:Drivers/STM32WBxx_HAL_Driver/Src/stm32wbxx_hal_ipcc.c **** 
 523:Drivers/STM32WBxx_HAL_Driver/Src/stm32wbxx_hal_ipcc.c **** /**
 524:Drivers/STM32WBxx_HAL_Driver/Src/stm32wbxx_hal_ipcc.c ****   * @brief  This function handles IPCC Rx Occupied interrupt request.
 525:Drivers/STM32WBxx_HAL_Driver/Src/stm32wbxx_hal_ipcc.c ****   * @param  hipcc : IPCC handle
 526:Drivers/STM32WBxx_HAL_Driver/Src/stm32wbxx_hal_ipcc.c ****   * @retval None
 527:Drivers/STM32WBxx_HAL_Driver/Src/stm32wbxx_hal_ipcc.c ****   */
 528:Drivers/STM32WBxx_HAL_Driver/Src/stm32wbxx_hal_ipcc.c **** void HAL_IPCC_RX_IRQHandler(IPCC_HandleTypeDef *const hipcc)
 529:Drivers/STM32WBxx_HAL_Driver/Src/stm32wbxx_hal_ipcc.c **** {
 530:Drivers/STM32WBxx_HAL_Driver/Src/stm32wbxx_hal_ipcc.c ****   uint32_t irqmask;
 531:Drivers/STM32WBxx_HAL_Driver/Src/stm32wbxx_hal_ipcc.c ****   uint32_t bit_pos;
 532:Drivers/STM32WBxx_HAL_Driver/Src/stm32wbxx_hal_ipcc.c ****   uint32_t ch_count = 0U;
 533:Drivers/STM32WBxx_HAL_Driver/Src/stm32wbxx_hal_ipcc.c ****   IPCC_CommonTypeDef *currentInstance = IPCC_C1;
 534:Drivers/STM32WBxx_HAL_Driver/Src/stm32wbxx_hal_ipcc.c ****   IPCC_CommonTypeDef *otherInstance = IPCC_C2;
 535:Drivers/STM32WBxx_HAL_Driver/Src/stm32wbxx_hal_ipcc.c **** 
 536:Drivers/STM32WBxx_HAL_Driver/Src/stm32wbxx_hal_ipcc.c ****   /* check the Rx occupied channels which are not masked */
 537:Drivers/STM32WBxx_HAL_Driver/Src/stm32wbxx_hal_ipcc.c ****   irqmask = ~(currentInstance->MR) & IPCC_ALL_RX_BUF;
 538:Drivers/STM32WBxx_HAL_Driver/Src/stm32wbxx_hal_ipcc.c ****   irqmask = irqmask & otherInstance->SR;
 539:Drivers/STM32WBxx_HAL_Driver/Src/stm32wbxx_hal_ipcc.c **** 
 540:Drivers/STM32WBxx_HAL_Driver/Src/stm32wbxx_hal_ipcc.c ****   while (irqmask != 0UL)  /* if several bits are set, it loops to serve all of them */
 541:Drivers/STM32WBxx_HAL_Driver/Src/stm32wbxx_hal_ipcc.c ****   {
 542:Drivers/STM32WBxx_HAL_Driver/Src/stm32wbxx_hal_ipcc.c ****     bit_pos = 1UL << (ch_count & CHANNEL_INDEX_Msk);
ARM GAS  /var/folders/lt/l_qrc8c54t93n_phsj7cf5tc0000gn/T//ccQqlOSj.s 			page 11


 543:Drivers/STM32WBxx_HAL_Driver/Src/stm32wbxx_hal_ipcc.c **** 
 544:Drivers/STM32WBxx_HAL_Driver/Src/stm32wbxx_hal_ipcc.c ****     if ((irqmask & bit_pos) != 0U)
 545:Drivers/STM32WBxx_HAL_Driver/Src/stm32wbxx_hal_ipcc.c ****     {
 546:Drivers/STM32WBxx_HAL_Driver/Src/stm32wbxx_hal_ipcc.c ****       /* mask the channel occupied interrupt */
 547:Drivers/STM32WBxx_HAL_Driver/Src/stm32wbxx_hal_ipcc.c ****       currentInstance->MR |= bit_pos;
 548:Drivers/STM32WBxx_HAL_Driver/Src/stm32wbxx_hal_ipcc.c ****       if (hipcc->ChannelCallbackRx[ch_count] != NULL)
 549:Drivers/STM32WBxx_HAL_Driver/Src/stm32wbxx_hal_ipcc.c ****       {
 550:Drivers/STM32WBxx_HAL_Driver/Src/stm32wbxx_hal_ipcc.c ****         hipcc->ChannelCallbackRx[ch_count](hipcc, ch_count, IPCC_CHANNEL_DIR_RX);
 551:Drivers/STM32WBxx_HAL_Driver/Src/stm32wbxx_hal_ipcc.c ****       }
 552:Drivers/STM32WBxx_HAL_Driver/Src/stm32wbxx_hal_ipcc.c ****       irqmask = irqmask & ~(bit_pos);
 553:Drivers/STM32WBxx_HAL_Driver/Src/stm32wbxx_hal_ipcc.c ****     }
 554:Drivers/STM32WBxx_HAL_Driver/Src/stm32wbxx_hal_ipcc.c ****     ch_count++;
 555:Drivers/STM32WBxx_HAL_Driver/Src/stm32wbxx_hal_ipcc.c ****   }
 556:Drivers/STM32WBxx_HAL_Driver/Src/stm32wbxx_hal_ipcc.c **** }
 557:Drivers/STM32WBxx_HAL_Driver/Src/stm32wbxx_hal_ipcc.c **** 
 558:Drivers/STM32WBxx_HAL_Driver/Src/stm32wbxx_hal_ipcc.c **** /**
 559:Drivers/STM32WBxx_HAL_Driver/Src/stm32wbxx_hal_ipcc.c ****   * @brief Rx occupied callback
 560:Drivers/STM32WBxx_HAL_Driver/Src/stm32wbxx_hal_ipcc.c ****   * @param hipcc IPCC handle
 561:Drivers/STM32WBxx_HAL_Driver/Src/stm32wbxx_hal_ipcc.c ****   * @param ChannelIndex Channel number
 562:Drivers/STM32WBxx_HAL_Driver/Src/stm32wbxx_hal_ipcc.c ****   *          This parameter can be one of the following values:
 563:Drivers/STM32WBxx_HAL_Driver/Src/stm32wbxx_hal_ipcc.c ****   *            @arg IPCC_CHANNEL_1: IPCC Channel 1
 564:Drivers/STM32WBxx_HAL_Driver/Src/stm32wbxx_hal_ipcc.c ****   *            @arg IPCC_CHANNEL_2: IPCC Channel 2
 565:Drivers/STM32WBxx_HAL_Driver/Src/stm32wbxx_hal_ipcc.c ****   *            @arg IPCC_CHANNEL_3: IPCC Channel 3
 566:Drivers/STM32WBxx_HAL_Driver/Src/stm32wbxx_hal_ipcc.c ****   *            @arg IPCC_CHANNEL_4: IPCC Channel 4
 567:Drivers/STM32WBxx_HAL_Driver/Src/stm32wbxx_hal_ipcc.c ****   *            @arg IPCC_CHANNEL_5: IPCC Channel 5
 568:Drivers/STM32WBxx_HAL_Driver/Src/stm32wbxx_hal_ipcc.c ****   *            @arg IPCC_CHANNEL_6: IPCC Channel 6
 569:Drivers/STM32WBxx_HAL_Driver/Src/stm32wbxx_hal_ipcc.c ****   * @param ChannelDir Channel direction
 570:Drivers/STM32WBxx_HAL_Driver/Src/stm32wbxx_hal_ipcc.c ****   */
 571:Drivers/STM32WBxx_HAL_Driver/Src/stm32wbxx_hal_ipcc.c **** __weak void HAL_IPCC_RxCallback(IPCC_HandleTypeDef *hipcc, uint32_t ChannelIndex, IPCC_CHANNELDirTy
 572:Drivers/STM32WBxx_HAL_Driver/Src/stm32wbxx_hal_ipcc.c **** {
  30              		.loc 1 572 1 view -0
  31              		.cfi_startproc
  32              		@ args = 0, pretend = 0, frame = 0
  33              		@ frame_needed = 0, uses_anonymous_args = 0
  34              		@ link register save eliminated.
 573:Drivers/STM32WBxx_HAL_Driver/Src/stm32wbxx_hal_ipcc.c ****   /* Prevent unused argument(s) compilation warning */
 574:Drivers/STM32WBxx_HAL_Driver/Src/stm32wbxx_hal_ipcc.c ****   UNUSED(hipcc);
  35              		.loc 1 574 3 view .LVU1
 575:Drivers/STM32WBxx_HAL_Driver/Src/stm32wbxx_hal_ipcc.c ****   UNUSED(ChannelIndex);
  36              		.loc 1 575 3 view .LVU2
 576:Drivers/STM32WBxx_HAL_Driver/Src/stm32wbxx_hal_ipcc.c ****   UNUSED(ChannelDir);
  37              		.loc 1 576 3 view .LVU3
 577:Drivers/STM32WBxx_HAL_Driver/Src/stm32wbxx_hal_ipcc.c **** 
 578:Drivers/STM32WBxx_HAL_Driver/Src/stm32wbxx_hal_ipcc.c ****   /* NOTE : This function should not be modified, when the callback is needed,
 579:Drivers/STM32WBxx_HAL_Driver/Src/stm32wbxx_hal_ipcc.c ****             the HAL_IPCC_RxCallback can be implemented in the user file
 580:Drivers/STM32WBxx_HAL_Driver/Src/stm32wbxx_hal_ipcc.c ****    */
 581:Drivers/STM32WBxx_HAL_Driver/Src/stm32wbxx_hal_ipcc.c **** }
  38              		.loc 1 581 1 is_stmt 0 view .LVU4
  39 0000 7047     		bx	lr
  40              		.cfi_endproc
  41              	.LFE1114:
  43              		.section	.text.HAL_IPCC_TxCallback,"ax",%progbits
  44              		.align	1
  45              		.weak	HAL_IPCC_TxCallback
  46              		.syntax unified
  47              		.thumb
  48              		.thumb_func
ARM GAS  /var/folders/lt/l_qrc8c54t93n_phsj7cf5tc0000gn/T//ccQqlOSj.s 			page 12


  49              		.fpu fpv4-sp-d16
  51              	HAL_IPCC_TxCallback:
  52              	.LVL1:
  53              	.LFB1115:
 582:Drivers/STM32WBxx_HAL_Driver/Src/stm32wbxx_hal_ipcc.c **** 
 583:Drivers/STM32WBxx_HAL_Driver/Src/stm32wbxx_hal_ipcc.c **** /**
 584:Drivers/STM32WBxx_HAL_Driver/Src/stm32wbxx_hal_ipcc.c ****   * @brief Tx free callback
 585:Drivers/STM32WBxx_HAL_Driver/Src/stm32wbxx_hal_ipcc.c ****   * @param hipcc IPCC handle
 586:Drivers/STM32WBxx_HAL_Driver/Src/stm32wbxx_hal_ipcc.c ****   * @param ChannelIndex Channel number
 587:Drivers/STM32WBxx_HAL_Driver/Src/stm32wbxx_hal_ipcc.c ****   *          This parameter can be one of the following values:
 588:Drivers/STM32WBxx_HAL_Driver/Src/stm32wbxx_hal_ipcc.c ****   *            @arg IPCC_CHANNEL_1: IPCC Channel 1
 589:Drivers/STM32WBxx_HAL_Driver/Src/stm32wbxx_hal_ipcc.c ****   *            @arg IPCC_CHANNEL_2: IPCC Channel 2
 590:Drivers/STM32WBxx_HAL_Driver/Src/stm32wbxx_hal_ipcc.c ****   *            @arg IPCC_CHANNEL_3: IPCC Channel 3
 591:Drivers/STM32WBxx_HAL_Driver/Src/stm32wbxx_hal_ipcc.c ****   *            @arg IPCC_CHANNEL_4: IPCC Channel 4
 592:Drivers/STM32WBxx_HAL_Driver/Src/stm32wbxx_hal_ipcc.c ****   *            @arg IPCC_CHANNEL_5: IPCC Channel 5
 593:Drivers/STM32WBxx_HAL_Driver/Src/stm32wbxx_hal_ipcc.c ****   *            @arg IPCC_CHANNEL_6: IPCC Channel 6
 594:Drivers/STM32WBxx_HAL_Driver/Src/stm32wbxx_hal_ipcc.c ****   * @param ChannelDir Channel direction
 595:Drivers/STM32WBxx_HAL_Driver/Src/stm32wbxx_hal_ipcc.c ****   */
 596:Drivers/STM32WBxx_HAL_Driver/Src/stm32wbxx_hal_ipcc.c **** __weak void HAL_IPCC_TxCallback(IPCC_HandleTypeDef *hipcc, uint32_t ChannelIndex, IPCC_CHANNELDirTy
 597:Drivers/STM32WBxx_HAL_Driver/Src/stm32wbxx_hal_ipcc.c **** {
  54              		.loc 1 597 1 is_stmt 1 view -0
  55              		.cfi_startproc
  56              		@ args = 0, pretend = 0, frame = 0
  57              		@ frame_needed = 0, uses_anonymous_args = 0
  58              		@ link register save eliminated.
 598:Drivers/STM32WBxx_HAL_Driver/Src/stm32wbxx_hal_ipcc.c ****   /* Prevent unused argument(s) compilation warning */
 599:Drivers/STM32WBxx_HAL_Driver/Src/stm32wbxx_hal_ipcc.c ****   UNUSED(hipcc);
  59              		.loc 1 599 3 view .LVU6
 600:Drivers/STM32WBxx_HAL_Driver/Src/stm32wbxx_hal_ipcc.c ****   UNUSED(ChannelIndex);
  60              		.loc 1 600 3 view .LVU7
 601:Drivers/STM32WBxx_HAL_Driver/Src/stm32wbxx_hal_ipcc.c ****   UNUSED(ChannelDir);
  61              		.loc 1 601 3 view .LVU8
 602:Drivers/STM32WBxx_HAL_Driver/Src/stm32wbxx_hal_ipcc.c **** 
 603:Drivers/STM32WBxx_HAL_Driver/Src/stm32wbxx_hal_ipcc.c ****   /* NOTE : This function should not be modified, when the callback is needed,
 604:Drivers/STM32WBxx_HAL_Driver/Src/stm32wbxx_hal_ipcc.c ****             the HAL_IPCC_TxCallback can be implemented in the user file
 605:Drivers/STM32WBxx_HAL_Driver/Src/stm32wbxx_hal_ipcc.c ****    */
 606:Drivers/STM32WBxx_HAL_Driver/Src/stm32wbxx_hal_ipcc.c **** }
  62              		.loc 1 606 1 is_stmt 0 view .LVU9
  63 0000 7047     		bx	lr
  64              		.cfi_endproc
  65              	.LFE1115:
  67              		.section	.text.HAL_IPCC_MspInit,"ax",%progbits
  68              		.align	1
  69              		.weak	HAL_IPCC_MspInit
  70              		.syntax unified
  71              		.thumb
  72              		.thumb_func
  73              		.fpu fpv4-sp-d16
  75              	HAL_IPCC_MspInit:
  76              	.LVL2:
  77              	.LFB1106:
 212:Drivers/STM32WBxx_HAL_Driver/Src/stm32wbxx_hal_ipcc.c ****   /* Prevent unused argument(s) compilation warning */
  78              		.loc 1 212 1 is_stmt 1 view -0
  79              		.cfi_startproc
  80              		@ args = 0, pretend = 0, frame = 0
  81              		@ frame_needed = 0, uses_anonymous_args = 0
  82              		@ link register save eliminated.
ARM GAS  /var/folders/lt/l_qrc8c54t93n_phsj7cf5tc0000gn/T//ccQqlOSj.s 			page 13


 214:Drivers/STM32WBxx_HAL_Driver/Src/stm32wbxx_hal_ipcc.c **** 
  83              		.loc 1 214 3 view .LVU11
 219:Drivers/STM32WBxx_HAL_Driver/Src/stm32wbxx_hal_ipcc.c **** 
  84              		.loc 1 219 1 is_stmt 0 view .LVU12
  85 0000 7047     		bx	lr
  86              		.cfi_endproc
  87              	.LFE1106:
  89              		.section	.text.HAL_IPCC_MspDeInit,"ax",%progbits
  90              		.align	1
  91              		.weak	HAL_IPCC_MspDeInit
  92              		.syntax unified
  93              		.thumb
  94              		.thumb_func
  95              		.fpu fpv4-sp-d16
  97              	HAL_IPCC_MspDeInit:
  98              	.LVL3:
  99              	.LFB1107:
 227:Drivers/STM32WBxx_HAL_Driver/Src/stm32wbxx_hal_ipcc.c ****   /* Prevent unused argument(s) compilation warning */
 100              		.loc 1 227 1 is_stmt 1 view -0
 101              		.cfi_startproc
 102              		@ args = 0, pretend = 0, frame = 0
 103              		@ frame_needed = 0, uses_anonymous_args = 0
 104              		@ link register save eliminated.
 229:Drivers/STM32WBxx_HAL_Driver/Src/stm32wbxx_hal_ipcc.c **** 
 105              		.loc 1 229 3 view .LVU14
 234:Drivers/STM32WBxx_HAL_Driver/Src/stm32wbxx_hal_ipcc.c **** 
 106              		.loc 1 234 1 is_stmt 0 view .LVU15
 107 0000 7047     		bx	lr
 108              		.cfi_endproc
 109              	.LFE1107:
 111              		.section	.text.HAL_IPCC_GetChannelStatus,"ax",%progbits
 112              		.align	1
 113              		.global	HAL_IPCC_GetChannelStatus
 114              		.syntax unified
 115              		.thumb
 116              		.thumb_func
 117              		.fpu fpv4-sp-d16
 119              	HAL_IPCC_GetChannelStatus:
 120              	.LVL4:
 121              	.LFB1110:
 416:Drivers/STM32WBxx_HAL_Driver/Src/stm32wbxx_hal_ipcc.c ****   uint32_t channel_state;
 122              		.loc 1 416 1 is_stmt 1 view -0
 123              		.cfi_startproc
 124              		@ args = 0, pretend = 0, frame = 0
 125              		@ frame_needed = 0, uses_anonymous_args = 0
 126              		@ link register save eliminated.
 417:Drivers/STM32WBxx_HAL_Driver/Src/stm32wbxx_hal_ipcc.c ****   IPCC_CommonTypeDef *currentInstance = IPCC_C1;
 127              		.loc 1 417 3 view .LVU17
 418:Drivers/STM32WBxx_HAL_Driver/Src/stm32wbxx_hal_ipcc.c ****   IPCC_CommonTypeDef *otherInstance = IPCC_C2;
 128              		.loc 1 418 3 view .LVU18
 419:Drivers/STM32WBxx_HAL_Driver/Src/stm32wbxx_hal_ipcc.c **** 
 129              		.loc 1 419 3 view .LVU19
 422:Drivers/STM32WBxx_HAL_Driver/Src/stm32wbxx_hal_ipcc.c **** 
 130              		.loc 1 422 3 view .LVU20
 425:Drivers/STM32WBxx_HAL_Driver/Src/stm32wbxx_hal_ipcc.c ****   {
 131              		.loc 1 425 3 view .LVU21
 425:Drivers/STM32WBxx_HAL_Driver/Src/stm32wbxx_hal_ipcc.c ****   {
ARM GAS  /var/folders/lt/l_qrc8c54t93n_phsj7cf5tc0000gn/T//ccQqlOSj.s 			page 14


 132              		.loc 1 425 6 is_stmt 0 view .LVU22
 133 0000 5AB9     		cbnz	r2, .L6
 427:Drivers/STM32WBxx_HAL_Driver/Src/stm32wbxx_hal_ipcc.c ****   }
 134              		.loc 1 427 5 is_stmt 1 view .LVU23
 427:Drivers/STM32WBxx_HAL_Driver/Src/stm32wbxx_hal_ipcc.c ****   }
 135              		.loc 1 427 37 is_stmt 0 view .LVU24
 136 0002 0A4B     		ldr	r3, .L8
 137 0004 D868     		ldr	r0, [r3, #12]
 138              	.LVL5:
 427:Drivers/STM32WBxx_HAL_Driver/Src/stm32wbxx_hal_ipcc.c ****   }
 139              		.loc 1 427 80 view .LVU25
 140 0006 01F00F01 		and	r1, r1, #15
 141              	.LVL6:
 427:Drivers/STM32WBxx_HAL_Driver/Src/stm32wbxx_hal_ipcc.c ****   }
 142              		.loc 1 427 63 view .LVU26
 143 000a 0123     		movs	r3, #1
 144 000c 03FA01F1 		lsl	r1, r3, r1
 427:Drivers/STM32WBxx_HAL_Driver/Src/stm32wbxx_hal_ipcc.c ****   }
 145              		.loc 1 427 19 view .LVU27
 146 0010 0840     		ands	r0, r0, r1
 147              	.LVL7:
 148              	.L7:
 434:Drivers/STM32WBxx_HAL_Driver/Src/stm32wbxx_hal_ipcc.c **** }
 149              		.loc 1 434 3 is_stmt 1 view .LVU28
 435:Drivers/STM32WBxx_HAL_Driver/Src/stm32wbxx_hal_ipcc.c **** 
 150              		.loc 1 435 1 is_stmt 0 view .LVU29
 151 0012 0038     		subs	r0, r0, #0
 435:Drivers/STM32WBxx_HAL_Driver/Src/stm32wbxx_hal_ipcc.c **** 
 152              		.loc 1 435 1 view .LVU30
 153 0014 18BF     		it	ne
 154 0016 0120     		movne	r0, #1
 155              	.LVL8:
 435:Drivers/STM32WBxx_HAL_Driver/Src/stm32wbxx_hal_ipcc.c **** 
 156              		.loc 1 435 1 view .LVU31
 157 0018 7047     		bx	lr
 158              	.LVL9:
 159              	.L6:
 431:Drivers/STM32WBxx_HAL_Driver/Src/stm32wbxx_hal_ipcc.c ****   }
 160              		.loc 1 431 5 is_stmt 1 view .LVU32
 431:Drivers/STM32WBxx_HAL_Driver/Src/stm32wbxx_hal_ipcc.c ****   }
 161              		.loc 1 431 35 is_stmt 0 view .LVU33
 162 001a 054B     		ldr	r3, .L8+4
 163 001c D868     		ldr	r0, [r3, #12]
 164              	.LVL10:
 431:Drivers/STM32WBxx_HAL_Driver/Src/stm32wbxx_hal_ipcc.c ****   }
 165              		.loc 1 431 78 view .LVU34
 166 001e 01F00F01 		and	r1, r1, #15
 167              	.LVL11:
 431:Drivers/STM32WBxx_HAL_Driver/Src/stm32wbxx_hal_ipcc.c ****   }
 168              		.loc 1 431 61 view .LVU35
 169 0022 0123     		movs	r3, #1
 170 0024 03FA01F1 		lsl	r1, r3, r1
 431:Drivers/STM32WBxx_HAL_Driver/Src/stm32wbxx_hal_ipcc.c ****   }
 171              		.loc 1 431 19 view .LVU36
 172 0028 0840     		ands	r0, r0, r1
 173              	.LVL12:
 431:Drivers/STM32WBxx_HAL_Driver/Src/stm32wbxx_hal_ipcc.c ****   }
ARM GAS  /var/folders/lt/l_qrc8c54t93n_phsj7cf5tc0000gn/T//ccQqlOSj.s 			page 15


 174              		.loc 1 431 19 view .LVU37
 175 002a F2E7     		b	.L7
 176              	.L9:
 177              		.align	2
 178              	.L8:
 179 002c 000C0058 		.word	1476398080
 180 0030 100C0058 		.word	1476398096
 181              		.cfi_endproc
 182              	.LFE1110:
 184              		.section	.text.HAL_IPCC_TX_IRQHandler,"ax",%progbits
 185              		.align	1
 186              		.global	HAL_IPCC_TX_IRQHandler
 187              		.syntax unified
 188              		.thumb
 189              		.thumb_func
 190              		.fpu fpv4-sp-d16
 192              	HAL_IPCC_TX_IRQHandler:
 193              	.LVL13:
 194              	.LFB1112:
 495:Drivers/STM32WBxx_HAL_Driver/Src/stm32wbxx_hal_ipcc.c ****   uint32_t irqmask;
 195              		.loc 1 495 1 is_stmt 1 view -0
 196              		.cfi_startproc
 197              		@ args = 0, pretend = 0, frame = 0
 198              		@ frame_needed = 0, uses_anonymous_args = 0
 495:Drivers/STM32WBxx_HAL_Driver/Src/stm32wbxx_hal_ipcc.c ****   uint32_t irqmask;
 199              		.loc 1 495 1 is_stmt 0 view .LVU39
 200 0000 F8B5     		push	{r3, r4, r5, r6, r7, lr}
 201              	.LCFI0:
 202              		.cfi_def_cfa_offset 24
 203              		.cfi_offset 3, -24
 204              		.cfi_offset 4, -20
 205              		.cfi_offset 5, -16
 206              		.cfi_offset 6, -12
 207              		.cfi_offset 7, -8
 208              		.cfi_offset 14, -4
 209 0002 0746     		mov	r7, r0
 496:Drivers/STM32WBxx_HAL_Driver/Src/stm32wbxx_hal_ipcc.c ****   uint32_t bit_pos;
 210              		.loc 1 496 3 is_stmt 1 view .LVU40
 497:Drivers/STM32WBxx_HAL_Driver/Src/stm32wbxx_hal_ipcc.c ****   uint32_t ch_count = 0U;
 211              		.loc 1 497 3 view .LVU41
 498:Drivers/STM32WBxx_HAL_Driver/Src/stm32wbxx_hal_ipcc.c ****   IPCC_CommonTypeDef *currentInstance = IPCC_C1;
 212              		.loc 1 498 3 view .LVU42
 213              	.LVL14:
 499:Drivers/STM32WBxx_HAL_Driver/Src/stm32wbxx_hal_ipcc.c **** 
 214              		.loc 1 499 3 view .LVU43
 502:Drivers/STM32WBxx_HAL_Driver/Src/stm32wbxx_hal_ipcc.c ****   irqmask = irqmask & ~(currentInstance->SR << IPCC_MR_CH1FM_Pos);
 215              		.loc 1 502 3 view .LVU44
 502:Drivers/STM32WBxx_HAL_Driver/Src/stm32wbxx_hal_ipcc.c ****   irqmask = irqmask & ~(currentInstance->SR << IPCC_MR_CH1FM_Pos);
 216              		.loc 1 502 30 is_stmt 0 view .LVU45
 217 0004 124B     		ldr	r3, .L17
 218 0006 5D68     		ldr	r5, [r3, #4]
 502:Drivers/STM32WBxx_HAL_Driver/Src/stm32wbxx_hal_ipcc.c ****   irqmask = irqmask & ~(currentInstance->SR << IPCC_MR_CH1FM_Pos);
 219              		.loc 1 502 13 view .LVU46
 220 0008 ED43     		mvns	r5, r5
 502:Drivers/STM32WBxx_HAL_Driver/Src/stm32wbxx_hal_ipcc.c ****   irqmask = irqmask & ~(currentInstance->SR << IPCC_MR_CH1FM_Pos);
 221              		.loc 1 502 11 view .LVU47
 222 000a 05F47C15 		and	r5, r5, #4128768
ARM GAS  /var/folders/lt/l_qrc8c54t93n_phsj7cf5tc0000gn/T//ccQqlOSj.s 			page 16


 223              	.LVL15:
 503:Drivers/STM32WBxx_HAL_Driver/Src/stm32wbxx_hal_ipcc.c **** 
 224              		.loc 1 503 3 is_stmt 1 view .LVU48
 503:Drivers/STM32WBxx_HAL_Driver/Src/stm32wbxx_hal_ipcc.c **** 
 225              		.loc 1 503 40 is_stmt 0 view .LVU49
 226 000e DB68     		ldr	r3, [r3, #12]
 503:Drivers/STM32WBxx_HAL_Driver/Src/stm32wbxx_hal_ipcc.c **** 
 227              		.loc 1 503 11 view .LVU50
 228 0010 25EA0345 		bic	r5, r5, r3, lsl #16
 229              	.LVL16:
 505:Drivers/STM32WBxx_HAL_Driver/Src/stm32wbxx_hal_ipcc.c ****   {
 230              		.loc 1 505 3 is_stmt 1 view .LVU51
 498:Drivers/STM32WBxx_HAL_Driver/Src/stm32wbxx_hal_ipcc.c ****   IPCC_CommonTypeDef *currentInstance = IPCC_C1;
 231              		.loc 1 498 12 is_stmt 0 view .LVU52
 232 0014 0026     		movs	r6, #0
 505:Drivers/STM32WBxx_HAL_Driver/Src/stm32wbxx_hal_ipcc.c ****   {
 233              		.loc 1 505 9 view .LVU53
 234 0016 02E0     		b	.L11
 235              	.LVL17:
 236              	.L13:
 517:Drivers/STM32WBxx_HAL_Driver/Src/stm32wbxx_hal_ipcc.c ****     }
 237              		.loc 1 517 7 is_stmt 1 view .LVU54
 517:Drivers/STM32WBxx_HAL_Driver/Src/stm32wbxx_hal_ipcc.c ****     }
 238              		.loc 1 517 15 is_stmt 0 view .LVU55
 239 0018 25EA0405 		bic	r5, r5, r4
 240              	.LVL18:
 241              	.L12:
 519:Drivers/STM32WBxx_HAL_Driver/Src/stm32wbxx_hal_ipcc.c ****   }
 242              		.loc 1 519 5 is_stmt 1 view .LVU56
 519:Drivers/STM32WBxx_HAL_Driver/Src/stm32wbxx_hal_ipcc.c ****   }
 243              		.loc 1 519 13 is_stmt 0 view .LVU57
 244 001c 0136     		adds	r6, r6, #1
 245              	.LVL19:
 246              	.L11:
 505:Drivers/STM32WBxx_HAL_Driver/Src/stm32wbxx_hal_ipcc.c ****   {
 247              		.loc 1 505 9 is_stmt 1 view .LVU58
 248 001e B5B1     		cbz	r5, .L16
 507:Drivers/STM32WBxx_HAL_Driver/Src/stm32wbxx_hal_ipcc.c **** 
 249              		.loc 1 507 5 view .LVU59
 507:Drivers/STM32WBxx_HAL_Driver/Src/stm32wbxx_hal_ipcc.c **** 
 250              		.loc 1 507 53 is_stmt 0 view .LVU60
 251 0020 06F00F04 		and	r4, r6, #15
 507:Drivers/STM32WBxx_HAL_Driver/Src/stm32wbxx_hal_ipcc.c **** 
 252              		.loc 1 507 41 view .LVU61
 253 0024 04F11003 		add	r3, r4, #16
 507:Drivers/STM32WBxx_HAL_Driver/Src/stm32wbxx_hal_ipcc.c **** 
 254              		.loc 1 507 13 view .LVU62
 255 0028 0124     		movs	r4, #1
 256 002a 9C40     		lsls	r4, r4, r3
 257              	.LVL20:
 509:Drivers/STM32WBxx_HAL_Driver/Src/stm32wbxx_hal_ipcc.c ****     {
 258              		.loc 1 509 5 is_stmt 1 view .LVU63
 509:Drivers/STM32WBxx_HAL_Driver/Src/stm32wbxx_hal_ipcc.c ****     {
 259              		.loc 1 509 8 is_stmt 0 view .LVU64
 260 002c 2542     		tst	r5, r4
 261 002e F5D0     		beq	.L12
 512:Drivers/STM32WBxx_HAL_Driver/Src/stm32wbxx_hal_ipcc.c ****       if (hipcc->ChannelCallbackTx[ch_count] != NULL)
ARM GAS  /var/folders/lt/l_qrc8c54t93n_phsj7cf5tc0000gn/T//ccQqlOSj.s 			page 17


 262              		.loc 1 512 7 is_stmt 1 view .LVU65
 512:Drivers/STM32WBxx_HAL_Driver/Src/stm32wbxx_hal_ipcc.c ****       if (hipcc->ChannelCallbackTx[ch_count] != NULL)
 263              		.loc 1 512 27 is_stmt 0 view .LVU66
 264 0030 074A     		ldr	r2, .L17
 265 0032 5368     		ldr	r3, [r2, #4]
 266 0034 2343     		orrs	r3, r3, r4
 267 0036 5360     		str	r3, [r2, #4]
 513:Drivers/STM32WBxx_HAL_Driver/Src/stm32wbxx_hal_ipcc.c ****       {
 268              		.loc 1 513 7 is_stmt 1 view .LVU67
 513:Drivers/STM32WBxx_HAL_Driver/Src/stm32wbxx_hal_ipcc.c ****       {
 269              		.loc 1 513 35 is_stmt 0 view .LVU68
 270 0038 B31D     		adds	r3, r6, #6
 271 003a 07EB8303 		add	r3, r7, r3, lsl #2
 272 003e 5B68     		ldr	r3, [r3, #4]
 513:Drivers/STM32WBxx_HAL_Driver/Src/stm32wbxx_hal_ipcc.c ****       {
 273              		.loc 1 513 10 view .LVU69
 274 0040 002B     		cmp	r3, #0
 275 0042 E9D0     		beq	.L13
 515:Drivers/STM32WBxx_HAL_Driver/Src/stm32wbxx_hal_ipcc.c ****       }
 276              		.loc 1 515 9 is_stmt 1 view .LVU70
 277 0044 0022     		movs	r2, #0
 278 0046 3146     		mov	r1, r6
 279 0048 3846     		mov	r0, r7
 280 004a 9847     		blx	r3
 281              	.LVL21:
 282 004c E4E7     		b	.L13
 283              	.LVL22:
 284              	.L16:
 521:Drivers/STM32WBxx_HAL_Driver/Src/stm32wbxx_hal_ipcc.c **** 
 285              		.loc 1 521 1 is_stmt 0 view .LVU71
 286 004e F8BD     		pop	{r3, r4, r5, r6, r7, pc}
 287              	.LVL23:
 288              	.L18:
 521:Drivers/STM32WBxx_HAL_Driver/Src/stm32wbxx_hal_ipcc.c **** 
 289              		.loc 1 521 1 view .LVU72
 290              		.align	2
 291              	.L17:
 292 0050 000C0058 		.word	1476398080
 293              		.cfi_endproc
 294              	.LFE1112:
 296              		.section	.text.HAL_IPCC_RX_IRQHandler,"ax",%progbits
 297              		.align	1
 298              		.global	HAL_IPCC_RX_IRQHandler
 299              		.syntax unified
 300              		.thumb
 301              		.thumb_func
 302              		.fpu fpv4-sp-d16
 304              	HAL_IPCC_RX_IRQHandler:
 305              	.LVL24:
 306              	.LFB1113:
 529:Drivers/STM32WBxx_HAL_Driver/Src/stm32wbxx_hal_ipcc.c ****   uint32_t irqmask;
 307              		.loc 1 529 1 is_stmt 1 view -0
 308              		.cfi_startproc
 309              		@ args = 0, pretend = 0, frame = 0
 310              		@ frame_needed = 0, uses_anonymous_args = 0
 529:Drivers/STM32WBxx_HAL_Driver/Src/stm32wbxx_hal_ipcc.c ****   uint32_t irqmask;
 311              		.loc 1 529 1 is_stmt 0 view .LVU74
ARM GAS  /var/folders/lt/l_qrc8c54t93n_phsj7cf5tc0000gn/T//ccQqlOSj.s 			page 18


 312 0000 F8B5     		push	{r3, r4, r5, r6, r7, lr}
 313              	.LCFI1:
 314              		.cfi_def_cfa_offset 24
 315              		.cfi_offset 3, -24
 316              		.cfi_offset 4, -20
 317              		.cfi_offset 5, -16
 318              		.cfi_offset 6, -12
 319              		.cfi_offset 7, -8
 320              		.cfi_offset 14, -4
 321 0002 0746     		mov	r7, r0
 530:Drivers/STM32WBxx_HAL_Driver/Src/stm32wbxx_hal_ipcc.c ****   uint32_t bit_pos;
 322              		.loc 1 530 3 is_stmt 1 view .LVU75
 531:Drivers/STM32WBxx_HAL_Driver/Src/stm32wbxx_hal_ipcc.c ****   uint32_t ch_count = 0U;
 323              		.loc 1 531 3 view .LVU76
 532:Drivers/STM32WBxx_HAL_Driver/Src/stm32wbxx_hal_ipcc.c ****   IPCC_CommonTypeDef *currentInstance = IPCC_C1;
 324              		.loc 1 532 3 view .LVU77
 325              	.LVL25:
 533:Drivers/STM32WBxx_HAL_Driver/Src/stm32wbxx_hal_ipcc.c ****   IPCC_CommonTypeDef *otherInstance = IPCC_C2;
 326              		.loc 1 533 3 view .LVU78
 534:Drivers/STM32WBxx_HAL_Driver/Src/stm32wbxx_hal_ipcc.c **** 
 327              		.loc 1 534 3 view .LVU79
 537:Drivers/STM32WBxx_HAL_Driver/Src/stm32wbxx_hal_ipcc.c ****   irqmask = irqmask & otherInstance->SR;
 328              		.loc 1 537 3 view .LVU80
 537:Drivers/STM32WBxx_HAL_Driver/Src/stm32wbxx_hal_ipcc.c ****   irqmask = irqmask & otherInstance->SR;
 329              		.loc 1 537 30 is_stmt 0 view .LVU81
 330 0004 114B     		ldr	r3, .L26
 331 0006 5E68     		ldr	r6, [r3, #4]
 537:Drivers/STM32WBxx_HAL_Driver/Src/stm32wbxx_hal_ipcc.c ****   irqmask = irqmask & otherInstance->SR;
 332              		.loc 1 537 13 view .LVU82
 333 0008 F643     		mvns	r6, r6
 537:Drivers/STM32WBxx_HAL_Driver/Src/stm32wbxx_hal_ipcc.c ****   irqmask = irqmask & otherInstance->SR;
 334              		.loc 1 537 11 view .LVU83
 335 000a 06F03F03 		and	r3, r6, #63
 336              	.LVL26:
 538:Drivers/STM32WBxx_HAL_Driver/Src/stm32wbxx_hal_ipcc.c **** 
 337              		.loc 1 538 3 is_stmt 1 view .LVU84
 538:Drivers/STM32WBxx_HAL_Driver/Src/stm32wbxx_hal_ipcc.c **** 
 338              		.loc 1 538 36 is_stmt 0 view .LVU85
 339 000e 104A     		ldr	r2, .L26+4
 340 0010 D668     		ldr	r6, [r2, #12]
 538:Drivers/STM32WBxx_HAL_Driver/Src/stm32wbxx_hal_ipcc.c **** 
 341              		.loc 1 538 11 view .LVU86
 342 0012 1E40     		ands	r6, r6, r3
 343              	.LVL27:
 540:Drivers/STM32WBxx_HAL_Driver/Src/stm32wbxx_hal_ipcc.c ****   {
 344              		.loc 1 540 3 is_stmt 1 view .LVU87
 532:Drivers/STM32WBxx_HAL_Driver/Src/stm32wbxx_hal_ipcc.c ****   IPCC_CommonTypeDef *currentInstance = IPCC_C1;
 345              		.loc 1 532 12 is_stmt 0 view .LVU88
 346 0014 0025     		movs	r5, #0
 540:Drivers/STM32WBxx_HAL_Driver/Src/stm32wbxx_hal_ipcc.c ****   {
 347              		.loc 1 540 9 view .LVU89
 348 0016 02E0     		b	.L20
 349              	.LVL28:
 350              	.L22:
 552:Drivers/STM32WBxx_HAL_Driver/Src/stm32wbxx_hal_ipcc.c ****     }
 351              		.loc 1 552 7 is_stmt 1 view .LVU90
 552:Drivers/STM32WBxx_HAL_Driver/Src/stm32wbxx_hal_ipcc.c ****     }
ARM GAS  /var/folders/lt/l_qrc8c54t93n_phsj7cf5tc0000gn/T//ccQqlOSj.s 			page 19


 352              		.loc 1 552 15 is_stmt 0 view .LVU91
 353 0018 26EA0406 		bic	r6, r6, r4
 354              	.LVL29:
 355              	.L21:
 554:Drivers/STM32WBxx_HAL_Driver/Src/stm32wbxx_hal_ipcc.c ****   }
 356              		.loc 1 554 5 is_stmt 1 view .LVU92
 554:Drivers/STM32WBxx_HAL_Driver/Src/stm32wbxx_hal_ipcc.c ****   }
 357              		.loc 1 554 13 is_stmt 0 view .LVU93
 358 001c 0135     		adds	r5, r5, #1
 359              	.LVL30:
 360              	.L20:
 540:Drivers/STM32WBxx_HAL_Driver/Src/stm32wbxx_hal_ipcc.c ****   {
 361              		.loc 1 540 9 is_stmt 1 view .LVU94
 362 001e 9EB1     		cbz	r6, .L25
 542:Drivers/STM32WBxx_HAL_Driver/Src/stm32wbxx_hal_ipcc.c **** 
 363              		.loc 1 542 5 view .LVU95
 542:Drivers/STM32WBxx_HAL_Driver/Src/stm32wbxx_hal_ipcc.c **** 
 364              		.loc 1 542 32 is_stmt 0 view .LVU96
 365 0020 05F00F03 		and	r3, r5, #15
 542:Drivers/STM32WBxx_HAL_Driver/Src/stm32wbxx_hal_ipcc.c **** 
 366              		.loc 1 542 13 view .LVU97
 367 0024 0124     		movs	r4, #1
 368 0026 9C40     		lsls	r4, r4, r3
 369              	.LVL31:
 544:Drivers/STM32WBxx_HAL_Driver/Src/stm32wbxx_hal_ipcc.c ****     {
 370              		.loc 1 544 5 is_stmt 1 view .LVU98
 544:Drivers/STM32WBxx_HAL_Driver/Src/stm32wbxx_hal_ipcc.c ****     {
 371              		.loc 1 544 8 is_stmt 0 view .LVU99
 372 0028 2642     		tst	r6, r4
 373 002a F7D0     		beq	.L21
 547:Drivers/STM32WBxx_HAL_Driver/Src/stm32wbxx_hal_ipcc.c ****       if (hipcc->ChannelCallbackRx[ch_count] != NULL)
 374              		.loc 1 547 7 is_stmt 1 view .LVU100
 547:Drivers/STM32WBxx_HAL_Driver/Src/stm32wbxx_hal_ipcc.c ****       if (hipcc->ChannelCallbackRx[ch_count] != NULL)
 375              		.loc 1 547 27 is_stmt 0 view .LVU101
 376 002c 074A     		ldr	r2, .L26
 377 002e 5368     		ldr	r3, [r2, #4]
 378 0030 2343     		orrs	r3, r3, r4
 379 0032 5360     		str	r3, [r2, #4]
 548:Drivers/STM32WBxx_HAL_Driver/Src/stm32wbxx_hal_ipcc.c ****       {
 380              		.loc 1 548 7 is_stmt 1 view .LVU102
 548:Drivers/STM32WBxx_HAL_Driver/Src/stm32wbxx_hal_ipcc.c ****       {
 381              		.loc 1 548 35 is_stmt 0 view .LVU103
 382 0034 07EB8503 		add	r3, r7, r5, lsl #2
 383 0038 5B68     		ldr	r3, [r3, #4]
 548:Drivers/STM32WBxx_HAL_Driver/Src/stm32wbxx_hal_ipcc.c ****       {
 384              		.loc 1 548 10 view .LVU104
 385 003a 002B     		cmp	r3, #0
 386 003c ECD0     		beq	.L22
 550:Drivers/STM32WBxx_HAL_Driver/Src/stm32wbxx_hal_ipcc.c ****       }
 387              		.loc 1 550 9 is_stmt 1 view .LVU105
 388 003e 0122     		movs	r2, #1
 389 0040 2946     		mov	r1, r5
 390 0042 3846     		mov	r0, r7
 391 0044 9847     		blx	r3
 392              	.LVL32:
 393 0046 E7E7     		b	.L22
 394              	.LVL33:
ARM GAS  /var/folders/lt/l_qrc8c54t93n_phsj7cf5tc0000gn/T//ccQqlOSj.s 			page 20


 395              	.L25:
 556:Drivers/STM32WBxx_HAL_Driver/Src/stm32wbxx_hal_ipcc.c **** 
 396              		.loc 1 556 1 is_stmt 0 view .LVU106
 397 0048 F8BD     		pop	{r3, r4, r5, r6, r7, pc}
 398              	.LVL34:
 399              	.L27:
 556:Drivers/STM32WBxx_HAL_Driver/Src/stm32wbxx_hal_ipcc.c **** 
 400              		.loc 1 556 1 view .LVU107
 401 004a 00BF     		.align	2
 402              	.L26:
 403 004c 000C0058 		.word	1476398080
 404 0050 100C0058 		.word	1476398096
 405              		.cfi_endproc
 406              	.LFE1113:
 408              		.section	.text.HAL_IPCC_GetState,"ax",%progbits
 409              		.align	1
 410              		.global	HAL_IPCC_GetState
 411              		.syntax unified
 412              		.thumb
 413              		.thumb_func
 414              		.fpu fpv4-sp-d16
 416              	HAL_IPCC_GetState:
 417              	.LVL35:
 418              	.LFB1116:
 607:Drivers/STM32WBxx_HAL_Driver/Src/stm32wbxx_hal_ipcc.c **** 
 608:Drivers/STM32WBxx_HAL_Driver/Src/stm32wbxx_hal_ipcc.c **** /**
 609:Drivers/STM32WBxx_HAL_Driver/Src/stm32wbxx_hal_ipcc.c ****   * @}
 610:Drivers/STM32WBxx_HAL_Driver/Src/stm32wbxx_hal_ipcc.c ****   */
 611:Drivers/STM32WBxx_HAL_Driver/Src/stm32wbxx_hal_ipcc.c **** 
 612:Drivers/STM32WBxx_HAL_Driver/Src/stm32wbxx_hal_ipcc.c **** /** @addtogroup IPCC_Exported_Functions_Group3
 613:Drivers/STM32WBxx_HAL_Driver/Src/stm32wbxx_hal_ipcc.c ****  *  @brief   IPCC Peripheral State and Error functions
 614:Drivers/STM32WBxx_HAL_Driver/Src/stm32wbxx_hal_ipcc.c ****  *
 615:Drivers/STM32WBxx_HAL_Driver/Src/stm32wbxx_hal_ipcc.c **** @verbatim
 616:Drivers/STM32WBxx_HAL_Driver/Src/stm32wbxx_hal_ipcc.c ****   ==============================================================================
 617:Drivers/STM32WBxx_HAL_Driver/Src/stm32wbxx_hal_ipcc.c ****             ##### Peripheral State and Error functions #####
 618:Drivers/STM32WBxx_HAL_Driver/Src/stm32wbxx_hal_ipcc.c ****   ==============================================================================
 619:Drivers/STM32WBxx_HAL_Driver/Src/stm32wbxx_hal_ipcc.c ****     [..]
 620:Drivers/STM32WBxx_HAL_Driver/Src/stm32wbxx_hal_ipcc.c ****     This subsection permit to get in run-time the status of the peripheral
 621:Drivers/STM32WBxx_HAL_Driver/Src/stm32wbxx_hal_ipcc.c ****     and the data flow.
 622:Drivers/STM32WBxx_HAL_Driver/Src/stm32wbxx_hal_ipcc.c **** 
 623:Drivers/STM32WBxx_HAL_Driver/Src/stm32wbxx_hal_ipcc.c **** @endverbatim
 624:Drivers/STM32WBxx_HAL_Driver/Src/stm32wbxx_hal_ipcc.c ****   * @{
 625:Drivers/STM32WBxx_HAL_Driver/Src/stm32wbxx_hal_ipcc.c ****   */
 626:Drivers/STM32WBxx_HAL_Driver/Src/stm32wbxx_hal_ipcc.c **** 
 627:Drivers/STM32WBxx_HAL_Driver/Src/stm32wbxx_hal_ipcc.c **** /**
 628:Drivers/STM32WBxx_HAL_Driver/Src/stm32wbxx_hal_ipcc.c ****   * @brief Return the IPCC handle state.
 629:Drivers/STM32WBxx_HAL_Driver/Src/stm32wbxx_hal_ipcc.c ****   * @param  hipcc IPCC handle
 630:Drivers/STM32WBxx_HAL_Driver/Src/stm32wbxx_hal_ipcc.c ****   * @retval IPCC handle state
 631:Drivers/STM32WBxx_HAL_Driver/Src/stm32wbxx_hal_ipcc.c ****   */
 632:Drivers/STM32WBxx_HAL_Driver/Src/stm32wbxx_hal_ipcc.c **** HAL_IPCC_StateTypeDef HAL_IPCC_GetState(IPCC_HandleTypeDef const *const hipcc)
 633:Drivers/STM32WBxx_HAL_Driver/Src/stm32wbxx_hal_ipcc.c **** {
 419              		.loc 1 633 1 is_stmt 1 view -0
 420              		.cfi_startproc
 421              		@ args = 0, pretend = 0, frame = 0
 422              		@ frame_needed = 0, uses_anonymous_args = 0
 423              		@ link register save eliminated.
 634:Drivers/STM32WBxx_HAL_Driver/Src/stm32wbxx_hal_ipcc.c ****   return hipcc->State;
ARM GAS  /var/folders/lt/l_qrc8c54t93n_phsj7cf5tc0000gn/T//ccQqlOSj.s 			page 21


 424              		.loc 1 634 3 view .LVU109
 425              		.loc 1 634 15 is_stmt 0 view .LVU110
 426 0000 90F83800 		ldrb	r0, [r0, #56]	@ zero_extendqisi2
 427              	.LVL36:
 635:Drivers/STM32WBxx_HAL_Driver/Src/stm32wbxx_hal_ipcc.c **** }
 428              		.loc 1 635 1 view .LVU111
 429 0004 7047     		bx	lr
 430              		.cfi_endproc
 431              	.LFE1116:
 433              		.section	.text.IPCC_MaskInterrupt,"ax",%progbits
 434              		.align	1
 435              		.global	IPCC_MaskInterrupt
 436              		.syntax unified
 437              		.thumb
 438              		.thumb_func
 439              		.fpu fpv4-sp-d16
 441              	IPCC_MaskInterrupt:
 442              	.LVL37:
 443              	.LFB1117:
 636:Drivers/STM32WBxx_HAL_Driver/Src/stm32wbxx_hal_ipcc.c **** 
 637:Drivers/STM32WBxx_HAL_Driver/Src/stm32wbxx_hal_ipcc.c **** /**
 638:Drivers/STM32WBxx_HAL_Driver/Src/stm32wbxx_hal_ipcc.c ****   * @}
 639:Drivers/STM32WBxx_HAL_Driver/Src/stm32wbxx_hal_ipcc.c ****   */
 640:Drivers/STM32WBxx_HAL_Driver/Src/stm32wbxx_hal_ipcc.c **** 
 641:Drivers/STM32WBxx_HAL_Driver/Src/stm32wbxx_hal_ipcc.c **** /**
 642:Drivers/STM32WBxx_HAL_Driver/Src/stm32wbxx_hal_ipcc.c ****   * @}
 643:Drivers/STM32WBxx_HAL_Driver/Src/stm32wbxx_hal_ipcc.c ****   */
 644:Drivers/STM32WBxx_HAL_Driver/Src/stm32wbxx_hal_ipcc.c **** 
 645:Drivers/STM32WBxx_HAL_Driver/Src/stm32wbxx_hal_ipcc.c **** /** @addtogroup IPCC_Private_Functions
 646:Drivers/STM32WBxx_HAL_Driver/Src/stm32wbxx_hal_ipcc.c ****   * @{
 647:Drivers/STM32WBxx_HAL_Driver/Src/stm32wbxx_hal_ipcc.c ****   */
 648:Drivers/STM32WBxx_HAL_Driver/Src/stm32wbxx_hal_ipcc.c **** 
 649:Drivers/STM32WBxx_HAL_Driver/Src/stm32wbxx_hal_ipcc.c **** /**
 650:Drivers/STM32WBxx_HAL_Driver/Src/stm32wbxx_hal_ipcc.c ****   * @brief  Mask IPCC interrupts.
 651:Drivers/STM32WBxx_HAL_Driver/Src/stm32wbxx_hal_ipcc.c ****   * @param  ChannelIndex Channel number
 652:Drivers/STM32WBxx_HAL_Driver/Src/stm32wbxx_hal_ipcc.c ****   *          This parameter can be one of the following values:
 653:Drivers/STM32WBxx_HAL_Driver/Src/stm32wbxx_hal_ipcc.c ****   *            @arg IPCC_CHANNEL_1: IPCC Channel 1
 654:Drivers/STM32WBxx_HAL_Driver/Src/stm32wbxx_hal_ipcc.c ****   *            @arg IPCC_CHANNEL_2: IPCC Channel 2
 655:Drivers/STM32WBxx_HAL_Driver/Src/stm32wbxx_hal_ipcc.c ****   *            @arg IPCC_CHANNEL_3: IPCC Channel 3
 656:Drivers/STM32WBxx_HAL_Driver/Src/stm32wbxx_hal_ipcc.c ****   *            @arg IPCC_CHANNEL_4: IPCC Channel 4
 657:Drivers/STM32WBxx_HAL_Driver/Src/stm32wbxx_hal_ipcc.c ****   *            @arg IPCC_CHANNEL_5: IPCC Channel 5
 658:Drivers/STM32WBxx_HAL_Driver/Src/stm32wbxx_hal_ipcc.c ****   *            @arg IPCC_CHANNEL_6: IPCC Channel 6
 659:Drivers/STM32WBxx_HAL_Driver/Src/stm32wbxx_hal_ipcc.c ****   * @param  ChannelDir Channel direction
 660:Drivers/STM32WBxx_HAL_Driver/Src/stm32wbxx_hal_ipcc.c ****   */
 661:Drivers/STM32WBxx_HAL_Driver/Src/stm32wbxx_hal_ipcc.c **** void IPCC_MaskInterrupt(uint32_t ChannelIndex, IPCC_CHANNELDirTypeDef ChannelDir)
 662:Drivers/STM32WBxx_HAL_Driver/Src/stm32wbxx_hal_ipcc.c **** {
 444              		.loc 1 662 1 is_stmt 1 view -0
 445              		.cfi_startproc
 446              		@ args = 0, pretend = 0, frame = 0
 447              		@ frame_needed = 0, uses_anonymous_args = 0
 448              		@ link register save eliminated.
 663:Drivers/STM32WBxx_HAL_Driver/Src/stm32wbxx_hal_ipcc.c ****   IPCC_CommonTypeDef *currentInstance = IPCC_C1;
 449              		.loc 1 663 3 view .LVU113
 664:Drivers/STM32WBxx_HAL_Driver/Src/stm32wbxx_hal_ipcc.c ****   if (ChannelDir == IPCC_CHANNEL_DIR_TX)
 450              		.loc 1 664 3 view .LVU114
 451              		.loc 1 664 6 is_stmt 0 view .LVU115
 452 0000 51B9     		cbnz	r1, .L30
ARM GAS  /var/folders/lt/l_qrc8c54t93n_phsj7cf5tc0000gn/T//ccQqlOSj.s 			page 22


 665:Drivers/STM32WBxx_HAL_Driver/Src/stm32wbxx_hal_ipcc.c ****   {
 666:Drivers/STM32WBxx_HAL_Driver/Src/stm32wbxx_hal_ipcc.c ****     /* Mask interrupt */
 667:Drivers/STM32WBxx_HAL_Driver/Src/stm32wbxx_hal_ipcc.c ****     currentInstance->MR |= (IPCC_MR_CH1FM_Msk << (ChannelIndex & CHANNEL_INDEX_Msk));
 453              		.loc 1 667 5 is_stmt 1 view .LVU116
 454              		.loc 1 667 25 is_stmt 0 view .LVU117
 455 0002 0A49     		ldr	r1, .L32
 456              	.LVL38:
 457              		.loc 1 667 25 view .LVU118
 458 0004 4B68     		ldr	r3, [r1, #4]
 459              		.loc 1 667 64 view .LVU119
 460 0006 00F00F00 		and	r0, r0, #15
 461              	.LVL39:
 462              		.loc 1 667 47 view .LVU120
 463 000a 4FF48032 		mov	r2, #65536
 464 000e 02FA00F0 		lsl	r0, r2, r0
 465              		.loc 1 667 25 view .LVU121
 466 0012 1843     		orrs	r0, r0, r3
 467 0014 4860     		str	r0, [r1, #4]
 468 0016 7047     		bx	lr
 469              	.LVL40:
 470              	.L30:
 668:Drivers/STM32WBxx_HAL_Driver/Src/stm32wbxx_hal_ipcc.c ****   }
 669:Drivers/STM32WBxx_HAL_Driver/Src/stm32wbxx_hal_ipcc.c ****   else
 670:Drivers/STM32WBxx_HAL_Driver/Src/stm32wbxx_hal_ipcc.c ****   {
 671:Drivers/STM32WBxx_HAL_Driver/Src/stm32wbxx_hal_ipcc.c ****     /* Mask interrupt */
 672:Drivers/STM32WBxx_HAL_Driver/Src/stm32wbxx_hal_ipcc.c ****     currentInstance->MR |= (IPCC_MR_CH1OM_Msk << (ChannelIndex & CHANNEL_INDEX_Msk));
 471              		.loc 1 672 5 is_stmt 1 view .LVU122
 472              		.loc 1 672 25 is_stmt 0 view .LVU123
 473 0018 0449     		ldr	r1, .L32
 474              	.LVL41:
 475              		.loc 1 672 25 view .LVU124
 476 001a 4B68     		ldr	r3, [r1, #4]
 477              		.loc 1 672 64 view .LVU125
 478 001c 00F00F00 		and	r0, r0, #15
 479              	.LVL42:
 480              		.loc 1 672 47 view .LVU126
 481 0020 0122     		movs	r2, #1
 482 0022 02FA00F0 		lsl	r0, r2, r0
 483              		.loc 1 672 25 view .LVU127
 484 0026 1843     		orrs	r0, r0, r3
 485 0028 4860     		str	r0, [r1, #4]
 673:Drivers/STM32WBxx_HAL_Driver/Src/stm32wbxx_hal_ipcc.c ****   }
 674:Drivers/STM32WBxx_HAL_Driver/Src/stm32wbxx_hal_ipcc.c **** }
 486              		.loc 1 674 1 view .LVU128
 487 002a 7047     		bx	lr
 488              	.L33:
 489              		.align	2
 490              	.L32:
 491 002c 000C0058 		.word	1476398080
 492              		.cfi_endproc
 493              	.LFE1117:
 495              		.section	.text.HAL_IPCC_DeActivateNotification,"ax",%progbits
 496              		.align	1
 497              		.global	HAL_IPCC_DeActivateNotification
 498              		.syntax unified
 499              		.thumb
 500              		.thumb_func
ARM GAS  /var/folders/lt/l_qrc8c54t93n_phsj7cf5tc0000gn/T//ccQqlOSj.s 			page 23


 501              		.fpu fpv4-sp-d16
 503              	HAL_IPCC_DeActivateNotification:
 504              	.LVL43:
 505              	.LFB1109:
 362:Drivers/STM32WBxx_HAL_Driver/Src/stm32wbxx_hal_ipcc.c ****   HAL_StatusTypeDef err = HAL_OK;
 506              		.loc 1 362 1 is_stmt 1 view -0
 507              		.cfi_startproc
 508              		@ args = 0, pretend = 0, frame = 0
 509              		@ frame_needed = 0, uses_anonymous_args = 0
 363:Drivers/STM32WBxx_HAL_Driver/Src/stm32wbxx_hal_ipcc.c **** 
 510              		.loc 1 363 3 view .LVU130
 366:Drivers/STM32WBxx_HAL_Driver/Src/stm32wbxx_hal_ipcc.c ****   {
 511              		.loc 1 366 3 view .LVU131
 366:Drivers/STM32WBxx_HAL_Driver/Src/stm32wbxx_hal_ipcc.c ****   {
 512              		.loc 1 366 6 is_stmt 0 view .LVU132
 513 0000 60B3     		cbz	r0, .L38
 362:Drivers/STM32WBxx_HAL_Driver/Src/stm32wbxx_hal_ipcc.c ****   HAL_StatusTypeDef err = HAL_OK;
 514              		.loc 1 362 1 view .LVU133
 515 0002 38B5     		push	{r3, r4, r5, lr}
 516              	.LCFI2:
 517              		.cfi_def_cfa_offset 16
 518              		.cfi_offset 3, -16
 519              		.cfi_offset 4, -12
 520              		.cfi_offset 5, -8
 521              		.cfi_offset 14, -4
 522 0004 0D46     		mov	r5, r1
 369:Drivers/STM32WBxx_HAL_Driver/Src/stm32wbxx_hal_ipcc.c **** 
 523              		.loc 1 369 5 is_stmt 1 view .LVU134
 372:Drivers/STM32WBxx_HAL_Driver/Src/stm32wbxx_hal_ipcc.c ****     {
 524              		.loc 1 372 5 view .LVU135
 372:Drivers/STM32WBxx_HAL_Driver/Src/stm32wbxx_hal_ipcc.c ****     {
 525              		.loc 1 372 14 is_stmt 0 view .LVU136
 526 0006 90F83830 		ldrb	r3, [r0, #56]	@ zero_extendqisi2
 527 000a DBB2     		uxtb	r3, r3
 372:Drivers/STM32WBxx_HAL_Driver/Src/stm32wbxx_hal_ipcc.c ****     {
 528              		.loc 1 372 8 view .LVU137
 529 000c 012B     		cmp	r3, #1
 530 000e 01D0     		beq	.L44
 391:Drivers/STM32WBxx_HAL_Driver/Src/stm32wbxx_hal_ipcc.c ****     }
 531              		.loc 1 391 11 view .LVU138
 532 0010 0120     		movs	r0, #1
 533              	.LVL44:
 534              	.L35:
 398:Drivers/STM32WBxx_HAL_Driver/Src/stm32wbxx_hal_ipcc.c **** }
 535              		.loc 1 398 3 is_stmt 1 view .LVU139
 399:Drivers/STM32WBxx_HAL_Driver/Src/stm32wbxx_hal_ipcc.c **** 
 536              		.loc 1 399 1 is_stmt 0 view .LVU140
 537 0012 38BD     		pop	{r3, r4, r5, pc}
 538              	.LVL45:
 539              	.L44:
 375:Drivers/STM32WBxx_HAL_Driver/Src/stm32wbxx_hal_ipcc.c ****       {
 540              		.loc 1 375 7 is_stmt 1 view .LVU141
 375:Drivers/STM32WBxx_HAL_Driver/Src/stm32wbxx_hal_ipcc.c ****       {
 541              		.loc 1 375 10 is_stmt 0 view .LVU142
 542 0014 A2B9     		cbnz	r2, .L36
 377:Drivers/STM32WBxx_HAL_Driver/Src/stm32wbxx_hal_ipcc.c ****         hipcc->callbackRequest &= ~(IPCC_MR_CH1FM_Msk << (ChannelIndex & CHANNEL_INDEX_Msk));
 543              		.loc 1 377 9 is_stmt 1 view .LVU143
ARM GAS  /var/folders/lt/l_qrc8c54t93n_phsj7cf5tc0000gn/T//ccQqlOSj.s 			page 24


 377:Drivers/STM32WBxx_HAL_Driver/Src/stm32wbxx_hal_ipcc.c ****         hipcc->callbackRequest &= ~(IPCC_MR_CH1FM_Msk << (ChannelIndex & CHANNEL_INDEX_Msk));
 544              		.loc 1 377 48 is_stmt 0 view .LVU144
 545 0016 8B1D     		adds	r3, r1, #6
 546 0018 00EB8303 		add	r3, r0, r3, lsl #2
 547 001c 1049     		ldr	r1, .L45
 548              	.LVL46:
 377:Drivers/STM32WBxx_HAL_Driver/Src/stm32wbxx_hal_ipcc.c ****         hipcc->callbackRequest &= ~(IPCC_MR_CH1FM_Msk << (ChannelIndex & CHANNEL_INDEX_Msk));
 549              		.loc 1 377 48 view .LVU145
 550 001e 5960     		str	r1, [r3, #4]
 378:Drivers/STM32WBxx_HAL_Driver/Src/stm32wbxx_hal_ipcc.c ****       }
 551              		.loc 1 378 9 is_stmt 1 view .LVU146
 378:Drivers/STM32WBxx_HAL_Driver/Src/stm32wbxx_hal_ipcc.c ****       }
 552              		.loc 1 378 72 is_stmt 0 view .LVU147
 553 0020 05F00F01 		and	r1, r5, #15
 378:Drivers/STM32WBxx_HAL_Driver/Src/stm32wbxx_hal_ipcc.c ****       }
 554              		.loc 1 378 55 view .LVU148
 555 0024 4FF48033 		mov	r3, #65536
 556 0028 03FA01F1 		lsl	r1, r3, r1
 378:Drivers/STM32WBxx_HAL_Driver/Src/stm32wbxx_hal_ipcc.c ****       }
 557              		.loc 1 378 32 view .LVU149
 558 002c 436B     		ldr	r3, [r0, #52]
 559 002e 23EA0103 		bic	r3, r3, r1
 560 0032 4363     		str	r3, [r0, #52]
 561              	.L37:
 387:Drivers/STM32WBxx_HAL_Driver/Src/stm32wbxx_hal_ipcc.c ****     }
 562              		.loc 1 387 7 is_stmt 1 view .LVU150
 563 0034 1146     		mov	r1, r2
 564 0036 2846     		mov	r0, r5
 565              	.LVL47:
 387:Drivers/STM32WBxx_HAL_Driver/Src/stm32wbxx_hal_ipcc.c ****     }
 566              		.loc 1 387 7 is_stmt 0 view .LVU151
 567 0038 FFF7FEFF 		bl	IPCC_MaskInterrupt
 568              	.LVL48:
 363:Drivers/STM32WBxx_HAL_Driver/Src/stm32wbxx_hal_ipcc.c **** 
 569              		.loc 1 363 21 view .LVU152
 570 003c 0020     		movs	r0, #0
 571 003e E8E7     		b	.L35
 572              	.LVL49:
 573              	.L36:
 382:Drivers/STM32WBxx_HAL_Driver/Src/stm32wbxx_hal_ipcc.c ****         hipcc->callbackRequest &= ~(IPCC_MR_CH1OM_Msk << (ChannelIndex & CHANNEL_INDEX_Msk));
 574              		.loc 1 382 9 is_stmt 1 view .LVU153
 382:Drivers/STM32WBxx_HAL_Driver/Src/stm32wbxx_hal_ipcc.c ****         hipcc->callbackRequest &= ~(IPCC_MR_CH1OM_Msk << (ChannelIndex & CHANNEL_INDEX_Msk));
 575              		.loc 1 382 48 is_stmt 0 view .LVU154
 576 0040 00EB8103 		add	r3, r0, r1, lsl #2
 577 0044 0749     		ldr	r1, .L45+4
 578              	.LVL50:
 382:Drivers/STM32WBxx_HAL_Driver/Src/stm32wbxx_hal_ipcc.c ****         hipcc->callbackRequest &= ~(IPCC_MR_CH1OM_Msk << (ChannelIndex & CHANNEL_INDEX_Msk));
 579              		.loc 1 382 48 view .LVU155
 580 0046 5960     		str	r1, [r3, #4]
 383:Drivers/STM32WBxx_HAL_Driver/Src/stm32wbxx_hal_ipcc.c ****       }
 581              		.loc 1 383 9 is_stmt 1 view .LVU156
 383:Drivers/STM32WBxx_HAL_Driver/Src/stm32wbxx_hal_ipcc.c ****       }
 582              		.loc 1 383 72 is_stmt 0 view .LVU157
 583 0048 05F00F01 		and	r1, r5, #15
 383:Drivers/STM32WBxx_HAL_Driver/Src/stm32wbxx_hal_ipcc.c ****       }
 584              		.loc 1 383 55 view .LVU158
 585 004c 0123     		movs	r3, #1
ARM GAS  /var/folders/lt/l_qrc8c54t93n_phsj7cf5tc0000gn/T//ccQqlOSj.s 			page 25


 586 004e 03FA01F1 		lsl	r1, r3, r1
 383:Drivers/STM32WBxx_HAL_Driver/Src/stm32wbxx_hal_ipcc.c ****       }
 587              		.loc 1 383 32 view .LVU159
 588 0052 436B     		ldr	r3, [r0, #52]
 589 0054 23EA0103 		bic	r3, r3, r1
 590 0058 4363     		str	r3, [r0, #52]
 591 005a EBE7     		b	.L37
 592              	.LVL51:
 593              	.L38:
 594              	.LCFI3:
 595              		.cfi_def_cfa_offset 0
 596              		.cfi_restore 3
 597              		.cfi_restore 4
 598              		.cfi_restore 5
 599              		.cfi_restore 14
 396:Drivers/STM32WBxx_HAL_Driver/Src/stm32wbxx_hal_ipcc.c ****   }
 600              		.loc 1 396 9 view .LVU160
 601 005c 0120     		movs	r0, #1
 602              	.LVL52:
 398:Drivers/STM32WBxx_HAL_Driver/Src/stm32wbxx_hal_ipcc.c **** }
 603              		.loc 1 398 3 is_stmt 1 view .LVU161
 399:Drivers/STM32WBxx_HAL_Driver/Src/stm32wbxx_hal_ipcc.c **** 
 604              		.loc 1 399 1 is_stmt 0 view .LVU162
 605 005e 7047     		bx	lr
 606              	.L46:
 607              		.align	2
 608              	.L45:
 609 0060 00000000 		.word	HAL_IPCC_TxCallback
 610 0064 00000000 		.word	HAL_IPCC_RxCallback
 611              		.cfi_endproc
 612              	.LFE1109:
 614              		.section	.text.IPCC_UnmaskInterrupt,"ax",%progbits
 615              		.align	1
 616              		.global	IPCC_UnmaskInterrupt
 617              		.syntax unified
 618              		.thumb
 619              		.thumb_func
 620              		.fpu fpv4-sp-d16
 622              	IPCC_UnmaskInterrupt:
 623              	.LVL53:
 624              	.LFB1118:
 675:Drivers/STM32WBxx_HAL_Driver/Src/stm32wbxx_hal_ipcc.c **** /**
 676:Drivers/STM32WBxx_HAL_Driver/Src/stm32wbxx_hal_ipcc.c ****   * @brief  Unmask IPCC interrupts.
 677:Drivers/STM32WBxx_HAL_Driver/Src/stm32wbxx_hal_ipcc.c ****   * @param  ChannelIndex Channel number
 678:Drivers/STM32WBxx_HAL_Driver/Src/stm32wbxx_hal_ipcc.c ****   *          This parameter can be one of the following values:
 679:Drivers/STM32WBxx_HAL_Driver/Src/stm32wbxx_hal_ipcc.c ****   *            @arg IPCC_CHANNEL_1: IPCC Channel 1
 680:Drivers/STM32WBxx_HAL_Driver/Src/stm32wbxx_hal_ipcc.c ****   *            @arg IPCC_CHANNEL_2: IPCC Channel 2
 681:Drivers/STM32WBxx_HAL_Driver/Src/stm32wbxx_hal_ipcc.c ****   *            @arg IPCC_CHANNEL_3: IPCC Channel 3
 682:Drivers/STM32WBxx_HAL_Driver/Src/stm32wbxx_hal_ipcc.c ****   *            @arg IPCC_CHANNEL_4: IPCC Channel 4
 683:Drivers/STM32WBxx_HAL_Driver/Src/stm32wbxx_hal_ipcc.c ****   *            @arg IPCC_CHANNEL_5: IPCC Channel 5
 684:Drivers/STM32WBxx_HAL_Driver/Src/stm32wbxx_hal_ipcc.c ****   *            @arg IPCC_CHANNEL_6: IPCC Channel 6
 685:Drivers/STM32WBxx_HAL_Driver/Src/stm32wbxx_hal_ipcc.c ****   * @param  ChannelDir Channel direction
 686:Drivers/STM32WBxx_HAL_Driver/Src/stm32wbxx_hal_ipcc.c ****   */
 687:Drivers/STM32WBxx_HAL_Driver/Src/stm32wbxx_hal_ipcc.c **** void IPCC_UnmaskInterrupt(uint32_t ChannelIndex, IPCC_CHANNELDirTypeDef ChannelDir)
 688:Drivers/STM32WBxx_HAL_Driver/Src/stm32wbxx_hal_ipcc.c **** {
 625              		.loc 1 688 1 is_stmt 1 view -0
 626              		.cfi_startproc
ARM GAS  /var/folders/lt/l_qrc8c54t93n_phsj7cf5tc0000gn/T//ccQqlOSj.s 			page 26


 627              		@ args = 0, pretend = 0, frame = 0
 628              		@ frame_needed = 0, uses_anonymous_args = 0
 629              		@ link register save eliminated.
 689:Drivers/STM32WBxx_HAL_Driver/Src/stm32wbxx_hal_ipcc.c ****   IPCC_CommonTypeDef *currentInstance = IPCC_C1;
 630              		.loc 1 689 3 view .LVU164
 690:Drivers/STM32WBxx_HAL_Driver/Src/stm32wbxx_hal_ipcc.c ****   if (ChannelDir == IPCC_CHANNEL_DIR_TX)
 631              		.loc 1 690 3 view .LVU165
 632              		.loc 1 690 6 is_stmt 0 view .LVU166
 633 0000 59B9     		cbnz	r1, .L48
 691:Drivers/STM32WBxx_HAL_Driver/Src/stm32wbxx_hal_ipcc.c ****   {
 692:Drivers/STM32WBxx_HAL_Driver/Src/stm32wbxx_hal_ipcc.c ****     /* Unmask interrupt */
 693:Drivers/STM32WBxx_HAL_Driver/Src/stm32wbxx_hal_ipcc.c ****     currentInstance->MR &= ~(IPCC_MR_CH1FM_Msk << (ChannelIndex & CHANNEL_INDEX_Msk));
 634              		.loc 1 693 5 is_stmt 1 view .LVU167
 635              		.loc 1 693 25 is_stmt 0 view .LVU168
 636 0002 0B49     		ldr	r1, .L50
 637              	.LVL54:
 638              		.loc 1 693 25 view .LVU169
 639 0004 4B68     		ldr	r3, [r1, #4]
 640              		.loc 1 693 65 view .LVU170
 641 0006 00F00F00 		and	r0, r0, #15
 642              	.LVL55:
 643              		.loc 1 693 48 view .LVU171
 644 000a 4FF48032 		mov	r2, #65536
 645 000e 02FA00F0 		lsl	r0, r2, r0
 646              		.loc 1 693 25 view .LVU172
 647 0012 23EA0000 		bic	r0, r3, r0
 648 0016 4860     		str	r0, [r1, #4]
 649 0018 7047     		bx	lr
 650              	.LVL56:
 651              	.L48:
 694:Drivers/STM32WBxx_HAL_Driver/Src/stm32wbxx_hal_ipcc.c ****   }
 695:Drivers/STM32WBxx_HAL_Driver/Src/stm32wbxx_hal_ipcc.c ****   else
 696:Drivers/STM32WBxx_HAL_Driver/Src/stm32wbxx_hal_ipcc.c ****   {
 697:Drivers/STM32WBxx_HAL_Driver/Src/stm32wbxx_hal_ipcc.c ****     /* Unmask interrupt */
 698:Drivers/STM32WBxx_HAL_Driver/Src/stm32wbxx_hal_ipcc.c ****     currentInstance->MR &= ~(IPCC_MR_CH1OM_Msk << (ChannelIndex & CHANNEL_INDEX_Msk));
 652              		.loc 1 698 5 is_stmt 1 view .LVU173
 653              		.loc 1 698 25 is_stmt 0 view .LVU174
 654 001a 0549     		ldr	r1, .L50
 655              	.LVL57:
 656              		.loc 1 698 25 view .LVU175
 657 001c 4B68     		ldr	r3, [r1, #4]
 658              		.loc 1 698 65 view .LVU176
 659 001e 00F00F00 		and	r0, r0, #15
 660              	.LVL58:
 661              		.loc 1 698 48 view .LVU177
 662 0022 0122     		movs	r2, #1
 663 0024 02FA00F0 		lsl	r0, r2, r0
 664              		.loc 1 698 25 view .LVU178
 665 0028 23EA0000 		bic	r0, r3, r0
 666 002c 4860     		str	r0, [r1, #4]
 699:Drivers/STM32WBxx_HAL_Driver/Src/stm32wbxx_hal_ipcc.c ****   }
 700:Drivers/STM32WBxx_HAL_Driver/Src/stm32wbxx_hal_ipcc.c **** }
 667              		.loc 1 700 1 view .LVU179
 668 002e 7047     		bx	lr
 669              	.L51:
 670              		.align	2
 671              	.L50:
ARM GAS  /var/folders/lt/l_qrc8c54t93n_phsj7cf5tc0000gn/T//ccQqlOSj.s 			page 27


 672 0030 000C0058 		.word	1476398080
 673              		.cfi_endproc
 674              	.LFE1118:
 676              		.section	.text.HAL_IPCC_ActivateNotification,"ax",%progbits
 677              		.align	1
 678              		.global	HAL_IPCC_ActivateNotification
 679              		.syntax unified
 680              		.thumb
 681              		.thumb_func
 682              		.fpu fpv4-sp-d16
 684              	HAL_IPCC_ActivateNotification:
 685              	.LVL59:
 686              	.LFB1108:
 305:Drivers/STM32WBxx_HAL_Driver/Src/stm32wbxx_hal_ipcc.c ****   HAL_StatusTypeDef err = HAL_OK;
 687              		.loc 1 305 1 is_stmt 1 view -0
 688              		.cfi_startproc
 689              		@ args = 0, pretend = 0, frame = 0
 690              		@ frame_needed = 0, uses_anonymous_args = 0
 306:Drivers/STM32WBxx_HAL_Driver/Src/stm32wbxx_hal_ipcc.c **** 
 691              		.loc 1 306 3 view .LVU181
 309:Drivers/STM32WBxx_HAL_Driver/Src/stm32wbxx_hal_ipcc.c ****   {
 692              		.loc 1 309 3 view .LVU182
 309:Drivers/STM32WBxx_HAL_Driver/Src/stm32wbxx_hal_ipcc.c ****   {
 693              		.loc 1 309 6 is_stmt 0 view .LVU183
 694 0000 60B3     		cbz	r0, .L56
 305:Drivers/STM32WBxx_HAL_Driver/Src/stm32wbxx_hal_ipcc.c ****   HAL_StatusTypeDef err = HAL_OK;
 695              		.loc 1 305 1 view .LVU184
 696 0002 70B5     		push	{r4, r5, r6, lr}
 697              	.LCFI4:
 698              		.cfi_def_cfa_offset 16
 699              		.cfi_offset 4, -16
 700              		.cfi_offset 5, -12
 701              		.cfi_offset 6, -8
 702              		.cfi_offset 14, -4
 703 0004 0E46     		mov	r6, r1
 312:Drivers/STM32WBxx_HAL_Driver/Src/stm32wbxx_hal_ipcc.c **** 
 704              		.loc 1 312 5 is_stmt 1 view .LVU185
 315:Drivers/STM32WBxx_HAL_Driver/Src/stm32wbxx_hal_ipcc.c ****     {
 705              		.loc 1 315 5 view .LVU186
 315:Drivers/STM32WBxx_HAL_Driver/Src/stm32wbxx_hal_ipcc.c ****     {
 706              		.loc 1 315 14 is_stmt 0 view .LVU187
 707 0006 90F83840 		ldrb	r4, [r0, #56]	@ zero_extendqisi2
 708 000a E4B2     		uxtb	r4, r4
 315:Drivers/STM32WBxx_HAL_Driver/Src/stm32wbxx_hal_ipcc.c ****     {
 709              		.loc 1 315 8 view .LVU188
 710 000c 012C     		cmp	r4, #1
 711 000e 01D0     		beq	.L63
 337:Drivers/STM32WBxx_HAL_Driver/Src/stm32wbxx_hal_ipcc.c ****     }
 712              		.loc 1 337 11 view .LVU189
 713 0010 0120     		movs	r0, #1
 714              	.LVL60:
 715              	.L53:
 344:Drivers/STM32WBxx_HAL_Driver/Src/stm32wbxx_hal_ipcc.c **** }
 716              		.loc 1 344 3 is_stmt 1 view .LVU190
 345:Drivers/STM32WBxx_HAL_Driver/Src/stm32wbxx_hal_ipcc.c **** 
 717              		.loc 1 345 1 is_stmt 0 view .LVU191
 718 0012 70BD     		pop	{r4, r5, r6, pc}
ARM GAS  /var/folders/lt/l_qrc8c54t93n_phsj7cf5tc0000gn/T//ccQqlOSj.s 			page 28


 719              	.LVL61:
 720              	.L63:
 318:Drivers/STM32WBxx_HAL_Driver/Src/stm32wbxx_hal_ipcc.c ****       {
 721              		.loc 1 318 7 is_stmt 1 view .LVU192
 318:Drivers/STM32WBxx_HAL_Driver/Src/stm32wbxx_hal_ipcc.c ****       {
 722              		.loc 1 318 10 is_stmt 0 view .LVU193
 723 0014 82B9     		cbnz	r2, .L54
 320:Drivers/STM32WBxx_HAL_Driver/Src/stm32wbxx_hal_ipcc.c ****         hipcc->callbackRequest |= (IPCC_MR_CH1FM_Msk << (ChannelIndex & CHANNEL_INDEX_Msk));
 724              		.loc 1 320 9 is_stmt 1 view .LVU194
 320:Drivers/STM32WBxx_HAL_Driver/Src/stm32wbxx_hal_ipcc.c ****         hipcc->callbackRequest |= (IPCC_MR_CH1FM_Msk << (ChannelIndex & CHANNEL_INDEX_Msk));
 725              		.loc 1 320 48 is_stmt 0 view .LVU195
 726 0016 0631     		adds	r1, r1, #6
 727              	.LVL62:
 320:Drivers/STM32WBxx_HAL_Driver/Src/stm32wbxx_hal_ipcc.c ****         hipcc->callbackRequest |= (IPCC_MR_CH1FM_Msk << (ChannelIndex & CHANNEL_INDEX_Msk));
 728              		.loc 1 320 48 view .LVU196
 729 0018 00EB8101 		add	r1, r0, r1, lsl #2
 730 001c 4B60     		str	r3, [r1, #4]
 321:Drivers/STM32WBxx_HAL_Driver/Src/stm32wbxx_hal_ipcc.c ****       }
 731              		.loc 1 321 9 is_stmt 1 view .LVU197
 321:Drivers/STM32WBxx_HAL_Driver/Src/stm32wbxx_hal_ipcc.c ****       }
 732              		.loc 1 321 71 is_stmt 0 view .LVU198
 733 001e 06F00F01 		and	r1, r6, #15
 321:Drivers/STM32WBxx_HAL_Driver/Src/stm32wbxx_hal_ipcc.c ****       }
 734              		.loc 1 321 54 view .LVU199
 735 0022 4FF48033 		mov	r3, #65536
 736              	.LVL63:
 321:Drivers/STM32WBxx_HAL_Driver/Src/stm32wbxx_hal_ipcc.c ****       }
 737              		.loc 1 321 54 view .LVU200
 738 0026 03FA01F1 		lsl	r1, r3, r1
 321:Drivers/STM32WBxx_HAL_Driver/Src/stm32wbxx_hal_ipcc.c ****       }
 739              		.loc 1 321 32 view .LVU201
 740 002a 436B     		ldr	r3, [r0, #52]
 741 002c 0B43     		orrs	r3, r3, r1
 742 002e 4363     		str	r3, [r0, #52]
 743              	.LVL64:
 744              	.L55:
 330:Drivers/STM32WBxx_HAL_Driver/Src/stm32wbxx_hal_ipcc.c ****       {
 745              		.loc 1 330 7 is_stmt 1 view .LVU202
 330:Drivers/STM32WBxx_HAL_Driver/Src/stm32wbxx_hal_ipcc.c ****       {
 746              		.loc 1 330 10 is_stmt 0 view .LVU203
 747 0030 012A     		cmp	r2, #1
 748 0032 0DD0     		beq	.L64
 306:Drivers/STM32WBxx_HAL_Driver/Src/stm32wbxx_hal_ipcc.c **** 
 749              		.loc 1 306 21 view .LVU204
 750 0034 0020     		movs	r0, #0
 751              	.LVL65:
 306:Drivers/STM32WBxx_HAL_Driver/Src/stm32wbxx_hal_ipcc.c **** 
 752              		.loc 1 306 21 view .LVU205
 753 0036 ECE7     		b	.L53
 754              	.LVL66:
 755              	.L54:
 325:Drivers/STM32WBxx_HAL_Driver/Src/stm32wbxx_hal_ipcc.c ****         hipcc->callbackRequest |= (IPCC_MR_CH1OM_Msk << (ChannelIndex & CHANNEL_INDEX_Msk));
 756              		.loc 1 325 9 is_stmt 1 view .LVU206
 325:Drivers/STM32WBxx_HAL_Driver/Src/stm32wbxx_hal_ipcc.c ****         hipcc->callbackRequest |= (IPCC_MR_CH1OM_Msk << (ChannelIndex & CHANNEL_INDEX_Msk));
 757              		.loc 1 325 48 is_stmt 0 view .LVU207
 758 0038 00EB8101 		add	r1, r0, r1, lsl #2
 759              	.LVL67:
ARM GAS  /var/folders/lt/l_qrc8c54t93n_phsj7cf5tc0000gn/T//ccQqlOSj.s 			page 29


 325:Drivers/STM32WBxx_HAL_Driver/Src/stm32wbxx_hal_ipcc.c ****         hipcc->callbackRequest |= (IPCC_MR_CH1OM_Msk << (ChannelIndex & CHANNEL_INDEX_Msk));
 760              		.loc 1 325 48 view .LVU208
 761 003c 4B60     		str	r3, [r1, #4]
 326:Drivers/STM32WBxx_HAL_Driver/Src/stm32wbxx_hal_ipcc.c ****       }
 762              		.loc 1 326 9 is_stmt 1 view .LVU209
 326:Drivers/STM32WBxx_HAL_Driver/Src/stm32wbxx_hal_ipcc.c ****       }
 763              		.loc 1 326 71 is_stmt 0 view .LVU210
 764 003e 06F00F01 		and	r1, r6, #15
 326:Drivers/STM32WBxx_HAL_Driver/Src/stm32wbxx_hal_ipcc.c ****       }
 765              		.loc 1 326 54 view .LVU211
 766 0042 0123     		movs	r3, #1
 767              	.LVL68:
 326:Drivers/STM32WBxx_HAL_Driver/Src/stm32wbxx_hal_ipcc.c ****       }
 768              		.loc 1 326 54 view .LVU212
 769 0044 03FA01F1 		lsl	r1, r3, r1
 326:Drivers/STM32WBxx_HAL_Driver/Src/stm32wbxx_hal_ipcc.c ****       }
 770              		.loc 1 326 32 view .LVU213
 771 0048 436B     		ldr	r3, [r0, #52]
 772 004a 0B43     		orrs	r3, r3, r1
 773 004c 4363     		str	r3, [r0, #52]
 774              	.LVL69:
 326:Drivers/STM32WBxx_HAL_Driver/Src/stm32wbxx_hal_ipcc.c ****       }
 775              		.loc 1 326 32 view .LVU214
 776 004e EFE7     		b	.L55
 777              	.L64:
 332:Drivers/STM32WBxx_HAL_Driver/Src/stm32wbxx_hal_ipcc.c ****       }
 778              		.loc 1 332 9 is_stmt 1 view .LVU215
 779 0050 1146     		mov	r1, r2
 780 0052 3046     		mov	r0, r6
 781              	.LVL70:
 332:Drivers/STM32WBxx_HAL_Driver/Src/stm32wbxx_hal_ipcc.c ****       }
 782              		.loc 1 332 9 is_stmt 0 view .LVU216
 783 0054 FFF7FEFF 		bl	IPCC_UnmaskInterrupt
 784              	.LVL71:
 306:Drivers/STM32WBxx_HAL_Driver/Src/stm32wbxx_hal_ipcc.c **** 
 785              		.loc 1 306 21 view .LVU217
 786 0058 0020     		movs	r0, #0
 787 005a DAE7     		b	.L53
 788              	.LVL72:
 789              	.L56:
 790              	.LCFI5:
 791              		.cfi_def_cfa_offset 0
 792              		.cfi_restore 4
 793              		.cfi_restore 5
 794              		.cfi_restore 6
 795              		.cfi_restore 14
 342:Drivers/STM32WBxx_HAL_Driver/Src/stm32wbxx_hal_ipcc.c ****   }
 796              		.loc 1 342 9 view .LVU218
 797 005c 0120     		movs	r0, #1
 798              	.LVL73:
 344:Drivers/STM32WBxx_HAL_Driver/Src/stm32wbxx_hal_ipcc.c **** }
 799              		.loc 1 344 3 is_stmt 1 view .LVU219
 345:Drivers/STM32WBxx_HAL_Driver/Src/stm32wbxx_hal_ipcc.c **** 
 800              		.loc 1 345 1 is_stmt 0 view .LVU220
 801 005e 7047     		bx	lr
 802              		.cfi_endproc
 803              	.LFE1108:
ARM GAS  /var/folders/lt/l_qrc8c54t93n_phsj7cf5tc0000gn/T//ccQqlOSj.s 			page 30


 805              		.section	.text.HAL_IPCC_NotifyCPU,"ax",%progbits
 806              		.align	1
 807              		.global	HAL_IPCC_NotifyCPU
 808              		.syntax unified
 809              		.thumb
 810              		.thumb_func
 811              		.fpu fpv4-sp-d16
 813              	HAL_IPCC_NotifyCPU:
 814              	.LVL74:
 815              	.LFB1111:
 452:Drivers/STM32WBxx_HAL_Driver/Src/stm32wbxx_hal_ipcc.c ****   HAL_StatusTypeDef err = HAL_OK;
 816              		.loc 1 452 1 is_stmt 1 view -0
 817              		.cfi_startproc
 818              		@ args = 0, pretend = 0, frame = 0
 819              		@ frame_needed = 0, uses_anonymous_args = 0
 452:Drivers/STM32WBxx_HAL_Driver/Src/stm32wbxx_hal_ipcc.c ****   HAL_StatusTypeDef err = HAL_OK;
 820              		.loc 1 452 1 is_stmt 0 view .LVU222
 821 0000 38B5     		push	{r3, r4, r5, lr}
 822              	.LCFI6:
 823              		.cfi_def_cfa_offset 16
 824              		.cfi_offset 3, -16
 825              		.cfi_offset 4, -12
 826              		.cfi_offset 5, -8
 827              		.cfi_offset 14, -4
 453:Drivers/STM32WBxx_HAL_Driver/Src/stm32wbxx_hal_ipcc.c ****   uint32_t mask;
 828              		.loc 1 453 3 is_stmt 1 view .LVU223
 829              	.LVL75:
 454:Drivers/STM32WBxx_HAL_Driver/Src/stm32wbxx_hal_ipcc.c ****   IPCC_CommonTypeDef *currentInstance = IPCC_C1;
 830              		.loc 1 454 3 view .LVU224
 455:Drivers/STM32WBxx_HAL_Driver/Src/stm32wbxx_hal_ipcc.c **** 
 831              		.loc 1 455 3 view .LVU225
 458:Drivers/STM32WBxx_HAL_Driver/Src/stm32wbxx_hal_ipcc.c **** 
 832              		.loc 1 458 3 view .LVU226
 461:Drivers/STM32WBxx_HAL_Driver/Src/stm32wbxx_hal_ipcc.c ****   {
 833              		.loc 1 461 3 view .LVU227
 461:Drivers/STM32WBxx_HAL_Driver/Src/stm32wbxx_hal_ipcc.c ****   {
 834              		.loc 1 461 12 is_stmt 0 view .LVU228
 835 0002 90F83830 		ldrb	r3, [r0, #56]	@ zero_extendqisi2
 836 0006 DBB2     		uxtb	r3, r3
 461:Drivers/STM32WBxx_HAL_Driver/Src/stm32wbxx_hal_ipcc.c ****   {
 837              		.loc 1 461 6 view .LVU229
 838 0008 012B     		cmp	r3, #1
 839 000a 01D0     		beq	.L72
 475:Drivers/STM32WBxx_HAL_Driver/Src/stm32wbxx_hal_ipcc.c ****   }
 840              		.loc 1 475 9 view .LVU230
 841 000c 0120     		movs	r0, #1
 842              	.LVL76:
 843              	.L66:
 478:Drivers/STM32WBxx_HAL_Driver/Src/stm32wbxx_hal_ipcc.c **** }
 844              		.loc 1 478 3 is_stmt 1 view .LVU231
 479:Drivers/STM32WBxx_HAL_Driver/Src/stm32wbxx_hal_ipcc.c **** 
 845              		.loc 1 479 1 is_stmt 0 view .LVU232
 846 000e 38BD     		pop	{r3, r4, r5, pc}
 847              	.LVL77:
 848              	.L72:
 479:Drivers/STM32WBxx_HAL_Driver/Src/stm32wbxx_hal_ipcc.c **** 
 849              		.loc 1 479 1 view .LVU233
ARM GAS  /var/folders/lt/l_qrc8c54t93n_phsj7cf5tc0000gn/T//ccQqlOSj.s 			page 31


 850 0010 0C46     		mov	r4, r1
 464:Drivers/STM32WBxx_HAL_Driver/Src/stm32wbxx_hal_ipcc.c **** 
 851              		.loc 1 464 5 is_stmt 1 view .LVU234
 464:Drivers/STM32WBxx_HAL_Driver/Src/stm32wbxx_hal_ipcc.c **** 
 852              		.loc 1 464 26 is_stmt 0 view .LVU235
 853 0012 0C4B     		ldr	r3, .L74
 854 0014 9968     		ldr	r1, [r3, #8]
 855              	.LVL78:
 464:Drivers/STM32WBxx_HAL_Driver/Src/stm32wbxx_hal_ipcc.c **** 
 856              		.loc 1 464 82 view .LVU236
 857 0016 62B9     		cbnz	r2, .L69
 464:Drivers/STM32WBxx_HAL_Driver/Src/stm32wbxx_hal_ipcc.c **** 
 858              		.loc 1 464 82 view .LVU237
 859 0018 4FF48033 		mov	r3, #65536
 860              	.L67:
 464:Drivers/STM32WBxx_HAL_Driver/Src/stm32wbxx_hal_ipcc.c **** 
 861              		.loc 1 464 116 discriminator 4 view .LVU238
 862 001c 04F00F05 		and	r5, r4, #15
 464:Drivers/STM32WBxx_HAL_Driver/Src/stm32wbxx_hal_ipcc.c **** 
 863              		.loc 1 464 99 discriminator 4 view .LVU239
 864 0020 AB40     		lsls	r3, r3, r5
 464:Drivers/STM32WBxx_HAL_Driver/Src/stm32wbxx_hal_ipcc.c **** 
 865              		.loc 1 464 26 discriminator 4 view .LVU240
 866 0022 1943     		orrs	r1, r1, r3
 867 0024 074D     		ldr	r5, .L74
 868 0026 A960     		str	r1, [r5, #8]
 467:Drivers/STM32WBxx_HAL_Driver/Src/stm32wbxx_hal_ipcc.c ****     if ((hipcc->callbackRequest & mask) == mask)
 869              		.loc 1 467 5 is_stmt 1 discriminator 4 view .LVU241
 870              	.LVL79:
 468:Drivers/STM32WBxx_HAL_Driver/Src/stm32wbxx_hal_ipcc.c ****     {
 871              		.loc 1 468 5 discriminator 4 view .LVU242
 468:Drivers/STM32WBxx_HAL_Driver/Src/stm32wbxx_hal_ipcc.c ****     {
 872              		.loc 1 468 15 is_stmt 0 discriminator 4 view .LVU243
 873 0028 416B     		ldr	r1, [r0, #52]
 468:Drivers/STM32WBxx_HAL_Driver/Src/stm32wbxx_hal_ipcc.c ****     {
 874              		.loc 1 468 8 discriminator 4 view .LVU244
 875 002a 8B43     		bics	r3, r3, r1
 876              	.LVL80:
 468:Drivers/STM32WBxx_HAL_Driver/Src/stm32wbxx_hal_ipcc.c ****     {
 877              		.loc 1 468 8 discriminator 4 view .LVU245
 878 002c 03D0     		beq	.L73
 453:Drivers/STM32WBxx_HAL_Driver/Src/stm32wbxx_hal_ipcc.c ****   uint32_t mask;
 879              		.loc 1 453 21 view .LVU246
 880 002e 0020     		movs	r0, #0
 881              	.LVL81:
 453:Drivers/STM32WBxx_HAL_Driver/Src/stm32wbxx_hal_ipcc.c ****   uint32_t mask;
 882              		.loc 1 453 21 view .LVU247
 883 0030 EDE7     		b	.L66
 884              	.LVL82:
 885              	.L69:
 464:Drivers/STM32WBxx_HAL_Driver/Src/stm32wbxx_hal_ipcc.c **** 
 886              		.loc 1 464 82 view .LVU248
 887 0032 0123     		movs	r3, #1
 888 0034 F2E7     		b	.L67
 889              	.L73:
 470:Drivers/STM32WBxx_HAL_Driver/Src/stm32wbxx_hal_ipcc.c ****     }
 890              		.loc 1 470 7 is_stmt 1 view .LVU249
ARM GAS  /var/folders/lt/l_qrc8c54t93n_phsj7cf5tc0000gn/T//ccQqlOSj.s 			page 32


 891 0036 1146     		mov	r1, r2
 892 0038 2046     		mov	r0, r4
 893              	.LVL83:
 470:Drivers/STM32WBxx_HAL_Driver/Src/stm32wbxx_hal_ipcc.c ****     }
 894              		.loc 1 470 7 is_stmt 0 view .LVU250
 895 003a FFF7FEFF 		bl	IPCC_UnmaskInterrupt
 896              	.LVL84:
 453:Drivers/STM32WBxx_HAL_Driver/Src/stm32wbxx_hal_ipcc.c ****   uint32_t mask;
 897              		.loc 1 453 21 view .LVU251
 898 003e 0020     		movs	r0, #0
 899 0040 E5E7     		b	.L66
 900              	.L75:
 901 0042 00BF     		.align	2
 902              	.L74:
 903 0044 000C0058 		.word	1476398080
 904              		.cfi_endproc
 905              	.LFE1111:
 907              		.section	.text.IPCC_SetDefaultCallbacks,"ax",%progbits
 908              		.align	1
 909              		.global	IPCC_SetDefaultCallbacks
 910              		.syntax unified
 911              		.thumb
 912              		.thumb_func
 913              		.fpu fpv4-sp-d16
 915              	IPCC_SetDefaultCallbacks:
 916              	.LVL85:
 917              	.LFB1119:
 701:Drivers/STM32WBxx_HAL_Driver/Src/stm32wbxx_hal_ipcc.c **** 
 702:Drivers/STM32WBxx_HAL_Driver/Src/stm32wbxx_hal_ipcc.c **** /**
 703:Drivers/STM32WBxx_HAL_Driver/Src/stm32wbxx_hal_ipcc.c ****   * @brief Reset all callbacks of the handle to NULL.
 704:Drivers/STM32WBxx_HAL_Driver/Src/stm32wbxx_hal_ipcc.c ****   * @param  hipcc IPCC handle
 705:Drivers/STM32WBxx_HAL_Driver/Src/stm32wbxx_hal_ipcc.c ****   */
 706:Drivers/STM32WBxx_HAL_Driver/Src/stm32wbxx_hal_ipcc.c **** void IPCC_SetDefaultCallbacks(IPCC_HandleTypeDef *hipcc)
 707:Drivers/STM32WBxx_HAL_Driver/Src/stm32wbxx_hal_ipcc.c **** {
 918              		.loc 1 707 1 is_stmt 1 view -0
 919              		.cfi_startproc
 920              		@ args = 0, pretend = 0, frame = 0
 921              		@ frame_needed = 0, uses_anonymous_args = 0
 922              		@ link register save eliminated.
 708:Drivers/STM32WBxx_HAL_Driver/Src/stm32wbxx_hal_ipcc.c ****   uint32_t i;
 923              		.loc 1 708 3 view .LVU253
 709:Drivers/STM32WBxx_HAL_Driver/Src/stm32wbxx_hal_ipcc.c ****   /* Set all callbacks to default */
 710:Drivers/STM32WBxx_HAL_Driver/Src/stm32wbxx_hal_ipcc.c ****   for (i = 0; i < IPCC_CHANNEL_NUMBER; i++)
 924              		.loc 1 710 3 view .LVU254
 925              		.loc 1 710 10 is_stmt 0 view .LVU255
 926 0000 0023     		movs	r3, #0
 927              	.LVL86:
 928              	.L77:
 929              		.loc 1 710 15 is_stmt 1 discriminator 1 view .LVU256
 930              		.loc 1 710 3 is_stmt 0 discriminator 1 view .LVU257
 931 0002 052B     		cmp	r3, #5
 932 0004 0AD8     		bhi	.L79
 711:Drivers/STM32WBxx_HAL_Driver/Src/stm32wbxx_hal_ipcc.c ****   {
 712:Drivers/STM32WBxx_HAL_Driver/Src/stm32wbxx_hal_ipcc.c ****     hipcc->ChannelCallbackRx[i] = HAL_IPCC_RxCallback;
 933              		.loc 1 712 5 is_stmt 1 discriminator 3 view .LVU258
 934              		.loc 1 712 33 is_stmt 0 discriminator 3 view .LVU259
 935 0006 00EB8302 		add	r2, r0, r3, lsl #2
ARM GAS  /var/folders/lt/l_qrc8c54t93n_phsj7cf5tc0000gn/T//ccQqlOSj.s 			page 33


 936 000a 0549     		ldr	r1, .L80
 937 000c 5160     		str	r1, [r2, #4]
 713:Drivers/STM32WBxx_HAL_Driver/Src/stm32wbxx_hal_ipcc.c ****     hipcc->ChannelCallbackTx[i] = HAL_IPCC_TxCallback;
 938              		.loc 1 713 5 is_stmt 1 discriminator 3 view .LVU260
 939              		.loc 1 713 33 is_stmt 0 discriminator 3 view .LVU261
 940 000e 9A1D     		adds	r2, r3, #6
 941 0010 00EB8202 		add	r2, r0, r2, lsl #2
 942 0014 0349     		ldr	r1, .L80+4
 943 0016 5160     		str	r1, [r2, #4]
 710:Drivers/STM32WBxx_HAL_Driver/Src/stm32wbxx_hal_ipcc.c ****   {
 944              		.loc 1 710 40 is_stmt 1 discriminator 3 view .LVU262
 710:Drivers/STM32WBxx_HAL_Driver/Src/stm32wbxx_hal_ipcc.c ****   {
 945              		.loc 1 710 41 is_stmt 0 discriminator 3 view .LVU263
 946 0018 0133     		adds	r3, r3, #1
 947              	.LVL87:
 710:Drivers/STM32WBxx_HAL_Driver/Src/stm32wbxx_hal_ipcc.c ****   {
 948              		.loc 1 710 41 discriminator 3 view .LVU264
 949 001a F2E7     		b	.L77
 950              	.L79:
 714:Drivers/STM32WBxx_HAL_Driver/Src/stm32wbxx_hal_ipcc.c ****   }
 715:Drivers/STM32WBxx_HAL_Driver/Src/stm32wbxx_hal_ipcc.c **** }
 951              		.loc 1 715 1 view .LVU265
 952 001c 7047     		bx	lr
 953              	.L81:
 954 001e 00BF     		.align	2
 955              	.L80:
 956 0020 00000000 		.word	HAL_IPCC_RxCallback
 957 0024 00000000 		.word	HAL_IPCC_TxCallback
 958              		.cfi_endproc
 959              	.LFE1119:
 961              		.section	.text.IPCC_Reset_Register,"ax",%progbits
 962              		.align	1
 963              		.global	IPCC_Reset_Register
 964              		.syntax unified
 965              		.thumb
 966              		.thumb_func
 967              		.fpu fpv4-sp-d16
 969              	IPCC_Reset_Register:
 970              	.LVL88:
 971              	.LFB1120:
 716:Drivers/STM32WBxx_HAL_Driver/Src/stm32wbxx_hal_ipcc.c **** 
 717:Drivers/STM32WBxx_HAL_Driver/Src/stm32wbxx_hal_ipcc.c **** /**
 718:Drivers/STM32WBxx_HAL_Driver/Src/stm32wbxx_hal_ipcc.c ****   * @brief Reset IPCC register to default value for the concerned instance.
 719:Drivers/STM32WBxx_HAL_Driver/Src/stm32wbxx_hal_ipcc.c ****   * @param  Instance pointer to register
 720:Drivers/STM32WBxx_HAL_Driver/Src/stm32wbxx_hal_ipcc.c ****   */
 721:Drivers/STM32WBxx_HAL_Driver/Src/stm32wbxx_hal_ipcc.c **** void IPCC_Reset_Register(IPCC_CommonTypeDef *Instance)
 722:Drivers/STM32WBxx_HAL_Driver/Src/stm32wbxx_hal_ipcc.c **** {
 972              		.loc 1 722 1 is_stmt 1 view -0
 973              		.cfi_startproc
 974              		@ args = 0, pretend = 0, frame = 0
 975              		@ frame_needed = 0, uses_anonymous_args = 0
 976              		@ link register save eliminated.
 723:Drivers/STM32WBxx_HAL_Driver/Src/stm32wbxx_hal_ipcc.c ****   /* Disable RX and TX interrupts */
 724:Drivers/STM32WBxx_HAL_Driver/Src/stm32wbxx_hal_ipcc.c ****   Instance->CR  = 0x00000000U;
 977              		.loc 1 724 3 view .LVU267
 978              		.loc 1 724 17 is_stmt 0 view .LVU268
 979 0000 0023     		movs	r3, #0
ARM GAS  /var/folders/lt/l_qrc8c54t93n_phsj7cf5tc0000gn/T//ccQqlOSj.s 			page 34


 980 0002 0360     		str	r3, [r0]
 725:Drivers/STM32WBxx_HAL_Driver/Src/stm32wbxx_hal_ipcc.c **** 
 726:Drivers/STM32WBxx_HAL_Driver/Src/stm32wbxx_hal_ipcc.c ****   /* Mask RX and TX interrupts */
 727:Drivers/STM32WBxx_HAL_Driver/Src/stm32wbxx_hal_ipcc.c ****   Instance->MR  = (IPCC_ALL_TX_BUF | IPCC_ALL_RX_BUF);
 981              		.loc 1 727 3 is_stmt 1 view .LVU269
 982              		.loc 1 727 17 is_stmt 0 view .LVU270
 983 0004 4FF03F13 		mov	r3, #4128831
 984 0008 4360     		str	r3, [r0, #4]
 728:Drivers/STM32WBxx_HAL_Driver/Src/stm32wbxx_hal_ipcc.c **** 
 729:Drivers/STM32WBxx_HAL_Driver/Src/stm32wbxx_hal_ipcc.c ****   /* Clear RX status */
 730:Drivers/STM32WBxx_HAL_Driver/Src/stm32wbxx_hal_ipcc.c ****   Instance->SCR = IPCC_ALL_RX_BUF;
 985              		.loc 1 730 3 is_stmt 1 view .LVU271
 986              		.loc 1 730 17 is_stmt 0 view .LVU272
 987 000a 3F23     		movs	r3, #63
 988 000c 8360     		str	r3, [r0, #8]
 731:Drivers/STM32WBxx_HAL_Driver/Src/stm32wbxx_hal_ipcc.c **** }
 989              		.loc 1 731 1 view .LVU273
 990 000e 7047     		bx	lr
 991              		.cfi_endproc
 992              	.LFE1120:
 994              		.section	.text.HAL_IPCC_Init,"ax",%progbits
 995              		.align	1
 996              		.global	HAL_IPCC_Init
 997              		.syntax unified
 998              		.thumb
 999              		.thumb_func
 1000              		.fpu fpv4-sp-d16
 1002              	HAL_IPCC_Init:
 1003              	.LVL89:
 1004              	.LFB1104:
 127:Drivers/STM32WBxx_HAL_Driver/Src/stm32wbxx_hal_ipcc.c ****   HAL_StatusTypeDef err = HAL_OK;
 1005              		.loc 1 127 1 is_stmt 1 view -0
 1006              		.cfi_startproc
 1007              		@ args = 0, pretend = 0, frame = 0
 1008              		@ frame_needed = 0, uses_anonymous_args = 0
 128:Drivers/STM32WBxx_HAL_Driver/Src/stm32wbxx_hal_ipcc.c **** 
 1009              		.loc 1 128 3 view .LVU275
 131:Drivers/STM32WBxx_HAL_Driver/Src/stm32wbxx_hal_ipcc.c ****   {
 1010              		.loc 1 131 3 view .LVU276
 131:Drivers/STM32WBxx_HAL_Driver/Src/stm32wbxx_hal_ipcc.c ****   {
 1011              		.loc 1 131 6 is_stmt 0 view .LVU277
 1012 0000 C0B1     		cbz	r0, .L86
 127:Drivers/STM32WBxx_HAL_Driver/Src/stm32wbxx_hal_ipcc.c ****   HAL_StatusTypeDef err = HAL_OK;
 1013              		.loc 1 127 1 view .LVU278
 1014 0002 38B5     		push	{r3, r4, r5, lr}
 1015              	.LCFI7:
 1016              		.cfi_def_cfa_offset 16
 1017              		.cfi_offset 3, -16
 1018              		.cfi_offset 4, -12
 1019              		.cfi_offset 5, -8
 1020              		.cfi_offset 14, -4
 1021 0004 0446     		mov	r4, r0
 1022              	.LBB2:
 134:Drivers/STM32WBxx_HAL_Driver/Src/stm32wbxx_hal_ipcc.c **** 
 1023              		.loc 1 134 5 is_stmt 1 view .LVU279
 136:Drivers/STM32WBxx_HAL_Driver/Src/stm32wbxx_hal_ipcc.c **** 
 1024              		.loc 1 136 5 view .LVU280
ARM GAS  /var/folders/lt/l_qrc8c54t93n_phsj7cf5tc0000gn/T//ccQqlOSj.s 			page 35


 1025              	.LVL90:
 138:Drivers/STM32WBxx_HAL_Driver/Src/stm32wbxx_hal_ipcc.c ****     {
 1026              		.loc 1 138 5 view .LVU281
 138:Drivers/STM32WBxx_HAL_Driver/Src/stm32wbxx_hal_ipcc.c ****     {
 1027              		.loc 1 138 14 is_stmt 0 view .LVU282
 1028 0006 90F83830 		ldrb	r3, [r0, #56]	@ zero_extendqisi2
 138:Drivers/STM32WBxx_HAL_Driver/Src/stm32wbxx_hal_ipcc.c ****     {
 1029              		.loc 1 138 8 view .LVU283
 1030 000a 83B1     		cbz	r3, .L91
 1031              	.LVL91:
 1032              	.L85:
 145:Drivers/STM32WBxx_HAL_Driver/Src/stm32wbxx_hal_ipcc.c **** 
 1033              		.loc 1 145 5 is_stmt 1 view .LVU284
 1034 000c 0A4D     		ldr	r5, .L92
 1035 000e 2846     		mov	r0, r5
 1036 0010 FFF7FEFF 		bl	IPCC_Reset_Register
 1037              	.LVL92:
 148:Drivers/STM32WBxx_HAL_Driver/Src/stm32wbxx_hal_ipcc.c **** 
 1038              		.loc 1 148 5 view .LVU285
 148:Drivers/STM32WBxx_HAL_Driver/Src/stm32wbxx_hal_ipcc.c **** 
 1039              		.loc 1 148 25 is_stmt 0 view .LVU286
 1040 0014 2B68     		ldr	r3, [r5]
 1041 0016 43F00113 		orr	r3, r3, #65537
 1042 001a 2B60     		str	r3, [r5]
 151:Drivers/STM32WBxx_HAL_Driver/Src/stm32wbxx_hal_ipcc.c **** 
 1043              		.loc 1 151 5 is_stmt 1 view .LVU287
 1044 001c 2046     		mov	r0, r4
 1045 001e FFF7FEFF 		bl	IPCC_SetDefaultCallbacks
 1046              	.LVL93:
 154:Drivers/STM32WBxx_HAL_Driver/Src/stm32wbxx_hal_ipcc.c **** 
 1047              		.loc 1 154 5 view .LVU288
 154:Drivers/STM32WBxx_HAL_Driver/Src/stm32wbxx_hal_ipcc.c **** 
 1048              		.loc 1 154 28 is_stmt 0 view .LVU289
 1049 0022 0020     		movs	r0, #0
 1050 0024 6063     		str	r0, [r4, #52]
 156:Drivers/STM32WBxx_HAL_Driver/Src/stm32wbxx_hal_ipcc.c ****   }
 1051              		.loc 1 156 5 is_stmt 1 view .LVU290
 156:Drivers/STM32WBxx_HAL_Driver/Src/stm32wbxx_hal_ipcc.c ****   }
 1052              		.loc 1 156 18 is_stmt 0 view .LVU291
 1053 0026 0123     		movs	r3, #1
 1054 0028 84F83830 		strb	r3, [r4, #56]
 1055              	.LVL94:
 156:Drivers/STM32WBxx_HAL_Driver/Src/stm32wbxx_hal_ipcc.c ****   }
 1056              		.loc 1 156 18 view .LVU292
 1057              	.LBE2:
 163:Drivers/STM32WBxx_HAL_Driver/Src/stm32wbxx_hal_ipcc.c **** }
 1058              		.loc 1 163 3 is_stmt 1 view .LVU293
 164:Drivers/STM32WBxx_HAL_Driver/Src/stm32wbxx_hal_ipcc.c **** 
 1059              		.loc 1 164 1 is_stmt 0 view .LVU294
 1060 002c 38BD     		pop	{r3, r4, r5, pc}
 1061              	.LVL95:
 1062              	.L91:
 1063              	.LBB3:
 141:Drivers/STM32WBxx_HAL_Driver/Src/stm32wbxx_hal_ipcc.c ****     }
 1064              		.loc 1 141 7 is_stmt 1 view .LVU295
 1065 002e FFF7FEFF 		bl	HAL_IPCC_MspInit
 1066              	.LVL96:
ARM GAS  /var/folders/lt/l_qrc8c54t93n_phsj7cf5tc0000gn/T//ccQqlOSj.s 			page 36


 141:Drivers/STM32WBxx_HAL_Driver/Src/stm32wbxx_hal_ipcc.c ****     }
 1067              		.loc 1 141 7 is_stmt 0 view .LVU296
 1068 0032 EBE7     		b	.L85
 1069              	.LVL97:
 1070              	.L86:
 1071              	.LCFI8:
 1072              		.cfi_def_cfa_offset 0
 1073              		.cfi_restore 3
 1074              		.cfi_restore 4
 1075              		.cfi_restore 5
 1076              		.cfi_restore 14
 141:Drivers/STM32WBxx_HAL_Driver/Src/stm32wbxx_hal_ipcc.c ****     }
 1077              		.loc 1 141 7 view .LVU297
 1078              	.LBE3:
 160:Drivers/STM32WBxx_HAL_Driver/Src/stm32wbxx_hal_ipcc.c ****   }
 1079              		.loc 1 160 9 view .LVU298
 1080 0034 0120     		movs	r0, #1
 1081              	.LVL98:
 163:Drivers/STM32WBxx_HAL_Driver/Src/stm32wbxx_hal_ipcc.c **** }
 1082              		.loc 1 163 3 is_stmt 1 view .LVU299
 164:Drivers/STM32WBxx_HAL_Driver/Src/stm32wbxx_hal_ipcc.c **** 
 1083              		.loc 1 164 1 is_stmt 0 view .LVU300
 1084 0036 7047     		bx	lr
 1085              	.L93:
 1086              		.align	2
 1087              	.L92:
 1088 0038 000C0058 		.word	1476398080
 1089              		.cfi_endproc
 1090              	.LFE1104:
 1092              		.section	.text.HAL_IPCC_DeInit,"ax",%progbits
 1093              		.align	1
 1094              		.global	HAL_IPCC_DeInit
 1095              		.syntax unified
 1096              		.thumb
 1097              		.thumb_func
 1098              		.fpu fpv4-sp-d16
 1100              	HAL_IPCC_DeInit:
 1101              	.LVL99:
 1102              	.LFB1105:
 172:Drivers/STM32WBxx_HAL_Driver/Src/stm32wbxx_hal_ipcc.c ****   HAL_StatusTypeDef err = HAL_OK;
 1103              		.loc 1 172 1 is_stmt 1 view -0
 1104              		.cfi_startproc
 1105              		@ args = 0, pretend = 0, frame = 0
 1106              		@ frame_needed = 0, uses_anonymous_args = 0
 173:Drivers/STM32WBxx_HAL_Driver/Src/stm32wbxx_hal_ipcc.c **** 
 1107              		.loc 1 173 3 view .LVU302
 176:Drivers/STM32WBxx_HAL_Driver/Src/stm32wbxx_hal_ipcc.c ****   {
 1108              		.loc 1 176 3 view .LVU303
 176:Drivers/STM32WBxx_HAL_Driver/Src/stm32wbxx_hal_ipcc.c ****   {
 1109              		.loc 1 176 6 is_stmt 0 view .LVU304
 1110 0000 98B1     		cbz	r0, .L96
 172:Drivers/STM32WBxx_HAL_Driver/Src/stm32wbxx_hal_ipcc.c ****   HAL_StatusTypeDef err = HAL_OK;
 1111              		.loc 1 172 1 view .LVU305
 1112 0002 38B5     		push	{r3, r4, r5, lr}
 1113              	.LCFI9:
 1114              		.cfi_def_cfa_offset 16
 1115              		.cfi_offset 3, -16
ARM GAS  /var/folders/lt/l_qrc8c54t93n_phsj7cf5tc0000gn/T//ccQqlOSj.s 			page 37


 1116              		.cfi_offset 4, -12
 1117              		.cfi_offset 5, -8
 1118              		.cfi_offset 14, -4
 1119 0004 0546     		mov	r5, r0
 1120              	.LBB4:
 178:Drivers/STM32WBxx_HAL_Driver/Src/stm32wbxx_hal_ipcc.c ****     IPCC_CommonTypeDef *currentInstance = IPCC_C1;
 1121              		.loc 1 178 5 is_stmt 1 view .LVU306
 179:Drivers/STM32WBxx_HAL_Driver/Src/stm32wbxx_hal_ipcc.c **** 
 1122              		.loc 1 179 5 view .LVU307
 1123              	.LVL100:
 182:Drivers/STM32WBxx_HAL_Driver/Src/stm32wbxx_hal_ipcc.c **** 
 1124              		.loc 1 182 5 view .LVU308
 182:Drivers/STM32WBxx_HAL_Driver/Src/stm32wbxx_hal_ipcc.c **** 
 1125              		.loc 1 182 18 is_stmt 0 view .LVU309
 1126 0006 0223     		movs	r3, #2
 1127 0008 80F83830 		strb	r3, [r0, #56]
 185:Drivers/STM32WBxx_HAL_Driver/Src/stm32wbxx_hal_ipcc.c **** 
 1128              		.loc 1 185 5 is_stmt 1 view .LVU310
 1129 000c 0848     		ldr	r0, .L101
 1130              	.LVL101:
 185:Drivers/STM32WBxx_HAL_Driver/Src/stm32wbxx_hal_ipcc.c **** 
 1131              		.loc 1 185 5 is_stmt 0 view .LVU311
 1132 000e FFF7FEFF 		bl	IPCC_Reset_Register
 1133              	.LVL102:
 188:Drivers/STM32WBxx_HAL_Driver/Src/stm32wbxx_hal_ipcc.c **** 
 1134              		.loc 1 188 5 is_stmt 1 view .LVU312
 1135 0012 2846     		mov	r0, r5
 1136 0014 FFF7FEFF 		bl	IPCC_SetDefaultCallbacks
 1137              	.LVL103:
 191:Drivers/STM32WBxx_HAL_Driver/Src/stm32wbxx_hal_ipcc.c **** 
 1138              		.loc 1 191 5 view .LVU313
 191:Drivers/STM32WBxx_HAL_Driver/Src/stm32wbxx_hal_ipcc.c **** 
 1139              		.loc 1 191 28 is_stmt 0 view .LVU314
 1140 0018 0024     		movs	r4, #0
 1141 001a 6C63     		str	r4, [r5, #52]
 194:Drivers/STM32WBxx_HAL_Driver/Src/stm32wbxx_hal_ipcc.c **** 
 1142              		.loc 1 194 5 is_stmt 1 view .LVU315
 1143 001c 2846     		mov	r0, r5
 1144 001e FFF7FEFF 		bl	HAL_IPCC_MspDeInit
 1145              	.LVL104:
 196:Drivers/STM32WBxx_HAL_Driver/Src/stm32wbxx_hal_ipcc.c ****   }
 1146              		.loc 1 196 5 view .LVU316
 196:Drivers/STM32WBxx_HAL_Driver/Src/stm32wbxx_hal_ipcc.c ****   }
 1147              		.loc 1 196 18 is_stmt 0 view .LVU317
 1148 0022 85F83840 		strb	r4, [r5, #56]
 1149              	.LBE4:
 173:Drivers/STM32WBxx_HAL_Driver/Src/stm32wbxx_hal_ipcc.c **** 
 1150              		.loc 1 173 21 view .LVU318
 1151 0026 2046     		mov	r0, r4
 1152              	.LVL105:
 203:Drivers/STM32WBxx_HAL_Driver/Src/stm32wbxx_hal_ipcc.c **** }
 1153              		.loc 1 203 3 is_stmt 1 view .LVU319
 204:Drivers/STM32WBxx_HAL_Driver/Src/stm32wbxx_hal_ipcc.c **** 
 1154              		.loc 1 204 1 is_stmt 0 view .LVU320
 1155 0028 38BD     		pop	{r3, r4, r5, pc}
 1156              	.LVL106:
 1157              	.L96:
ARM GAS  /var/folders/lt/l_qrc8c54t93n_phsj7cf5tc0000gn/T//ccQqlOSj.s 			page 38


 1158              	.LCFI10:
 1159              		.cfi_def_cfa_offset 0
 1160              		.cfi_restore 3
 1161              		.cfi_restore 4
 1162              		.cfi_restore 5
 1163              		.cfi_restore 14
 200:Drivers/STM32WBxx_HAL_Driver/Src/stm32wbxx_hal_ipcc.c ****   }
 1164              		.loc 1 200 9 view .LVU321
 1165 002a 0120     		movs	r0, #1
 1166              	.LVL107:
 203:Drivers/STM32WBxx_HAL_Driver/Src/stm32wbxx_hal_ipcc.c **** }
 1167              		.loc 1 203 3 is_stmt 1 view .LVU322
 204:Drivers/STM32WBxx_HAL_Driver/Src/stm32wbxx_hal_ipcc.c **** 
 1168              		.loc 1 204 1 is_stmt 0 view .LVU323
 1169 002c 7047     		bx	lr
 1170              	.L102:
 1171 002e 00BF     		.align	2
 1172              	.L101:
 1173 0030 000C0058 		.word	1476398080
 1174              		.cfi_endproc
 1175              	.LFE1105:
 1177              		.text
 1178              	.Letext0:
 1179              		.file 2 "/usr/local/Cellar/arm-none-eabi-gcc/9-2019-q4-major/gcc/arm-none-eabi/include/machine/_de
 1180              		.file 3 "/usr/local/Cellar/arm-none-eabi-gcc/9-2019-q4-major/gcc/arm-none-eabi/include/sys/_stdint
 1181              		.file 4 "Drivers/CMSIS/Include/core_cm4.h"
 1182              		.file 5 "Drivers/CMSIS/Device/ST/STM32WBxx/Include/system_stm32wbxx.h"
 1183              		.file 6 "Drivers/CMSIS/Device/ST/STM32WBxx/Include/stm32wb55xx.h"
 1184              		.file 7 "Drivers/STM32WBxx_HAL_Driver/Inc/stm32wbxx_hal_def.h"
 1185              		.file 8 "Drivers/STM32WBxx_HAL_Driver/Inc/stm32wbxx_hal_flash.h"
 1186              		.file 9 "Drivers/STM32WBxx_HAL_Driver/Inc/stm32wbxx_hal_ipcc.h"
 1187              		.file 10 "Drivers/STM32WBxx_HAL_Driver/Inc/stm32wbxx_hal_uart.h"
 1188              		.file 11 "Drivers/STM32WBxx_HAL_Driver/Inc/stm32wbxx_hal.h"
ARM GAS  /var/folders/lt/l_qrc8c54t93n_phsj7cf5tc0000gn/T//ccQqlOSj.s 			page 39

