ARM GAS  /var/folders/lt/l_qrc8c54t93n_phsj7cf5tc0000gn/T//ccioc0h3.s 			page 1


   1              		.cpu cortex-m4
   2              		.eabi_attribute 27, 1
   3              		.eabi_attribute 28, 1
   4              		.eabi_attribute 20, 1
   5              		.eabi_attribute 21, 1
   6              		.eabi_attribute 23, 3
   7              		.eabi_attribute 24, 1
   8              		.eabi_attribute 25, 1
   9              		.eabi_attribute 26, 1
  10              		.eabi_attribute 30, 1
  11              		.eabi_attribute 34, 1
  12              		.eabi_attribute 18, 4
  13              		.file	"stm_list.c"
  14              		.text
  15              	.Ltext0:
  16              		.cfi_sections	.debug_frame
  17              		.section	.text.LST_init_head,"ax",%progbits
  18              		.align	1
  19              		.global	LST_init_head
  20              		.arch armv7e-m
  21              		.syntax unified
  22              		.thumb
  23              		.thumb_func
  24              		.fpu fpv4-sp-d16
  26              	LST_init_head:
  27              	.LVL0:
  28              	.LFB1415:
  29              		.file 1 "Middlewares/ST/STM32_WPAN/utilities/stm_list.c"
   1:Middlewares/ST/STM32_WPAN/utilities/stm_list.c **** /**
   2:Middlewares/ST/STM32_WPAN/utilities/stm_list.c ****  ******************************************************************************
   3:Middlewares/ST/STM32_WPAN/utilities/stm_list.c ****   * @file    stm_list.c
   4:Middlewares/ST/STM32_WPAN/utilities/stm_list.c ****   * @author  MCD Application Team
   5:Middlewares/ST/STM32_WPAN/utilities/stm_list.c ****   * @brief   TCircular Linked List Implementation.
   6:Middlewares/ST/STM32_WPAN/utilities/stm_list.c ****   ******************************************************************************
   7:Middlewares/ST/STM32_WPAN/utilities/stm_list.c ****   * @attention
   8:Middlewares/ST/STM32_WPAN/utilities/stm_list.c ****   *
   9:Middlewares/ST/STM32_WPAN/utilities/stm_list.c ****   * Copyright (c) 2018-2021 STMicroelectronics.
  10:Middlewares/ST/STM32_WPAN/utilities/stm_list.c ****   * All rights reserved.
  11:Middlewares/ST/STM32_WPAN/utilities/stm_list.c ****   *
  12:Middlewares/ST/STM32_WPAN/utilities/stm_list.c ****   * This software is licensed under terms that can be found in the LICENSE file
  13:Middlewares/ST/STM32_WPAN/utilities/stm_list.c ****   * in the root directory of this software component.
  14:Middlewares/ST/STM32_WPAN/utilities/stm_list.c ****   * If no LICENSE file comes with this software, it is provided AS-IS.
  15:Middlewares/ST/STM32_WPAN/utilities/stm_list.c ****   *
  16:Middlewares/ST/STM32_WPAN/utilities/stm_list.c ****   ******************************************************************************
  17:Middlewares/ST/STM32_WPAN/utilities/stm_list.c ****   */
  18:Middlewares/ST/STM32_WPAN/utilities/stm_list.c **** 
  19:Middlewares/ST/STM32_WPAN/utilities/stm_list.c **** 
  20:Middlewares/ST/STM32_WPAN/utilities/stm_list.c **** /******************************************************************************
  21:Middlewares/ST/STM32_WPAN/utilities/stm_list.c ****  * Include Files
  22:Middlewares/ST/STM32_WPAN/utilities/stm_list.c ****  ******************************************************************************/
  23:Middlewares/ST/STM32_WPAN/utilities/stm_list.c **** #include "utilities_common.h"
  24:Middlewares/ST/STM32_WPAN/utilities/stm_list.c **** 
  25:Middlewares/ST/STM32_WPAN/utilities/stm_list.c **** #include "stm_list.h"
  26:Middlewares/ST/STM32_WPAN/utilities/stm_list.c **** 
  27:Middlewares/ST/STM32_WPAN/utilities/stm_list.c **** /******************************************************************************
  28:Middlewares/ST/STM32_WPAN/utilities/stm_list.c ****  * Function Definitions 
  29:Middlewares/ST/STM32_WPAN/utilities/stm_list.c ****  ******************************************************************************/
ARM GAS  /var/folders/lt/l_qrc8c54t93n_phsj7cf5tc0000gn/T//ccioc0h3.s 			page 2


  30:Middlewares/ST/STM32_WPAN/utilities/stm_list.c **** void LST_init_head (tListNode * listHead)
  31:Middlewares/ST/STM32_WPAN/utilities/stm_list.c **** {
  30              		.loc 1 31 1 view -0
  31              		.cfi_startproc
  32              		@ args = 0, pretend = 0, frame = 0
  33              		@ frame_needed = 0, uses_anonymous_args = 0
  34              		@ link register save eliminated.
  32:Middlewares/ST/STM32_WPAN/utilities/stm_list.c ****   listHead->next = listHead;
  35              		.loc 1 32 3 view .LVU1
  36              		.loc 1 32 18 is_stmt 0 view .LVU2
  37 0000 0060     		str	r0, [r0]	@ unaligned
  33:Middlewares/ST/STM32_WPAN/utilities/stm_list.c ****   listHead->prev = listHead;
  38              		.loc 1 33 3 is_stmt 1 view .LVU3
  39              		.loc 1 33 18 is_stmt 0 view .LVU4
  40 0002 4060     		str	r0, [r0, #4]	@ unaligned
  34:Middlewares/ST/STM32_WPAN/utilities/stm_list.c **** }
  41              		.loc 1 34 1 view .LVU5
  42 0004 7047     		bx	lr
  43              		.cfi_endproc
  44              	.LFE1415:
  46              		.section	.text.LST_is_empty,"ax",%progbits
  47              		.align	1
  48              		.global	LST_is_empty
  49              		.syntax unified
  50              		.thumb
  51              		.thumb_func
  52              		.fpu fpv4-sp-d16
  54              	LST_is_empty:
  55              	.LVL1:
  56              	.LFB1416:
  35:Middlewares/ST/STM32_WPAN/utilities/stm_list.c **** 
  36:Middlewares/ST/STM32_WPAN/utilities/stm_list.c **** uint8_t LST_is_empty (tListNode * listHead)
  37:Middlewares/ST/STM32_WPAN/utilities/stm_list.c **** {
  57              		.loc 1 37 1 is_stmt 1 view -0
  58              		.cfi_startproc
  59              		@ args = 0, pretend = 0, frame = 0
  60              		@ frame_needed = 0, uses_anonymous_args = 0
  61              		@ link register save eliminated.
  38:Middlewares/ST/STM32_WPAN/utilities/stm_list.c ****   uint32_t primask_bit;
  62              		.loc 1 38 3 view .LVU7
  39:Middlewares/ST/STM32_WPAN/utilities/stm_list.c ****   uint8_t return_value;
  63              		.loc 1 39 3 view .LVU8
  40:Middlewares/ST/STM32_WPAN/utilities/stm_list.c **** 
  41:Middlewares/ST/STM32_WPAN/utilities/stm_list.c ****   primask_bit = __get_PRIMASK();  /**< backup PRIMASK bit */
  64              		.loc 1 41 3 view .LVU9
  65              	.LBB68:
  66              	.LBI68:
  67              		.file 2 "Drivers/CMSIS/Include/cmsis_gcc.h"
   1:Drivers/CMSIS/Include/cmsis_gcc.h **** /**************************************************************************//**
   2:Drivers/CMSIS/Include/cmsis_gcc.h ****  * @file     cmsis_gcc.h
   3:Drivers/CMSIS/Include/cmsis_gcc.h ****  * @brief    CMSIS compiler GCC header file
   4:Drivers/CMSIS/Include/cmsis_gcc.h ****  * @version  V5.2.0
   5:Drivers/CMSIS/Include/cmsis_gcc.h ****  * @date     08. May 2019
   6:Drivers/CMSIS/Include/cmsis_gcc.h ****  ******************************************************************************/
   7:Drivers/CMSIS/Include/cmsis_gcc.h **** /*
   8:Drivers/CMSIS/Include/cmsis_gcc.h ****  * Copyright (c) 2009-2019 Arm Limited. All rights reserved.
   9:Drivers/CMSIS/Include/cmsis_gcc.h ****  *
ARM GAS  /var/folders/lt/l_qrc8c54t93n_phsj7cf5tc0000gn/T//ccioc0h3.s 			page 3


  10:Drivers/CMSIS/Include/cmsis_gcc.h ****  * SPDX-License-Identifier: Apache-2.0
  11:Drivers/CMSIS/Include/cmsis_gcc.h ****  *
  12:Drivers/CMSIS/Include/cmsis_gcc.h ****  * Licensed under the Apache License, Version 2.0 (the License); you may
  13:Drivers/CMSIS/Include/cmsis_gcc.h ****  * not use this file except in compliance with the License.
  14:Drivers/CMSIS/Include/cmsis_gcc.h ****  * You may obtain a copy of the License at
  15:Drivers/CMSIS/Include/cmsis_gcc.h ****  *
  16:Drivers/CMSIS/Include/cmsis_gcc.h ****  * www.apache.org/licenses/LICENSE-2.0
  17:Drivers/CMSIS/Include/cmsis_gcc.h ****  *
  18:Drivers/CMSIS/Include/cmsis_gcc.h ****  * Unless required by applicable law or agreed to in writing, software
  19:Drivers/CMSIS/Include/cmsis_gcc.h ****  * distributed under the License is distributed on an AS IS BASIS, WITHOUT
  20:Drivers/CMSIS/Include/cmsis_gcc.h ****  * WARRANTIES OR CONDITIONS OF ANY KIND, either express or implied.
  21:Drivers/CMSIS/Include/cmsis_gcc.h ****  * See the License for the specific language governing permissions and
  22:Drivers/CMSIS/Include/cmsis_gcc.h ****  * limitations under the License.
  23:Drivers/CMSIS/Include/cmsis_gcc.h ****  */
  24:Drivers/CMSIS/Include/cmsis_gcc.h **** 
  25:Drivers/CMSIS/Include/cmsis_gcc.h **** #ifndef __CMSIS_GCC_H
  26:Drivers/CMSIS/Include/cmsis_gcc.h **** #define __CMSIS_GCC_H
  27:Drivers/CMSIS/Include/cmsis_gcc.h **** 
  28:Drivers/CMSIS/Include/cmsis_gcc.h **** /* ignore some GCC warnings */
  29:Drivers/CMSIS/Include/cmsis_gcc.h **** #pragma GCC diagnostic push
  30:Drivers/CMSIS/Include/cmsis_gcc.h **** #pragma GCC diagnostic ignored "-Wsign-conversion"
  31:Drivers/CMSIS/Include/cmsis_gcc.h **** #pragma GCC diagnostic ignored "-Wconversion"
  32:Drivers/CMSIS/Include/cmsis_gcc.h **** #pragma GCC diagnostic ignored "-Wunused-parameter"
  33:Drivers/CMSIS/Include/cmsis_gcc.h **** 
  34:Drivers/CMSIS/Include/cmsis_gcc.h **** /* Fallback for __has_builtin */
  35:Drivers/CMSIS/Include/cmsis_gcc.h **** #ifndef __has_builtin
  36:Drivers/CMSIS/Include/cmsis_gcc.h ****   #define __has_builtin(x) (0)
  37:Drivers/CMSIS/Include/cmsis_gcc.h **** #endif
  38:Drivers/CMSIS/Include/cmsis_gcc.h **** 
  39:Drivers/CMSIS/Include/cmsis_gcc.h **** /* CMSIS compiler specific defines */
  40:Drivers/CMSIS/Include/cmsis_gcc.h **** #ifndef   __ASM
  41:Drivers/CMSIS/Include/cmsis_gcc.h ****   #define __ASM                                  __asm
  42:Drivers/CMSIS/Include/cmsis_gcc.h **** #endif
  43:Drivers/CMSIS/Include/cmsis_gcc.h **** #ifndef   __INLINE
  44:Drivers/CMSIS/Include/cmsis_gcc.h ****   #define __INLINE                               inline
  45:Drivers/CMSIS/Include/cmsis_gcc.h **** #endif
  46:Drivers/CMSIS/Include/cmsis_gcc.h **** #ifndef   __STATIC_INLINE
  47:Drivers/CMSIS/Include/cmsis_gcc.h ****   #define __STATIC_INLINE                        static inline
  48:Drivers/CMSIS/Include/cmsis_gcc.h **** #endif
  49:Drivers/CMSIS/Include/cmsis_gcc.h **** #ifndef   __STATIC_FORCEINLINE                 
  50:Drivers/CMSIS/Include/cmsis_gcc.h ****   #define __STATIC_FORCEINLINE                   __attribute__((always_inline)) static inline
  51:Drivers/CMSIS/Include/cmsis_gcc.h **** #endif                                           
  52:Drivers/CMSIS/Include/cmsis_gcc.h **** #ifndef   __NO_RETURN
  53:Drivers/CMSIS/Include/cmsis_gcc.h ****   #define __NO_RETURN                            __attribute__((__noreturn__))
  54:Drivers/CMSIS/Include/cmsis_gcc.h **** #endif
  55:Drivers/CMSIS/Include/cmsis_gcc.h **** #ifndef   __USED
  56:Drivers/CMSIS/Include/cmsis_gcc.h ****   #define __USED                                 __attribute__((used))
  57:Drivers/CMSIS/Include/cmsis_gcc.h **** #endif
  58:Drivers/CMSIS/Include/cmsis_gcc.h **** #ifndef   __WEAK
  59:Drivers/CMSIS/Include/cmsis_gcc.h ****   #define __WEAK                                 __attribute__((weak))
  60:Drivers/CMSIS/Include/cmsis_gcc.h **** #endif
  61:Drivers/CMSIS/Include/cmsis_gcc.h **** #ifndef   __PACKED
  62:Drivers/CMSIS/Include/cmsis_gcc.h ****   #define __PACKED                               __attribute__((packed, aligned(1)))
  63:Drivers/CMSIS/Include/cmsis_gcc.h **** #endif
  64:Drivers/CMSIS/Include/cmsis_gcc.h **** #ifndef   __PACKED_STRUCT
  65:Drivers/CMSIS/Include/cmsis_gcc.h ****   #define __PACKED_STRUCT                        struct __attribute__((packed, aligned(1)))
  66:Drivers/CMSIS/Include/cmsis_gcc.h **** #endif
ARM GAS  /var/folders/lt/l_qrc8c54t93n_phsj7cf5tc0000gn/T//ccioc0h3.s 			page 4


  67:Drivers/CMSIS/Include/cmsis_gcc.h **** #ifndef   __PACKED_UNION
  68:Drivers/CMSIS/Include/cmsis_gcc.h ****   #define __PACKED_UNION                         union __attribute__((packed, aligned(1)))
  69:Drivers/CMSIS/Include/cmsis_gcc.h **** #endif
  70:Drivers/CMSIS/Include/cmsis_gcc.h **** #ifndef   __UNALIGNED_UINT32        /* deprecated */
  71:Drivers/CMSIS/Include/cmsis_gcc.h ****   #pragma GCC diagnostic push
  72:Drivers/CMSIS/Include/cmsis_gcc.h ****   #pragma GCC diagnostic ignored "-Wpacked"
  73:Drivers/CMSIS/Include/cmsis_gcc.h ****   #pragma GCC diagnostic ignored "-Wattributes"
  74:Drivers/CMSIS/Include/cmsis_gcc.h ****   struct __attribute__((packed)) T_UINT32 { uint32_t v; };
  75:Drivers/CMSIS/Include/cmsis_gcc.h ****   #pragma GCC diagnostic pop
  76:Drivers/CMSIS/Include/cmsis_gcc.h ****   #define __UNALIGNED_UINT32(x)                  (((struct T_UINT32 *)(x))->v)
  77:Drivers/CMSIS/Include/cmsis_gcc.h **** #endif
  78:Drivers/CMSIS/Include/cmsis_gcc.h **** #ifndef   __UNALIGNED_UINT16_WRITE
  79:Drivers/CMSIS/Include/cmsis_gcc.h ****   #pragma GCC diagnostic push
  80:Drivers/CMSIS/Include/cmsis_gcc.h ****   #pragma GCC diagnostic ignored "-Wpacked"
  81:Drivers/CMSIS/Include/cmsis_gcc.h ****   #pragma GCC diagnostic ignored "-Wattributes"
  82:Drivers/CMSIS/Include/cmsis_gcc.h ****   __PACKED_STRUCT T_UINT16_WRITE { uint16_t v; };
  83:Drivers/CMSIS/Include/cmsis_gcc.h ****   #pragma GCC diagnostic pop
  84:Drivers/CMSIS/Include/cmsis_gcc.h ****   #define __UNALIGNED_UINT16_WRITE(addr, val)    (void)((((struct T_UINT16_WRITE *)(void *)(addr))-
  85:Drivers/CMSIS/Include/cmsis_gcc.h **** #endif
  86:Drivers/CMSIS/Include/cmsis_gcc.h **** #ifndef   __UNALIGNED_UINT16_READ
  87:Drivers/CMSIS/Include/cmsis_gcc.h ****   #pragma GCC diagnostic push
  88:Drivers/CMSIS/Include/cmsis_gcc.h ****   #pragma GCC diagnostic ignored "-Wpacked"
  89:Drivers/CMSIS/Include/cmsis_gcc.h ****   #pragma GCC diagnostic ignored "-Wattributes"
  90:Drivers/CMSIS/Include/cmsis_gcc.h ****   __PACKED_STRUCT T_UINT16_READ { uint16_t v; };
  91:Drivers/CMSIS/Include/cmsis_gcc.h ****   #pragma GCC diagnostic pop
  92:Drivers/CMSIS/Include/cmsis_gcc.h ****   #define __UNALIGNED_UINT16_READ(addr)          (((const struct T_UINT16_READ *)(const void *)(add
  93:Drivers/CMSIS/Include/cmsis_gcc.h **** #endif
  94:Drivers/CMSIS/Include/cmsis_gcc.h **** #ifndef   __UNALIGNED_UINT32_WRITE
  95:Drivers/CMSIS/Include/cmsis_gcc.h ****   #pragma GCC diagnostic push
  96:Drivers/CMSIS/Include/cmsis_gcc.h ****   #pragma GCC diagnostic ignored "-Wpacked"
  97:Drivers/CMSIS/Include/cmsis_gcc.h ****   #pragma GCC diagnostic ignored "-Wattributes"
  98:Drivers/CMSIS/Include/cmsis_gcc.h ****   __PACKED_STRUCT T_UINT32_WRITE { uint32_t v; };
  99:Drivers/CMSIS/Include/cmsis_gcc.h ****   #pragma GCC diagnostic pop
 100:Drivers/CMSIS/Include/cmsis_gcc.h ****   #define __UNALIGNED_UINT32_WRITE(addr, val)    (void)((((struct T_UINT32_WRITE *)(void *)(addr))-
 101:Drivers/CMSIS/Include/cmsis_gcc.h **** #endif
 102:Drivers/CMSIS/Include/cmsis_gcc.h **** #ifndef   __UNALIGNED_UINT32_READ
 103:Drivers/CMSIS/Include/cmsis_gcc.h ****   #pragma GCC diagnostic push
 104:Drivers/CMSIS/Include/cmsis_gcc.h ****   #pragma GCC diagnostic ignored "-Wpacked"
 105:Drivers/CMSIS/Include/cmsis_gcc.h ****   #pragma GCC diagnostic ignored "-Wattributes"
 106:Drivers/CMSIS/Include/cmsis_gcc.h ****   __PACKED_STRUCT T_UINT32_READ { uint32_t v; };
 107:Drivers/CMSIS/Include/cmsis_gcc.h ****   #pragma GCC diagnostic pop
 108:Drivers/CMSIS/Include/cmsis_gcc.h ****   #define __UNALIGNED_UINT32_READ(addr)          (((const struct T_UINT32_READ *)(const void *)(add
 109:Drivers/CMSIS/Include/cmsis_gcc.h **** #endif
 110:Drivers/CMSIS/Include/cmsis_gcc.h **** #ifndef   __ALIGNED
 111:Drivers/CMSIS/Include/cmsis_gcc.h ****   #define __ALIGNED(x)                           __attribute__((aligned(x)))
 112:Drivers/CMSIS/Include/cmsis_gcc.h **** #endif
 113:Drivers/CMSIS/Include/cmsis_gcc.h **** #ifndef   __RESTRICT
 114:Drivers/CMSIS/Include/cmsis_gcc.h ****   #define __RESTRICT                             __restrict
 115:Drivers/CMSIS/Include/cmsis_gcc.h **** #endif
 116:Drivers/CMSIS/Include/cmsis_gcc.h **** #ifndef   __COMPILER_BARRIER
 117:Drivers/CMSIS/Include/cmsis_gcc.h ****   #define __COMPILER_BARRIER()                   __ASM volatile("":::"memory")
 118:Drivers/CMSIS/Include/cmsis_gcc.h **** #endif
 119:Drivers/CMSIS/Include/cmsis_gcc.h **** 
 120:Drivers/CMSIS/Include/cmsis_gcc.h **** /* #########################  Startup and Lowlevel Init  ######################## */
 121:Drivers/CMSIS/Include/cmsis_gcc.h **** 
 122:Drivers/CMSIS/Include/cmsis_gcc.h **** #ifndef __PROGRAM_START
 123:Drivers/CMSIS/Include/cmsis_gcc.h **** 
ARM GAS  /var/folders/lt/l_qrc8c54t93n_phsj7cf5tc0000gn/T//ccioc0h3.s 			page 5


 124:Drivers/CMSIS/Include/cmsis_gcc.h **** /**
 125:Drivers/CMSIS/Include/cmsis_gcc.h ****   \brief   Initializes data and bss sections
 126:Drivers/CMSIS/Include/cmsis_gcc.h ****   \details This default implementations initialized all data and additional bss
 127:Drivers/CMSIS/Include/cmsis_gcc.h ****            sections relying on .copy.table and .zero.table specified properly
 128:Drivers/CMSIS/Include/cmsis_gcc.h ****            in the used linker script.
 129:Drivers/CMSIS/Include/cmsis_gcc.h ****   
 130:Drivers/CMSIS/Include/cmsis_gcc.h ****  */
 131:Drivers/CMSIS/Include/cmsis_gcc.h **** __STATIC_FORCEINLINE __NO_RETURN void __cmsis_start(void)
 132:Drivers/CMSIS/Include/cmsis_gcc.h **** {
 133:Drivers/CMSIS/Include/cmsis_gcc.h ****   extern void _start(void) __NO_RETURN;
 134:Drivers/CMSIS/Include/cmsis_gcc.h ****   
 135:Drivers/CMSIS/Include/cmsis_gcc.h ****   typedef struct {
 136:Drivers/CMSIS/Include/cmsis_gcc.h ****     uint32_t const* src;
 137:Drivers/CMSIS/Include/cmsis_gcc.h ****     uint32_t* dest;
 138:Drivers/CMSIS/Include/cmsis_gcc.h ****     uint32_t  wlen;
 139:Drivers/CMSIS/Include/cmsis_gcc.h ****   } __copy_table_t;
 140:Drivers/CMSIS/Include/cmsis_gcc.h ****   
 141:Drivers/CMSIS/Include/cmsis_gcc.h ****   typedef struct {
 142:Drivers/CMSIS/Include/cmsis_gcc.h ****     uint32_t* dest;
 143:Drivers/CMSIS/Include/cmsis_gcc.h ****     uint32_t  wlen;
 144:Drivers/CMSIS/Include/cmsis_gcc.h ****   } __zero_table_t;
 145:Drivers/CMSIS/Include/cmsis_gcc.h ****   
 146:Drivers/CMSIS/Include/cmsis_gcc.h ****   extern const __copy_table_t __copy_table_start__;
 147:Drivers/CMSIS/Include/cmsis_gcc.h ****   extern const __copy_table_t __copy_table_end__;
 148:Drivers/CMSIS/Include/cmsis_gcc.h ****   extern const __zero_table_t __zero_table_start__;
 149:Drivers/CMSIS/Include/cmsis_gcc.h ****   extern const __zero_table_t __zero_table_end__;
 150:Drivers/CMSIS/Include/cmsis_gcc.h **** 
 151:Drivers/CMSIS/Include/cmsis_gcc.h ****   for (__copy_table_t const* pTable = &__copy_table_start__; pTable < &__copy_table_end__; ++pTable
 152:Drivers/CMSIS/Include/cmsis_gcc.h ****     for(uint32_t i=0u; i<pTable->wlen; ++i) {
 153:Drivers/CMSIS/Include/cmsis_gcc.h ****       pTable->dest[i] = pTable->src[i];
 154:Drivers/CMSIS/Include/cmsis_gcc.h ****     }
 155:Drivers/CMSIS/Include/cmsis_gcc.h ****   }
 156:Drivers/CMSIS/Include/cmsis_gcc.h ****  
 157:Drivers/CMSIS/Include/cmsis_gcc.h ****   for (__zero_table_t const* pTable = &__zero_table_start__; pTable < &__zero_table_end__; ++pTable
 158:Drivers/CMSIS/Include/cmsis_gcc.h ****     for(uint32_t i=0u; i<pTable->wlen; ++i) {
 159:Drivers/CMSIS/Include/cmsis_gcc.h ****       pTable->dest[i] = 0u;
 160:Drivers/CMSIS/Include/cmsis_gcc.h ****     }
 161:Drivers/CMSIS/Include/cmsis_gcc.h ****   }
 162:Drivers/CMSIS/Include/cmsis_gcc.h ****  
 163:Drivers/CMSIS/Include/cmsis_gcc.h ****   _start();
 164:Drivers/CMSIS/Include/cmsis_gcc.h **** }
 165:Drivers/CMSIS/Include/cmsis_gcc.h ****   
 166:Drivers/CMSIS/Include/cmsis_gcc.h **** #define __PROGRAM_START           __cmsis_start
 167:Drivers/CMSIS/Include/cmsis_gcc.h **** #endif
 168:Drivers/CMSIS/Include/cmsis_gcc.h **** 
 169:Drivers/CMSIS/Include/cmsis_gcc.h **** #ifndef __INITIAL_SP
 170:Drivers/CMSIS/Include/cmsis_gcc.h **** #define __INITIAL_SP              __StackTop
 171:Drivers/CMSIS/Include/cmsis_gcc.h **** #endif
 172:Drivers/CMSIS/Include/cmsis_gcc.h **** 
 173:Drivers/CMSIS/Include/cmsis_gcc.h **** #ifndef __STACK_LIMIT
 174:Drivers/CMSIS/Include/cmsis_gcc.h **** #define __STACK_LIMIT             __StackLimit
 175:Drivers/CMSIS/Include/cmsis_gcc.h **** #endif
 176:Drivers/CMSIS/Include/cmsis_gcc.h **** 
 177:Drivers/CMSIS/Include/cmsis_gcc.h **** #ifndef __VECTOR_TABLE
 178:Drivers/CMSIS/Include/cmsis_gcc.h **** #define __VECTOR_TABLE            __Vectors
 179:Drivers/CMSIS/Include/cmsis_gcc.h **** #endif
 180:Drivers/CMSIS/Include/cmsis_gcc.h **** 
ARM GAS  /var/folders/lt/l_qrc8c54t93n_phsj7cf5tc0000gn/T//ccioc0h3.s 			page 6


 181:Drivers/CMSIS/Include/cmsis_gcc.h **** #ifndef __VECTOR_TABLE_ATTRIBUTE
 182:Drivers/CMSIS/Include/cmsis_gcc.h **** #define __VECTOR_TABLE_ATTRIBUTE  __attribute((used, section(".vectors")))
 183:Drivers/CMSIS/Include/cmsis_gcc.h **** #endif
 184:Drivers/CMSIS/Include/cmsis_gcc.h **** 
 185:Drivers/CMSIS/Include/cmsis_gcc.h **** /* ###########################  Core Function Access  ########################### */
 186:Drivers/CMSIS/Include/cmsis_gcc.h **** /** \ingroup  CMSIS_Core_FunctionInterface
 187:Drivers/CMSIS/Include/cmsis_gcc.h ****     \defgroup CMSIS_Core_RegAccFunctions CMSIS Core Register Access Functions
 188:Drivers/CMSIS/Include/cmsis_gcc.h ****   @{
 189:Drivers/CMSIS/Include/cmsis_gcc.h ****  */
 190:Drivers/CMSIS/Include/cmsis_gcc.h **** 
 191:Drivers/CMSIS/Include/cmsis_gcc.h **** /**
 192:Drivers/CMSIS/Include/cmsis_gcc.h ****   \brief   Enable IRQ Interrupts
 193:Drivers/CMSIS/Include/cmsis_gcc.h ****   \details Enables IRQ interrupts by clearing the I-bit in the CPSR.
 194:Drivers/CMSIS/Include/cmsis_gcc.h ****            Can only be executed in Privileged modes.
 195:Drivers/CMSIS/Include/cmsis_gcc.h ****  */
 196:Drivers/CMSIS/Include/cmsis_gcc.h **** __STATIC_FORCEINLINE void __enable_irq(void)
 197:Drivers/CMSIS/Include/cmsis_gcc.h **** {
 198:Drivers/CMSIS/Include/cmsis_gcc.h ****   __ASM volatile ("cpsie i" : : : "memory");
 199:Drivers/CMSIS/Include/cmsis_gcc.h **** }
 200:Drivers/CMSIS/Include/cmsis_gcc.h **** 
 201:Drivers/CMSIS/Include/cmsis_gcc.h **** 
 202:Drivers/CMSIS/Include/cmsis_gcc.h **** /**
 203:Drivers/CMSIS/Include/cmsis_gcc.h ****   \brief   Disable IRQ Interrupts
 204:Drivers/CMSIS/Include/cmsis_gcc.h ****   \details Disables IRQ interrupts by setting the I-bit in the CPSR.
 205:Drivers/CMSIS/Include/cmsis_gcc.h ****            Can only be executed in Privileged modes.
 206:Drivers/CMSIS/Include/cmsis_gcc.h ****  */
 207:Drivers/CMSIS/Include/cmsis_gcc.h **** __STATIC_FORCEINLINE void __disable_irq(void)
 208:Drivers/CMSIS/Include/cmsis_gcc.h **** {
 209:Drivers/CMSIS/Include/cmsis_gcc.h ****   __ASM volatile ("cpsid i" : : : "memory");
 210:Drivers/CMSIS/Include/cmsis_gcc.h **** }
 211:Drivers/CMSIS/Include/cmsis_gcc.h **** 
 212:Drivers/CMSIS/Include/cmsis_gcc.h **** 
 213:Drivers/CMSIS/Include/cmsis_gcc.h **** /**
 214:Drivers/CMSIS/Include/cmsis_gcc.h ****   \brief   Get Control Register
 215:Drivers/CMSIS/Include/cmsis_gcc.h ****   \details Returns the content of the Control Register.
 216:Drivers/CMSIS/Include/cmsis_gcc.h ****   \return               Control Register value
 217:Drivers/CMSIS/Include/cmsis_gcc.h ****  */
 218:Drivers/CMSIS/Include/cmsis_gcc.h **** __STATIC_FORCEINLINE uint32_t __get_CONTROL(void)
 219:Drivers/CMSIS/Include/cmsis_gcc.h **** {
 220:Drivers/CMSIS/Include/cmsis_gcc.h ****   uint32_t result;
 221:Drivers/CMSIS/Include/cmsis_gcc.h **** 
 222:Drivers/CMSIS/Include/cmsis_gcc.h ****   __ASM volatile ("MRS %0, control" : "=r" (result) );
 223:Drivers/CMSIS/Include/cmsis_gcc.h ****   return(result);
 224:Drivers/CMSIS/Include/cmsis_gcc.h **** }
 225:Drivers/CMSIS/Include/cmsis_gcc.h **** 
 226:Drivers/CMSIS/Include/cmsis_gcc.h **** 
 227:Drivers/CMSIS/Include/cmsis_gcc.h **** #if (defined (__ARM_FEATURE_CMSE ) && (__ARM_FEATURE_CMSE == 3))
 228:Drivers/CMSIS/Include/cmsis_gcc.h **** /**
 229:Drivers/CMSIS/Include/cmsis_gcc.h ****   \brief   Get Control Register (non-secure)
 230:Drivers/CMSIS/Include/cmsis_gcc.h ****   \details Returns the content of the non-secure Control Register when in secure mode.
 231:Drivers/CMSIS/Include/cmsis_gcc.h ****   \return               non-secure Control Register value
 232:Drivers/CMSIS/Include/cmsis_gcc.h ****  */
 233:Drivers/CMSIS/Include/cmsis_gcc.h **** __STATIC_FORCEINLINE uint32_t __TZ_get_CONTROL_NS(void)
 234:Drivers/CMSIS/Include/cmsis_gcc.h **** {
 235:Drivers/CMSIS/Include/cmsis_gcc.h ****   uint32_t result;
 236:Drivers/CMSIS/Include/cmsis_gcc.h **** 
 237:Drivers/CMSIS/Include/cmsis_gcc.h ****   __ASM volatile ("MRS %0, control_ns" : "=r" (result) );
ARM GAS  /var/folders/lt/l_qrc8c54t93n_phsj7cf5tc0000gn/T//ccioc0h3.s 			page 7


 238:Drivers/CMSIS/Include/cmsis_gcc.h ****   return(result);
 239:Drivers/CMSIS/Include/cmsis_gcc.h **** }
 240:Drivers/CMSIS/Include/cmsis_gcc.h **** #endif
 241:Drivers/CMSIS/Include/cmsis_gcc.h **** 
 242:Drivers/CMSIS/Include/cmsis_gcc.h **** 
 243:Drivers/CMSIS/Include/cmsis_gcc.h **** /**
 244:Drivers/CMSIS/Include/cmsis_gcc.h ****   \brief   Set Control Register
 245:Drivers/CMSIS/Include/cmsis_gcc.h ****   \details Writes the given value to the Control Register.
 246:Drivers/CMSIS/Include/cmsis_gcc.h ****   \param [in]    control  Control Register value to set
 247:Drivers/CMSIS/Include/cmsis_gcc.h ****  */
 248:Drivers/CMSIS/Include/cmsis_gcc.h **** __STATIC_FORCEINLINE void __set_CONTROL(uint32_t control)
 249:Drivers/CMSIS/Include/cmsis_gcc.h **** {
 250:Drivers/CMSIS/Include/cmsis_gcc.h ****   __ASM volatile ("MSR control, %0" : : "r" (control) : "memory");
 251:Drivers/CMSIS/Include/cmsis_gcc.h **** }
 252:Drivers/CMSIS/Include/cmsis_gcc.h **** 
 253:Drivers/CMSIS/Include/cmsis_gcc.h **** 
 254:Drivers/CMSIS/Include/cmsis_gcc.h **** #if (defined (__ARM_FEATURE_CMSE ) && (__ARM_FEATURE_CMSE == 3))
 255:Drivers/CMSIS/Include/cmsis_gcc.h **** /**
 256:Drivers/CMSIS/Include/cmsis_gcc.h ****   \brief   Set Control Register (non-secure)
 257:Drivers/CMSIS/Include/cmsis_gcc.h ****   \details Writes the given value to the non-secure Control Register when in secure state.
 258:Drivers/CMSIS/Include/cmsis_gcc.h ****   \param [in]    control  Control Register value to set
 259:Drivers/CMSIS/Include/cmsis_gcc.h ****  */
 260:Drivers/CMSIS/Include/cmsis_gcc.h **** __STATIC_FORCEINLINE void __TZ_set_CONTROL_NS(uint32_t control)
 261:Drivers/CMSIS/Include/cmsis_gcc.h **** {
 262:Drivers/CMSIS/Include/cmsis_gcc.h ****   __ASM volatile ("MSR control_ns, %0" : : "r" (control) : "memory");
 263:Drivers/CMSIS/Include/cmsis_gcc.h **** }
 264:Drivers/CMSIS/Include/cmsis_gcc.h **** #endif
 265:Drivers/CMSIS/Include/cmsis_gcc.h **** 
 266:Drivers/CMSIS/Include/cmsis_gcc.h **** 
 267:Drivers/CMSIS/Include/cmsis_gcc.h **** /**
 268:Drivers/CMSIS/Include/cmsis_gcc.h ****   \brief   Get IPSR Register
 269:Drivers/CMSIS/Include/cmsis_gcc.h ****   \details Returns the content of the IPSR Register.
 270:Drivers/CMSIS/Include/cmsis_gcc.h ****   \return               IPSR Register value
 271:Drivers/CMSIS/Include/cmsis_gcc.h ****  */
 272:Drivers/CMSIS/Include/cmsis_gcc.h **** __STATIC_FORCEINLINE uint32_t __get_IPSR(void)
 273:Drivers/CMSIS/Include/cmsis_gcc.h **** {
 274:Drivers/CMSIS/Include/cmsis_gcc.h ****   uint32_t result;
 275:Drivers/CMSIS/Include/cmsis_gcc.h **** 
 276:Drivers/CMSIS/Include/cmsis_gcc.h ****   __ASM volatile ("MRS %0, ipsr" : "=r" (result) );
 277:Drivers/CMSIS/Include/cmsis_gcc.h ****   return(result);
 278:Drivers/CMSIS/Include/cmsis_gcc.h **** }
 279:Drivers/CMSIS/Include/cmsis_gcc.h **** 
 280:Drivers/CMSIS/Include/cmsis_gcc.h **** 
 281:Drivers/CMSIS/Include/cmsis_gcc.h **** /**
 282:Drivers/CMSIS/Include/cmsis_gcc.h ****   \brief   Get APSR Register
 283:Drivers/CMSIS/Include/cmsis_gcc.h ****   \details Returns the content of the APSR Register.
 284:Drivers/CMSIS/Include/cmsis_gcc.h ****   \return               APSR Register value
 285:Drivers/CMSIS/Include/cmsis_gcc.h ****  */
 286:Drivers/CMSIS/Include/cmsis_gcc.h **** __STATIC_FORCEINLINE uint32_t __get_APSR(void)
 287:Drivers/CMSIS/Include/cmsis_gcc.h **** {
 288:Drivers/CMSIS/Include/cmsis_gcc.h ****   uint32_t result;
 289:Drivers/CMSIS/Include/cmsis_gcc.h **** 
 290:Drivers/CMSIS/Include/cmsis_gcc.h ****   __ASM volatile ("MRS %0, apsr" : "=r" (result) );
 291:Drivers/CMSIS/Include/cmsis_gcc.h ****   return(result);
 292:Drivers/CMSIS/Include/cmsis_gcc.h **** }
 293:Drivers/CMSIS/Include/cmsis_gcc.h **** 
 294:Drivers/CMSIS/Include/cmsis_gcc.h **** 
ARM GAS  /var/folders/lt/l_qrc8c54t93n_phsj7cf5tc0000gn/T//ccioc0h3.s 			page 8


 295:Drivers/CMSIS/Include/cmsis_gcc.h **** /**
 296:Drivers/CMSIS/Include/cmsis_gcc.h ****   \brief   Get xPSR Register
 297:Drivers/CMSIS/Include/cmsis_gcc.h ****   \details Returns the content of the xPSR Register.
 298:Drivers/CMSIS/Include/cmsis_gcc.h ****   \return               xPSR Register value
 299:Drivers/CMSIS/Include/cmsis_gcc.h ****  */
 300:Drivers/CMSIS/Include/cmsis_gcc.h **** __STATIC_FORCEINLINE uint32_t __get_xPSR(void)
 301:Drivers/CMSIS/Include/cmsis_gcc.h **** {
 302:Drivers/CMSIS/Include/cmsis_gcc.h ****   uint32_t result;
 303:Drivers/CMSIS/Include/cmsis_gcc.h **** 
 304:Drivers/CMSIS/Include/cmsis_gcc.h ****   __ASM volatile ("MRS %0, xpsr" : "=r" (result) );
 305:Drivers/CMSIS/Include/cmsis_gcc.h ****   return(result);
 306:Drivers/CMSIS/Include/cmsis_gcc.h **** }
 307:Drivers/CMSIS/Include/cmsis_gcc.h **** 
 308:Drivers/CMSIS/Include/cmsis_gcc.h **** 
 309:Drivers/CMSIS/Include/cmsis_gcc.h **** /**
 310:Drivers/CMSIS/Include/cmsis_gcc.h ****   \brief   Get Process Stack Pointer
 311:Drivers/CMSIS/Include/cmsis_gcc.h ****   \details Returns the current value of the Process Stack Pointer (PSP).
 312:Drivers/CMSIS/Include/cmsis_gcc.h ****   \return               PSP Register value
 313:Drivers/CMSIS/Include/cmsis_gcc.h ****  */
 314:Drivers/CMSIS/Include/cmsis_gcc.h **** __STATIC_FORCEINLINE uint32_t __get_PSP(void)
 315:Drivers/CMSIS/Include/cmsis_gcc.h **** {
 316:Drivers/CMSIS/Include/cmsis_gcc.h ****   uint32_t result;
 317:Drivers/CMSIS/Include/cmsis_gcc.h **** 
 318:Drivers/CMSIS/Include/cmsis_gcc.h ****   __ASM volatile ("MRS %0, psp"  : "=r" (result) );
 319:Drivers/CMSIS/Include/cmsis_gcc.h ****   return(result);
 320:Drivers/CMSIS/Include/cmsis_gcc.h **** }
 321:Drivers/CMSIS/Include/cmsis_gcc.h **** 
 322:Drivers/CMSIS/Include/cmsis_gcc.h **** 
 323:Drivers/CMSIS/Include/cmsis_gcc.h **** #if (defined (__ARM_FEATURE_CMSE ) && (__ARM_FEATURE_CMSE == 3))
 324:Drivers/CMSIS/Include/cmsis_gcc.h **** /**
 325:Drivers/CMSIS/Include/cmsis_gcc.h ****   \brief   Get Process Stack Pointer (non-secure)
 326:Drivers/CMSIS/Include/cmsis_gcc.h ****   \details Returns the current value of the non-secure Process Stack Pointer (PSP) when in secure s
 327:Drivers/CMSIS/Include/cmsis_gcc.h ****   \return               PSP Register value
 328:Drivers/CMSIS/Include/cmsis_gcc.h ****  */
 329:Drivers/CMSIS/Include/cmsis_gcc.h **** __STATIC_FORCEINLINE uint32_t __TZ_get_PSP_NS(void)
 330:Drivers/CMSIS/Include/cmsis_gcc.h **** {
 331:Drivers/CMSIS/Include/cmsis_gcc.h ****   uint32_t result;
 332:Drivers/CMSIS/Include/cmsis_gcc.h **** 
 333:Drivers/CMSIS/Include/cmsis_gcc.h ****   __ASM volatile ("MRS %0, psp_ns"  : "=r" (result) );
 334:Drivers/CMSIS/Include/cmsis_gcc.h ****   return(result);
 335:Drivers/CMSIS/Include/cmsis_gcc.h **** }
 336:Drivers/CMSIS/Include/cmsis_gcc.h **** #endif
 337:Drivers/CMSIS/Include/cmsis_gcc.h **** 
 338:Drivers/CMSIS/Include/cmsis_gcc.h **** 
 339:Drivers/CMSIS/Include/cmsis_gcc.h **** /**
 340:Drivers/CMSIS/Include/cmsis_gcc.h ****   \brief   Set Process Stack Pointer
 341:Drivers/CMSIS/Include/cmsis_gcc.h ****   \details Assigns the given value to the Process Stack Pointer (PSP).
 342:Drivers/CMSIS/Include/cmsis_gcc.h ****   \param [in]    topOfProcStack  Process Stack Pointer value to set
 343:Drivers/CMSIS/Include/cmsis_gcc.h ****  */
 344:Drivers/CMSIS/Include/cmsis_gcc.h **** __STATIC_FORCEINLINE void __set_PSP(uint32_t topOfProcStack)
 345:Drivers/CMSIS/Include/cmsis_gcc.h **** {
 346:Drivers/CMSIS/Include/cmsis_gcc.h ****   __ASM volatile ("MSR psp, %0" : : "r" (topOfProcStack) : );
 347:Drivers/CMSIS/Include/cmsis_gcc.h **** }
 348:Drivers/CMSIS/Include/cmsis_gcc.h **** 
 349:Drivers/CMSIS/Include/cmsis_gcc.h **** 
 350:Drivers/CMSIS/Include/cmsis_gcc.h **** #if (defined (__ARM_FEATURE_CMSE ) && (__ARM_FEATURE_CMSE == 3))
 351:Drivers/CMSIS/Include/cmsis_gcc.h **** /**
ARM GAS  /var/folders/lt/l_qrc8c54t93n_phsj7cf5tc0000gn/T//ccioc0h3.s 			page 9


 352:Drivers/CMSIS/Include/cmsis_gcc.h ****   \brief   Set Process Stack Pointer (non-secure)
 353:Drivers/CMSIS/Include/cmsis_gcc.h ****   \details Assigns the given value to the non-secure Process Stack Pointer (PSP) when in secure sta
 354:Drivers/CMSIS/Include/cmsis_gcc.h ****   \param [in]    topOfProcStack  Process Stack Pointer value to set
 355:Drivers/CMSIS/Include/cmsis_gcc.h ****  */
 356:Drivers/CMSIS/Include/cmsis_gcc.h **** __STATIC_FORCEINLINE void __TZ_set_PSP_NS(uint32_t topOfProcStack)
 357:Drivers/CMSIS/Include/cmsis_gcc.h **** {
 358:Drivers/CMSIS/Include/cmsis_gcc.h ****   __ASM volatile ("MSR psp_ns, %0" : : "r" (topOfProcStack) : );
 359:Drivers/CMSIS/Include/cmsis_gcc.h **** }
 360:Drivers/CMSIS/Include/cmsis_gcc.h **** #endif
 361:Drivers/CMSIS/Include/cmsis_gcc.h **** 
 362:Drivers/CMSIS/Include/cmsis_gcc.h **** 
 363:Drivers/CMSIS/Include/cmsis_gcc.h **** /**
 364:Drivers/CMSIS/Include/cmsis_gcc.h ****   \brief   Get Main Stack Pointer
 365:Drivers/CMSIS/Include/cmsis_gcc.h ****   \details Returns the current value of the Main Stack Pointer (MSP).
 366:Drivers/CMSIS/Include/cmsis_gcc.h ****   \return               MSP Register value
 367:Drivers/CMSIS/Include/cmsis_gcc.h ****  */
 368:Drivers/CMSIS/Include/cmsis_gcc.h **** __STATIC_FORCEINLINE uint32_t __get_MSP(void)
 369:Drivers/CMSIS/Include/cmsis_gcc.h **** {
 370:Drivers/CMSIS/Include/cmsis_gcc.h ****   uint32_t result;
 371:Drivers/CMSIS/Include/cmsis_gcc.h **** 
 372:Drivers/CMSIS/Include/cmsis_gcc.h ****   __ASM volatile ("MRS %0, msp" : "=r" (result) );
 373:Drivers/CMSIS/Include/cmsis_gcc.h ****   return(result);
 374:Drivers/CMSIS/Include/cmsis_gcc.h **** }
 375:Drivers/CMSIS/Include/cmsis_gcc.h **** 
 376:Drivers/CMSIS/Include/cmsis_gcc.h **** 
 377:Drivers/CMSIS/Include/cmsis_gcc.h **** #if (defined (__ARM_FEATURE_CMSE ) && (__ARM_FEATURE_CMSE == 3))
 378:Drivers/CMSIS/Include/cmsis_gcc.h **** /**
 379:Drivers/CMSIS/Include/cmsis_gcc.h ****   \brief   Get Main Stack Pointer (non-secure)
 380:Drivers/CMSIS/Include/cmsis_gcc.h ****   \details Returns the current value of the non-secure Main Stack Pointer (MSP) when in secure stat
 381:Drivers/CMSIS/Include/cmsis_gcc.h ****   \return               MSP Register value
 382:Drivers/CMSIS/Include/cmsis_gcc.h ****  */
 383:Drivers/CMSIS/Include/cmsis_gcc.h **** __STATIC_FORCEINLINE uint32_t __TZ_get_MSP_NS(void)
 384:Drivers/CMSIS/Include/cmsis_gcc.h **** {
 385:Drivers/CMSIS/Include/cmsis_gcc.h ****   uint32_t result;
 386:Drivers/CMSIS/Include/cmsis_gcc.h **** 
 387:Drivers/CMSIS/Include/cmsis_gcc.h ****   __ASM volatile ("MRS %0, msp_ns" : "=r" (result) );
 388:Drivers/CMSIS/Include/cmsis_gcc.h ****   return(result);
 389:Drivers/CMSIS/Include/cmsis_gcc.h **** }
 390:Drivers/CMSIS/Include/cmsis_gcc.h **** #endif
 391:Drivers/CMSIS/Include/cmsis_gcc.h **** 
 392:Drivers/CMSIS/Include/cmsis_gcc.h **** 
 393:Drivers/CMSIS/Include/cmsis_gcc.h **** /**
 394:Drivers/CMSIS/Include/cmsis_gcc.h ****   \brief   Set Main Stack Pointer
 395:Drivers/CMSIS/Include/cmsis_gcc.h ****   \details Assigns the given value to the Main Stack Pointer (MSP).
 396:Drivers/CMSIS/Include/cmsis_gcc.h ****   \param [in]    topOfMainStack  Main Stack Pointer value to set
 397:Drivers/CMSIS/Include/cmsis_gcc.h ****  */
 398:Drivers/CMSIS/Include/cmsis_gcc.h **** __STATIC_FORCEINLINE void __set_MSP(uint32_t topOfMainStack)
 399:Drivers/CMSIS/Include/cmsis_gcc.h **** {
 400:Drivers/CMSIS/Include/cmsis_gcc.h ****   __ASM volatile ("MSR msp, %0" : : "r" (topOfMainStack) : );
 401:Drivers/CMSIS/Include/cmsis_gcc.h **** }
 402:Drivers/CMSIS/Include/cmsis_gcc.h **** 
 403:Drivers/CMSIS/Include/cmsis_gcc.h **** 
 404:Drivers/CMSIS/Include/cmsis_gcc.h **** #if (defined (__ARM_FEATURE_CMSE ) && (__ARM_FEATURE_CMSE == 3))
 405:Drivers/CMSIS/Include/cmsis_gcc.h **** /**
 406:Drivers/CMSIS/Include/cmsis_gcc.h ****   \brief   Set Main Stack Pointer (non-secure)
 407:Drivers/CMSIS/Include/cmsis_gcc.h ****   \details Assigns the given value to the non-secure Main Stack Pointer (MSP) when in secure state.
 408:Drivers/CMSIS/Include/cmsis_gcc.h ****   \param [in]    topOfMainStack  Main Stack Pointer value to set
ARM GAS  /var/folders/lt/l_qrc8c54t93n_phsj7cf5tc0000gn/T//ccioc0h3.s 			page 10


 409:Drivers/CMSIS/Include/cmsis_gcc.h ****  */
 410:Drivers/CMSIS/Include/cmsis_gcc.h **** __STATIC_FORCEINLINE void __TZ_set_MSP_NS(uint32_t topOfMainStack)
 411:Drivers/CMSIS/Include/cmsis_gcc.h **** {
 412:Drivers/CMSIS/Include/cmsis_gcc.h ****   __ASM volatile ("MSR msp_ns, %0" : : "r" (topOfMainStack) : );
 413:Drivers/CMSIS/Include/cmsis_gcc.h **** }
 414:Drivers/CMSIS/Include/cmsis_gcc.h **** #endif
 415:Drivers/CMSIS/Include/cmsis_gcc.h **** 
 416:Drivers/CMSIS/Include/cmsis_gcc.h **** 
 417:Drivers/CMSIS/Include/cmsis_gcc.h **** #if (defined (__ARM_FEATURE_CMSE ) && (__ARM_FEATURE_CMSE == 3))
 418:Drivers/CMSIS/Include/cmsis_gcc.h **** /**
 419:Drivers/CMSIS/Include/cmsis_gcc.h ****   \brief   Get Stack Pointer (non-secure)
 420:Drivers/CMSIS/Include/cmsis_gcc.h ****   \details Returns the current value of the non-secure Stack Pointer (SP) when in secure state.
 421:Drivers/CMSIS/Include/cmsis_gcc.h ****   \return               SP Register value
 422:Drivers/CMSIS/Include/cmsis_gcc.h ****  */
 423:Drivers/CMSIS/Include/cmsis_gcc.h **** __STATIC_FORCEINLINE uint32_t __TZ_get_SP_NS(void)
 424:Drivers/CMSIS/Include/cmsis_gcc.h **** {
 425:Drivers/CMSIS/Include/cmsis_gcc.h ****   uint32_t result;
 426:Drivers/CMSIS/Include/cmsis_gcc.h **** 
 427:Drivers/CMSIS/Include/cmsis_gcc.h ****   __ASM volatile ("MRS %0, sp_ns" : "=r" (result) );
 428:Drivers/CMSIS/Include/cmsis_gcc.h ****   return(result);
 429:Drivers/CMSIS/Include/cmsis_gcc.h **** }
 430:Drivers/CMSIS/Include/cmsis_gcc.h **** 
 431:Drivers/CMSIS/Include/cmsis_gcc.h **** 
 432:Drivers/CMSIS/Include/cmsis_gcc.h **** /**
 433:Drivers/CMSIS/Include/cmsis_gcc.h ****   \brief   Set Stack Pointer (non-secure)
 434:Drivers/CMSIS/Include/cmsis_gcc.h ****   \details Assigns the given value to the non-secure Stack Pointer (SP) when in secure state.
 435:Drivers/CMSIS/Include/cmsis_gcc.h ****   \param [in]    topOfStack  Stack Pointer value to set
 436:Drivers/CMSIS/Include/cmsis_gcc.h ****  */
 437:Drivers/CMSIS/Include/cmsis_gcc.h **** __STATIC_FORCEINLINE void __TZ_set_SP_NS(uint32_t topOfStack)
 438:Drivers/CMSIS/Include/cmsis_gcc.h **** {
 439:Drivers/CMSIS/Include/cmsis_gcc.h ****   __ASM volatile ("MSR sp_ns, %0" : : "r" (topOfStack) : );
 440:Drivers/CMSIS/Include/cmsis_gcc.h **** }
 441:Drivers/CMSIS/Include/cmsis_gcc.h **** #endif
 442:Drivers/CMSIS/Include/cmsis_gcc.h **** 
 443:Drivers/CMSIS/Include/cmsis_gcc.h **** 
 444:Drivers/CMSIS/Include/cmsis_gcc.h **** /**
 445:Drivers/CMSIS/Include/cmsis_gcc.h ****   \brief   Get Priority Mask
 446:Drivers/CMSIS/Include/cmsis_gcc.h ****   \details Returns the current state of the priority mask bit from the Priority Mask Register.
 447:Drivers/CMSIS/Include/cmsis_gcc.h ****   \return               Priority Mask value
 448:Drivers/CMSIS/Include/cmsis_gcc.h ****  */
 449:Drivers/CMSIS/Include/cmsis_gcc.h **** __STATIC_FORCEINLINE uint32_t __get_PRIMASK(void)
  68              		.loc 2 449 31 view .LVU10
  69              	.LBB69:
 450:Drivers/CMSIS/Include/cmsis_gcc.h **** {
 451:Drivers/CMSIS/Include/cmsis_gcc.h ****   uint32_t result;
  70              		.loc 2 451 3 view .LVU11
 452:Drivers/CMSIS/Include/cmsis_gcc.h **** 
 453:Drivers/CMSIS/Include/cmsis_gcc.h ****   __ASM volatile ("MRS %0, primask" : "=r" (result) :: "memory");
  71              		.loc 2 453 3 view .LVU12
  72              		.syntax unified
  73              	@ 453 "Drivers/CMSIS/Include/cmsis_gcc.h" 1
  74 0000 EFF31083 		MRS r3, primask
  75              	@ 0 "" 2
  76              	.LVL2:
 454:Drivers/CMSIS/Include/cmsis_gcc.h ****   return(result);
  77              		.loc 2 454 3 view .LVU13
  78              		.loc 2 454 3 is_stmt 0 view .LVU14
ARM GAS  /var/folders/lt/l_qrc8c54t93n_phsj7cf5tc0000gn/T//ccioc0h3.s 			page 11


  79              		.thumb
  80              		.syntax unified
  81              	.LBE69:
  82              	.LBE68:
  42:Middlewares/ST/STM32_WPAN/utilities/stm_list.c ****   __disable_irq();                  /**< Disable all interrupts by setting PRIMASK bit on Cortex*/
  83              		.loc 1 42 3 is_stmt 1 view .LVU15
  84              	.LBB70:
  85              	.LBI70:
 207:Drivers/CMSIS/Include/cmsis_gcc.h **** {
  86              		.loc 2 207 27 view .LVU16
  87              	.LBB71:
 209:Drivers/CMSIS/Include/cmsis_gcc.h **** }
  88              		.loc 2 209 3 view .LVU17
  89              		.syntax unified
  90              	@ 209 "Drivers/CMSIS/Include/cmsis_gcc.h" 1
  91 0004 72B6     		cpsid i
  92              	@ 0 "" 2
  93              		.thumb
  94              		.syntax unified
  95              	.LBE71:
  96              	.LBE70:
  43:Middlewares/ST/STM32_WPAN/utilities/stm_list.c ****   if(listHead->next == listHead)
  97              		.loc 1 43 3 view .LVU18
  98              		.loc 1 43 14 is_stmt 0 view .LVU19
  99 0006 0268     		ldr	r2, [r0]	@ unaligned
 100              		.loc 1 43 5 view .LVU20
 101 0008 8242     		cmp	r2, r0
 102 000a 03D0     		beq	.L5
  44:Middlewares/ST/STM32_WPAN/utilities/stm_list.c ****   {
  45:Middlewares/ST/STM32_WPAN/utilities/stm_list.c ****     return_value = TRUE;
  46:Middlewares/ST/STM32_WPAN/utilities/stm_list.c ****   }
  47:Middlewares/ST/STM32_WPAN/utilities/stm_list.c ****   else
  48:Middlewares/ST/STM32_WPAN/utilities/stm_list.c ****   {
  49:Middlewares/ST/STM32_WPAN/utilities/stm_list.c ****     return_value = FALSE;
 103              		.loc 1 49 18 view .LVU21
 104 000c 0020     		movs	r0, #0
 105              	.LVL3:
 106              	.L3:
  50:Middlewares/ST/STM32_WPAN/utilities/stm_list.c ****   }
  51:Middlewares/ST/STM32_WPAN/utilities/stm_list.c ****   __set_PRIMASK(primask_bit);     /**< Restore PRIMASK bit*/
 107              		.loc 1 51 3 is_stmt 1 view .LVU22
 108              	.LBB72:
 109              	.LBI72:
 455:Drivers/CMSIS/Include/cmsis_gcc.h **** }
 456:Drivers/CMSIS/Include/cmsis_gcc.h **** 
 457:Drivers/CMSIS/Include/cmsis_gcc.h **** 
 458:Drivers/CMSIS/Include/cmsis_gcc.h **** #if (defined (__ARM_FEATURE_CMSE ) && (__ARM_FEATURE_CMSE == 3))
 459:Drivers/CMSIS/Include/cmsis_gcc.h **** /**
 460:Drivers/CMSIS/Include/cmsis_gcc.h ****   \brief   Get Priority Mask (non-secure)
 461:Drivers/CMSIS/Include/cmsis_gcc.h ****   \details Returns the current state of the non-secure priority mask bit from the Priority Mask Reg
 462:Drivers/CMSIS/Include/cmsis_gcc.h ****   \return               Priority Mask value
 463:Drivers/CMSIS/Include/cmsis_gcc.h ****  */
 464:Drivers/CMSIS/Include/cmsis_gcc.h **** __STATIC_FORCEINLINE uint32_t __TZ_get_PRIMASK_NS(void)
 465:Drivers/CMSIS/Include/cmsis_gcc.h **** {
 466:Drivers/CMSIS/Include/cmsis_gcc.h ****   uint32_t result;
 467:Drivers/CMSIS/Include/cmsis_gcc.h **** 
 468:Drivers/CMSIS/Include/cmsis_gcc.h ****   __ASM volatile ("MRS %0, primask_ns" : "=r" (result) :: "memory");
ARM GAS  /var/folders/lt/l_qrc8c54t93n_phsj7cf5tc0000gn/T//ccioc0h3.s 			page 12


 469:Drivers/CMSIS/Include/cmsis_gcc.h ****   return(result);
 470:Drivers/CMSIS/Include/cmsis_gcc.h **** }
 471:Drivers/CMSIS/Include/cmsis_gcc.h **** #endif
 472:Drivers/CMSIS/Include/cmsis_gcc.h **** 
 473:Drivers/CMSIS/Include/cmsis_gcc.h **** 
 474:Drivers/CMSIS/Include/cmsis_gcc.h **** /**
 475:Drivers/CMSIS/Include/cmsis_gcc.h ****   \brief   Set Priority Mask
 476:Drivers/CMSIS/Include/cmsis_gcc.h ****   \details Assigns the given value to the Priority Mask Register.
 477:Drivers/CMSIS/Include/cmsis_gcc.h ****   \param [in]    priMask  Priority Mask
 478:Drivers/CMSIS/Include/cmsis_gcc.h ****  */
 479:Drivers/CMSIS/Include/cmsis_gcc.h **** __STATIC_FORCEINLINE void __set_PRIMASK(uint32_t priMask)
 110              		.loc 2 479 27 view .LVU23
 111              	.LBB73:
 480:Drivers/CMSIS/Include/cmsis_gcc.h **** {
 481:Drivers/CMSIS/Include/cmsis_gcc.h ****   __ASM volatile ("MSR primask, %0" : : "r" (priMask) : "memory");
 112              		.loc 2 481 3 view .LVU24
 113              		.syntax unified
 114              	@ 481 "Drivers/CMSIS/Include/cmsis_gcc.h" 1
 115 000e 83F31088 		MSR primask, r3
 116              	@ 0 "" 2
 117              	.LVL4:
 118              		.loc 2 481 3 is_stmt 0 view .LVU25
 119              		.thumb
 120              		.syntax unified
 121              	.LBE73:
 122              	.LBE72:
  52:Middlewares/ST/STM32_WPAN/utilities/stm_list.c **** 
  53:Middlewares/ST/STM32_WPAN/utilities/stm_list.c ****   return return_value;
 123              		.loc 1 53 3 is_stmt 1 view .LVU26
  54:Middlewares/ST/STM32_WPAN/utilities/stm_list.c **** }
 124              		.loc 1 54 1 is_stmt 0 view .LVU27
 125 0012 7047     		bx	lr
 126              	.LVL5:
 127              	.L5:
  45:Middlewares/ST/STM32_WPAN/utilities/stm_list.c ****   }
 128              		.loc 1 45 18 view .LVU28
 129 0014 0120     		movs	r0, #1
 130              	.LVL6:
  45:Middlewares/ST/STM32_WPAN/utilities/stm_list.c ****   }
 131              		.loc 1 45 18 view .LVU29
 132 0016 FAE7     		b	.L3
 133              		.cfi_endproc
 134              	.LFE1416:
 136              		.section	.text.LST_insert_head,"ax",%progbits
 137              		.align	1
 138              		.global	LST_insert_head
 139              		.syntax unified
 140              		.thumb
 141              		.thumb_func
 142              		.fpu fpv4-sp-d16
 144              	LST_insert_head:
 145              	.LVL7:
 146              	.LFB1417:
  55:Middlewares/ST/STM32_WPAN/utilities/stm_list.c **** 
  56:Middlewares/ST/STM32_WPAN/utilities/stm_list.c **** void LST_insert_head (tListNode * listHead, tListNode * node)
  57:Middlewares/ST/STM32_WPAN/utilities/stm_list.c **** {
 147              		.loc 1 57 1 is_stmt 1 view -0
ARM GAS  /var/folders/lt/l_qrc8c54t93n_phsj7cf5tc0000gn/T//ccioc0h3.s 			page 13


 148              		.cfi_startproc
 149              		@ args = 0, pretend = 0, frame = 0
 150              		@ frame_needed = 0, uses_anonymous_args = 0
 151              		@ link register save eliminated.
  58:Middlewares/ST/STM32_WPAN/utilities/stm_list.c ****   uint32_t primask_bit;
 152              		.loc 1 58 3 view .LVU31
  59:Middlewares/ST/STM32_WPAN/utilities/stm_list.c **** 
  60:Middlewares/ST/STM32_WPAN/utilities/stm_list.c ****   primask_bit = __get_PRIMASK();  /**< backup PRIMASK bit */
 153              		.loc 1 60 3 view .LVU32
 154              	.LBB74:
 155              	.LBI74:
 449:Drivers/CMSIS/Include/cmsis_gcc.h **** {
 156              		.loc 2 449 31 view .LVU33
 157              	.LBB75:
 451:Drivers/CMSIS/Include/cmsis_gcc.h **** 
 158              		.loc 2 451 3 view .LVU34
 453:Drivers/CMSIS/Include/cmsis_gcc.h ****   return(result);
 159              		.loc 2 453 3 view .LVU35
 160              		.syntax unified
 161              	@ 453 "Drivers/CMSIS/Include/cmsis_gcc.h" 1
 162 0000 EFF31083 		MRS r3, primask
 163              	@ 0 "" 2
 164              	.LVL8:
 454:Drivers/CMSIS/Include/cmsis_gcc.h **** }
 165              		.loc 2 454 3 view .LVU36
 454:Drivers/CMSIS/Include/cmsis_gcc.h **** }
 166              		.loc 2 454 3 is_stmt 0 view .LVU37
 167              		.thumb
 168              		.syntax unified
 169              	.LBE75:
 170              	.LBE74:
  61:Middlewares/ST/STM32_WPAN/utilities/stm_list.c ****   __disable_irq();                  /**< Disable all interrupts by setting PRIMASK bit on Cortex*/
 171              		.loc 1 61 3 is_stmt 1 view .LVU38
 172              	.LBB76:
 173              	.LBI76:
 207:Drivers/CMSIS/Include/cmsis_gcc.h **** {
 174              		.loc 2 207 27 view .LVU39
 175              	.LBB77:
 209:Drivers/CMSIS/Include/cmsis_gcc.h **** }
 176              		.loc 2 209 3 view .LVU40
 177              		.syntax unified
 178              	@ 209 "Drivers/CMSIS/Include/cmsis_gcc.h" 1
 179 0004 72B6     		cpsid i
 180              	@ 0 "" 2
 181              		.thumb
 182              		.syntax unified
 183              	.LBE77:
 184              	.LBE76:
  62:Middlewares/ST/STM32_WPAN/utilities/stm_list.c **** 
  63:Middlewares/ST/STM32_WPAN/utilities/stm_list.c ****   node->next = listHead->next;
 185              		.loc 1 63 3 view .LVU41
 186              		.loc 1 63 24 is_stmt 0 view .LVU42
 187 0006 0268     		ldr	r2, [r0]	@ unaligned
 188              		.loc 1 63 14 view .LVU43
 189 0008 0A60     		str	r2, [r1]	@ unaligned
  64:Middlewares/ST/STM32_WPAN/utilities/stm_list.c ****   node->prev = listHead;
 190              		.loc 1 64 3 is_stmt 1 view .LVU44
ARM GAS  /var/folders/lt/l_qrc8c54t93n_phsj7cf5tc0000gn/T//ccioc0h3.s 			page 14


 191              		.loc 1 64 14 is_stmt 0 view .LVU45
 192 000a 4860     		str	r0, [r1, #4]	@ unaligned
  65:Middlewares/ST/STM32_WPAN/utilities/stm_list.c ****   listHead->next = node;
 193              		.loc 1 65 3 is_stmt 1 view .LVU46
 194              		.loc 1 65 18 is_stmt 0 view .LVU47
 195 000c 0160     		str	r1, [r0]	@ unaligned
  66:Middlewares/ST/STM32_WPAN/utilities/stm_list.c ****   (node->next)->prev = node;
 196              		.loc 1 66 3 is_stmt 1 view .LVU48
 197              		.loc 1 66 8 is_stmt 0 view .LVU49
 198 000e 0A68     		ldr	r2, [r1]	@ unaligned
 199              		.loc 1 66 22 view .LVU50
 200 0010 5160     		str	r1, [r2, #4]	@ unaligned
  67:Middlewares/ST/STM32_WPAN/utilities/stm_list.c **** 
  68:Middlewares/ST/STM32_WPAN/utilities/stm_list.c ****   __set_PRIMASK(primask_bit);     /**< Restore PRIMASK bit*/
 201              		.loc 1 68 3 is_stmt 1 view .LVU51
 202              	.LVL9:
 203              	.LBB78:
 204              	.LBI78:
 479:Drivers/CMSIS/Include/cmsis_gcc.h **** {
 205              		.loc 2 479 27 view .LVU52
 206              	.LBB79:
 207              		.loc 2 481 3 view .LVU53
 208              		.syntax unified
 209              	@ 481 "Drivers/CMSIS/Include/cmsis_gcc.h" 1
 210 0012 83F31088 		MSR primask, r3
 211              	@ 0 "" 2
 212              	.LVL10:
 213              		.loc 2 481 3 is_stmt 0 view .LVU54
 214              		.thumb
 215              		.syntax unified
 216              	.LBE79:
 217              	.LBE78:
  69:Middlewares/ST/STM32_WPAN/utilities/stm_list.c **** }
 218              		.loc 1 69 1 view .LVU55
 219 0016 7047     		bx	lr
 220              		.cfi_endproc
 221              	.LFE1417:
 223              		.section	.text.LST_insert_tail,"ax",%progbits
 224              		.align	1
 225              		.global	LST_insert_tail
 226              		.syntax unified
 227              		.thumb
 228              		.thumb_func
 229              		.fpu fpv4-sp-d16
 231              	LST_insert_tail:
 232              	.LVL11:
 233              	.LFB1418:
  70:Middlewares/ST/STM32_WPAN/utilities/stm_list.c **** 
  71:Middlewares/ST/STM32_WPAN/utilities/stm_list.c **** 
  72:Middlewares/ST/STM32_WPAN/utilities/stm_list.c **** void LST_insert_tail (tListNode * listHead, tListNode * node)
  73:Middlewares/ST/STM32_WPAN/utilities/stm_list.c **** {
 234              		.loc 1 73 1 is_stmt 1 view -0
 235              		.cfi_startproc
 236              		@ args = 0, pretend = 0, frame = 0
 237              		@ frame_needed = 0, uses_anonymous_args = 0
 238              		@ link register save eliminated.
  74:Middlewares/ST/STM32_WPAN/utilities/stm_list.c ****   uint32_t primask_bit;
ARM GAS  /var/folders/lt/l_qrc8c54t93n_phsj7cf5tc0000gn/T//ccioc0h3.s 			page 15


 239              		.loc 1 74 3 view .LVU57
  75:Middlewares/ST/STM32_WPAN/utilities/stm_list.c **** 
  76:Middlewares/ST/STM32_WPAN/utilities/stm_list.c ****   primask_bit = __get_PRIMASK();  /**< backup PRIMASK bit */
 240              		.loc 1 76 3 view .LVU58
 241              	.LBB80:
 242              	.LBI80:
 449:Drivers/CMSIS/Include/cmsis_gcc.h **** {
 243              		.loc 2 449 31 view .LVU59
 244              	.LBB81:
 451:Drivers/CMSIS/Include/cmsis_gcc.h **** 
 245              		.loc 2 451 3 view .LVU60
 453:Drivers/CMSIS/Include/cmsis_gcc.h ****   return(result);
 246              		.loc 2 453 3 view .LVU61
 247              		.syntax unified
 248              	@ 453 "Drivers/CMSIS/Include/cmsis_gcc.h" 1
 249 0000 EFF31083 		MRS r3, primask
 250              	@ 0 "" 2
 251              	.LVL12:
 454:Drivers/CMSIS/Include/cmsis_gcc.h **** }
 252              		.loc 2 454 3 view .LVU62
 454:Drivers/CMSIS/Include/cmsis_gcc.h **** }
 253              		.loc 2 454 3 is_stmt 0 view .LVU63
 254              		.thumb
 255              		.syntax unified
 256              	.LBE81:
 257              	.LBE80:
  77:Middlewares/ST/STM32_WPAN/utilities/stm_list.c ****   __disable_irq();                  /**< Disable all interrupts by setting PRIMASK bit on Cortex*/
 258              		.loc 1 77 3 is_stmt 1 view .LVU64
 259              	.LBB82:
 260              	.LBI82:
 207:Drivers/CMSIS/Include/cmsis_gcc.h **** {
 261              		.loc 2 207 27 view .LVU65
 262              	.LBB83:
 209:Drivers/CMSIS/Include/cmsis_gcc.h **** }
 263              		.loc 2 209 3 view .LVU66
 264              		.syntax unified
 265              	@ 209 "Drivers/CMSIS/Include/cmsis_gcc.h" 1
 266 0004 72B6     		cpsid i
 267              	@ 0 "" 2
 268              		.thumb
 269              		.syntax unified
 270              	.LBE83:
 271              	.LBE82:
  78:Middlewares/ST/STM32_WPAN/utilities/stm_list.c **** 
  79:Middlewares/ST/STM32_WPAN/utilities/stm_list.c ****   node->next = listHead;
 272              		.loc 1 79 3 view .LVU67
 273              		.loc 1 79 14 is_stmt 0 view .LVU68
 274 0006 0860     		str	r0, [r1]	@ unaligned
  80:Middlewares/ST/STM32_WPAN/utilities/stm_list.c ****   node->prev = listHead->prev;
 275              		.loc 1 80 3 is_stmt 1 view .LVU69
 276              		.loc 1 80 24 is_stmt 0 view .LVU70
 277 0008 4268     		ldr	r2, [r0, #4]	@ unaligned
 278              		.loc 1 80 14 view .LVU71
 279 000a 4A60     		str	r2, [r1, #4]	@ unaligned
  81:Middlewares/ST/STM32_WPAN/utilities/stm_list.c ****   listHead->prev = node;
 280              		.loc 1 81 3 is_stmt 1 view .LVU72
 281              		.loc 1 81 18 is_stmt 0 view .LVU73
ARM GAS  /var/folders/lt/l_qrc8c54t93n_phsj7cf5tc0000gn/T//ccioc0h3.s 			page 16


 282 000c 4160     		str	r1, [r0, #4]	@ unaligned
  82:Middlewares/ST/STM32_WPAN/utilities/stm_list.c ****   (node->prev)->next = node;
 283              		.loc 1 82 3 is_stmt 1 view .LVU74
 284              		.loc 1 82 8 is_stmt 0 view .LVU75
 285 000e 4A68     		ldr	r2, [r1, #4]	@ unaligned
 286              		.loc 1 82 22 view .LVU76
 287 0010 1160     		str	r1, [r2]	@ unaligned
  83:Middlewares/ST/STM32_WPAN/utilities/stm_list.c **** 
  84:Middlewares/ST/STM32_WPAN/utilities/stm_list.c ****   __set_PRIMASK(primask_bit);     /**< Restore PRIMASK bit*/
 288              		.loc 1 84 3 is_stmt 1 view .LVU77
 289              	.LVL13:
 290              	.LBB84:
 291              	.LBI84:
 479:Drivers/CMSIS/Include/cmsis_gcc.h **** {
 292              		.loc 2 479 27 view .LVU78
 293              	.LBB85:
 294              		.loc 2 481 3 view .LVU79
 295              		.syntax unified
 296              	@ 481 "Drivers/CMSIS/Include/cmsis_gcc.h" 1
 297 0012 83F31088 		MSR primask, r3
 298              	@ 0 "" 2
 299              	.LVL14:
 300              		.loc 2 481 3 is_stmt 0 view .LVU80
 301              		.thumb
 302              		.syntax unified
 303              	.LBE85:
 304              	.LBE84:
  85:Middlewares/ST/STM32_WPAN/utilities/stm_list.c **** }
 305              		.loc 1 85 1 view .LVU81
 306 0016 7047     		bx	lr
 307              		.cfi_endproc
 308              	.LFE1418:
 310              		.section	.text.LST_remove_node,"ax",%progbits
 311              		.align	1
 312              		.global	LST_remove_node
 313              		.syntax unified
 314              		.thumb
 315              		.thumb_func
 316              		.fpu fpv4-sp-d16
 318              	LST_remove_node:
 319              	.LVL15:
 320              	.LFB1419:
  86:Middlewares/ST/STM32_WPAN/utilities/stm_list.c **** 
  87:Middlewares/ST/STM32_WPAN/utilities/stm_list.c **** 
  88:Middlewares/ST/STM32_WPAN/utilities/stm_list.c **** void LST_remove_node (tListNode * node)
  89:Middlewares/ST/STM32_WPAN/utilities/stm_list.c **** {
 321              		.loc 1 89 1 is_stmt 1 view -0
 322              		.cfi_startproc
 323              		@ args = 0, pretend = 0, frame = 0
 324              		@ frame_needed = 0, uses_anonymous_args = 0
 325              		@ link register save eliminated.
  90:Middlewares/ST/STM32_WPAN/utilities/stm_list.c ****   uint32_t primask_bit;
 326              		.loc 1 90 3 view .LVU83
  91:Middlewares/ST/STM32_WPAN/utilities/stm_list.c **** 
  92:Middlewares/ST/STM32_WPAN/utilities/stm_list.c ****   primask_bit = __get_PRIMASK();  /**< backup PRIMASK bit */
 327              		.loc 1 92 3 view .LVU84
 328              	.LBB86:
ARM GAS  /var/folders/lt/l_qrc8c54t93n_phsj7cf5tc0000gn/T//ccioc0h3.s 			page 17


 329              	.LBI86:
 449:Drivers/CMSIS/Include/cmsis_gcc.h **** {
 330              		.loc 2 449 31 view .LVU85
 331              	.LBB87:
 451:Drivers/CMSIS/Include/cmsis_gcc.h **** 
 332              		.loc 2 451 3 view .LVU86
 453:Drivers/CMSIS/Include/cmsis_gcc.h ****   return(result);
 333              		.loc 2 453 3 view .LVU87
 334              		.syntax unified
 335              	@ 453 "Drivers/CMSIS/Include/cmsis_gcc.h" 1
 336 0000 EFF31083 		MRS r3, primask
 337              	@ 0 "" 2
 338              	.LVL16:
 454:Drivers/CMSIS/Include/cmsis_gcc.h **** }
 339              		.loc 2 454 3 view .LVU88
 454:Drivers/CMSIS/Include/cmsis_gcc.h **** }
 340              		.loc 2 454 3 is_stmt 0 view .LVU89
 341              		.thumb
 342              		.syntax unified
 343              	.LBE87:
 344              	.LBE86:
  93:Middlewares/ST/STM32_WPAN/utilities/stm_list.c ****   __disable_irq();                  /**< Disable all interrupts by setting PRIMASK bit on Cortex*/
 345              		.loc 1 93 3 is_stmt 1 view .LVU90
 346              	.LBB88:
 347              	.LBI88:
 207:Drivers/CMSIS/Include/cmsis_gcc.h **** {
 348              		.loc 2 207 27 view .LVU91
 349              	.LBB89:
 209:Drivers/CMSIS/Include/cmsis_gcc.h **** }
 350              		.loc 2 209 3 view .LVU92
 351              		.syntax unified
 352              	@ 209 "Drivers/CMSIS/Include/cmsis_gcc.h" 1
 353 0004 72B6     		cpsid i
 354              	@ 0 "" 2
 355              		.thumb
 356              		.syntax unified
 357              	.LBE89:
 358              	.LBE88:
  94:Middlewares/ST/STM32_WPAN/utilities/stm_list.c **** 
  95:Middlewares/ST/STM32_WPAN/utilities/stm_list.c ****   (node->prev)->next = node->next;
 359              		.loc 1 95 3 view .LVU93
 360              		.loc 1 95 8 is_stmt 0 view .LVU94
 361 0006 4268     		ldr	r2, [r0, #4]	@ unaligned
 362              		.loc 1 95 28 view .LVU95
 363 0008 0168     		ldr	r1, [r0]	@ unaligned
 364              		.loc 1 95 22 view .LVU96
 365 000a 1160     		str	r1, [r2]	@ unaligned
  96:Middlewares/ST/STM32_WPAN/utilities/stm_list.c ****   (node->next)->prev = node->prev;
 366              		.loc 1 96 3 is_stmt 1 view .LVU97
 367              		.loc 1 96 8 is_stmt 0 view .LVU98
 368 000c 0268     		ldr	r2, [r0]	@ unaligned
 369              		.loc 1 96 28 view .LVU99
 370 000e 4168     		ldr	r1, [r0, #4]	@ unaligned
 371              		.loc 1 96 22 view .LVU100
 372 0010 5160     		str	r1, [r2, #4]	@ unaligned
  97:Middlewares/ST/STM32_WPAN/utilities/stm_list.c **** 
  98:Middlewares/ST/STM32_WPAN/utilities/stm_list.c ****   __set_PRIMASK(primask_bit);     /**< Restore PRIMASK bit*/
ARM GAS  /var/folders/lt/l_qrc8c54t93n_phsj7cf5tc0000gn/T//ccioc0h3.s 			page 18


 373              		.loc 1 98 3 is_stmt 1 view .LVU101
 374              	.LVL17:
 375              	.LBB90:
 376              	.LBI90:
 479:Drivers/CMSIS/Include/cmsis_gcc.h **** {
 377              		.loc 2 479 27 view .LVU102
 378              	.LBB91:
 379              		.loc 2 481 3 view .LVU103
 380              		.syntax unified
 381              	@ 481 "Drivers/CMSIS/Include/cmsis_gcc.h" 1
 382 0012 83F31088 		MSR primask, r3
 383              	@ 0 "" 2
 384              	.LVL18:
 385              		.loc 2 481 3 is_stmt 0 view .LVU104
 386              		.thumb
 387              		.syntax unified
 388              	.LBE91:
 389              	.LBE90:
  99:Middlewares/ST/STM32_WPAN/utilities/stm_list.c **** }
 390              		.loc 1 99 1 view .LVU105
 391 0016 7047     		bx	lr
 392              		.cfi_endproc
 393              	.LFE1419:
 395              		.section	.text.LST_remove_head,"ax",%progbits
 396              		.align	1
 397              		.global	LST_remove_head
 398              		.syntax unified
 399              		.thumb
 400              		.thumb_func
 401              		.fpu fpv4-sp-d16
 403              	LST_remove_head:
 404              	.LVL19:
 405              	.LFB1420:
 100:Middlewares/ST/STM32_WPAN/utilities/stm_list.c **** 
 101:Middlewares/ST/STM32_WPAN/utilities/stm_list.c **** 
 102:Middlewares/ST/STM32_WPAN/utilities/stm_list.c **** void LST_remove_head (tListNode * listHead, tListNode ** node )
 103:Middlewares/ST/STM32_WPAN/utilities/stm_list.c **** {
 406              		.loc 1 103 1 is_stmt 1 view -0
 407              		.cfi_startproc
 408              		@ args = 0, pretend = 0, frame = 0
 409              		@ frame_needed = 0, uses_anonymous_args = 0
 410              		.loc 1 103 1 is_stmt 0 view .LVU107
 411 0000 10B5     		push	{r4, lr}
 412              	.LCFI0:
 413              		.cfi_def_cfa_offset 8
 414              		.cfi_offset 4, -8
 415              		.cfi_offset 14, -4
 104:Middlewares/ST/STM32_WPAN/utilities/stm_list.c ****   uint32_t primask_bit;
 416              		.loc 1 104 3 is_stmt 1 view .LVU108
 105:Middlewares/ST/STM32_WPAN/utilities/stm_list.c **** 
 106:Middlewares/ST/STM32_WPAN/utilities/stm_list.c ****   primask_bit = __get_PRIMASK();  /**< backup PRIMASK bit */
 417              		.loc 1 106 3 view .LVU109
 418              	.LBB92:
 419              	.LBI92:
 449:Drivers/CMSIS/Include/cmsis_gcc.h **** {
 420              		.loc 2 449 31 view .LVU110
 421              	.LBB93:
ARM GAS  /var/folders/lt/l_qrc8c54t93n_phsj7cf5tc0000gn/T//ccioc0h3.s 			page 19


 451:Drivers/CMSIS/Include/cmsis_gcc.h **** 
 422              		.loc 2 451 3 view .LVU111
 453:Drivers/CMSIS/Include/cmsis_gcc.h ****   return(result);
 423              		.loc 2 453 3 view .LVU112
 424              		.syntax unified
 425              	@ 453 "Drivers/CMSIS/Include/cmsis_gcc.h" 1
 426 0002 EFF31084 		MRS r4, primask
 427              	@ 0 "" 2
 428              	.LVL20:
 454:Drivers/CMSIS/Include/cmsis_gcc.h **** }
 429              		.loc 2 454 3 view .LVU113
 454:Drivers/CMSIS/Include/cmsis_gcc.h **** }
 430              		.loc 2 454 3 is_stmt 0 view .LVU114
 431              		.thumb
 432              		.syntax unified
 433              	.LBE93:
 434              	.LBE92:
 107:Middlewares/ST/STM32_WPAN/utilities/stm_list.c ****   __disable_irq();                  /**< Disable all interrupts by setting PRIMASK bit on Cortex*/
 435              		.loc 1 107 3 is_stmt 1 view .LVU115
 436              	.LBB94:
 437              	.LBI94:
 207:Drivers/CMSIS/Include/cmsis_gcc.h **** {
 438              		.loc 2 207 27 view .LVU116
 439              	.LBB95:
 209:Drivers/CMSIS/Include/cmsis_gcc.h **** }
 440              		.loc 2 209 3 view .LVU117
 441              		.syntax unified
 442              	@ 209 "Drivers/CMSIS/Include/cmsis_gcc.h" 1
 443 0006 72B6     		cpsid i
 444              	@ 0 "" 2
 445              		.thumb
 446              		.syntax unified
 447              	.LBE95:
 448              	.LBE94:
 108:Middlewares/ST/STM32_WPAN/utilities/stm_list.c **** 
 109:Middlewares/ST/STM32_WPAN/utilities/stm_list.c ****   *node = listHead->next;
 449              		.loc 1 109 3 view .LVU118
 450              		.loc 1 109 19 is_stmt 0 view .LVU119
 451 0008 0368     		ldr	r3, [r0]	@ unaligned
 452              		.loc 1 109 9 view .LVU120
 453 000a 0B60     		str	r3, [r1]
 110:Middlewares/ST/STM32_WPAN/utilities/stm_list.c ****   LST_remove_node (listHead->next);
 454              		.loc 1 110 3 is_stmt 1 view .LVU121
 455 000c 0068     		ldr	r0, [r0]	@ unaligned
 456              	.LVL21:
 457              		.loc 1 110 3 is_stmt 0 view .LVU122
 458 000e FFF7FEFF 		bl	LST_remove_node
 459              	.LVL22:
 111:Middlewares/ST/STM32_WPAN/utilities/stm_list.c **** 
 112:Middlewares/ST/STM32_WPAN/utilities/stm_list.c ****   __set_PRIMASK(primask_bit);     /**< Restore PRIMASK bit*/
 460              		.loc 1 112 3 is_stmt 1 view .LVU123
 461              	.LBB96:
 462              	.LBI96:
 479:Drivers/CMSIS/Include/cmsis_gcc.h **** {
 463              		.loc 2 479 27 view .LVU124
 464              	.LBB97:
 465              		.loc 2 481 3 view .LVU125
ARM GAS  /var/folders/lt/l_qrc8c54t93n_phsj7cf5tc0000gn/T//ccioc0h3.s 			page 20


 466              		.syntax unified
 467              	@ 481 "Drivers/CMSIS/Include/cmsis_gcc.h" 1
 468 0012 84F31088 		MSR primask, r4
 469              	@ 0 "" 2
 470              	.LVL23:
 471              		.loc 2 481 3 is_stmt 0 view .LVU126
 472              		.thumb
 473              		.syntax unified
 474              	.LBE97:
 475              	.LBE96:
 113:Middlewares/ST/STM32_WPAN/utilities/stm_list.c **** }
 476              		.loc 1 113 1 view .LVU127
 477 0016 10BD     		pop	{r4, pc}
 478              		.loc 1 113 1 view .LVU128
 479              		.cfi_endproc
 480              	.LFE1420:
 482              		.section	.text.LST_remove_tail,"ax",%progbits
 483              		.align	1
 484              		.global	LST_remove_tail
 485              		.syntax unified
 486              		.thumb
 487              		.thumb_func
 488              		.fpu fpv4-sp-d16
 490              	LST_remove_tail:
 491              	.LVL24:
 492              	.LFB1421:
 114:Middlewares/ST/STM32_WPAN/utilities/stm_list.c **** 
 115:Middlewares/ST/STM32_WPAN/utilities/stm_list.c **** 
 116:Middlewares/ST/STM32_WPAN/utilities/stm_list.c **** void LST_remove_tail (tListNode * listHead, tListNode ** node )
 117:Middlewares/ST/STM32_WPAN/utilities/stm_list.c **** {
 493              		.loc 1 117 1 is_stmt 1 view -0
 494              		.cfi_startproc
 495              		@ args = 0, pretend = 0, frame = 0
 496              		@ frame_needed = 0, uses_anonymous_args = 0
 497              		.loc 1 117 1 is_stmt 0 view .LVU130
 498 0000 10B5     		push	{r4, lr}
 499              	.LCFI1:
 500              		.cfi_def_cfa_offset 8
 501              		.cfi_offset 4, -8
 502              		.cfi_offset 14, -4
 118:Middlewares/ST/STM32_WPAN/utilities/stm_list.c ****   uint32_t primask_bit;
 503              		.loc 1 118 3 is_stmt 1 view .LVU131
 119:Middlewares/ST/STM32_WPAN/utilities/stm_list.c **** 
 120:Middlewares/ST/STM32_WPAN/utilities/stm_list.c ****   primask_bit = __get_PRIMASK();  /**< backup PRIMASK bit */
 504              		.loc 1 120 3 view .LVU132
 505              	.LBB98:
 506              	.LBI98:
 449:Drivers/CMSIS/Include/cmsis_gcc.h **** {
 507              		.loc 2 449 31 view .LVU133
 508              	.LBB99:
 451:Drivers/CMSIS/Include/cmsis_gcc.h **** 
 509              		.loc 2 451 3 view .LVU134
 453:Drivers/CMSIS/Include/cmsis_gcc.h ****   return(result);
 510              		.loc 2 453 3 view .LVU135
 511              		.syntax unified
 512              	@ 453 "Drivers/CMSIS/Include/cmsis_gcc.h" 1
 513 0002 EFF31084 		MRS r4, primask
ARM GAS  /var/folders/lt/l_qrc8c54t93n_phsj7cf5tc0000gn/T//ccioc0h3.s 			page 21


 514              	@ 0 "" 2
 515              	.LVL25:
 454:Drivers/CMSIS/Include/cmsis_gcc.h **** }
 516              		.loc 2 454 3 view .LVU136
 454:Drivers/CMSIS/Include/cmsis_gcc.h **** }
 517              		.loc 2 454 3 is_stmt 0 view .LVU137
 518              		.thumb
 519              		.syntax unified
 520              	.LBE99:
 521              	.LBE98:
 121:Middlewares/ST/STM32_WPAN/utilities/stm_list.c ****   __disable_irq();                  /**< Disable all interrupts by setting PRIMASK bit on Cortex*/
 522              		.loc 1 121 3 is_stmt 1 view .LVU138
 523              	.LBB100:
 524              	.LBI100:
 207:Drivers/CMSIS/Include/cmsis_gcc.h **** {
 525              		.loc 2 207 27 view .LVU139
 526              	.LBB101:
 209:Drivers/CMSIS/Include/cmsis_gcc.h **** }
 527              		.loc 2 209 3 view .LVU140
 528              		.syntax unified
 529              	@ 209 "Drivers/CMSIS/Include/cmsis_gcc.h" 1
 530 0006 72B6     		cpsid i
 531              	@ 0 "" 2
 532              		.thumb
 533              		.syntax unified
 534              	.LBE101:
 535              	.LBE100:
 122:Middlewares/ST/STM32_WPAN/utilities/stm_list.c **** 
 123:Middlewares/ST/STM32_WPAN/utilities/stm_list.c ****   *node = listHead->prev;
 536              		.loc 1 123 3 view .LVU141
 537              		.loc 1 123 19 is_stmt 0 view .LVU142
 538 0008 4368     		ldr	r3, [r0, #4]	@ unaligned
 539              		.loc 1 123 9 view .LVU143
 540 000a 0B60     		str	r3, [r1]
 124:Middlewares/ST/STM32_WPAN/utilities/stm_list.c ****   LST_remove_node (listHead->prev);
 541              		.loc 1 124 3 is_stmt 1 view .LVU144
 542 000c 4068     		ldr	r0, [r0, #4]	@ unaligned
 543              	.LVL26:
 544              		.loc 1 124 3 is_stmt 0 view .LVU145
 545 000e FFF7FEFF 		bl	LST_remove_node
 546              	.LVL27:
 125:Middlewares/ST/STM32_WPAN/utilities/stm_list.c **** 
 126:Middlewares/ST/STM32_WPAN/utilities/stm_list.c ****   __set_PRIMASK(primask_bit);     /**< Restore PRIMASK bit*/
 547              		.loc 1 126 3 is_stmt 1 view .LVU146
 548              	.LBB102:
 549              	.LBI102:
 479:Drivers/CMSIS/Include/cmsis_gcc.h **** {
 550              		.loc 2 479 27 view .LVU147
 551              	.LBB103:
 552              		.loc 2 481 3 view .LVU148
 553              		.syntax unified
 554              	@ 481 "Drivers/CMSIS/Include/cmsis_gcc.h" 1
 555 0012 84F31088 		MSR primask, r4
 556              	@ 0 "" 2
 557              	.LVL28:
 558              		.loc 2 481 3 is_stmt 0 view .LVU149
 559              		.thumb
ARM GAS  /var/folders/lt/l_qrc8c54t93n_phsj7cf5tc0000gn/T//ccioc0h3.s 			page 22


 560              		.syntax unified
 561              	.LBE103:
 562              	.LBE102:
 127:Middlewares/ST/STM32_WPAN/utilities/stm_list.c **** }
 563              		.loc 1 127 1 view .LVU150
 564 0016 10BD     		pop	{r4, pc}
 565              		.loc 1 127 1 view .LVU151
 566              		.cfi_endproc
 567              	.LFE1421:
 569              		.section	.text.LST_insert_node_after,"ax",%progbits
 570              		.align	1
 571              		.global	LST_insert_node_after
 572              		.syntax unified
 573              		.thumb
 574              		.thumb_func
 575              		.fpu fpv4-sp-d16
 577              	LST_insert_node_after:
 578              	.LVL29:
 579              	.LFB1422:
 128:Middlewares/ST/STM32_WPAN/utilities/stm_list.c **** 
 129:Middlewares/ST/STM32_WPAN/utilities/stm_list.c **** 
 130:Middlewares/ST/STM32_WPAN/utilities/stm_list.c **** void LST_insert_node_after (tListNode * node, tListNode * ref_node)
 131:Middlewares/ST/STM32_WPAN/utilities/stm_list.c **** {
 580              		.loc 1 131 1 is_stmt 1 view -0
 581              		.cfi_startproc
 582              		@ args = 0, pretend = 0, frame = 0
 583              		@ frame_needed = 0, uses_anonymous_args = 0
 584              		@ link register save eliminated.
 132:Middlewares/ST/STM32_WPAN/utilities/stm_list.c ****   uint32_t primask_bit;
 585              		.loc 1 132 3 view .LVU153
 133:Middlewares/ST/STM32_WPAN/utilities/stm_list.c **** 
 134:Middlewares/ST/STM32_WPAN/utilities/stm_list.c ****   primask_bit = __get_PRIMASK();  /**< backup PRIMASK bit */
 586              		.loc 1 134 3 view .LVU154
 587              	.LBB104:
 588              	.LBI104:
 449:Drivers/CMSIS/Include/cmsis_gcc.h **** {
 589              		.loc 2 449 31 view .LVU155
 590              	.LBB105:
 451:Drivers/CMSIS/Include/cmsis_gcc.h **** 
 591              		.loc 2 451 3 view .LVU156
 453:Drivers/CMSIS/Include/cmsis_gcc.h ****   return(result);
 592              		.loc 2 453 3 view .LVU157
 593              		.syntax unified
 594              	@ 453 "Drivers/CMSIS/Include/cmsis_gcc.h" 1
 595 0000 EFF31083 		MRS r3, primask
 596              	@ 0 "" 2
 597              	.LVL30:
 454:Drivers/CMSIS/Include/cmsis_gcc.h **** }
 598              		.loc 2 454 3 view .LVU158
 454:Drivers/CMSIS/Include/cmsis_gcc.h **** }
 599              		.loc 2 454 3 is_stmt 0 view .LVU159
 600              		.thumb
 601              		.syntax unified
 602              	.LBE105:
 603              	.LBE104:
 135:Middlewares/ST/STM32_WPAN/utilities/stm_list.c ****   __disable_irq();                  /**< Disable all interrupts by setting PRIMASK bit on Cortex*/
 604              		.loc 1 135 3 is_stmt 1 view .LVU160
ARM GAS  /var/folders/lt/l_qrc8c54t93n_phsj7cf5tc0000gn/T//ccioc0h3.s 			page 23


 605              	.LBB106:
 606              	.LBI106:
 207:Drivers/CMSIS/Include/cmsis_gcc.h **** {
 607              		.loc 2 207 27 view .LVU161
 608              	.LBB107:
 209:Drivers/CMSIS/Include/cmsis_gcc.h **** }
 609              		.loc 2 209 3 view .LVU162
 610              		.syntax unified
 611              	@ 209 "Drivers/CMSIS/Include/cmsis_gcc.h" 1
 612 0004 72B6     		cpsid i
 613              	@ 0 "" 2
 614              		.thumb
 615              		.syntax unified
 616              	.LBE107:
 617              	.LBE106:
 136:Middlewares/ST/STM32_WPAN/utilities/stm_list.c **** 
 137:Middlewares/ST/STM32_WPAN/utilities/stm_list.c ****   node->next = ref_node->next;
 618              		.loc 1 137 3 view .LVU163
 619              		.loc 1 137 24 is_stmt 0 view .LVU164
 620 0006 0A68     		ldr	r2, [r1]	@ unaligned
 621              		.loc 1 137 14 view .LVU165
 622 0008 0260     		str	r2, [r0]	@ unaligned
 138:Middlewares/ST/STM32_WPAN/utilities/stm_list.c ****   node->prev = ref_node;
 623              		.loc 1 138 3 is_stmt 1 view .LVU166
 624              		.loc 1 138 14 is_stmt 0 view .LVU167
 625 000a 4160     		str	r1, [r0, #4]	@ unaligned
 139:Middlewares/ST/STM32_WPAN/utilities/stm_list.c ****   ref_node->next = node;
 626              		.loc 1 139 3 is_stmt 1 view .LVU168
 627              		.loc 1 139 18 is_stmt 0 view .LVU169
 628 000c 0860     		str	r0, [r1]	@ unaligned
 140:Middlewares/ST/STM32_WPAN/utilities/stm_list.c ****   (node->next)->prev = node;
 629              		.loc 1 140 3 is_stmt 1 view .LVU170
 630              		.loc 1 140 8 is_stmt 0 view .LVU171
 631 000e 0268     		ldr	r2, [r0]	@ unaligned
 632              		.loc 1 140 22 view .LVU172
 633 0010 5060     		str	r0, [r2, #4]	@ unaligned
 141:Middlewares/ST/STM32_WPAN/utilities/stm_list.c **** 
 142:Middlewares/ST/STM32_WPAN/utilities/stm_list.c ****   __set_PRIMASK(primask_bit);     /**< Restore PRIMASK bit*/
 634              		.loc 1 142 3 is_stmt 1 view .LVU173
 635              	.LVL31:
 636              	.LBB108:
 637              	.LBI108:
 479:Drivers/CMSIS/Include/cmsis_gcc.h **** {
 638              		.loc 2 479 27 view .LVU174
 639              	.LBB109:
 640              		.loc 2 481 3 view .LVU175
 641              		.syntax unified
 642              	@ 481 "Drivers/CMSIS/Include/cmsis_gcc.h" 1
 643 0012 83F31088 		MSR primask, r3
 644              	@ 0 "" 2
 645              	.LVL32:
 646              		.loc 2 481 3 is_stmt 0 view .LVU176
 647              		.thumb
 648              		.syntax unified
 649              	.LBE109:
 650              	.LBE108:
 143:Middlewares/ST/STM32_WPAN/utilities/stm_list.c **** }
ARM GAS  /var/folders/lt/l_qrc8c54t93n_phsj7cf5tc0000gn/T//ccioc0h3.s 			page 24


 651              		.loc 1 143 1 view .LVU177
 652 0016 7047     		bx	lr
 653              		.cfi_endproc
 654              	.LFE1422:
 656              		.section	.text.LST_insert_node_before,"ax",%progbits
 657              		.align	1
 658              		.global	LST_insert_node_before
 659              		.syntax unified
 660              		.thumb
 661              		.thumb_func
 662              		.fpu fpv4-sp-d16
 664              	LST_insert_node_before:
 665              	.LVL33:
 666              	.LFB1423:
 144:Middlewares/ST/STM32_WPAN/utilities/stm_list.c **** 
 145:Middlewares/ST/STM32_WPAN/utilities/stm_list.c **** 
 146:Middlewares/ST/STM32_WPAN/utilities/stm_list.c **** void LST_insert_node_before (tListNode * node, tListNode * ref_node)
 147:Middlewares/ST/STM32_WPAN/utilities/stm_list.c **** {
 667              		.loc 1 147 1 is_stmt 1 view -0
 668              		.cfi_startproc
 669              		@ args = 0, pretend = 0, frame = 0
 670              		@ frame_needed = 0, uses_anonymous_args = 0
 671              		@ link register save eliminated.
 148:Middlewares/ST/STM32_WPAN/utilities/stm_list.c ****   uint32_t primask_bit;
 672              		.loc 1 148 3 view .LVU179
 149:Middlewares/ST/STM32_WPAN/utilities/stm_list.c **** 
 150:Middlewares/ST/STM32_WPAN/utilities/stm_list.c ****   primask_bit = __get_PRIMASK();  /**< backup PRIMASK bit */
 673              		.loc 1 150 3 view .LVU180
 674              	.LBB110:
 675              	.LBI110:
 449:Drivers/CMSIS/Include/cmsis_gcc.h **** {
 676              		.loc 2 449 31 view .LVU181
 677              	.LBB111:
 451:Drivers/CMSIS/Include/cmsis_gcc.h **** 
 678              		.loc 2 451 3 view .LVU182
 453:Drivers/CMSIS/Include/cmsis_gcc.h ****   return(result);
 679              		.loc 2 453 3 view .LVU183
 680              		.syntax unified
 681              	@ 453 "Drivers/CMSIS/Include/cmsis_gcc.h" 1
 682 0000 EFF31083 		MRS r3, primask
 683              	@ 0 "" 2
 684              	.LVL34:
 454:Drivers/CMSIS/Include/cmsis_gcc.h **** }
 685              		.loc 2 454 3 view .LVU184
 454:Drivers/CMSIS/Include/cmsis_gcc.h **** }
 686              		.loc 2 454 3 is_stmt 0 view .LVU185
 687              		.thumb
 688              		.syntax unified
 689              	.LBE111:
 690              	.LBE110:
 151:Middlewares/ST/STM32_WPAN/utilities/stm_list.c ****   __disable_irq();                  /**< Disable all interrupts by setting PRIMASK bit on Cortex*/
 691              		.loc 1 151 3 is_stmt 1 view .LVU186
 692              	.LBB112:
 693              	.LBI112:
 207:Drivers/CMSIS/Include/cmsis_gcc.h **** {
 694              		.loc 2 207 27 view .LVU187
 695              	.LBB113:
ARM GAS  /var/folders/lt/l_qrc8c54t93n_phsj7cf5tc0000gn/T//ccioc0h3.s 			page 25


 209:Drivers/CMSIS/Include/cmsis_gcc.h **** }
 696              		.loc 2 209 3 view .LVU188
 697              		.syntax unified
 698              	@ 209 "Drivers/CMSIS/Include/cmsis_gcc.h" 1
 699 0004 72B6     		cpsid i
 700              	@ 0 "" 2
 701              		.thumb
 702              		.syntax unified
 703              	.LBE113:
 704              	.LBE112:
 152:Middlewares/ST/STM32_WPAN/utilities/stm_list.c **** 
 153:Middlewares/ST/STM32_WPAN/utilities/stm_list.c ****   node->next = ref_node;
 705              		.loc 1 153 3 view .LVU189
 706              		.loc 1 153 14 is_stmt 0 view .LVU190
 707 0006 0160     		str	r1, [r0]	@ unaligned
 154:Middlewares/ST/STM32_WPAN/utilities/stm_list.c ****   node->prev = ref_node->prev;
 708              		.loc 1 154 3 is_stmt 1 view .LVU191
 709              		.loc 1 154 24 is_stmt 0 view .LVU192
 710 0008 4A68     		ldr	r2, [r1, #4]	@ unaligned
 711              		.loc 1 154 14 view .LVU193
 712 000a 4260     		str	r2, [r0, #4]	@ unaligned
 155:Middlewares/ST/STM32_WPAN/utilities/stm_list.c ****   ref_node->prev = node;
 713              		.loc 1 155 3 is_stmt 1 view .LVU194
 714              		.loc 1 155 18 is_stmt 0 view .LVU195
 715 000c 4860     		str	r0, [r1, #4]	@ unaligned
 156:Middlewares/ST/STM32_WPAN/utilities/stm_list.c ****   (node->prev)->next = node;
 716              		.loc 1 156 3 is_stmt 1 view .LVU196
 717              		.loc 1 156 8 is_stmt 0 view .LVU197
 718 000e 4268     		ldr	r2, [r0, #4]	@ unaligned
 719              		.loc 1 156 22 view .LVU198
 720 0010 1060     		str	r0, [r2]	@ unaligned
 157:Middlewares/ST/STM32_WPAN/utilities/stm_list.c **** 
 158:Middlewares/ST/STM32_WPAN/utilities/stm_list.c ****   __set_PRIMASK(primask_bit);     /**< Restore PRIMASK bit*/
 721              		.loc 1 158 3 is_stmt 1 view .LVU199
 722              	.LVL35:
 723              	.LBB114:
 724              	.LBI114:
 479:Drivers/CMSIS/Include/cmsis_gcc.h **** {
 725              		.loc 2 479 27 view .LVU200
 726              	.LBB115:
 727              		.loc 2 481 3 view .LVU201
 728              		.syntax unified
 729              	@ 481 "Drivers/CMSIS/Include/cmsis_gcc.h" 1
 730 0012 83F31088 		MSR primask, r3
 731              	@ 0 "" 2
 732              	.LVL36:
 733              		.loc 2 481 3 is_stmt 0 view .LVU202
 734              		.thumb
 735              		.syntax unified
 736              	.LBE115:
 737              	.LBE114:
 159:Middlewares/ST/STM32_WPAN/utilities/stm_list.c **** }
 738              		.loc 1 159 1 view .LVU203
 739 0016 7047     		bx	lr
 740              		.cfi_endproc
 741              	.LFE1423:
 743              		.section	.text.LST_get_size,"ax",%progbits
ARM GAS  /var/folders/lt/l_qrc8c54t93n_phsj7cf5tc0000gn/T//ccioc0h3.s 			page 26


 744              		.align	1
 745              		.global	LST_get_size
 746              		.syntax unified
 747              		.thumb
 748              		.thumb_func
 749              		.fpu fpv4-sp-d16
 751              	LST_get_size:
 752              	.LVL37:
 753              	.LFB1424:
 160:Middlewares/ST/STM32_WPAN/utilities/stm_list.c **** 
 161:Middlewares/ST/STM32_WPAN/utilities/stm_list.c **** 
 162:Middlewares/ST/STM32_WPAN/utilities/stm_list.c **** int LST_get_size (tListNode * listHead)
 163:Middlewares/ST/STM32_WPAN/utilities/stm_list.c **** {
 754              		.loc 1 163 1 is_stmt 1 view -0
 755              		.cfi_startproc
 756              		@ args = 0, pretend = 0, frame = 0
 757              		@ frame_needed = 0, uses_anonymous_args = 0
 758              		@ link register save eliminated.
 759              		.loc 1 163 1 is_stmt 0 view .LVU205
 760 0000 0246     		mov	r2, r0
 164:Middlewares/ST/STM32_WPAN/utilities/stm_list.c ****   int size = 0;
 761              		.loc 1 164 3 is_stmt 1 view .LVU206
 762              	.LVL38:
 165:Middlewares/ST/STM32_WPAN/utilities/stm_list.c ****   tListNode * temp;
 763              		.loc 1 165 3 view .LVU207
 166:Middlewares/ST/STM32_WPAN/utilities/stm_list.c ****   uint32_t primask_bit;
 764              		.loc 1 166 3 view .LVU208
 167:Middlewares/ST/STM32_WPAN/utilities/stm_list.c **** 
 168:Middlewares/ST/STM32_WPAN/utilities/stm_list.c ****   primask_bit = __get_PRIMASK();  /**< backup PRIMASK bit */
 765              		.loc 1 168 3 view .LVU209
 766              	.LBB116:
 767              	.LBI116:
 449:Drivers/CMSIS/Include/cmsis_gcc.h **** {
 768              		.loc 2 449 31 view .LVU210
 769              	.LBB117:
 451:Drivers/CMSIS/Include/cmsis_gcc.h **** 
 770              		.loc 2 451 3 view .LVU211
 453:Drivers/CMSIS/Include/cmsis_gcc.h ****   return(result);
 771              		.loc 2 453 3 view .LVU212
 772              		.syntax unified
 773              	@ 453 "Drivers/CMSIS/Include/cmsis_gcc.h" 1
 774 0002 EFF31081 		MRS r1, primask
 775              	@ 0 "" 2
 776              	.LVL39:
 454:Drivers/CMSIS/Include/cmsis_gcc.h **** }
 777              		.loc 2 454 3 view .LVU213
 454:Drivers/CMSIS/Include/cmsis_gcc.h **** }
 778              		.loc 2 454 3 is_stmt 0 view .LVU214
 779              		.thumb
 780              		.syntax unified
 781              	.LBE117:
 782              	.LBE116:
 169:Middlewares/ST/STM32_WPAN/utilities/stm_list.c ****   __disable_irq();                  /**< Disable all interrupts by setting PRIMASK bit on Cortex*/
 783              		.loc 1 169 3 is_stmt 1 view .LVU215
 784              	.LBB118:
 785              	.LBI118:
 207:Drivers/CMSIS/Include/cmsis_gcc.h **** {
ARM GAS  /var/folders/lt/l_qrc8c54t93n_phsj7cf5tc0000gn/T//ccioc0h3.s 			page 27


 786              		.loc 2 207 27 view .LVU216
 787              	.LBB119:
 209:Drivers/CMSIS/Include/cmsis_gcc.h **** }
 788              		.loc 2 209 3 view .LVU217
 789              		.syntax unified
 790              	@ 209 "Drivers/CMSIS/Include/cmsis_gcc.h" 1
 791 0006 72B6     		cpsid i
 792              	@ 0 "" 2
 793              		.thumb
 794              		.syntax unified
 795              	.LBE119:
 796              	.LBE118:
 170:Middlewares/ST/STM32_WPAN/utilities/stm_list.c **** 
 171:Middlewares/ST/STM32_WPAN/utilities/stm_list.c ****   temp = listHead->next;
 797              		.loc 1 171 3 view .LVU218
 798              		.loc 1 171 8 is_stmt 0 view .LVU219
 799 0008 0368     		ldr	r3, [r0]	@ unaligned
 800              	.LVL40:
 172:Middlewares/ST/STM32_WPAN/utilities/stm_list.c ****   while (temp != listHead)
 801              		.loc 1 172 3 is_stmt 1 view .LVU220
 164:Middlewares/ST/STM32_WPAN/utilities/stm_list.c ****   tListNode * temp;
 802              		.loc 1 164 7 is_stmt 0 view .LVU221
 803 000a 0020     		movs	r0, #0
 804              	.LVL41:
 805              	.L16:
 806              		.loc 1 172 9 is_stmt 1 view .LVU222
 807 000c 9342     		cmp	r3, r2
 808 000e 02D0     		beq	.L18
 173:Middlewares/ST/STM32_WPAN/utilities/stm_list.c ****   {
 174:Middlewares/ST/STM32_WPAN/utilities/stm_list.c ****     size++;
 809              		.loc 1 174 5 view .LVU223
 810              		.loc 1 174 9 is_stmt 0 view .LVU224
 811 0010 0130     		adds	r0, r0, #1
 812              	.LVL42:
 175:Middlewares/ST/STM32_WPAN/utilities/stm_list.c ****     temp = temp->next;
 813              		.loc 1 175 5 is_stmt 1 view .LVU225
 814              		.loc 1 175 10 is_stmt 0 view .LVU226
 815 0012 1B68     		ldr	r3, [r3]	@ unaligned
 816              	.LVL43:
 817              		.loc 1 175 10 view .LVU227
 818 0014 FAE7     		b	.L16
 819              	.L18:
 176:Middlewares/ST/STM32_WPAN/utilities/stm_list.c ****   }
 177:Middlewares/ST/STM32_WPAN/utilities/stm_list.c **** 
 178:Middlewares/ST/STM32_WPAN/utilities/stm_list.c ****   __set_PRIMASK(primask_bit);     /**< Restore PRIMASK bit*/
 820              		.loc 1 178 3 is_stmt 1 view .LVU228
 821              	.LVL44:
 822              	.LBB120:
 823              	.LBI120:
 479:Drivers/CMSIS/Include/cmsis_gcc.h **** {
 824              		.loc 2 479 27 view .LVU229
 825              	.LBB121:
 826              		.loc 2 481 3 view .LVU230
 827              		.syntax unified
 828              	@ 481 "Drivers/CMSIS/Include/cmsis_gcc.h" 1
 829 0016 81F31088 		MSR primask, r1
 830              	@ 0 "" 2
ARM GAS  /var/folders/lt/l_qrc8c54t93n_phsj7cf5tc0000gn/T//ccioc0h3.s 			page 28


 831              	.LVL45:
 832              		.loc 2 481 3 is_stmt 0 view .LVU231
 833              		.thumb
 834              		.syntax unified
 835              	.LBE121:
 836              	.LBE120:
 179:Middlewares/ST/STM32_WPAN/utilities/stm_list.c **** 
 180:Middlewares/ST/STM32_WPAN/utilities/stm_list.c ****   return (size);
 837              		.loc 1 180 3 is_stmt 1 view .LVU232
 181:Middlewares/ST/STM32_WPAN/utilities/stm_list.c **** }
 838              		.loc 1 181 1 is_stmt 0 view .LVU233
 839 001a 7047     		bx	lr
 840              		.cfi_endproc
 841              	.LFE1424:
 843              		.section	.text.LST_get_next_node,"ax",%progbits
 844              		.align	1
 845              		.global	LST_get_next_node
 846              		.syntax unified
 847              		.thumb
 848              		.thumb_func
 849              		.fpu fpv4-sp-d16
 851              	LST_get_next_node:
 852              	.LVL46:
 853              	.LFB1425:
 182:Middlewares/ST/STM32_WPAN/utilities/stm_list.c **** 
 183:Middlewares/ST/STM32_WPAN/utilities/stm_list.c **** void LST_get_next_node (tListNode * ref_node, tListNode ** node)
 184:Middlewares/ST/STM32_WPAN/utilities/stm_list.c **** {
 854              		.loc 1 184 1 is_stmt 1 view -0
 855              		.cfi_startproc
 856              		@ args = 0, pretend = 0, frame = 0
 857              		@ frame_needed = 0, uses_anonymous_args = 0
 858              		@ link register save eliminated.
 185:Middlewares/ST/STM32_WPAN/utilities/stm_list.c ****   uint32_t primask_bit;
 859              		.loc 1 185 3 view .LVU235
 186:Middlewares/ST/STM32_WPAN/utilities/stm_list.c **** 
 187:Middlewares/ST/STM32_WPAN/utilities/stm_list.c ****   primask_bit = __get_PRIMASK();  /**< backup PRIMASK bit */
 860              		.loc 1 187 3 view .LVU236
 861              	.LBB122:
 862              	.LBI122:
 449:Drivers/CMSIS/Include/cmsis_gcc.h **** {
 863              		.loc 2 449 31 view .LVU237
 864              	.LBB123:
 451:Drivers/CMSIS/Include/cmsis_gcc.h **** 
 865              		.loc 2 451 3 view .LVU238
 453:Drivers/CMSIS/Include/cmsis_gcc.h ****   return(result);
 866              		.loc 2 453 3 view .LVU239
 867              		.syntax unified
 868              	@ 453 "Drivers/CMSIS/Include/cmsis_gcc.h" 1
 869 0000 EFF31083 		MRS r3, primask
 870              	@ 0 "" 2
 871              	.LVL47:
 454:Drivers/CMSIS/Include/cmsis_gcc.h **** }
 872              		.loc 2 454 3 view .LVU240
 454:Drivers/CMSIS/Include/cmsis_gcc.h **** }
 873              		.loc 2 454 3 is_stmt 0 view .LVU241
 874              		.thumb
 875              		.syntax unified
ARM GAS  /var/folders/lt/l_qrc8c54t93n_phsj7cf5tc0000gn/T//ccioc0h3.s 			page 29


 876              	.LBE123:
 877              	.LBE122:
 188:Middlewares/ST/STM32_WPAN/utilities/stm_list.c ****   __disable_irq();                  /**< Disable all interrupts by setting PRIMASK bit on Cortex*/
 878              		.loc 1 188 3 is_stmt 1 view .LVU242
 879              	.LBB124:
 880              	.LBI124:
 207:Drivers/CMSIS/Include/cmsis_gcc.h **** {
 881              		.loc 2 207 27 view .LVU243
 882              	.LBB125:
 209:Drivers/CMSIS/Include/cmsis_gcc.h **** }
 883              		.loc 2 209 3 view .LVU244
 884              		.syntax unified
 885              	@ 209 "Drivers/CMSIS/Include/cmsis_gcc.h" 1
 886 0004 72B6     		cpsid i
 887              	@ 0 "" 2
 888              		.thumb
 889              		.syntax unified
 890              	.LBE125:
 891              	.LBE124:
 189:Middlewares/ST/STM32_WPAN/utilities/stm_list.c **** 
 190:Middlewares/ST/STM32_WPAN/utilities/stm_list.c ****   *node = ref_node->next;
 892              		.loc 1 190 3 view .LVU245
 893              		.loc 1 190 19 is_stmt 0 view .LVU246
 894 0006 0268     		ldr	r2, [r0]	@ unaligned
 895              		.loc 1 190 9 view .LVU247
 896 0008 0A60     		str	r2, [r1]
 191:Middlewares/ST/STM32_WPAN/utilities/stm_list.c **** 
 192:Middlewares/ST/STM32_WPAN/utilities/stm_list.c ****   __set_PRIMASK(primask_bit);     /**< Restore PRIMASK bit*/
 897              		.loc 1 192 3 is_stmt 1 view .LVU248
 898              	.LVL48:
 899              	.LBB126:
 900              	.LBI126:
 479:Drivers/CMSIS/Include/cmsis_gcc.h **** {
 901              		.loc 2 479 27 view .LVU249
 902              	.LBB127:
 903              		.loc 2 481 3 view .LVU250
 904              		.syntax unified
 905              	@ 481 "Drivers/CMSIS/Include/cmsis_gcc.h" 1
 906 000a 83F31088 		MSR primask, r3
 907              	@ 0 "" 2
 908              	.LVL49:
 909              		.loc 2 481 3 is_stmt 0 view .LVU251
 910              		.thumb
 911              		.syntax unified
 912              	.LBE127:
 913              	.LBE126:
 193:Middlewares/ST/STM32_WPAN/utilities/stm_list.c **** }
 914              		.loc 1 193 1 view .LVU252
 915 000e 7047     		bx	lr
 916              		.cfi_endproc
 917              	.LFE1425:
 919              		.section	.text.LST_get_prev_node,"ax",%progbits
 920              		.align	1
 921              		.global	LST_get_prev_node
 922              		.syntax unified
 923              		.thumb
 924              		.thumb_func
ARM GAS  /var/folders/lt/l_qrc8c54t93n_phsj7cf5tc0000gn/T//ccioc0h3.s 			page 30


 925              		.fpu fpv4-sp-d16
 927              	LST_get_prev_node:
 928              	.LVL50:
 929              	.LFB1426:
 194:Middlewares/ST/STM32_WPAN/utilities/stm_list.c **** 
 195:Middlewares/ST/STM32_WPAN/utilities/stm_list.c **** 
 196:Middlewares/ST/STM32_WPAN/utilities/stm_list.c **** void LST_get_prev_node (tListNode * ref_node, tListNode ** node)
 197:Middlewares/ST/STM32_WPAN/utilities/stm_list.c **** {
 930              		.loc 1 197 1 is_stmt 1 view -0
 931              		.cfi_startproc
 932              		@ args = 0, pretend = 0, frame = 0
 933              		@ frame_needed = 0, uses_anonymous_args = 0
 934              		@ link register save eliminated.
 198:Middlewares/ST/STM32_WPAN/utilities/stm_list.c ****   uint32_t primask_bit;
 935              		.loc 1 198 3 view .LVU254
 199:Middlewares/ST/STM32_WPAN/utilities/stm_list.c **** 
 200:Middlewares/ST/STM32_WPAN/utilities/stm_list.c ****   primask_bit = __get_PRIMASK();  /**< backup PRIMASK bit */
 936              		.loc 1 200 3 view .LVU255
 937              	.LBB128:
 938              	.LBI128:
 449:Drivers/CMSIS/Include/cmsis_gcc.h **** {
 939              		.loc 2 449 31 view .LVU256
 940              	.LBB129:
 451:Drivers/CMSIS/Include/cmsis_gcc.h **** 
 941              		.loc 2 451 3 view .LVU257
 453:Drivers/CMSIS/Include/cmsis_gcc.h ****   return(result);
 942              		.loc 2 453 3 view .LVU258
 943              		.syntax unified
 944              	@ 453 "Drivers/CMSIS/Include/cmsis_gcc.h" 1
 945 0000 EFF31083 		MRS r3, primask
 946              	@ 0 "" 2
 947              	.LVL51:
 454:Drivers/CMSIS/Include/cmsis_gcc.h **** }
 948              		.loc 2 454 3 view .LVU259
 454:Drivers/CMSIS/Include/cmsis_gcc.h **** }
 949              		.loc 2 454 3 is_stmt 0 view .LVU260
 950              		.thumb
 951              		.syntax unified
 952              	.LBE129:
 953              	.LBE128:
 201:Middlewares/ST/STM32_WPAN/utilities/stm_list.c ****   __disable_irq();                  /**< Disable all interrupts by setting PRIMASK bit on Cortex*/
 954              		.loc 1 201 3 is_stmt 1 view .LVU261
 955              	.LBB130:
 956              	.LBI130:
 207:Drivers/CMSIS/Include/cmsis_gcc.h **** {
 957              		.loc 2 207 27 view .LVU262
 958              	.LBB131:
 209:Drivers/CMSIS/Include/cmsis_gcc.h **** }
 959              		.loc 2 209 3 view .LVU263
 960              		.syntax unified
 961              	@ 209 "Drivers/CMSIS/Include/cmsis_gcc.h" 1
 962 0004 72B6     		cpsid i
 963              	@ 0 "" 2
 964              		.thumb
 965              		.syntax unified
 966              	.LBE131:
 967              	.LBE130:
ARM GAS  /var/folders/lt/l_qrc8c54t93n_phsj7cf5tc0000gn/T//ccioc0h3.s 			page 31


 202:Middlewares/ST/STM32_WPAN/utilities/stm_list.c **** 
 203:Middlewares/ST/STM32_WPAN/utilities/stm_list.c ****   *node = ref_node->prev;
 968              		.loc 1 203 3 view .LVU264
 969              		.loc 1 203 19 is_stmt 0 view .LVU265
 970 0006 4268     		ldr	r2, [r0, #4]	@ unaligned
 971              		.loc 1 203 9 view .LVU266
 972 0008 0A60     		str	r2, [r1]
 204:Middlewares/ST/STM32_WPAN/utilities/stm_list.c **** 
 205:Middlewares/ST/STM32_WPAN/utilities/stm_list.c ****   __set_PRIMASK(primask_bit);      /**< Restore PRIMASK bit*/
 973              		.loc 1 205 3 is_stmt 1 view .LVU267
 974              	.LVL52:
 975              	.LBB132:
 976              	.LBI132:
 479:Drivers/CMSIS/Include/cmsis_gcc.h **** {
 977              		.loc 2 479 27 view .LVU268
 978              	.LBB133:
 979              		.loc 2 481 3 view .LVU269
 980              		.syntax unified
 981              	@ 481 "Drivers/CMSIS/Include/cmsis_gcc.h" 1
 982 000a 83F31088 		MSR primask, r3
 983              	@ 0 "" 2
 984              	.LVL53:
 985              		.loc 2 481 3 is_stmt 0 view .LVU270
 986              		.thumb
 987              		.syntax unified
 988              	.LBE133:
 989              	.LBE132:
 206:Middlewares/ST/STM32_WPAN/utilities/stm_list.c **** }
 990              		.loc 1 206 1 view .LVU271
 991 000e 7047     		bx	lr
 992              		.cfi_endproc
 993              	.LFE1426:
 995              		.text
 996              	.Letext0:
 997              		.file 3 "/usr/local/Cellar/arm-none-eabi-gcc/9-2019-q4-major/gcc/arm-none-eabi/include/machine/_de
 998              		.file 4 "/usr/local/Cellar/arm-none-eabi-gcc/9-2019-q4-major/gcc/arm-none-eabi/include/sys/_stdint
 999              		.file 5 "/usr/local/Cellar/arm-none-eabi-gcc/9-2019-q4-major/gcc/arm-none-eabi/include/sys/lock.h"
 1000              		.file 6 "/usr/local/Cellar/arm-none-eabi-gcc/9-2019-q4-major/gcc/arm-none-eabi/include/sys/_types.
 1001              		.file 7 "/usr/local/Cellar/arm-none-eabi-gcc/9-2019-q4-major/gcc/lib/gcc/arm-none-eabi/9.2.1/inclu
 1002              		.file 8 "/usr/local/Cellar/arm-none-eabi-gcc/9-2019-q4-major/gcc/arm-none-eabi/include/sys/reent.h
 1003              		.file 9 "/usr/local/Cellar/arm-none-eabi-gcc/9-2019-q4-major/gcc/arm-none-eabi/include/stdlib.h"
 1004              		.file 10 "Drivers/CMSIS/Include/core_cm4.h"
 1005              		.file 11 "Drivers/CMSIS/Device/ST/STM32WBxx/Include/system_stm32wbxx.h"
 1006              		.file 12 "Drivers/STM32WBxx_HAL_Driver/Inc/stm32wbxx_hal_def.h"
 1007              		.file 13 "Drivers/STM32WBxx_HAL_Driver/Inc/stm32wbxx_hal_flash.h"
 1008              		.file 14 "Drivers/STM32WBxx_HAL_Driver/Inc/stm32wbxx_hal_uart.h"
 1009              		.file 15 "Drivers/STM32WBxx_HAL_Driver/Inc/stm32wbxx_hal.h"
 1010              		.file 16 "Middlewares/ST/STM32_WPAN/utilities/stm_list.h"
ARM GAS  /var/folders/lt/l_qrc8c54t93n_phsj7cf5tc0000gn/T//ccioc0h3.s 			page 32

