ARM GAS  /var/folders/lt/l_qrc8c54t93n_phsj7cf5tc0000gn/T//cc2VRe6h.s 			page 1


   1              		.cpu cortex-m4
   2              		.eabi_attribute 27, 1
   3              		.eabi_attribute 28, 1
   4              		.eabi_attribute 20, 1
   5              		.eabi_attribute 21, 1
   6              		.eabi_attribute 23, 3
   7              		.eabi_attribute 24, 1
   8              		.eabi_attribute 25, 1
   9              		.eabi_attribute 26, 1
  10              		.eabi_attribute 30, 1
  11              		.eabi_attribute 34, 1
  12              		.eabi_attribute 18, 4
  13              		.file	"svc_ctl.c"
  14              		.text
  15              	.Ltext0:
  16              		.cfi_sections	.debug_frame
  17              		.section	.text.BAS_Init,"ax",%progbits
  18              		.align	1
  19              		.weak	BAS_Init
  20              		.arch armv7e-m
  21              		.syntax unified
  22              		.thumb
  23              		.thumb_func
  24              		.fpu fpv4-sp-d16
  26              	BAS_Init:
  27              	.LFB1415:
  28              		.file 1 "Middlewares/ST/STM32_WPAN/ble/svc/Src/svc_ctl.c"
   1:Middlewares/ST/STM32_WPAN/ble/svc/Src/svc_ctl.c **** /**
   2:Middlewares/ST/STM32_WPAN/ble/svc/Src/svc_ctl.c ****  ******************************************************************************
   3:Middlewares/ST/STM32_WPAN/ble/svc/Src/svc_ctl.c ****  * @file    svc_ctl.c
   4:Middlewares/ST/STM32_WPAN/ble/svc/Src/svc_ctl.c ****  * @author  MCD Application Team
   5:Middlewares/ST/STM32_WPAN/ble/svc/Src/svc_ctl.c ****  * @brief   BLE Controller
   6:Middlewares/ST/STM32_WPAN/ble/svc/Src/svc_ctl.c ****  ******************************************************************************
   7:Middlewares/ST/STM32_WPAN/ble/svc/Src/svc_ctl.c ****  * @attention
   8:Middlewares/ST/STM32_WPAN/ble/svc/Src/svc_ctl.c ****  *
   9:Middlewares/ST/STM32_WPAN/ble/svc/Src/svc_ctl.c ****  * Copyright (c) 2018-2021 STMicroelectronics.
  10:Middlewares/ST/STM32_WPAN/ble/svc/Src/svc_ctl.c ****  * All rights reserved.
  11:Middlewares/ST/STM32_WPAN/ble/svc/Src/svc_ctl.c ****  *
  12:Middlewares/ST/STM32_WPAN/ble/svc/Src/svc_ctl.c ****  * This software is licensed under terms that can be found in the LICENSE file
  13:Middlewares/ST/STM32_WPAN/ble/svc/Src/svc_ctl.c ****  * in the root directory of this software component.
  14:Middlewares/ST/STM32_WPAN/ble/svc/Src/svc_ctl.c ****  * If no LICENSE file comes with this software, it is provided AS-IS.
  15:Middlewares/ST/STM32_WPAN/ble/svc/Src/svc_ctl.c ****  *
  16:Middlewares/ST/STM32_WPAN/ble/svc/Src/svc_ctl.c ****  ******************************************************************************
  17:Middlewares/ST/STM32_WPAN/ble/svc/Src/svc_ctl.c ****  */
  18:Middlewares/ST/STM32_WPAN/ble/svc/Src/svc_ctl.c **** 
  19:Middlewares/ST/STM32_WPAN/ble/svc/Src/svc_ctl.c **** 
  20:Middlewares/ST/STM32_WPAN/ble/svc/Src/svc_ctl.c **** /* Includes ------------------------------------------------------------------*/
  21:Middlewares/ST/STM32_WPAN/ble/svc/Src/svc_ctl.c **** #include "common_blesvc.h"
  22:Middlewares/ST/STM32_WPAN/ble/svc/Src/svc_ctl.c **** #include "cmsis_compiler.h"
  23:Middlewares/ST/STM32_WPAN/ble/svc/Src/svc_ctl.c **** 
  24:Middlewares/ST/STM32_WPAN/ble/svc/Src/svc_ctl.c **** /* Private typedef -----------------------------------------------------------*/
  25:Middlewares/ST/STM32_WPAN/ble/svc/Src/svc_ctl.c **** typedef struct
  26:Middlewares/ST/STM32_WPAN/ble/svc/Src/svc_ctl.c **** {
  27:Middlewares/ST/STM32_WPAN/ble/svc/Src/svc_ctl.c **** #if (BLE_CFG_SVC_MAX_NBR_CB > 0)
  28:Middlewares/ST/STM32_WPAN/ble/svc/Src/svc_ctl.c **** SVC_CTL_p_EvtHandler_t SVCCTL__SvcHandlerTab[BLE_CFG_SVC_MAX_NBR_CB];
  29:Middlewares/ST/STM32_WPAN/ble/svc/Src/svc_ctl.c **** #endif
  30:Middlewares/ST/STM32_WPAN/ble/svc/Src/svc_ctl.c **** uint8_t NbreOfRegisteredHandler;
ARM GAS  /var/folders/lt/l_qrc8c54t93n_phsj7cf5tc0000gn/T//cc2VRe6h.s 			page 2


  31:Middlewares/ST/STM32_WPAN/ble/svc/Src/svc_ctl.c **** } SVCCTL_EvtHandler_t;
  32:Middlewares/ST/STM32_WPAN/ble/svc/Src/svc_ctl.c **** 
  33:Middlewares/ST/STM32_WPAN/ble/svc/Src/svc_ctl.c **** typedef struct
  34:Middlewares/ST/STM32_WPAN/ble/svc/Src/svc_ctl.c **** {
  35:Middlewares/ST/STM32_WPAN/ble/svc/Src/svc_ctl.c **** #if (BLE_CFG_CLT_MAX_NBR_CB > 0)
  36:Middlewares/ST/STM32_WPAN/ble/svc/Src/svc_ctl.c **** SVC_CTL_p_EvtHandler_t SVCCTL_CltHandlerTable[BLE_CFG_CLT_MAX_NBR_CB];
  37:Middlewares/ST/STM32_WPAN/ble/svc/Src/svc_ctl.c **** #endif
  38:Middlewares/ST/STM32_WPAN/ble/svc/Src/svc_ctl.c **** uint8_t NbreOfRegisteredHandler;
  39:Middlewares/ST/STM32_WPAN/ble/svc/Src/svc_ctl.c **** } SVCCTL_CltHandler_t;
  40:Middlewares/ST/STM32_WPAN/ble/svc/Src/svc_ctl.c **** 
  41:Middlewares/ST/STM32_WPAN/ble/svc/Src/svc_ctl.c **** /* Private defines -----------------------------------------------------------*/
  42:Middlewares/ST/STM32_WPAN/ble/svc/Src/svc_ctl.c **** #define SVCCTL_EGID_EVT_MASK   0xFF00
  43:Middlewares/ST/STM32_WPAN/ble/svc/Src/svc_ctl.c **** #define SVCCTL_GATT_EVT_TYPE   0x0C00
  44:Middlewares/ST/STM32_WPAN/ble/svc/Src/svc_ctl.c **** #define SVCCTL_GAP_DEVICE_NAME_LENGTH 7
  45:Middlewares/ST/STM32_WPAN/ble/svc/Src/svc_ctl.c **** 
  46:Middlewares/ST/STM32_WPAN/ble/svc/Src/svc_ctl.c **** /* Private macros ------------------------------------------------------------*/
  47:Middlewares/ST/STM32_WPAN/ble/svc/Src/svc_ctl.c **** /* Private variables ---------------------------------------------------------*/
  48:Middlewares/ST/STM32_WPAN/ble/svc/Src/svc_ctl.c **** /**
  49:Middlewares/ST/STM32_WPAN/ble/svc/Src/svc_ctl.c ****  * START of Section BLE_DRIVER_CONTEXT
  50:Middlewares/ST/STM32_WPAN/ble/svc/Src/svc_ctl.c ****  */
  51:Middlewares/ST/STM32_WPAN/ble/svc/Src/svc_ctl.c **** 
  52:Middlewares/ST/STM32_WPAN/ble/svc/Src/svc_ctl.c **** PLACE_IN_SECTION("BLE_DRIVER_CONTEXT") SVCCTL_EvtHandler_t SVCCTL_EvtHandler;
  53:Middlewares/ST/STM32_WPAN/ble/svc/Src/svc_ctl.c **** PLACE_IN_SECTION("BLE_DRIVER_CONTEXT") SVCCTL_CltHandler_t SVCCTL_CltHandler;
  54:Middlewares/ST/STM32_WPAN/ble/svc/Src/svc_ctl.c **** 
  55:Middlewares/ST/STM32_WPAN/ble/svc/Src/svc_ctl.c **** /**
  56:Middlewares/ST/STM32_WPAN/ble/svc/Src/svc_ctl.c ****  * END of Section BLE_DRIVER_CONTEXT
  57:Middlewares/ST/STM32_WPAN/ble/svc/Src/svc_ctl.c ****  */
  58:Middlewares/ST/STM32_WPAN/ble/svc/Src/svc_ctl.c **** 
  59:Middlewares/ST/STM32_WPAN/ble/svc/Src/svc_ctl.c **** /* Private functions ----------------------------------------------------------*/
  60:Middlewares/ST/STM32_WPAN/ble/svc/Src/svc_ctl.c **** /* Weak functions ----------------------------------------------------------*/
  61:Middlewares/ST/STM32_WPAN/ble/svc/Src/svc_ctl.c **** void BVOPUS_STM_Init(void);
  62:Middlewares/ST/STM32_WPAN/ble/svc/Src/svc_ctl.c **** 
  63:Middlewares/ST/STM32_WPAN/ble/svc/Src/svc_ctl.c **** __WEAK void BAS_Init( void )
  64:Middlewares/ST/STM32_WPAN/ble/svc/Src/svc_ctl.c **** {
  29              		.loc 1 64 1 view -0
  30              		.cfi_startproc
  31              		@ args = 0, pretend = 0, frame = 0
  32              		@ frame_needed = 0, uses_anonymous_args = 0
  33              		@ link register save eliminated.
  65:Middlewares/ST/STM32_WPAN/ble/svc/Src/svc_ctl.c ****   return;
  34              		.loc 1 65 3 view .LVU1
  66:Middlewares/ST/STM32_WPAN/ble/svc/Src/svc_ctl.c **** }
  35              		.loc 1 66 1 is_stmt 0 view .LVU2
  36 0000 7047     		bx	lr
  37              		.cfi_endproc
  38              	.LFE1415:
  40              		.section	.text.BLS_Init,"ax",%progbits
  41              		.align	1
  42              		.weak	BLS_Init
  43              		.syntax unified
  44              		.thumb
  45              		.thumb_func
  46              		.fpu fpv4-sp-d16
  48              	BLS_Init:
  49              	.LFB1416:
  67:Middlewares/ST/STM32_WPAN/ble/svc/Src/svc_ctl.c **** 
  68:Middlewares/ST/STM32_WPAN/ble/svc/Src/svc_ctl.c **** __WEAK void BLS_Init( void )
ARM GAS  /var/folders/lt/l_qrc8c54t93n_phsj7cf5tc0000gn/T//cc2VRe6h.s 			page 3


  69:Middlewares/ST/STM32_WPAN/ble/svc/Src/svc_ctl.c **** {
  50              		.loc 1 69 1 is_stmt 1 view -0
  51              		.cfi_startproc
  52              		@ args = 0, pretend = 0, frame = 0
  53              		@ frame_needed = 0, uses_anonymous_args = 0
  54              		@ link register save eliminated.
  70:Middlewares/ST/STM32_WPAN/ble/svc/Src/svc_ctl.c ****   return;
  55              		.loc 1 70 3 view .LVU4
  71:Middlewares/ST/STM32_WPAN/ble/svc/Src/svc_ctl.c **** }
  56              		.loc 1 71 1 is_stmt 0 view .LVU5
  57 0000 7047     		bx	lr
  58              		.cfi_endproc
  59              	.LFE1416:
  61              		.section	.text.CRS_STM_Init,"ax",%progbits
  62              		.align	1
  63              		.weak	CRS_STM_Init
  64              		.syntax unified
  65              		.thumb
  66              		.thumb_func
  67              		.fpu fpv4-sp-d16
  69              	CRS_STM_Init:
  70              	.LFB1417:
  72:Middlewares/ST/STM32_WPAN/ble/svc/Src/svc_ctl.c **** __WEAK void CRS_STM_Init( void )
  73:Middlewares/ST/STM32_WPAN/ble/svc/Src/svc_ctl.c **** {
  71              		.loc 1 73 1 is_stmt 1 view -0
  72              		.cfi_startproc
  73              		@ args = 0, pretend = 0, frame = 0
  74              		@ frame_needed = 0, uses_anonymous_args = 0
  75              		@ link register save eliminated.
  74:Middlewares/ST/STM32_WPAN/ble/svc/Src/svc_ctl.c ****   return;
  76              		.loc 1 74 3 view .LVU7
  75:Middlewares/ST/STM32_WPAN/ble/svc/Src/svc_ctl.c **** }
  77              		.loc 1 75 1 is_stmt 0 view .LVU8
  78 0000 7047     		bx	lr
  79              		.cfi_endproc
  80              	.LFE1417:
  82              		.section	.text.DIS_Init,"ax",%progbits
  83              		.align	1
  84              		.weak	DIS_Init
  85              		.syntax unified
  86              		.thumb
  87              		.thumb_func
  88              		.fpu fpv4-sp-d16
  90              	DIS_Init:
  91              	.LFB1418:
  76:Middlewares/ST/STM32_WPAN/ble/svc/Src/svc_ctl.c **** __WEAK void DIS_Init( void )
  77:Middlewares/ST/STM32_WPAN/ble/svc/Src/svc_ctl.c **** {
  92              		.loc 1 77 1 is_stmt 1 view -0
  93              		.cfi_startproc
  94              		@ args = 0, pretend = 0, frame = 0
  95              		@ frame_needed = 0, uses_anonymous_args = 0
  96              		@ link register save eliminated.
  78:Middlewares/ST/STM32_WPAN/ble/svc/Src/svc_ctl.c ****   return;
  97              		.loc 1 78 3 view .LVU10
  79:Middlewares/ST/STM32_WPAN/ble/svc/Src/svc_ctl.c **** }
  98              		.loc 1 79 1 is_stmt 0 view .LVU11
  99 0000 7047     		bx	lr
ARM GAS  /var/folders/lt/l_qrc8c54t93n_phsj7cf5tc0000gn/T//cc2VRe6h.s 			page 4


 100              		.cfi_endproc
 101              	.LFE1418:
 103              		.section	.text.EDS_STM_Init,"ax",%progbits
 104              		.align	1
 105              		.weak	EDS_STM_Init
 106              		.syntax unified
 107              		.thumb
 108              		.thumb_func
 109              		.fpu fpv4-sp-d16
 111              	EDS_STM_Init:
 112              	.LFB1419:
  80:Middlewares/ST/STM32_WPAN/ble/svc/Src/svc_ctl.c **** __WEAK void EDS_STM_Init( void )
  81:Middlewares/ST/STM32_WPAN/ble/svc/Src/svc_ctl.c **** {
 113              		.loc 1 81 1 is_stmt 1 view -0
 114              		.cfi_startproc
 115              		@ args = 0, pretend = 0, frame = 0
 116              		@ frame_needed = 0, uses_anonymous_args = 0
 117              		@ link register save eliminated.
  82:Middlewares/ST/STM32_WPAN/ble/svc/Src/svc_ctl.c ****   return;
 118              		.loc 1 82 3 view .LVU13
  83:Middlewares/ST/STM32_WPAN/ble/svc/Src/svc_ctl.c **** }
 119              		.loc 1 83 1 is_stmt 0 view .LVU14
 120 0000 7047     		bx	lr
 121              		.cfi_endproc
 122              	.LFE1419:
 124              		.section	.text.HIDS_Init,"ax",%progbits
 125              		.align	1
 126              		.weak	HIDS_Init
 127              		.syntax unified
 128              		.thumb
 129              		.thumb_func
 130              		.fpu fpv4-sp-d16
 132              	HIDS_Init:
 133              	.LFB1420:
  84:Middlewares/ST/STM32_WPAN/ble/svc/Src/svc_ctl.c **** __WEAK void HIDS_Init( void )
  85:Middlewares/ST/STM32_WPAN/ble/svc/Src/svc_ctl.c **** {
 134              		.loc 1 85 1 is_stmt 1 view -0
 135              		.cfi_startproc
 136              		@ args = 0, pretend = 0, frame = 0
 137              		@ frame_needed = 0, uses_anonymous_args = 0
 138              		@ link register save eliminated.
  86:Middlewares/ST/STM32_WPAN/ble/svc/Src/svc_ctl.c ****   return;
 139              		.loc 1 86 3 view .LVU16
  87:Middlewares/ST/STM32_WPAN/ble/svc/Src/svc_ctl.c **** }
 140              		.loc 1 87 1 is_stmt 0 view .LVU17
 141 0000 7047     		bx	lr
 142              		.cfi_endproc
 143              	.LFE1420:
 145              		.section	.text.HRS_Init,"ax",%progbits
 146              		.align	1
 147              		.weak	HRS_Init
 148              		.syntax unified
 149              		.thumb
 150              		.thumb_func
 151              		.fpu fpv4-sp-d16
 153              	HRS_Init:
 154              	.LFB1421:
ARM GAS  /var/folders/lt/l_qrc8c54t93n_phsj7cf5tc0000gn/T//cc2VRe6h.s 			page 5


  88:Middlewares/ST/STM32_WPAN/ble/svc/Src/svc_ctl.c **** __WEAK void HRS_Init( void )
  89:Middlewares/ST/STM32_WPAN/ble/svc/Src/svc_ctl.c **** {
 155              		.loc 1 89 1 is_stmt 1 view -0
 156              		.cfi_startproc
 157              		@ args = 0, pretend = 0, frame = 0
 158              		@ frame_needed = 0, uses_anonymous_args = 0
 159              		@ link register save eliminated.
  90:Middlewares/ST/STM32_WPAN/ble/svc/Src/svc_ctl.c ****   return;
 160              		.loc 1 90 3 view .LVU19
  91:Middlewares/ST/STM32_WPAN/ble/svc/Src/svc_ctl.c **** }
 161              		.loc 1 91 1 is_stmt 0 view .LVU20
 162 0000 7047     		bx	lr
 163              		.cfi_endproc
 164              	.LFE1421:
 166              		.section	.text.HTS_Init,"ax",%progbits
 167              		.align	1
 168              		.weak	HTS_Init
 169              		.syntax unified
 170              		.thumb
 171              		.thumb_func
 172              		.fpu fpv4-sp-d16
 174              	HTS_Init:
 175              	.LFB1422:
  92:Middlewares/ST/STM32_WPAN/ble/svc/Src/svc_ctl.c **** __WEAK void HTS_Init( void )
  93:Middlewares/ST/STM32_WPAN/ble/svc/Src/svc_ctl.c **** {
 176              		.loc 1 93 1 is_stmt 1 view -0
 177              		.cfi_startproc
 178              		@ args = 0, pretend = 0, frame = 0
 179              		@ frame_needed = 0, uses_anonymous_args = 0
 180              		@ link register save eliminated.
  94:Middlewares/ST/STM32_WPAN/ble/svc/Src/svc_ctl.c ****   return;
 181              		.loc 1 94 3 view .LVU22
  95:Middlewares/ST/STM32_WPAN/ble/svc/Src/svc_ctl.c **** }
 182              		.loc 1 95 1 is_stmt 0 view .LVU23
 183 0000 7047     		bx	lr
 184              		.cfi_endproc
 185              	.LFE1422:
 187              		.section	.text.IAS_Init,"ax",%progbits
 188              		.align	1
 189              		.weak	IAS_Init
 190              		.syntax unified
 191              		.thumb
 192              		.thumb_func
 193              		.fpu fpv4-sp-d16
 195              	IAS_Init:
 196              	.LFB1423:
  96:Middlewares/ST/STM32_WPAN/ble/svc/Src/svc_ctl.c **** __WEAK void IAS_Init( void )
  97:Middlewares/ST/STM32_WPAN/ble/svc/Src/svc_ctl.c **** {
 197              		.loc 1 97 1 is_stmt 1 view -0
 198              		.cfi_startproc
 199              		@ args = 0, pretend = 0, frame = 0
 200              		@ frame_needed = 0, uses_anonymous_args = 0
 201              		@ link register save eliminated.
  98:Middlewares/ST/STM32_WPAN/ble/svc/Src/svc_ctl.c ****   return;
 202              		.loc 1 98 3 view .LVU25
  99:Middlewares/ST/STM32_WPAN/ble/svc/Src/svc_ctl.c **** }
 203              		.loc 1 99 1 is_stmt 0 view .LVU26
ARM GAS  /var/folders/lt/l_qrc8c54t93n_phsj7cf5tc0000gn/T//cc2VRe6h.s 			page 6


 204 0000 7047     		bx	lr
 205              		.cfi_endproc
 206              	.LFE1423:
 208              		.section	.text.LLS_Init,"ax",%progbits
 209              		.align	1
 210              		.weak	LLS_Init
 211              		.syntax unified
 212              		.thumb
 213              		.thumb_func
 214              		.fpu fpv4-sp-d16
 216              	LLS_Init:
 217              	.LFB1424:
 100:Middlewares/ST/STM32_WPAN/ble/svc/Src/svc_ctl.c **** __WEAK void LLS_Init( void )
 101:Middlewares/ST/STM32_WPAN/ble/svc/Src/svc_ctl.c **** {
 218              		.loc 1 101 1 is_stmt 1 view -0
 219              		.cfi_startproc
 220              		@ args = 0, pretend = 0, frame = 0
 221              		@ frame_needed = 0, uses_anonymous_args = 0
 222              		@ link register save eliminated.
 102:Middlewares/ST/STM32_WPAN/ble/svc/Src/svc_ctl.c ****   return;
 223              		.loc 1 102 3 view .LVU28
 103:Middlewares/ST/STM32_WPAN/ble/svc/Src/svc_ctl.c **** }
 224              		.loc 1 103 1 is_stmt 0 view .LVU29
 225 0000 7047     		bx	lr
 226              		.cfi_endproc
 227              	.LFE1424:
 229              		.section	.text.TPS_Init,"ax",%progbits
 230              		.align	1
 231              		.weak	TPS_Init
 232              		.syntax unified
 233              		.thumb
 234              		.thumb_func
 235              		.fpu fpv4-sp-d16
 237              	TPS_Init:
 238              	.LFB1425:
 104:Middlewares/ST/STM32_WPAN/ble/svc/Src/svc_ctl.c **** __WEAK void TPS_Init( void )
 105:Middlewares/ST/STM32_WPAN/ble/svc/Src/svc_ctl.c **** {
 239              		.loc 1 105 1 is_stmt 1 view -0
 240              		.cfi_startproc
 241              		@ args = 0, pretend = 0, frame = 0
 242              		@ frame_needed = 0, uses_anonymous_args = 0
 243              		@ link register save eliminated.
 106:Middlewares/ST/STM32_WPAN/ble/svc/Src/svc_ctl.c ****   return;
 244              		.loc 1 106 3 view .LVU31
 107:Middlewares/ST/STM32_WPAN/ble/svc/Src/svc_ctl.c **** }
 245              		.loc 1 107 1 is_stmt 0 view .LVU32
 246 0000 7047     		bx	lr
 247              		.cfi_endproc
 248              	.LFE1425:
 250              		.section	.text.MOTENV_STM_Init,"ax",%progbits
 251              		.align	1
 252              		.weak	MOTENV_STM_Init
 253              		.syntax unified
 254              		.thumb
 255              		.thumb_func
 256              		.fpu fpv4-sp-d16
 258              	MOTENV_STM_Init:
ARM GAS  /var/folders/lt/l_qrc8c54t93n_phsj7cf5tc0000gn/T//cc2VRe6h.s 			page 7


 259              	.LFB1426:
 108:Middlewares/ST/STM32_WPAN/ble/svc/Src/svc_ctl.c **** __WEAK void MOTENV_STM_Init( void )
 109:Middlewares/ST/STM32_WPAN/ble/svc/Src/svc_ctl.c **** {
 260              		.loc 1 109 1 is_stmt 1 view -0
 261              		.cfi_startproc
 262              		@ args = 0, pretend = 0, frame = 0
 263              		@ frame_needed = 0, uses_anonymous_args = 0
 264              		@ link register save eliminated.
 110:Middlewares/ST/STM32_WPAN/ble/svc/Src/svc_ctl.c ****   return;
 265              		.loc 1 110 3 view .LVU34
 111:Middlewares/ST/STM32_WPAN/ble/svc/Src/svc_ctl.c **** }
 266              		.loc 1 111 1 is_stmt 0 view .LVU35
 267 0000 7047     		bx	lr
 268              		.cfi_endproc
 269              	.LFE1426:
 271              		.section	.text.P2PS_STM_Init,"ax",%progbits
 272              		.align	1
 273              		.weak	P2PS_STM_Init
 274              		.syntax unified
 275              		.thumb
 276              		.thumb_func
 277              		.fpu fpv4-sp-d16
 279              	P2PS_STM_Init:
 280              	.LFB1427:
 112:Middlewares/ST/STM32_WPAN/ble/svc/Src/svc_ctl.c **** __WEAK void P2PS_STM_Init( void )
 113:Middlewares/ST/STM32_WPAN/ble/svc/Src/svc_ctl.c **** {
 281              		.loc 1 113 1 is_stmt 1 view -0
 282              		.cfi_startproc
 283              		@ args = 0, pretend = 0, frame = 0
 284              		@ frame_needed = 0, uses_anonymous_args = 0
 285              		@ link register save eliminated.
 114:Middlewares/ST/STM32_WPAN/ble/svc/Src/svc_ctl.c ****   return;
 286              		.loc 1 114 3 view .LVU37
 115:Middlewares/ST/STM32_WPAN/ble/svc/Src/svc_ctl.c **** }
 287              		.loc 1 115 1 is_stmt 0 view .LVU38
 288 0000 7047     		bx	lr
 289              		.cfi_endproc
 290              	.LFE1427:
 292              		.section	.text.ZDD_STM_Init,"ax",%progbits
 293              		.align	1
 294              		.weak	ZDD_STM_Init
 295              		.syntax unified
 296              		.thumb
 297              		.thumb_func
 298              		.fpu fpv4-sp-d16
 300              	ZDD_STM_Init:
 301              	.LFB1428:
 116:Middlewares/ST/STM32_WPAN/ble/svc/Src/svc_ctl.c **** __WEAK void ZDD_STM_Init( void )
 117:Middlewares/ST/STM32_WPAN/ble/svc/Src/svc_ctl.c **** {
 302              		.loc 1 117 1 is_stmt 1 view -0
 303              		.cfi_startproc
 304              		@ args = 0, pretend = 0, frame = 0
 305              		@ frame_needed = 0, uses_anonymous_args = 0
 306              		@ link register save eliminated.
 118:Middlewares/ST/STM32_WPAN/ble/svc/Src/svc_ctl.c ****   return;
 307              		.loc 1 118 3 view .LVU40
 119:Middlewares/ST/STM32_WPAN/ble/svc/Src/svc_ctl.c **** }
ARM GAS  /var/folders/lt/l_qrc8c54t93n_phsj7cf5tc0000gn/T//cc2VRe6h.s 			page 8


 308              		.loc 1 119 1 is_stmt 0 view .LVU41
 309 0000 7047     		bx	lr
 310              		.cfi_endproc
 311              	.LFE1428:
 313              		.section	.text.OTAS_STM_Init,"ax",%progbits
 314              		.align	1
 315              		.weak	OTAS_STM_Init
 316              		.syntax unified
 317              		.thumb
 318              		.thumb_func
 319              		.fpu fpv4-sp-d16
 321              	OTAS_STM_Init:
 322              	.LFB1429:
 120:Middlewares/ST/STM32_WPAN/ble/svc/Src/svc_ctl.c **** __WEAK void OTAS_STM_Init( void )
 121:Middlewares/ST/STM32_WPAN/ble/svc/Src/svc_ctl.c **** {
 323              		.loc 1 121 1 is_stmt 1 view -0
 324              		.cfi_startproc
 325              		@ args = 0, pretend = 0, frame = 0
 326              		@ frame_needed = 0, uses_anonymous_args = 0
 327              		@ link register save eliminated.
 122:Middlewares/ST/STM32_WPAN/ble/svc/Src/svc_ctl.c ****   return;
 328              		.loc 1 122 3 view .LVU43
 123:Middlewares/ST/STM32_WPAN/ble/svc/Src/svc_ctl.c **** }
 329              		.loc 1 123 1 is_stmt 0 view .LVU44
 330 0000 7047     		bx	lr
 331              		.cfi_endproc
 332              	.LFE1429:
 334              		.section	.text.MESH_Init,"ax",%progbits
 335              		.align	1
 336              		.weak	MESH_Init
 337              		.syntax unified
 338              		.thumb
 339              		.thumb_func
 340              		.fpu fpv4-sp-d16
 342              	MESH_Init:
 343              	.LFB1430:
 124:Middlewares/ST/STM32_WPAN/ble/svc/Src/svc_ctl.c **** __WEAK void MESH_Init( void )
 125:Middlewares/ST/STM32_WPAN/ble/svc/Src/svc_ctl.c **** {
 344              		.loc 1 125 1 is_stmt 1 view -0
 345              		.cfi_startproc
 346              		@ args = 0, pretend = 0, frame = 0
 347              		@ frame_needed = 0, uses_anonymous_args = 0
 348              		@ link register save eliminated.
 126:Middlewares/ST/STM32_WPAN/ble/svc/Src/svc_ctl.c ****   return;
 349              		.loc 1 126 3 view .LVU46
 127:Middlewares/ST/STM32_WPAN/ble/svc/Src/svc_ctl.c **** }
 350              		.loc 1 127 1 is_stmt 0 view .LVU47
 351 0000 7047     		bx	lr
 352              		.cfi_endproc
 353              	.LFE1430:
 355              		.section	.text.BVOPUS_STM_Init,"ax",%progbits
 356              		.align	1
 357              		.weak	BVOPUS_STM_Init
 358              		.syntax unified
 359              		.thumb
 360              		.thumb_func
 361              		.fpu fpv4-sp-d16
ARM GAS  /var/folders/lt/l_qrc8c54t93n_phsj7cf5tc0000gn/T//cc2VRe6h.s 			page 9


 363              	BVOPUS_STM_Init:
 364              	.LFB1431:
 128:Middlewares/ST/STM32_WPAN/ble/svc/Src/svc_ctl.c **** __WEAK void BVOPUS_STM_Init( void )
 129:Middlewares/ST/STM32_WPAN/ble/svc/Src/svc_ctl.c **** {
 365              		.loc 1 129 1 is_stmt 1 view -0
 366              		.cfi_startproc
 367              		@ args = 0, pretend = 0, frame = 0
 368              		@ frame_needed = 0, uses_anonymous_args = 0
 369              		@ link register save eliminated.
 130:Middlewares/ST/STM32_WPAN/ble/svc/Src/svc_ctl.c ****   return;
 370              		.loc 1 130 3 view .LVU49
 131:Middlewares/ST/STM32_WPAN/ble/svc/Src/svc_ctl.c **** }
 371              		.loc 1 131 1 is_stmt 0 view .LVU50
 372 0000 7047     		bx	lr
 373              		.cfi_endproc
 374              	.LFE1431:
 376              		.section	.text.SVCCTL_InitCustomSvc,"ax",%progbits
 377              		.align	1
 378              		.weak	SVCCTL_InitCustomSvc
 379              		.syntax unified
 380              		.thumb
 381              		.thumb_func
 382              		.fpu fpv4-sp-d16
 384              	SVCCTL_InitCustomSvc:
 385              	.LFB1432:
 132:Middlewares/ST/STM32_WPAN/ble/svc/Src/svc_ctl.c **** __WEAK void SVCCTL_InitCustomSvc( void )
 133:Middlewares/ST/STM32_WPAN/ble/svc/Src/svc_ctl.c **** {
 386              		.loc 1 133 1 is_stmt 1 view -0
 387              		.cfi_startproc
 388              		@ args = 0, pretend = 0, frame = 0
 389              		@ frame_needed = 0, uses_anonymous_args = 0
 390              		@ link register save eliminated.
 134:Middlewares/ST/STM32_WPAN/ble/svc/Src/svc_ctl.c ****   return;
 391              		.loc 1 134 3 view .LVU52
 135:Middlewares/ST/STM32_WPAN/ble/svc/Src/svc_ctl.c **** }
 392              		.loc 1 135 1 is_stmt 0 view .LVU53
 393 0000 7047     		bx	lr
 394              		.cfi_endproc
 395              	.LFE1432:
 397              		.section	.text.SVCCTL_SvcInit,"ax",%progbits
 398              		.align	1
 399              		.weak	SVCCTL_SvcInit
 400              		.syntax unified
 401              		.thumb
 402              		.thumb_func
 403              		.fpu fpv4-sp-d16
 405              	SVCCTL_SvcInit:
 406              	.LFB1434:
 136:Middlewares/ST/STM32_WPAN/ble/svc/Src/svc_ctl.c **** 
 137:Middlewares/ST/STM32_WPAN/ble/svc/Src/svc_ctl.c **** /* Functions Definition ------------------------------------------------------*/
 138:Middlewares/ST/STM32_WPAN/ble/svc/Src/svc_ctl.c **** 
 139:Middlewares/ST/STM32_WPAN/ble/svc/Src/svc_ctl.c **** void SVCCTL_Init( void )
 140:Middlewares/ST/STM32_WPAN/ble/svc/Src/svc_ctl.c **** {
 141:Middlewares/ST/STM32_WPAN/ble/svc/Src/svc_ctl.c ****  
 142:Middlewares/ST/STM32_WPAN/ble/svc/Src/svc_ctl.c ****   /**
 143:Middlewares/ST/STM32_WPAN/ble/svc/Src/svc_ctl.c ****    * Initialize the number of registered Handler
 144:Middlewares/ST/STM32_WPAN/ble/svc/Src/svc_ctl.c ****    */
ARM GAS  /var/folders/lt/l_qrc8c54t93n_phsj7cf5tc0000gn/T//cc2VRe6h.s 			page 10


 145:Middlewares/ST/STM32_WPAN/ble/svc/Src/svc_ctl.c ****   SVCCTL_EvtHandler.NbreOfRegisteredHandler = 0;
 146:Middlewares/ST/STM32_WPAN/ble/svc/Src/svc_ctl.c ****   SVCCTL_CltHandler.NbreOfRegisteredHandler = 0;
 147:Middlewares/ST/STM32_WPAN/ble/svc/Src/svc_ctl.c **** 
 148:Middlewares/ST/STM32_WPAN/ble/svc/Src/svc_ctl.c ****   /**
 149:Middlewares/ST/STM32_WPAN/ble/svc/Src/svc_ctl.c ****    * Add and Initialize requested services
 150:Middlewares/ST/STM32_WPAN/ble/svc/Src/svc_ctl.c ****    */
 151:Middlewares/ST/STM32_WPAN/ble/svc/Src/svc_ctl.c ****   SVCCTL_SvcInit();
 152:Middlewares/ST/STM32_WPAN/ble/svc/Src/svc_ctl.c **** 
 153:Middlewares/ST/STM32_WPAN/ble/svc/Src/svc_ctl.c ****   return;
 154:Middlewares/ST/STM32_WPAN/ble/svc/Src/svc_ctl.c **** }
 155:Middlewares/ST/STM32_WPAN/ble/svc/Src/svc_ctl.c **** 
 156:Middlewares/ST/STM32_WPAN/ble/svc/Src/svc_ctl.c **** __WEAK void SVCCTL_SvcInit(void)
 157:Middlewares/ST/STM32_WPAN/ble/svc/Src/svc_ctl.c **** {
 407              		.loc 1 157 1 is_stmt 1 view -0
 408              		.cfi_startproc
 409              		@ args = 0, pretend = 0, frame = 0
 410              		@ frame_needed = 0, uses_anonymous_args = 0
 411 0000 08B5     		push	{r3, lr}
 412              	.LCFI0:
 413              		.cfi_def_cfa_offset 8
 414              		.cfi_offset 3, -8
 415              		.cfi_offset 14, -4
 158:Middlewares/ST/STM32_WPAN/ble/svc/Src/svc_ctl.c ****   BAS_Init();
 416              		.loc 1 158 3 view .LVU55
 417 0002 FFF7FEFF 		bl	BAS_Init
 418              	.LVL0:
 159:Middlewares/ST/STM32_WPAN/ble/svc/Src/svc_ctl.c **** 
 160:Middlewares/ST/STM32_WPAN/ble/svc/Src/svc_ctl.c ****   BLS_Init();
 419              		.loc 1 160 3 view .LVU56
 420 0006 FFF7FEFF 		bl	BLS_Init
 421              	.LVL1:
 161:Middlewares/ST/STM32_WPAN/ble/svc/Src/svc_ctl.c **** 
 162:Middlewares/ST/STM32_WPAN/ble/svc/Src/svc_ctl.c ****   CRS_STM_Init();
 422              		.loc 1 162 3 view .LVU57
 423 000a FFF7FEFF 		bl	CRS_STM_Init
 424              	.LVL2:
 163:Middlewares/ST/STM32_WPAN/ble/svc/Src/svc_ctl.c **** 
 164:Middlewares/ST/STM32_WPAN/ble/svc/Src/svc_ctl.c ****   DIS_Init();
 425              		.loc 1 164 3 view .LVU58
 426 000e FFF7FEFF 		bl	DIS_Init
 427              	.LVL3:
 165:Middlewares/ST/STM32_WPAN/ble/svc/Src/svc_ctl.c **** 
 166:Middlewares/ST/STM32_WPAN/ble/svc/Src/svc_ctl.c ****   EDS_STM_Init();
 428              		.loc 1 166 3 view .LVU59
 429 0012 FFF7FEFF 		bl	EDS_STM_Init
 430              	.LVL4:
 167:Middlewares/ST/STM32_WPAN/ble/svc/Src/svc_ctl.c **** 
 168:Middlewares/ST/STM32_WPAN/ble/svc/Src/svc_ctl.c ****   HIDS_Init();
 431              		.loc 1 168 3 view .LVU60
 432 0016 FFF7FEFF 		bl	HIDS_Init
 433              	.LVL5:
 169:Middlewares/ST/STM32_WPAN/ble/svc/Src/svc_ctl.c **** 
 170:Middlewares/ST/STM32_WPAN/ble/svc/Src/svc_ctl.c ****   HRS_Init();
 434              		.loc 1 170 3 view .LVU61
 435 001a FFF7FEFF 		bl	HRS_Init
 436              	.LVL6:
 171:Middlewares/ST/STM32_WPAN/ble/svc/Src/svc_ctl.c **** 
ARM GAS  /var/folders/lt/l_qrc8c54t93n_phsj7cf5tc0000gn/T//cc2VRe6h.s 			page 11


 172:Middlewares/ST/STM32_WPAN/ble/svc/Src/svc_ctl.c ****   HTS_Init();
 437              		.loc 1 172 3 view .LVU62
 438 001e FFF7FEFF 		bl	HTS_Init
 439              	.LVL7:
 173:Middlewares/ST/STM32_WPAN/ble/svc/Src/svc_ctl.c **** 
 174:Middlewares/ST/STM32_WPAN/ble/svc/Src/svc_ctl.c ****   IAS_Init();
 440              		.loc 1 174 3 view .LVU63
 441 0022 FFF7FEFF 		bl	IAS_Init
 442              	.LVL8:
 175:Middlewares/ST/STM32_WPAN/ble/svc/Src/svc_ctl.c **** 
 176:Middlewares/ST/STM32_WPAN/ble/svc/Src/svc_ctl.c ****   LLS_Init();
 443              		.loc 1 176 3 view .LVU64
 444 0026 FFF7FEFF 		bl	LLS_Init
 445              	.LVL9:
 177:Middlewares/ST/STM32_WPAN/ble/svc/Src/svc_ctl.c **** 
 178:Middlewares/ST/STM32_WPAN/ble/svc/Src/svc_ctl.c ****   TPS_Init();
 446              		.loc 1 178 3 view .LVU65
 447 002a FFF7FEFF 		bl	TPS_Init
 448              	.LVL10:
 179:Middlewares/ST/STM32_WPAN/ble/svc/Src/svc_ctl.c **** 
 180:Middlewares/ST/STM32_WPAN/ble/svc/Src/svc_ctl.c ****   MOTENV_STM_Init();
 449              		.loc 1 180 3 view .LVU66
 450 002e FFF7FEFF 		bl	MOTENV_STM_Init
 451              	.LVL11:
 181:Middlewares/ST/STM32_WPAN/ble/svc/Src/svc_ctl.c **** 
 182:Middlewares/ST/STM32_WPAN/ble/svc/Src/svc_ctl.c ****   P2PS_STM_Init();
 452              		.loc 1 182 3 view .LVU67
 453 0032 FFF7FEFF 		bl	P2PS_STM_Init
 454              	.LVL12:
 183:Middlewares/ST/STM32_WPAN/ble/svc/Src/svc_ctl.c **** 
 184:Middlewares/ST/STM32_WPAN/ble/svc/Src/svc_ctl.c ****   ZDD_STM_Init();
 455              		.loc 1 184 3 view .LVU68
 456 0036 FFF7FEFF 		bl	ZDD_STM_Init
 457              	.LVL13:
 185:Middlewares/ST/STM32_WPAN/ble/svc/Src/svc_ctl.c **** 
 186:Middlewares/ST/STM32_WPAN/ble/svc/Src/svc_ctl.c ****   OTAS_STM_Init();
 458              		.loc 1 186 3 view .LVU69
 459 003a FFF7FEFF 		bl	OTAS_STM_Init
 460              	.LVL14:
 187:Middlewares/ST/STM32_WPAN/ble/svc/Src/svc_ctl.c ****   
 188:Middlewares/ST/STM32_WPAN/ble/svc/Src/svc_ctl.c ****   BVOPUS_STM_Init();
 461              		.loc 1 188 3 view .LVU70
 462 003e FFF7FEFF 		bl	BVOPUS_STM_Init
 463              	.LVL15:
 189:Middlewares/ST/STM32_WPAN/ble/svc/Src/svc_ctl.c **** 
 190:Middlewares/ST/STM32_WPAN/ble/svc/Src/svc_ctl.c ****   MESH_Init();
 464              		.loc 1 190 3 view .LVU71
 465 0042 FFF7FEFF 		bl	MESH_Init
 466              	.LVL16:
 191:Middlewares/ST/STM32_WPAN/ble/svc/Src/svc_ctl.c **** 
 192:Middlewares/ST/STM32_WPAN/ble/svc/Src/svc_ctl.c ****   SVCCTL_InitCustomSvc();
 467              		.loc 1 192 3 view .LVU72
 468 0046 FFF7FEFF 		bl	SVCCTL_InitCustomSvc
 469              	.LVL17:
 193:Middlewares/ST/STM32_WPAN/ble/svc/Src/svc_ctl.c ****   
 194:Middlewares/ST/STM32_WPAN/ble/svc/Src/svc_ctl.c ****   return;
 470              		.loc 1 194 3 view .LVU73
ARM GAS  /var/folders/lt/l_qrc8c54t93n_phsj7cf5tc0000gn/T//cc2VRe6h.s 			page 12


 195:Middlewares/ST/STM32_WPAN/ble/svc/Src/svc_ctl.c **** }
 471              		.loc 1 195 1 is_stmt 0 view .LVU74
 472 004a 08BD     		pop	{r3, pc}
 473              		.cfi_endproc
 474              	.LFE1434:
 476              		.section	.text.SVCCTL_Init,"ax",%progbits
 477              		.align	1
 478              		.global	SVCCTL_Init
 479              		.syntax unified
 480              		.thumb
 481              		.thumb_func
 482              		.fpu fpv4-sp-d16
 484              	SVCCTL_Init:
 485              	.LFB1433:
 140:Middlewares/ST/STM32_WPAN/ble/svc/Src/svc_ctl.c ****  
 486              		.loc 1 140 1 is_stmt 1 view -0
 487              		.cfi_startproc
 488              		@ args = 0, pretend = 0, frame = 0
 489              		@ frame_needed = 0, uses_anonymous_args = 0
 490 0000 08B5     		push	{r3, lr}
 491              	.LCFI1:
 492              		.cfi_def_cfa_offset 8
 493              		.cfi_offset 3, -8
 494              		.cfi_offset 14, -4
 145:Middlewares/ST/STM32_WPAN/ble/svc/Src/svc_ctl.c ****   SVCCTL_CltHandler.NbreOfRegisteredHandler = 0;
 495              		.loc 1 145 3 view .LVU76
 145:Middlewares/ST/STM32_WPAN/ble/svc/Src/svc_ctl.c ****   SVCCTL_CltHandler.NbreOfRegisteredHandler = 0;
 496              		.loc 1 145 45 is_stmt 0 view .LVU77
 497 0002 034B     		ldr	r3, .L23
 498 0004 0022     		movs	r2, #0
 499 0006 1A71     		strb	r2, [r3, #4]
 146:Middlewares/ST/STM32_WPAN/ble/svc/Src/svc_ctl.c **** 
 500              		.loc 1 146 3 is_stmt 1 view .LVU78
 146:Middlewares/ST/STM32_WPAN/ble/svc/Src/svc_ctl.c **** 
 501              		.loc 1 146 45 is_stmt 0 view .LVU79
 502 0008 1A72     		strb	r2, [r3, #8]
 151:Middlewares/ST/STM32_WPAN/ble/svc/Src/svc_ctl.c **** 
 503              		.loc 1 151 3 is_stmt 1 view .LVU80
 504 000a FFF7FEFF 		bl	SVCCTL_SvcInit
 505              	.LVL18:
 153:Middlewares/ST/STM32_WPAN/ble/svc/Src/svc_ctl.c **** }
 506              		.loc 1 153 3 view .LVU81
 154:Middlewares/ST/STM32_WPAN/ble/svc/Src/svc_ctl.c **** 
 507              		.loc 1 154 1 is_stmt 0 view .LVU82
 508 000e 08BD     		pop	{r3, pc}
 509              	.L24:
 510              		.align	2
 511              	.L23:
 512 0010 00000000 		.word	.LANCHOR0
 513              		.cfi_endproc
 514              	.LFE1433:
 516              		.section	.text.SVCCTL_RegisterSvcHandler,"ax",%progbits
 517              		.align	1
 518              		.global	SVCCTL_RegisterSvcHandler
 519              		.syntax unified
 520              		.thumb
 521              		.thumb_func
ARM GAS  /var/folders/lt/l_qrc8c54t93n_phsj7cf5tc0000gn/T//cc2VRe6h.s 			page 13


 522              		.fpu fpv4-sp-d16
 524              	SVCCTL_RegisterSvcHandler:
 525              	.LVL19:
 526              	.LFB1435:
 196:Middlewares/ST/STM32_WPAN/ble/svc/Src/svc_ctl.c **** 
 197:Middlewares/ST/STM32_WPAN/ble/svc/Src/svc_ctl.c **** /**
 198:Middlewares/ST/STM32_WPAN/ble/svc/Src/svc_ctl.c ****  * @brief  BLE Controller initialization
 199:Middlewares/ST/STM32_WPAN/ble/svc/Src/svc_ctl.c ****  * @param  None
 200:Middlewares/ST/STM32_WPAN/ble/svc/Src/svc_ctl.c ****  * @retval None
 201:Middlewares/ST/STM32_WPAN/ble/svc/Src/svc_ctl.c ****  */
 202:Middlewares/ST/STM32_WPAN/ble/svc/Src/svc_ctl.c **** void SVCCTL_RegisterSvcHandler( SVC_CTL_p_EvtHandler_t pfBLE_SVC_Service_Event_Handler )
 203:Middlewares/ST/STM32_WPAN/ble/svc/Src/svc_ctl.c **** {
 527              		.loc 1 203 1 is_stmt 1 view -0
 528              		.cfi_startproc
 529              		@ args = 0, pretend = 0, frame = 0
 530              		@ frame_needed = 0, uses_anonymous_args = 0
 531              		@ link register save eliminated.
 204:Middlewares/ST/STM32_WPAN/ble/svc/Src/svc_ctl.c **** #if (BLE_CFG_SVC_MAX_NBR_CB > 0)
 205:Middlewares/ST/STM32_WPAN/ble/svc/Src/svc_ctl.c ****   SVCCTL_EvtHandler.SVCCTL__SvcHandlerTab[SVCCTL_EvtHandler.NbreOfRegisteredHandler] = pfBLE_SVC_Se
 532              		.loc 1 205 3 view .LVU84
 533              		.loc 1 205 60 is_stmt 0 view .LVU85
 534 0000 034A     		ldr	r2, .L26
 535 0002 1379     		ldrb	r3, [r2, #4]	@ zero_extendqisi2
 536              		.loc 1 205 86 view .LVU86
 537 0004 42F82300 		str	r0, [r2, r3, lsl #2]
 206:Middlewares/ST/STM32_WPAN/ble/svc/Src/svc_ctl.c ****   SVCCTL_EvtHandler.NbreOfRegisteredHandler++;
 538              		.loc 1 206 3 is_stmt 1 view .LVU87
 539              		.loc 1 206 44 is_stmt 0 view .LVU88
 540 0008 0133     		adds	r3, r3, #1
 541 000a 1371     		strb	r3, [r2, #4]
 207:Middlewares/ST/STM32_WPAN/ble/svc/Src/svc_ctl.c **** #else
 208:Middlewares/ST/STM32_WPAN/ble/svc/Src/svc_ctl.c ****   (void)(pfBLE_SVC_Service_Event_Handler);
 209:Middlewares/ST/STM32_WPAN/ble/svc/Src/svc_ctl.c **** #endif
 210:Middlewares/ST/STM32_WPAN/ble/svc/Src/svc_ctl.c **** 
 211:Middlewares/ST/STM32_WPAN/ble/svc/Src/svc_ctl.c ****   return;
 542              		.loc 1 211 3 is_stmt 1 view .LVU89
 212:Middlewares/ST/STM32_WPAN/ble/svc/Src/svc_ctl.c **** }
 543              		.loc 1 212 1 is_stmt 0 view .LVU90
 544 000c 7047     		bx	lr
 545              	.L27:
 546 000e 00BF     		.align	2
 547              	.L26:
 548 0010 00000000 		.word	.LANCHOR0
 549              		.cfi_endproc
 550              	.LFE1435:
 552              		.section	.text.SVCCTL_RegisterCltHandler,"ax",%progbits
 553              		.align	1
 554              		.global	SVCCTL_RegisterCltHandler
 555              		.syntax unified
 556              		.thumb
 557              		.thumb_func
 558              		.fpu fpv4-sp-d16
 560              	SVCCTL_RegisterCltHandler:
 561              	.LVL20:
 562              	.LFB1436:
 213:Middlewares/ST/STM32_WPAN/ble/svc/Src/svc_ctl.c **** 
 214:Middlewares/ST/STM32_WPAN/ble/svc/Src/svc_ctl.c **** /**
ARM GAS  /var/folders/lt/l_qrc8c54t93n_phsj7cf5tc0000gn/T//cc2VRe6h.s 			page 14


 215:Middlewares/ST/STM32_WPAN/ble/svc/Src/svc_ctl.c ****  * @brief  BLE Controller initialization
 216:Middlewares/ST/STM32_WPAN/ble/svc/Src/svc_ctl.c ****  * @param  None
 217:Middlewares/ST/STM32_WPAN/ble/svc/Src/svc_ctl.c ****  * @retval None
 218:Middlewares/ST/STM32_WPAN/ble/svc/Src/svc_ctl.c ****  */
 219:Middlewares/ST/STM32_WPAN/ble/svc/Src/svc_ctl.c **** void SVCCTL_RegisterCltHandler( SVC_CTL_p_EvtHandler_t pfBLE_SVC_Client_Event_Handler )
 220:Middlewares/ST/STM32_WPAN/ble/svc/Src/svc_ctl.c **** {
 563              		.loc 1 220 1 is_stmt 1 view -0
 564              		.cfi_startproc
 565              		@ args = 0, pretend = 0, frame = 0
 566              		@ frame_needed = 0, uses_anonymous_args = 0
 567              		@ link register save eliminated.
 221:Middlewares/ST/STM32_WPAN/ble/svc/Src/svc_ctl.c **** #if (BLE_CFG_CLT_MAX_NBR_CB > 0)
 222:Middlewares/ST/STM32_WPAN/ble/svc/Src/svc_ctl.c ****   SVCCTL_CltHandler.SVCCTL_CltHandlerTable[SVCCTL_CltHandler.NbreOfRegisteredHandler] = pfBLE_SVC_C
 223:Middlewares/ST/STM32_WPAN/ble/svc/Src/svc_ctl.c ****   SVCCTL_CltHandler.NbreOfRegisteredHandler++;
 224:Middlewares/ST/STM32_WPAN/ble/svc/Src/svc_ctl.c **** #else
 225:Middlewares/ST/STM32_WPAN/ble/svc/Src/svc_ctl.c ****   (void)(pfBLE_SVC_Client_Event_Handler);
 568              		.loc 1 225 3 view .LVU92
 226:Middlewares/ST/STM32_WPAN/ble/svc/Src/svc_ctl.c **** #endif
 227:Middlewares/ST/STM32_WPAN/ble/svc/Src/svc_ctl.c **** 
 228:Middlewares/ST/STM32_WPAN/ble/svc/Src/svc_ctl.c ****   return;
 569              		.loc 1 228 3 view .LVU93
 229:Middlewares/ST/STM32_WPAN/ble/svc/Src/svc_ctl.c **** }
 570              		.loc 1 229 1 is_stmt 0 view .LVU94
 571 0000 7047     		bx	lr
 572              		.cfi_endproc
 573              	.LFE1436:
 575              		.section	.text.SVCCTL_UserEvtRx,"ax",%progbits
 576              		.align	1
 577              		.weak	SVCCTL_UserEvtRx
 578              		.syntax unified
 579              		.thumb
 580              		.thumb_func
 581              		.fpu fpv4-sp-d16
 583              	SVCCTL_UserEvtRx:
 584              	.LVL21:
 585              	.LFB1437:
 230:Middlewares/ST/STM32_WPAN/ble/svc/Src/svc_ctl.c **** 
 231:Middlewares/ST/STM32_WPAN/ble/svc/Src/svc_ctl.c **** __WEAK SVCCTL_UserEvtFlowStatus_t SVCCTL_UserEvtRx( void *pckt )
 232:Middlewares/ST/STM32_WPAN/ble/svc/Src/svc_ctl.c **** {
 586              		.loc 1 232 1 is_stmt 1 view -0
 587              		.cfi_startproc
 588              		@ args = 0, pretend = 0, frame = 0
 589              		@ frame_needed = 0, uses_anonymous_args = 0
 590              		.loc 1 232 1 is_stmt 0 view .LVU96
 591 0000 38B5     		push	{r3, r4, r5, lr}
 592              	.LCFI2:
 593              		.cfi_def_cfa_offset 16
 594              		.cfi_offset 3, -16
 595              		.cfi_offset 4, -12
 596              		.cfi_offset 5, -8
 597              		.cfi_offset 14, -4
 598 0002 0546     		mov	r5, r0
 233:Middlewares/ST/STM32_WPAN/ble/svc/Src/svc_ctl.c ****   hci_event_pckt *event_pckt;
 599              		.loc 1 233 3 is_stmt 1 view .LVU97
 234:Middlewares/ST/STM32_WPAN/ble/svc/Src/svc_ctl.c ****   evt_blecore_aci *blecore_evt;
 600              		.loc 1 234 3 view .LVU98
 235:Middlewares/ST/STM32_WPAN/ble/svc/Src/svc_ctl.c ****   SVCCTL_EvtAckStatus_t event_notification_status;
ARM GAS  /var/folders/lt/l_qrc8c54t93n_phsj7cf5tc0000gn/T//cc2VRe6h.s 			page 15


 601              		.loc 1 235 3 view .LVU99
 236:Middlewares/ST/STM32_WPAN/ble/svc/Src/svc_ctl.c ****   SVCCTL_UserEvtFlowStatus_t return_status;
 602              		.loc 1 236 3 view .LVU100
 237:Middlewares/ST/STM32_WPAN/ble/svc/Src/svc_ctl.c ****   uint8_t index;
 603              		.loc 1 237 3 view .LVU101
 238:Middlewares/ST/STM32_WPAN/ble/svc/Src/svc_ctl.c **** 
 239:Middlewares/ST/STM32_WPAN/ble/svc/Src/svc_ctl.c ****   event_pckt = (hci_event_pckt*) ((hci_uart_pckt *) pckt)->data;
 604              		.loc 1 239 3 view .LVU102
 605              	.LVL22:
 240:Middlewares/ST/STM32_WPAN/ble/svc/Src/svc_ctl.c ****   event_notification_status = SVCCTL_EvtNotAck;
 606              		.loc 1 240 3 view .LVU103
 241:Middlewares/ST/STM32_WPAN/ble/svc/Src/svc_ctl.c **** 
 242:Middlewares/ST/STM32_WPAN/ble/svc/Src/svc_ctl.c ****   switch (event_pckt->evt)
 607              		.loc 1 242 3 view .LVU104
 608              		.loc 1 242 21 is_stmt 0 view .LVU105
 609 0004 4378     		ldrb	r3, [r0, #1]	@ zero_extendqisi2
 610              		.loc 1 242 3 view .LVU106
 611 0006 FF2B     		cmp	r3, #255
 612 0008 06D1     		bne	.L30
 243:Middlewares/ST/STM32_WPAN/ble/svc/Src/svc_ctl.c ****   {
 244:Middlewares/ST/STM32_WPAN/ble/svc/Src/svc_ctl.c ****     case HCI_VENDOR_SPECIFIC_DEBUG_EVT_CODE:
 245:Middlewares/ST/STM32_WPAN/ble/svc/Src/svc_ctl.c ****     {
 246:Middlewares/ST/STM32_WPAN/ble/svc/Src/svc_ctl.c ****       blecore_evt = (evt_blecore_aci*) event_pckt->data;
 613              		.loc 1 246 7 is_stmt 1 view .LVU107
 614              	.LVL23:
 247:Middlewares/ST/STM32_WPAN/ble/svc/Src/svc_ctl.c **** 
 248:Middlewares/ST/STM32_WPAN/ble/svc/Src/svc_ctl.c ****       switch ((blecore_evt->ecode) & SVCCTL_EGID_EVT_MASK)
 615              		.loc 1 248 7 view .LVU108
 616              		.loc 1 248 27 is_stmt 0 view .LVU109
 617 000a B0F80330 		ldrh	r3, [r0, #3]	@ unaligned
 618 000e 03F47F43 		and	r3, r3, #65280
 619 0012 B3F5406F 		cmp	r3, #3072
 620 0016 03D0     		beq	.L38
 621              	.LVL24:
 622              	.L30:
 249:Middlewares/ST/STM32_WPAN/ble/svc/Src/svc_ctl.c ****       {
 250:Middlewares/ST/STM32_WPAN/ble/svc/Src/svc_ctl.c ****         case SVCCTL_GATT_EVT_TYPE:
 251:Middlewares/ST/STM32_WPAN/ble/svc/Src/svc_ctl.c **** #if (BLE_CFG_SVC_MAX_NBR_CB > 0)
 252:Middlewares/ST/STM32_WPAN/ble/svc/Src/svc_ctl.c ****           /* For Service event handler */
 253:Middlewares/ST/STM32_WPAN/ble/svc/Src/svc_ctl.c ****           for (index = 0; index < SVCCTL_EvtHandler.NbreOfRegisteredHandler; index++)
 254:Middlewares/ST/STM32_WPAN/ble/svc/Src/svc_ctl.c ****           {
 255:Middlewares/ST/STM32_WPAN/ble/svc/Src/svc_ctl.c ****             event_notification_status = SVCCTL_EvtHandler.SVCCTL__SvcHandlerTab[index](pckt);
 256:Middlewares/ST/STM32_WPAN/ble/svc/Src/svc_ctl.c ****             /**
 257:Middlewares/ST/STM32_WPAN/ble/svc/Src/svc_ctl.c ****              * When a GATT event has been acknowledged by a Service, there is no need to call the o
 258:Middlewares/ST/STM32_WPAN/ble/svc/Src/svc_ctl.c ****              * a GATT event is relevant for only one Service
 259:Middlewares/ST/STM32_WPAN/ble/svc/Src/svc_ctl.c ****              */
 260:Middlewares/ST/STM32_WPAN/ble/svc/Src/svc_ctl.c ****             if (event_notification_status != SVCCTL_EvtNotAck)
 261:Middlewares/ST/STM32_WPAN/ble/svc/Src/svc_ctl.c ****             {
 262:Middlewares/ST/STM32_WPAN/ble/svc/Src/svc_ctl.c ****               /**
 263:Middlewares/ST/STM32_WPAN/ble/svc/Src/svc_ctl.c ****                *  The event has been managed. The Event processing should be stopped
 264:Middlewares/ST/STM32_WPAN/ble/svc/Src/svc_ctl.c ****                */
 265:Middlewares/ST/STM32_WPAN/ble/svc/Src/svc_ctl.c ****               break;
 266:Middlewares/ST/STM32_WPAN/ble/svc/Src/svc_ctl.c ****             }
 267:Middlewares/ST/STM32_WPAN/ble/svc/Src/svc_ctl.c ****           }
 268:Middlewares/ST/STM32_WPAN/ble/svc/Src/svc_ctl.c **** #endif
 269:Middlewares/ST/STM32_WPAN/ble/svc/Src/svc_ctl.c **** #if (BLE_CFG_CLT_MAX_NBR_CB > 0)
 270:Middlewares/ST/STM32_WPAN/ble/svc/Src/svc_ctl.c ****           /* For Client event handler */
ARM GAS  /var/folders/lt/l_qrc8c54t93n_phsj7cf5tc0000gn/T//cc2VRe6h.s 			page 16


 271:Middlewares/ST/STM32_WPAN/ble/svc/Src/svc_ctl.c ****           event_notification_status = SVCCTL_EvtNotAck;
 272:Middlewares/ST/STM32_WPAN/ble/svc/Src/svc_ctl.c ****           for(index = 0; index <SVCCTL_CltHandler.NbreOfRegisteredHandler; index++)
 273:Middlewares/ST/STM32_WPAN/ble/svc/Src/svc_ctl.c ****           {
 274:Middlewares/ST/STM32_WPAN/ble/svc/Src/svc_ctl.c ****             event_notification_status = SVCCTL_CltHandler.SVCCTL_CltHandlerTable[index](pckt);
 275:Middlewares/ST/STM32_WPAN/ble/svc/Src/svc_ctl.c ****             /**
 276:Middlewares/ST/STM32_WPAN/ble/svc/Src/svc_ctl.c ****              * When a GATT event has been acknowledged by a Client, there is no need to call the ot
 277:Middlewares/ST/STM32_WPAN/ble/svc/Src/svc_ctl.c ****              * a GATT event is relevant for only one Client
 278:Middlewares/ST/STM32_WPAN/ble/svc/Src/svc_ctl.c ****              */
 279:Middlewares/ST/STM32_WPAN/ble/svc/Src/svc_ctl.c ****             if (event_notification_status != SVCCTL_EvtNotAck)
 280:Middlewares/ST/STM32_WPAN/ble/svc/Src/svc_ctl.c ****             {
 281:Middlewares/ST/STM32_WPAN/ble/svc/Src/svc_ctl.c ****               /**
 282:Middlewares/ST/STM32_WPAN/ble/svc/Src/svc_ctl.c ****                *  The event has been managed. The Event processing should be stopped
 283:Middlewares/ST/STM32_WPAN/ble/svc/Src/svc_ctl.c ****                */
 284:Middlewares/ST/STM32_WPAN/ble/svc/Src/svc_ctl.c ****               break;
 285:Middlewares/ST/STM32_WPAN/ble/svc/Src/svc_ctl.c ****             }
 286:Middlewares/ST/STM32_WPAN/ble/svc/Src/svc_ctl.c ****           }
 287:Middlewares/ST/STM32_WPAN/ble/svc/Src/svc_ctl.c **** #endif
 288:Middlewares/ST/STM32_WPAN/ble/svc/Src/svc_ctl.c ****           break;
 289:Middlewares/ST/STM32_WPAN/ble/svc/Src/svc_ctl.c **** 
 290:Middlewares/ST/STM32_WPAN/ble/svc/Src/svc_ctl.c ****         default:
 291:Middlewares/ST/STM32_WPAN/ble/svc/Src/svc_ctl.c ****           break;
 292:Middlewares/ST/STM32_WPAN/ble/svc/Src/svc_ctl.c ****       }
 293:Middlewares/ST/STM32_WPAN/ble/svc/Src/svc_ctl.c ****     }
 294:Middlewares/ST/STM32_WPAN/ble/svc/Src/svc_ctl.c ****       break; /* HCI_HCI_VENDOR_SPECIFIC_DEBUG_EVT_CODE_SPECIFIC */
 295:Middlewares/ST/STM32_WPAN/ble/svc/Src/svc_ctl.c **** 
 296:Middlewares/ST/STM32_WPAN/ble/svc/Src/svc_ctl.c ****     default:
 297:Middlewares/ST/STM32_WPAN/ble/svc/Src/svc_ctl.c ****       break;
 298:Middlewares/ST/STM32_WPAN/ble/svc/Src/svc_ctl.c ****   }
 299:Middlewares/ST/STM32_WPAN/ble/svc/Src/svc_ctl.c **** 
 300:Middlewares/ST/STM32_WPAN/ble/svc/Src/svc_ctl.c ****   /**
 301:Middlewares/ST/STM32_WPAN/ble/svc/Src/svc_ctl.c ****    * When no registered handlers (either Service or Client) has acknowledged the GATT event, it is 
 302:Middlewares/ST/STM32_WPAN/ble/svc/Src/svc_ctl.c ****    * a GAP event is always reported to the applicaiton.
 303:Middlewares/ST/STM32_WPAN/ble/svc/Src/svc_ctl.c ****    */
 304:Middlewares/ST/STM32_WPAN/ble/svc/Src/svc_ctl.c ****   switch (event_notification_status)
 305:Middlewares/ST/STM32_WPAN/ble/svc/Src/svc_ctl.c ****   {
 306:Middlewares/ST/STM32_WPAN/ble/svc/Src/svc_ctl.c ****     case SVCCTL_EvtNotAck:
 307:Middlewares/ST/STM32_WPAN/ble/svc/Src/svc_ctl.c ****       /**
 308:Middlewares/ST/STM32_WPAN/ble/svc/Src/svc_ctl.c ****        *  The event has NOT been managed.
 309:Middlewares/ST/STM32_WPAN/ble/svc/Src/svc_ctl.c ****        *  It shall be passed to the application for processing
 310:Middlewares/ST/STM32_WPAN/ble/svc/Src/svc_ctl.c ****        */
 311:Middlewares/ST/STM32_WPAN/ble/svc/Src/svc_ctl.c ****       return_status = SVCCTL_App_Notification(pckt);
 623              		.loc 1 311 7 is_stmt 1 view .LVU110
 624              		.loc 1 311 23 is_stmt 0 view .LVU111
 625 0018 2846     		mov	r0, r5
 626 001a FFF7FEFF 		bl	SVCCTL_App_Notification
 627              	.LVL25:
 312:Middlewares/ST/STM32_WPAN/ble/svc/Src/svc_ctl.c ****       break;
 628              		.loc 1 312 7 is_stmt 1 view .LVU112
 629              	.L34:
 313:Middlewares/ST/STM32_WPAN/ble/svc/Src/svc_ctl.c **** 
 314:Middlewares/ST/STM32_WPAN/ble/svc/Src/svc_ctl.c ****     case SVCCTL_EvtAckFlowEnable:
 315:Middlewares/ST/STM32_WPAN/ble/svc/Src/svc_ctl.c ****       return_status = SVCCTL_UserEvtFlowEnable;
 316:Middlewares/ST/STM32_WPAN/ble/svc/Src/svc_ctl.c ****       break;
 317:Middlewares/ST/STM32_WPAN/ble/svc/Src/svc_ctl.c **** 
 318:Middlewares/ST/STM32_WPAN/ble/svc/Src/svc_ctl.c ****     case SVCCTL_EvtAckFlowDisable:
 319:Middlewares/ST/STM32_WPAN/ble/svc/Src/svc_ctl.c ****       return_status = SVCCTL_UserEvtFlowDisable;
 320:Middlewares/ST/STM32_WPAN/ble/svc/Src/svc_ctl.c ****       break;
ARM GAS  /var/folders/lt/l_qrc8c54t93n_phsj7cf5tc0000gn/T//cc2VRe6h.s 			page 17


 321:Middlewares/ST/STM32_WPAN/ble/svc/Src/svc_ctl.c **** 
 322:Middlewares/ST/STM32_WPAN/ble/svc/Src/svc_ctl.c ****     default:
 323:Middlewares/ST/STM32_WPAN/ble/svc/Src/svc_ctl.c ****       return_status = SVCCTL_UserEvtFlowEnable;
 324:Middlewares/ST/STM32_WPAN/ble/svc/Src/svc_ctl.c ****       break;
 325:Middlewares/ST/STM32_WPAN/ble/svc/Src/svc_ctl.c ****   }
 326:Middlewares/ST/STM32_WPAN/ble/svc/Src/svc_ctl.c **** 
 327:Middlewares/ST/STM32_WPAN/ble/svc/Src/svc_ctl.c ****   return (return_status);
 630              		.loc 1 327 3 view .LVU113
 328:Middlewares/ST/STM32_WPAN/ble/svc/Src/svc_ctl.c **** }
 631              		.loc 1 328 1 is_stmt 0 view .LVU114
 632 001e 38BD     		pop	{r3, r4, r5, pc}
 633              	.LVL26:
 634              	.L38:
 253:Middlewares/ST/STM32_WPAN/ble/svc/Src/svc_ctl.c ****           {
 635              		.loc 1 253 22 view .LVU115
 636 0020 0024     		movs	r4, #0
 240:Middlewares/ST/STM32_WPAN/ble/svc/Src/svc_ctl.c **** 
 637              		.loc 1 240 29 view .LVU116
 638 0022 2246     		mov	r2, r4
 639              	.LVL27:
 640              	.L31:
 253:Middlewares/ST/STM32_WPAN/ble/svc/Src/svc_ctl.c ****           {
 641              		.loc 1 253 27 is_stmt 1 discriminator 1 view .LVU117
 253:Middlewares/ST/STM32_WPAN/ble/svc/Src/svc_ctl.c ****           {
 642              		.loc 1 253 52 is_stmt 0 discriminator 1 view .LVU118
 643 0024 0A4B     		ldr	r3, .L39
 644 0026 1B79     		ldrb	r3, [r3, #4]	@ zero_extendqisi2
 253:Middlewares/ST/STM32_WPAN/ble/svc/Src/svc_ctl.c ****           {
 645              		.loc 1 253 11 discriminator 1 view .LVU119
 646 0028 A342     		cmp	r3, r4
 647 002a 09D9     		bls	.L32
 255:Middlewares/ST/STM32_WPAN/ble/svc/Src/svc_ctl.c ****             /**
 648              		.loc 1 255 13 is_stmt 1 view .LVU120
 255:Middlewares/ST/STM32_WPAN/ble/svc/Src/svc_ctl.c ****             /**
 649              		.loc 1 255 80 is_stmt 0 view .LVU121
 650 002c 084B     		ldr	r3, .L39
 651 002e 53F82430 		ldr	r3, [r3, r4, lsl #2]
 255:Middlewares/ST/STM32_WPAN/ble/svc/Src/svc_ctl.c ****             /**
 652              		.loc 1 255 41 view .LVU122
 653 0032 2846     		mov	r0, r5
 654 0034 9847     		blx	r3
 655              	.LVL28:
 260:Middlewares/ST/STM32_WPAN/ble/svc/Src/svc_ctl.c ****             {
 656              		.loc 1 260 13 is_stmt 1 view .LVU123
 260:Middlewares/ST/STM32_WPAN/ble/svc/Src/svc_ctl.c ****             {
 657              		.loc 1 260 16 is_stmt 0 view .LVU124
 658 0036 0246     		mov	r2, r0
 659 0038 10B9     		cbnz	r0, .L32
 253:Middlewares/ST/STM32_WPAN/ble/svc/Src/svc_ctl.c ****           {
 660              		.loc 1 253 78 is_stmt 1 discriminator 2 view .LVU125
 253:Middlewares/ST/STM32_WPAN/ble/svc/Src/svc_ctl.c ****           {
 661              		.loc 1 253 83 is_stmt 0 discriminator 2 view .LVU126
 662 003a 0134     		adds	r4, r4, #1
 663              	.LVL29:
 253:Middlewares/ST/STM32_WPAN/ble/svc/Src/svc_ctl.c ****           {
 664              		.loc 1 253 83 discriminator 2 view .LVU127
 665 003c E4B2     		uxtb	r4, r4
ARM GAS  /var/folders/lt/l_qrc8c54t93n_phsj7cf5tc0000gn/T//cc2VRe6h.s 			page 18


 666              	.LVL30:
 253:Middlewares/ST/STM32_WPAN/ble/svc/Src/svc_ctl.c ****           {
 667              		.loc 1 253 83 discriminator 2 view .LVU128
 668 003e F1E7     		b	.L31
 669              	.LVL31:
 670              	.L32:
 304:Middlewares/ST/STM32_WPAN/ble/svc/Src/svc_ctl.c ****   {
 671              		.loc 1 304 3 is_stmt 1 view .LVU129
 672 0040 002A     		cmp	r2, #0
 673 0042 E9D0     		beq	.L30
 674 0044 022A     		cmp	r2, #2
 675 0046 01D1     		bne	.L36
 319:Middlewares/ST/STM32_WPAN/ble/svc/Src/svc_ctl.c ****       break;
 676              		.loc 1 319 21 is_stmt 0 view .LVU130
 677 0048 0020     		movs	r0, #0
 678 004a E8E7     		b	.L34
 679              	.L36:
 304:Middlewares/ST/STM32_WPAN/ble/svc/Src/svc_ctl.c ****   {
 680              		.loc 1 304 3 view .LVU131
 681 004c 0120     		movs	r0, #1
 682 004e E6E7     		b	.L34
 683              	.L40:
 684              		.align	2
 685              	.L39:
 686 0050 00000000 		.word	.LANCHOR0
 687              		.cfi_endproc
 688              	.LFE1437:
 690              		.global	SVCCTL_CltHandler
 691              		.global	SVCCTL_EvtHandler
 692              		.section	BLE_DRIVER_CONTEXT,"aw"
 693              		.align	2
 694              		.set	.LANCHOR0,. + 0
 697              	SVCCTL_EvtHandler:
 698 0000 00000000 		.space	8
 698      00000000 
 701              	SVCCTL_CltHandler:
 702 0008 00       		.space	1
 703              		.text
 704              	.Letext0:
 705              		.file 2 "/usr/local/Cellar/arm-none-eabi-gcc/9-2019-q4-major/gcc/arm-none-eabi/include/machine/_de
 706              		.file 3 "/usr/local/Cellar/arm-none-eabi-gcc/9-2019-q4-major/gcc/arm-none-eabi/include/sys/_stdint
 707              		.file 4 "/usr/local/Cellar/arm-none-eabi-gcc/9-2019-q4-major/gcc/arm-none-eabi/include/sys/lock.h"
 708              		.file 5 "/usr/local/Cellar/arm-none-eabi-gcc/9-2019-q4-major/gcc/arm-none-eabi/include/sys/_types.
 709              		.file 6 "/usr/local/Cellar/arm-none-eabi-gcc/9-2019-q4-major/gcc/lib/gcc/arm-none-eabi/9.2.1/inclu
 710              		.file 7 "/usr/local/Cellar/arm-none-eabi-gcc/9-2019-q4-major/gcc/arm-none-eabi/include/sys/reent.h
 711              		.file 8 "/usr/local/Cellar/arm-none-eabi-gcc/9-2019-q4-major/gcc/arm-none-eabi/include/stdlib.h"
 712              		.file 9 "Drivers/CMSIS/Include/core_cm4.h"
 713              		.file 10 "Drivers/CMSIS/Device/ST/STM32WBxx/Include/system_stm32wbxx.h"
 714              		.file 11 "Drivers/STM32WBxx_HAL_Driver/Inc/stm32wbxx_hal_def.h"
 715              		.file 12 "Drivers/STM32WBxx_HAL_Driver/Inc/stm32wbxx_hal_flash.h"
 716              		.file 13 "Drivers/STM32WBxx_HAL_Driver/Inc/stm32wbxx_hal_uart.h"
 717              		.file 14 "Drivers/STM32WBxx_HAL_Driver/Inc/stm32wbxx_hal.h"
 718              		.file 15 "Core/Inc/app_conf.h"
 719              		.file 16 "Middlewares/ST/STM32_WPAN/ble/core/auto/ble_events.h"
 720              		.file 17 "Middlewares/ST/STM32_WPAN/ble/core/ble_legacy.h"
 721              		.file 18 "Middlewares/ST/STM32_WPAN/ble/svc/Inc/svc_ctl.h"
ARM GAS  /var/folders/lt/l_qrc8c54t93n_phsj7cf5tc0000gn/T//cc2VRe6h.s 			page 19

